GAS LISTING D:\DOCUME~1\alex\LOCALS~1\Temp/ccPx0Pun.s 			page 1


   1               		.file	"main.c"
   2               	__SREG__ = 0x3f
   3               	__SP_H__ = 0x3e
   4               	__SP_L__ = 0x3d
   5               	__tmp_reg__ = 0
   6               	__zero_reg__ = 1
   7               		.global __do_copy_data
   8               		.global __do_clear_bss
   9               		.section	.debug_abbrev,"",@progbits
  10               	.Ldebug_abbrev0:
  11               		.section	.debug_info,"",@progbits
  12               	.Ldebug_info0:
  13               		.section	.debug_line,"",@progbits
  14               	.Ldebug_line0:
  15               		.text
  16               	.Ltext0:
  17               	.global	wait_until_key_pressed
  18               		.type	wait_until_key_pressed, @function
  19               	wait_until_key_pressed:
  20               	.LFB2:
  21               	.LM1:
  22               	/* prologue: frame size=0 */
  23               	/* prologue end (size=0) */
  24               	.L3:
  25               	.LM2:
  26 0000 93B3      		in r25,51-0x20
  27               	.LVL0:
  28               	.LM3:
  29 0002 83B3      		in r24,51-0x20
  30               	.LM4:
  31 0004 8923      		and r24,r25
  32 0006 80FD      		sbrc r24,0
  33 0008 00C0      		rjmp .L3
  34               	.L7:
  35               	.LM5:
  36 000a 989B      		sbis 51-0x20,0
  37 000c 00C0      		rjmp .L7
  38               	/* epilogue: frame size=0 */
  39 000e 0895      		ret
  40               	/* epilogue end (size=1) */
  41               	/* function wait_until_key_pressed size 8 (7) */
  42               	.LFE2:
  43               		.size	wait_until_key_pressed, .-wait_until_key_pressed
  44               		.data
  45               	.LC0:
  46 0000 4C43 4420 		.string	"LCD Test Line 1\n"
  46      5465 7374 
  46      204C 696E 
  46      6520 310A 
  46      00
  47               	.LC1:
  48 0011 4C69 6E65 		.string	"Line 2"
  48      2032 00
  49               	.LC2:
  50 0018 4375 724F 		.string	"CurOn"
  50      6E00 
  51               	.LC3:
GAS LISTING D:\DOCUME~1\alex\LOCALS~1\Temp/ccPx0Pun.s 			page 2


  52 001e 436F 7079 		.string	"Copyright: "
  52      7269 6768 
  52      743A 2000 
  53               		.text
  54               	.global	main
  55               		.type	main, @function
  56               	main:
  57               	.LFB3:
  58               	.LM6:
  59               	/* prologue: frame size=7 */
  60 0010 2F92      		push r2
  61 0012 3F92      		push r3
  62 0014 4F92      		push r4
  63 0016 5F92      		push r5
  64 0018 6F92      		push r6
  65 001a 7F92      		push r7
  66 001c 8F92      		push r8
  67 001e 9F92      		push r9
  68 0020 AF92      		push r10
  69 0022 BF92      		push r11
  70 0024 CF92      		push r12
  71 0026 DF92      		push r13
  72 0028 EF92      		push r14
  73 002a FF92      		push r15
  74 002c 0F93      		push r16
  75 002e 1F93      		push r17
  76 0030 CF93      		push r28
  77 0032 DF93      		push r29
  78 0034 CDB7      		in r28,__SP_L__
  79 0036 DEB7      		in r29,__SP_H__
  80 0038 2797      		sbiw r28,7
  81 003a 0FB6      		in __tmp_reg__,__SREG__
  82 003c F894      		cli
  83 003e DEBF      		out __SP_H__,r29
  84 0040 0FBE      		out __SREG__,__tmp_reg__
  85 0042 CDBF      		out __SP_L__,r28
  86               	/* prologue end (size=26) */
  87               	.LM7:
  88 0044 A098      		cbi 52-0x20,0
  89               	.LM8:
  90 0046 A89A      		sbi 53-0x20,0
  91               	.LM9:
  92 0048 14BA      		out 52-0x20,__zero_reg__
  93               	.LM10:
  94 004a 8FEF      		ldi r24,lo8(-1)
  95 004c 85BB      		out 53-0x20,r24
  96               	.LM11:
  97 004e 81BB      		out 49-0x20,r24
  98               	.LM12:
  99 0050 8CE0      		ldi r24,lo8(12)
 100 0052 0E94 0000 		call lcd_init
 101               	.LM13:
 102 0056 81E0      		ldi r24,lo8(1)
 103 0058 0E94 0000 		call lcd_backlight
 104 005c 50E0      		ldi r21,lo8(.LC1)
 105 005e 252E      		mov r2,r21
 106 0060 50E0      		ldi r21,hi8(.LC1)
GAS LISTING D:\DOCUME~1\alex\LOCALS~1\Temp/ccPx0Pun.s 			page 3


 107 0062 352E      		mov r3,r21
 108 0064 40E0      		ldi r20,lo8(.LC2)
 109 0066 442E      		mov r4,r20
 110 0068 40E0      		ldi r20,hi8(.LC2)
 111 006a 542E      		mov r5,r20
 112 006c 30E0      		ldi r19,lo8(__c.1759)
 113 006e 632E      		mov r6,r19
 114 0070 30E0      		ldi r19,hi8(__c.1759)
 115 0072 732E      		mov r7,r19
 116 0074 20E0      		ldi r18,lo8(__c.1761)
 117 0076 822E      		mov r8,r18
 118 0078 20E0      		ldi r18,hi8(__c.1761)
 119 007a 922E      		mov r9,r18
 120               	.LM14:
 121 007c 7E01      		movw r14,r28
 122 007e 0894      		sec
 123 0080 E11C      		adc r14,__zero_reg__
 124 0082 F11C      		adc r15,__zero_reg__
 125 0084 90E0      		ldi r25,lo8(.LC3)
 126 0086 A92E      		mov r10,r25
 127 0088 90E0      		ldi r25,hi8(.LC3)
 128 008a B92E      		mov r11,r25
 129               	.LM15:
 130 008c 80E0      		ldi r24,lo8(copyRightChar)
 131 008e C82E      		mov r12,r24
 132 0090 80E0      		ldi r24,hi8(copyRightChar)
 133 0092 D82E      		mov r13,r24
 134               	.L12:
 135               	.LM16:
 136 0094 0E94 0000 		call lcd_clrscr
 137               	.LM17:
 138 0098 80E0      		ldi r24,lo8(.LC0)
 139 009a 90E0      		ldi r25,hi8(.LC0)
 140 009c 0E94 0000 		call lcd_puts
 141               	.LM18:
 142 00a0 C101      		movw r24,r2
 143 00a2 0E94 0000 		call lcd_puts
 144               	.LM19:
 145 00a6 61E0      		ldi r22,lo8(1)
 146 00a8 87E0      		ldi r24,lo8(7)
 147 00aa 0E94 0000 		call lcd_gotoxy
 148               	.LM20:
 149 00ae 8AE3      		ldi r24,lo8(58)
 150 00b0 0E94 0000 		call lcd_putc
 151               	.LM21:
 152 00b4 0E94 0000 		call wait_until_key_pressed
 153               	.LM22:
 154 00b8 80E0      		ldi r24,lo8(0)
 155 00ba 0E94 0000 		call lcd_backlight
 156               	.LM23:
 157 00be 8EE0      		ldi r24,lo8(14)
 158 00c0 0E94 0000 		call lcd_command
 159               	.LM24:
 160 00c4 C201      		movw r24,r4
 161 00c6 0E94 0000 		call lcd_puts
 162               	.LM25:
 163 00ca 0E94 0000 		call wait_until_key_pressed
GAS LISTING D:\DOCUME~1\alex\LOCALS~1\Temp/ccPx0Pun.s 			page 4


 164               	.LM26:
 165 00ce 81E0      		ldi r24,lo8(1)
 166 00d0 0E94 0000 		call lcd_backlight
 167               	.LM27:
 168 00d4 0E94 0000 		call lcd_clrscr
 169               	.LM28:
 170 00d8 C301      		movw r24,r6
 171 00da 0E94 0000 		call lcd_puts_p
 172               	.LM29:
 173 00de C401      		movw r24,r8
 174 00e0 0E94 0000 		call lcd_puts_p
 175               	.LM30:
 176 00e4 88E1      		ldi r24,lo8(24)
 177 00e6 0E94 0000 		call lcd_command
 178               	.LM31:
 179 00ea 0E94 0000 		call wait_until_key_pressed
 180               	.LM32:
 181 00ee 80E0      		ldi r24,lo8(0)
 182 00f0 0E94 0000 		call lcd_backlight
 183               	.LM33:
 184 00f4 8CE0      		ldi r24,lo8(12)
 185 00f6 0E94 0000 		call lcd_command
 186               	.LM34:
 187 00fa 0E94 0000 		call lcd_clrscr
 188               	.LM35:
 189 00fe 4AE0      		ldi r20,lo8(10)
 190 0100 50E0      		ldi r21,hi8(10)
 191 0102 B701      		movw r22,r14
 192 0104 86E8      		ldi r24,lo8(134)
 193 0106 90E0      		ldi r25,hi8(134)
 194 0108 0E94 0000 		call itoa
 195               	.LM36:
 196 010c C701      		movw r24,r14
 197 010e 0E94 0000 		call lcd_puts
 198               	.LM37:
 199 0112 0E94 0000 		call wait_until_key_pressed
 200               	.LM38:
 201 0116 81E0      		ldi r24,lo8(1)
 202 0118 0E94 0000 		call lcd_backlight
 203               	.LM39:
 204 011c 0E94 0000 		call lcd_clrscr
 205               	.LM40:
 206 0120 C501      		movw r24,r10
 207 0122 0E94 0000 		call lcd_puts
 208               	.LM41:
 209 0126 80E4      		ldi r24,lo8(64)
 210 0128 0E94 0000 		call lcd_command
 211               	.LM42:
 212 012c 8601      		movw r16,r12
 213               	.L13:
 214               	.LBB2:
 215               	.LM43:
 216 012e F801      		movw r30,r16
 217               	/* #APP */
 218 0130 8491      		lpm r24, Z
 219               		
 220               	.LVL1:
GAS LISTING D:\DOCUME~1\alex\LOCALS~1\Temp/ccPx0Pun.s 			page 5


 221               	/* #NOAPP */
 222               	.LBE2:
 223 0132 0E94 0000 		call lcd_data
 224               	.LVL2:
 225 0136 0F5F      		subi r16,lo8(-(1))
 226 0138 1F4F      		sbci r17,hi8(-(1))
 227               	.LM44:
 228 013a F0E0      		ldi r31,hi8(copyRightChar+16)
 229 013c 0030      		cpi r16,lo8(copyRightChar+16)
 230 013e 1F07      		cpc r17,r31
 231 0140 01F4      		brne .L13
 232               	.LM45:
 233 0142 61E0      		ldi r22,lo8(1)
 234 0144 80E0      		ldi r24,lo8(0)
 235 0146 0E94 0000 		call lcd_gotoxy
 236               	.LM46:
 237 014a 80E0      		ldi r24,lo8(0)
 238 014c 0E94 0000 		call lcd_putc
 239               	.LM47:
 240 0150 81E0      		ldi r24,lo8(1)
 241 0152 0E94 0000 		call lcd_putc
 242               	.LM48:
 243 0156 0E94 0000 		call wait_until_key_pressed
 244               	.LM49:
 245 015a 80E0      		ldi r24,lo8(0)
 246 015c 0E94 0000 		call lcd_backlight
 247 0160 00C0      		rjmp .L12
 248               	/* epilogue: frame size=7 */
 249               	/* epilogue: noreturn */
 250               	/* epilogue end (size=0) */
 251               	/* function main size 172 (146) */
 252               	.LFE3:
 253               		.size	main, .-main
 254               		.section	.progmem.data,"a",@progbits
 255               		.type	copyRightChar, @object
 256               		.size	copyRightChar, 16
 257               	copyRightChar:
 258 0000 07        		.byte	7
 259 0001 08        		.byte	8
 260 0002 13        		.byte	19
 261 0003 14        		.byte	20
 262 0004 14        		.byte	20
 263 0005 13        		.byte	19
 264 0006 08        		.byte	8
 265 0007 07        		.byte	7
 266 0008 00        		.byte	0
 267 0009 10        		.byte	16
 268 000a 08        		.byte	8
 269 000b 08        		.byte	8
 270 000c 08        		.byte	8
 271 000d 08        		.byte	8
 272 000e 10        		.byte	16
 273 000f 00        		.byte	0
 274               		.type	__c.1761, @object
 275               		.size	__c.1761, 33
 276               	__c.1761:
 277 0010 4C69 6E65 		.string	"Line 2 longer than 14 characters"
GAS LISTING D:\DOCUME~1\alex\LOCALS~1\Temp/ccPx0Pun.s 			page 6


 277      2032 206C 
 277      6F6E 6765 
 277      7220 7468 
 277      616E 2031 
 278               		.type	__c.1759, @object
 279               		.size	__c.1759, 34
 280               	__c.1759:
 281 0031 4C69 6E65 		.string	"Line 1 longer than 14 characters\n"
 281      2031 206C 
 281      6F6E 6765 
 281      7220 7468 
 281      616E 2031 
 282               		.section	.debug_frame,"",@progbits
 283               	.Lframe0:
 284 0000 0C00 0000 		.long	.LECIE0-.LSCIE0
 285               	.LSCIE0:
 286 0004 FFFF FFFF 		.long	0xffffffff
 287 0008 01        		.byte	0x1
 288 0009 00        		.string	""
 289 000a 01        		.uleb128 0x1
 290 000b 7F        		.sleb128 -1
 291 000c 24        		.byte	0x24
 292 000d 0C        		.byte	0xc
 293 000e 20        		.uleb128 0x20
 294 000f 00        		.uleb128 0x0
 295               		.p2align	2
 296               	.LECIE0:
 297               	.LSFDE0:
 298 0010 0C00 0000 		.long	.LEFDE0-.LASFDE0
 299               	.LASFDE0:
 300 0014 0000 0000 		.long	.Lframe0
 301 0018 0000 0000 		.long	.LFB2
 302 001c 1000 0000 		.long	.LFE2-.LFB2
 303               		.p2align	2
 304               	.LEFDE0:
 305               	.LSFDE2:
 306 0020 0C00 0000 		.long	.LEFDE2-.LASFDE2
 307               	.LASFDE2:
 308 0024 0000 0000 		.long	.Lframe0
 309 0028 0000 0000 		.long	.LFB3
 310 002c 5201 0000 		.long	.LFE3-.LFB3
 311               		.p2align	2
 312               	.LEFDE2:
 313               		.text
 314               	.Letext0:
 315               		.section	.debug_loc,"",@progbits
 316               	.Ldebug_loc0:
 317               	.LLST2:
 318 0000 3201 0000 		.long	.LVL1-.Ltext0
 319 0004 3601 0000 		.long	.LVL2-.Ltext0
 320 0008 0100      		.word	0x1
 321 000a 68        		.byte	0x68
 322 000b 0000 0000 		.long	0x0
 323 000f 0000 0000 		.long	0x0
 324               		.section	.debug_info
 325 0000 A901 0000 		.long	0x1a9
 326 0004 0200      		.word	0x2
GAS LISTING D:\DOCUME~1\alex\LOCALS~1\Temp/ccPx0Pun.s 			page 7


 327 0006 0000 0000 		.long	.Ldebug_abbrev0
 328 000a 04        		.byte	0x4
 329 000b 01        		.uleb128 0x1
 330 000c 0000 0000 		.long	.LASF16
 331 0010 01        		.byte	0x1
 332 0011 0000 0000 		.long	.LASF17
 333 0015 0000 0000 		.long	.LASF18
 334 0019 0000 0000 		.long	.Ltext0
 335 001d 0000 0000 		.long	.Letext0
 336 0021 0000 0000 		.long	.Ldebug_line0
 337 0025 02        		.uleb128 0x2
 338 0026 02        		.byte	0x2
 339 0027 07        		.byte	0x7
 340 0028 0000 0000 		.long	.LASF0
 341 002c 03        		.uleb128 0x3
 342 002d 02        		.byte	0x2
 343 002e 05        		.byte	0x5
 344 002f 696E 7400 		.string	"int"
 345 0033 02        		.uleb128 0x2
 346 0034 04        		.byte	0x4
 347 0035 05        		.byte	0x5
 348 0036 0000 0000 		.long	.LASF1
 349 003a 02        		.uleb128 0x2
 350 003b 01        		.byte	0x1
 351 003c 06        		.byte	0x6
 352 003d 0000 0000 		.long	.LASF2
 353 0041 04        		.uleb128 0x4
 354 0042 0000 0000 		.long	.LASF4
 355 0046 02        		.byte	0x2
 356 0047 7A        		.byte	0x7a
 357 0048 4C00 0000 		.long	0x4c
 358 004c 02        		.uleb128 0x2
 359 004d 01        		.byte	0x1
 360 004e 08        		.byte	0x8
 361 004f 0000 0000 		.long	.LASF3
 362 0053 04        		.uleb128 0x4
 363 0054 0000 0000 		.long	.LASF5
 364 0058 02        		.byte	0x2
 365 0059 7C        		.byte	0x7c
 366 005a 2500 0000 		.long	0x25
 367 005e 02        		.uleb128 0x2
 368 005f 04        		.byte	0x4
 369 0060 07        		.byte	0x7
 370 0061 0000 0000 		.long	.LASF6
 371 0065 02        		.uleb128 0x2
 372 0066 08        		.byte	0x8
 373 0067 05        		.byte	0x5
 374 0068 0000 0000 		.long	.LASF7
 375 006c 02        		.uleb128 0x2
 376 006d 08        		.byte	0x8
 377 006e 07        		.byte	0x7
 378 006f 0000 0000 		.long	.LASF8
 379 0073 05        		.uleb128 0x5
 380 0074 01        		.byte	0x1
 381 0075 08        		.byte	0x8
 382 0076 06        		.uleb128 0x6
 383 0077 01        		.byte	0x1
GAS LISTING D:\DOCUME~1\alex\LOCALS~1\Temp/ccPx0Pun.s 			page 8


 384 0078 0000 0000 		.long	.LASF19
 385 007c 01        		.byte	0x1
 386 007d 21        		.byte	0x21
 387 007e 01        		.byte	0x1
 388 007f 0000 0000 		.long	.LFB2
 389 0083 0000 0000 		.long	.LFE2
 390 0087 02        		.byte	0x2
 391 0088 90        		.byte	0x90
 392 0089 20        		.uleb128 0x20
 393 008a B000 0000 		.long	0xb0
 394 008e 07        		.uleb128 0x7
 395 008f 0000 0000 		.long	.LASF10
 396 0093 01        		.byte	0x1
 397 0094 22        		.byte	0x22
 398 0095 4C00 0000 		.long	0x4c
 399 0099 01        		.byte	0x1
 400 009a 69        		.byte	0x69
 401 009b 08        		.uleb128 0x8
 402 009c 0000 0000 		.long	.LASF9
 403 00a0 01        		.byte	0x1
 404 00a1 22        		.byte	0x22
 405 00a2 4C00 0000 		.long	0x4c
 406 00a6 09        		.uleb128 0x9
 407 00a7 6900      		.string	"i"
 408 00a9 01        		.byte	0x1
 409 00aa 23        		.byte	0x23
 410 00ab 2500 0000 		.long	0x25
 411 00af 00        		.byte	0x0
 412 00b0 0A        		.uleb128 0xa
 413 00b1 01        		.byte	0x1
 414 00b2 0000 0000 		.long	.LASF20
 415 00b6 01        		.byte	0x1
 416 00b7 34        		.byte	0x34
 417 00b8 01        		.byte	0x1
 418 00b9 2C00 0000 		.long	0x2c
 419 00bd 0000 0000 		.long	.LFB3
 420 00c1 0000 0000 		.long	.LFE3
 421 00c5 02        		.byte	0x2
 422 00c6 90        		.byte	0x90
 423 00c7 20        		.uleb128 0x20
 424 00c8 4201 0000 		.long	0x142
 425 00cc 07        		.uleb128 0x7
 426 00cd 0000 0000 		.long	.LASF11
 427 00d1 01        		.byte	0x1
 428 00d2 35        		.byte	0x35
 429 00d3 4201 0000 		.long	0x142
 430 00d7 02        		.byte	0x2
 431 00d8 8C        		.byte	0x8c
 432 00d9 01        		.sleb128 1
 433 00da 09        		.uleb128 0x9
 434 00db 6E75 6D00 		.string	"num"
 435 00df 01        		.byte	0x1
 436 00e0 36        		.byte	0x36
 437 00e1 2C00 0000 		.long	0x2c
 438 00e5 09        		.uleb128 0x9
 439 00e6 6900      		.string	"i"
 440 00e8 01        		.byte	0x1
GAS LISTING D:\DOCUME~1\alex\LOCALS~1\Temp/ccPx0Pun.s 			page 9


 441 00e9 37        		.byte	0x37
 442 00ea 4C00 0000 		.long	0x4c
 443 00ee 09        		.uleb128 0x9
 444 00ef 7100      		.string	"q"
 445 00f1 01        		.byte	0x1
 446 00f2 38        		.byte	0x38
 447 00f3 4100 0000 		.long	0x41
 448 00f7 0B        		.uleb128 0xb
 449 00f8 0000 0000 		.long	.LBB2
 450 00fc 0000 0000 		.long	.LBE2
 451 0100 1F01 0000 		.long	0x11f
 452 0104 08        		.uleb128 0x8
 453 0105 0000 0000 		.long	.LASF12
 454 0109 01        		.byte	0x1
 455 010a AD        		.byte	0xad
 456 010b 5300 0000 		.long	0x53
 457 010f 0C        		.uleb128 0xc
 458 0110 0000 0000 		.long	.LASF13
 459 0114 01        		.byte	0x1
 460 0115 AD        		.byte	0xad
 461 0116 4100 0000 		.long	0x41
 462 011a 0000 0000 		.long	.LLST2
 463 011e 00        		.byte	0x0
 464 011f 0D        		.uleb128 0xd
 465 0120 5F5F 6300 		.string	"__c"
 466 0124 01        		.byte	0x1
 467 0125 81        		.byte	0x81
 468 0126 6C01 0000 		.long	0x16c
 469 012a 05        		.byte	0x5
 470 012b 03        		.byte	0x3
 471 012c 0000 0000 		.long	__c.1759
 472 0130 0D        		.uleb128 0xd
 473 0131 5F5F 6300 		.string	"__c"
 474 0135 01        		.byte	0x1
 475 0136 82        		.byte	0x82
 476 0137 8101 0000 		.long	0x181
 477 013b 05        		.byte	0x5
 478 013c 03        		.byte	0x3
 479 013d 0000 0000 		.long	__c.1761
 480 0141 00        		.byte	0x0
 481 0142 0E        		.uleb128 0xe
 482 0143 5501 0000 		.long	0x155
 483 0147 5201 0000 		.long	0x152
 484 014b 0F        		.uleb128 0xf
 485 014c 5201 0000 		.long	0x152
 486 0150 06        		.byte	0x6
 487 0151 00        		.byte	0x0
 488 0152 05        		.uleb128 0x5
 489 0153 02        		.byte	0x2
 490 0154 07        		.byte	0x7
 491 0155 02        		.uleb128 0x2
 492 0156 01        		.byte	0x1
 493 0157 08        		.byte	0x8
 494 0158 0000 0000 		.long	.LASF14
 495 015c 0E        		.uleb128 0xe
 496 015d 5501 0000 		.long	0x155
 497 0161 6C01 0000 		.long	0x16c
GAS LISTING D:\DOCUME~1\alex\LOCALS~1\Temp/ccPx0Pun.s 			page 10


 498 0165 0F        		.uleb128 0xf
 499 0166 5201 0000 		.long	0x152
 500 016a 21        		.byte	0x21
 501 016b 00        		.byte	0x0
 502 016c 10        		.uleb128 0x10
 503 016d 5C01 0000 		.long	0x15c
 504 0171 0E        		.uleb128 0xe
 505 0172 5501 0000 		.long	0x155
 506 0176 8101 0000 		.long	0x181
 507 017a 0F        		.uleb128 0xf
 508 017b 5201 0000 		.long	0x152
 509 017f 20        		.byte	0x20
 510 0180 00        		.byte	0x0
 511 0181 10        		.uleb128 0x10
 512 0182 7101 0000 		.long	0x171
 513 0186 0E        		.uleb128 0xe
 514 0187 4C00 0000 		.long	0x4c
 515 018b 9601 0000 		.long	0x196
 516 018f 0F        		.uleb128 0xf
 517 0190 5201 0000 		.long	0x152
 518 0194 0F        		.byte	0xf
 519 0195 00        		.byte	0x0
 520 0196 07        		.uleb128 0x7
 521 0197 0000 0000 		.long	.LASF15
 522 019b 01        		.byte	0x1
 523 019c 13        		.byte	0x13
 524 019d A701 0000 		.long	0x1a7
 525 01a1 05        		.byte	0x5
 526 01a2 03        		.byte	0x3
 527 01a3 0000 0000 		.long	copyRightChar
 528 01a7 10        		.uleb128 0x10
 529 01a8 8601 0000 		.long	0x186
 530 01ac 00        		.byte	0x0
 531               		.section	.debug_abbrev
 532 0000 01        		.uleb128 0x1
 533 0001 11        		.uleb128 0x11
 534 0002 01        		.byte	0x1
 535 0003 25        		.uleb128 0x25
 536 0004 0E        		.uleb128 0xe
 537 0005 13        		.uleb128 0x13
 538 0006 0B        		.uleb128 0xb
 539 0007 03        		.uleb128 0x3
 540 0008 0E        		.uleb128 0xe
 541 0009 1B        		.uleb128 0x1b
 542 000a 0E        		.uleb128 0xe
 543 000b 11        		.uleb128 0x11
 544 000c 01        		.uleb128 0x1
 545 000d 12        		.uleb128 0x12
 546 000e 01        		.uleb128 0x1
 547 000f 10        		.uleb128 0x10
 548 0010 06        		.uleb128 0x6
 549 0011 00        		.byte	0x0
 550 0012 00        		.byte	0x0
 551 0013 02        		.uleb128 0x2
 552 0014 24        		.uleb128 0x24
 553 0015 00        		.byte	0x0
 554 0016 0B        		.uleb128 0xb
GAS LISTING D:\DOCUME~1\alex\LOCALS~1\Temp/ccPx0Pun.s 			page 11


 555 0017 0B        		.uleb128 0xb
 556 0018 3E        		.uleb128 0x3e
 557 0019 0B        		.uleb128 0xb
 558 001a 03        		.uleb128 0x3
 559 001b 0E        		.uleb128 0xe
 560 001c 00        		.byte	0x0
 561 001d 00        		.byte	0x0
 562 001e 03        		.uleb128 0x3
 563 001f 24        		.uleb128 0x24
 564 0020 00        		.byte	0x0
 565 0021 0B        		.uleb128 0xb
 566 0022 0B        		.uleb128 0xb
 567 0023 3E        		.uleb128 0x3e
 568 0024 0B        		.uleb128 0xb
 569 0025 03        		.uleb128 0x3
 570 0026 08        		.uleb128 0x8
 571 0027 00        		.byte	0x0
 572 0028 00        		.byte	0x0
 573 0029 04        		.uleb128 0x4
 574 002a 16        		.uleb128 0x16
 575 002b 00        		.byte	0x0
 576 002c 03        		.uleb128 0x3
 577 002d 0E        		.uleb128 0xe
 578 002e 3A        		.uleb128 0x3a
 579 002f 0B        		.uleb128 0xb
 580 0030 3B        		.uleb128 0x3b
 581 0031 0B        		.uleb128 0xb
 582 0032 49        		.uleb128 0x49
 583 0033 13        		.uleb128 0x13
 584 0034 00        		.byte	0x0
 585 0035 00        		.byte	0x0
 586 0036 05        		.uleb128 0x5
 587 0037 24        		.uleb128 0x24
 588 0038 00        		.byte	0x0
 589 0039 0B        		.uleb128 0xb
 590 003a 0B        		.uleb128 0xb
 591 003b 3E        		.uleb128 0x3e
 592 003c 0B        		.uleb128 0xb
 593 003d 00        		.byte	0x0
 594 003e 00        		.byte	0x0
 595 003f 06        		.uleb128 0x6
 596 0040 2E        		.uleb128 0x2e
 597 0041 01        		.byte	0x1
 598 0042 3F        		.uleb128 0x3f
 599 0043 0C        		.uleb128 0xc
 600 0044 03        		.uleb128 0x3
 601 0045 0E        		.uleb128 0xe
 602 0046 3A        		.uleb128 0x3a
 603 0047 0B        		.uleb128 0xb
 604 0048 3B        		.uleb128 0x3b
 605 0049 0B        		.uleb128 0xb
 606 004a 27        		.uleb128 0x27
 607 004b 0C        		.uleb128 0xc
 608 004c 11        		.uleb128 0x11
 609 004d 01        		.uleb128 0x1
 610 004e 12        		.uleb128 0x12
 611 004f 01        		.uleb128 0x1
GAS LISTING D:\DOCUME~1\alex\LOCALS~1\Temp/ccPx0Pun.s 			page 12


 612 0050 40        		.uleb128 0x40
 613 0051 0A        		.uleb128 0xa
 614 0052 01        		.uleb128 0x1
 615 0053 13        		.uleb128 0x13
 616 0054 00        		.byte	0x0
 617 0055 00        		.byte	0x0
 618 0056 07        		.uleb128 0x7
 619 0057 34        		.uleb128 0x34
 620 0058 00        		.byte	0x0
 621 0059 03        		.uleb128 0x3
 622 005a 0E        		.uleb128 0xe
 623 005b 3A        		.uleb128 0x3a
 624 005c 0B        		.uleb128 0xb
 625 005d 3B        		.uleb128 0x3b
 626 005e 0B        		.uleb128 0xb
 627 005f 49        		.uleb128 0x49
 628 0060 13        		.uleb128 0x13
 629 0061 02        		.uleb128 0x2
 630 0062 0A        		.uleb128 0xa
 631 0063 00        		.byte	0x0
 632 0064 00        		.byte	0x0
 633 0065 08        		.uleb128 0x8
 634 0066 34        		.uleb128 0x34
 635 0067 00        		.byte	0x0
 636 0068 03        		.uleb128 0x3
 637 0069 0E        		.uleb128 0xe
 638 006a 3A        		.uleb128 0x3a
 639 006b 0B        		.uleb128 0xb
 640 006c 3B        		.uleb128 0x3b
 641 006d 0B        		.uleb128 0xb
 642 006e 49        		.uleb128 0x49
 643 006f 13        		.uleb128 0x13
 644 0070 00        		.byte	0x0
 645 0071 00        		.byte	0x0
 646 0072 09        		.uleb128 0x9
 647 0073 34        		.uleb128 0x34
 648 0074 00        		.byte	0x0
 649 0075 03        		.uleb128 0x3
 650 0076 08        		.uleb128 0x8
 651 0077 3A        		.uleb128 0x3a
 652 0078 0B        		.uleb128 0xb
 653 0079 3B        		.uleb128 0x3b
 654 007a 0B        		.uleb128 0xb
 655 007b 49        		.uleb128 0x49
 656 007c 13        		.uleb128 0x13
 657 007d 00        		.byte	0x0
 658 007e 00        		.byte	0x0
 659 007f 0A        		.uleb128 0xa
 660 0080 2E        		.uleb128 0x2e
 661 0081 01        		.byte	0x1
 662 0082 3F        		.uleb128 0x3f
 663 0083 0C        		.uleb128 0xc
 664 0084 03        		.uleb128 0x3
 665 0085 0E        		.uleb128 0xe
 666 0086 3A        		.uleb128 0x3a
 667 0087 0B        		.uleb128 0xb
 668 0088 3B        		.uleb128 0x3b
GAS LISTING D:\DOCUME~1\alex\LOCALS~1\Temp/ccPx0Pun.s 			page 13


 669 0089 0B        		.uleb128 0xb
 670 008a 27        		.uleb128 0x27
 671 008b 0C        		.uleb128 0xc
 672 008c 49        		.uleb128 0x49
 673 008d 13        		.uleb128 0x13
 674 008e 11        		.uleb128 0x11
 675 008f 01        		.uleb128 0x1
 676 0090 12        		.uleb128 0x12
 677 0091 01        		.uleb128 0x1
 678 0092 40        		.uleb128 0x40
 679 0093 0A        		.uleb128 0xa
 680 0094 01        		.uleb128 0x1
 681 0095 13        		.uleb128 0x13
 682 0096 00        		.byte	0x0
 683 0097 00        		.byte	0x0
 684 0098 0B        		.uleb128 0xb
 685 0099 0B        		.uleb128 0xb
 686 009a 01        		.byte	0x1
 687 009b 11        		.uleb128 0x11
 688 009c 01        		.uleb128 0x1
 689 009d 12        		.uleb128 0x12
 690 009e 01        		.uleb128 0x1
 691 009f 01        		.uleb128 0x1
 692 00a0 13        		.uleb128 0x13
 693 00a1 00        		.byte	0x0
 694 00a2 00        		.byte	0x0
 695 00a3 0C        		.uleb128 0xc
 696 00a4 34        		.uleb128 0x34
 697 00a5 00        		.byte	0x0
 698 00a6 03        		.uleb128 0x3
 699 00a7 0E        		.uleb128 0xe
 700 00a8 3A        		.uleb128 0x3a
 701 00a9 0B        		.uleb128 0xb
 702 00aa 3B        		.uleb128 0x3b
 703 00ab 0B        		.uleb128 0xb
 704 00ac 49        		.uleb128 0x49
 705 00ad 13        		.uleb128 0x13
 706 00ae 02        		.uleb128 0x2
 707 00af 06        		.uleb128 0x6
 708 00b0 00        		.byte	0x0
 709 00b1 00        		.byte	0x0
 710 00b2 0D        		.uleb128 0xd
 711 00b3 34        		.uleb128 0x34
 712 00b4 00        		.byte	0x0
 713 00b5 03        		.uleb128 0x3
 714 00b6 08        		.uleb128 0x8
 715 00b7 3A        		.uleb128 0x3a
 716 00b8 0B        		.uleb128 0xb
 717 00b9 3B        		.uleb128 0x3b
 718 00ba 0B        		.uleb128 0xb
 719 00bb 49        		.uleb128 0x49
 720 00bc 13        		.uleb128 0x13
 721 00bd 02        		.uleb128 0x2
 722 00be 0A        		.uleb128 0xa
 723 00bf 00        		.byte	0x0
 724 00c0 00        		.byte	0x0
 725 00c1 0E        		.uleb128 0xe
GAS LISTING D:\DOCUME~1\alex\LOCALS~1\Temp/ccPx0Pun.s 			page 14


 726 00c2 01        		.uleb128 0x1
 727 00c3 01        		.byte	0x1
 728 00c4 49        		.uleb128 0x49
 729 00c5 13        		.uleb128 0x13
 730 00c6 01        		.uleb128 0x1
 731 00c7 13        		.uleb128 0x13
 732 00c8 00        		.byte	0x0
 733 00c9 00        		.byte	0x0
 734 00ca 0F        		.uleb128 0xf
 735 00cb 21        		.uleb128 0x21
 736 00cc 00        		.byte	0x0
 737 00cd 49        		.uleb128 0x49
 738 00ce 13        		.uleb128 0x13
 739 00cf 2F        		.uleb128 0x2f
 740 00d0 0B        		.uleb128 0xb
 741 00d1 00        		.byte	0x0
 742 00d2 00        		.byte	0x0
 743 00d3 10        		.uleb128 0x10
 744 00d4 26        		.uleb128 0x26
 745 00d5 00        		.byte	0x0
 746 00d6 49        		.uleb128 0x49
 747 00d7 13        		.uleb128 0x13
 748 00d8 00        		.byte	0x0
 749 00d9 00        		.byte	0x0
 750 00da 00        		.byte	0x0
 751               		.section	.debug_pubnames,"",@progbits
 752 0000 3200 0000 		.long	0x32
 753 0004 0200      		.word	0x2
 754 0006 0000 0000 		.long	.Ldebug_info0
 755 000a AD01 0000 		.long	0x1ad
 756 000e 7600 0000 		.long	0x76
 757 0012 7761 6974 		.string	"wait_until_key_pressed"
 757      5F75 6E74 
 757      696C 5F6B 
 757      6579 5F70 
 757      7265 7373 
 758 0029 B000 0000 		.long	0xb0
 759 002d 6D61 696E 		.string	"main"
 759      00
 760 0032 0000 0000 		.long	0x0
 761               		.section	.debug_aranges,"",@progbits
 762 0000 1C00 0000 		.long	0x1c
 763 0004 0200      		.word	0x2
 764 0006 0000 0000 		.long	.Ldebug_info0
 765 000a 04        		.byte	0x4
 766 000b 00        		.byte	0x0
 767 000c 0000      		.word	0x0
 768 000e 0000      		.word	0x0
 769 0010 0000 0000 		.long	.Ltext0
 770 0014 6201 0000 		.long	.Letext0-.Ltext0
 771 0018 0000 0000 		.long	0x0
 772 001c 0000 0000 		.long	0x0
 773               		.section	.debug_line
 774 0000 ED01 0000 		.long	.LELT0-.LSLT0
 775               	.LSLT0:
 776 0004 0200      		.word	0x2
 777 0006 4F00 0000 		.long	.LELTP0-.LASLTP0
GAS LISTING D:\DOCUME~1\alex\LOCALS~1\Temp/ccPx0Pun.s 			page 15


 778               	.LASLTP0:
 779 000a 01        		.byte	0x1
 780 000b 01        		.byte	0x1
 781 000c F6        		.byte	0xf6
 782 000d F5        		.byte	0xf5
 783 000e 0A        		.byte	0xa
 784 000f 00        		.byte	0x0
 785 0010 01        		.byte	0x1
 786 0011 01        		.byte	0x1
 787 0012 01        		.byte	0x1
 788 0013 01        		.byte	0x1
 789 0014 00        		.byte	0x0
 790 0015 00        		.byte	0x0
 791 0016 00        		.byte	0x0
 792 0017 01        		.byte	0x1
 793 0018 653A 2F77 		.ascii	"e:/winavr-20071221rc1/bin/../avr/include"
 793      696E 6176 
 793      722D 3230 
 793      3037 3132 
 793      3231 7263 
 794 0040 00        		.byte	0
 795 0041 00        		.byte	0x0
 796 0042 6D61 696E 		.string	"main.c"
 796      2E63 00
 797 0049 00        		.uleb128 0x0
 798 004a 00        		.uleb128 0x0
 799 004b 00        		.uleb128 0x0
 800 004c 7374 6469 		.string	"stdint.h"
 800      6E74 2E68 
 800      00
 801 0055 01        		.uleb128 0x1
 802 0056 00        		.uleb128 0x0
 803 0057 00        		.uleb128 0x0
 804 0058 00        		.byte	0x0
 805               	.LELTP0:
 806 0059 00        		.byte	0x0
 807 005a 05        		.uleb128 0x5
 808 005b 02        		.byte	0x2
 809 005c 0000 0000 		.long	.LM1
 810 0060 34        		.byte	0x34
 811 0061 00        		.byte	0x0
 812 0062 05        		.uleb128 0x5
 813 0063 02        		.byte	0x2
 814 0064 0000 0000 		.long	.LM2
 815 0068 19        		.byte	0x19
 816 0069 00        		.byte	0x0
 817 006a 05        		.uleb128 0x5
 818 006b 02        		.byte	0x2
 819 006c 0000 0000 		.long	.LM3
 820 0070 16        		.byte	0x16
 821 0071 00        		.byte	0x0
 822 0072 05        		.uleb128 0x5
 823 0073 02        		.byte	0x2
 824 0074 0000 0000 		.long	.LM4
 825 0078 16        		.byte	0x16
 826 0079 00        		.byte	0x0
 827 007a 05        		.uleb128 0x5
GAS LISTING D:\DOCUME~1\alex\LOCALS~1\Temp/ccPx0Pun.s 			page 16


 828 007b 02        		.byte	0x2
 829 007c 0000 0000 		.long	.LM5
 830 0080 16        		.byte	0x16
 831 0081 00        		.byte	0x0
 832 0082 05        		.uleb128 0x5
 833 0083 02        		.byte	0x2
 834 0084 0000 0000 		.long	.LM6
 835 0088 1C        		.byte	0x1c
 836 0089 00        		.byte	0x0
 837 008a 05        		.uleb128 0x5
 838 008b 02        		.byte	0x2
 839 008c 0000 0000 		.long	.LM7
 840 0090 1D        		.byte	0x1d
 841 0091 00        		.byte	0x0
 842 0092 05        		.uleb128 0x5
 843 0093 02        		.byte	0x2
 844 0094 0000 0000 		.long	.LM8
 845 0098 15        		.byte	0x15
 846 0099 00        		.byte	0x0
 847 009a 05        		.uleb128 0x5
 848 009b 02        		.byte	0x2
 849 009c 0000 0000 		.long	.LM9
 850 00a0 16        		.byte	0x16
 851 00a1 00        		.byte	0x0
 852 00a2 05        		.uleb128 0x5
 853 00a3 02        		.byte	0x2
 854 00a4 0000 0000 		.long	.LM10
 855 00a8 15        		.byte	0x15
 856 00a9 00        		.byte	0x0
 857 00aa 05        		.uleb128 0x5
 858 00ab 02        		.byte	0x2
 859 00ac 0000 0000 		.long	.LM11
 860 00b0 16        		.byte	0x16
 861 00b1 00        		.byte	0x0
 862 00b2 05        		.uleb128 0x5
 863 00b3 02        		.byte	0x2
 864 00b4 0000 0000 		.long	.LM12
 865 00b8 19        		.byte	0x19
 866 00b9 00        		.byte	0x0
 867 00ba 05        		.uleb128 0x5
 868 00bb 02        		.byte	0x2
 869 00bc 0000 0000 		.long	.LM13
 870 00c0 15        		.byte	0x15
 871 00c1 00        		.byte	0x0
 872 00c2 05        		.uleb128 0x5
 873 00c3 02        		.byte	0x2
 874 00c4 0000 0000 		.long	.LM14
 875 00c8 60        		.byte	0x60
 876 00c9 00        		.byte	0x0
 877 00ca 05        		.uleb128 0x5
 878 00cb 02        		.byte	0x2
 879 00cc 0000 0000 		.long	.LM15
 880 00d0 03        		.byte	0x3
 881 00d1 9F7F      		.sleb128 -97
 882 00d3 01        		.byte	0x1
 883 00d4 00        		.byte	0x0
 884 00d5 05        		.uleb128 0x5
GAS LISTING D:\DOCUME~1\alex\LOCALS~1\Temp/ccPx0Pun.s 			page 17


 885 00d6 02        		.byte	0x2
 886 00d7 0000 0000 		.long	.LM16
 887 00db 3A        		.byte	0x3a
 888 00dc 00        		.byte	0x0
 889 00dd 05        		.uleb128 0x5
 890 00de 02        		.byte	0x2
 891 00df 0000 0000 		.long	.LM17
 892 00e3 17        		.byte	0x17
 893 00e4 00        		.byte	0x0
 894 00e5 05        		.uleb128 0x5
 895 00e6 02        		.byte	0x2
 896 00e7 0000 0000 		.long	.LM18
 897 00eb 17        		.byte	0x17
 898 00ec 00        		.byte	0x0
 899 00ed 05        		.uleb128 0x5
 900 00ee 02        		.byte	0x2
 901 00ef 0000 0000 		.long	.LM19
 902 00f3 17        		.byte	0x17
 903 00f4 00        		.byte	0x0
 904 00f5 05        		.uleb128 0x5
 905 00f6 02        		.byte	0x2
 906 00f7 0000 0000 		.long	.LM20
 907 00fb 17        		.byte	0x17
 908 00fc 00        		.byte	0x0
 909 00fd 05        		.uleb128 0x5
 910 00fe 02        		.byte	0x2
 911 00ff 0000 0000 		.long	.LM21
 912 0103 17        		.byte	0x17
 913 0104 00        		.byte	0x0
 914 0105 05        		.uleb128 0x5
 915 0106 02        		.byte	0x2
 916 0107 0000 0000 		.long	.LM22
 917 010b 15        		.byte	0x15
 918 010c 00        		.byte	0x0
 919 010d 05        		.uleb128 0x5
 920 010e 02        		.byte	0x2
 921 010f 0000 0000 		.long	.LM23
 922 0113 1B        		.byte	0x1b
 923 0114 00        		.byte	0x0
 924 0115 05        		.uleb128 0x5
 925 0116 02        		.byte	0x2
 926 0117 0000 0000 		.long	.LM24
 927 011b 17        		.byte	0x17
 928 011c 00        		.byte	0x0
 929 011d 05        		.uleb128 0x5
 930 011e 02        		.byte	0x2
 931 011f 0000 0000 		.long	.LM25
 932 0123 17        		.byte	0x17
 933 0124 00        		.byte	0x0
 934 0125 05        		.uleb128 0x5
 935 0126 02        		.byte	0x2
 936 0127 0000 0000 		.long	.LM26
 937 012b 15        		.byte	0x15
 938 012c 00        		.byte	0x0
 939 012d 05        		.uleb128 0x5
 940 012e 02        		.byte	0x2
 941 012f 0000 0000 		.long	.LM27
GAS LISTING D:\DOCUME~1\alex\LOCALS~1\Temp/ccPx0Pun.s 			page 18


 942 0133 1A        		.byte	0x1a
 943 0134 00        		.byte	0x0
 944 0135 05        		.uleb128 0x5
 945 0136 02        		.byte	0x2
 946 0137 0000 0000 		.long	.LM28
 947 013b 17        		.byte	0x17
 948 013c 00        		.byte	0x0
 949 013d 05        		.uleb128 0x5
 950 013e 02        		.byte	0x2
 951 013f 0000 0000 		.long	.LM29
 952 0143 15        		.byte	0x15
 953 0144 00        		.byte	0x0
 954 0145 05        		.uleb128 0x5
 955 0146 02        		.byte	0x2
 956 0147 0000 0000 		.long	.LM30
 957 014b 17        		.byte	0x17
 958 014c 00        		.byte	0x0
 959 014d 05        		.uleb128 0x5
 960 014e 02        		.byte	0x2
 961 014f 0000 0000 		.long	.LM31
 962 0153 17        		.byte	0x17
 963 0154 00        		.byte	0x0
 964 0155 05        		.uleb128 0x5
 965 0156 02        		.byte	0x2
 966 0157 0000 0000 		.long	.LM32
 967 015b 15        		.byte	0x15
 968 015c 00        		.byte	0x0
 969 015d 05        		.uleb128 0x5
 970 015e 02        		.byte	0x2
 971 015f 0000 0000 		.long	.LM33
 972 0163 16        		.byte	0x16
 973 0164 00        		.byte	0x0
 974 0165 05        		.uleb128 0x5
 975 0166 02        		.byte	0x2
 976 0167 0000 0000 		.long	.LM34
 977 016b 1B        		.byte	0x1b
 978 016c 00        		.byte	0x0
 979 016d 05        		.uleb128 0x5
 980 016e 02        		.byte	0x2
 981 016f 0000 0000 		.long	.LM35
 982 0173 17        		.byte	0x17
 983 0174 00        		.byte	0x0
 984 0175 05        		.uleb128 0x5
 985 0176 02        		.byte	0x2
 986 0177 0000 0000 		.long	.LM36
 987 017b 17        		.byte	0x17
 988 017c 00        		.byte	0x0
 989 017d 05        		.uleb128 0x5
 990 017e 02        		.byte	0x2
 991 017f 0000 0000 		.long	.LM37
 992 0183 17        		.byte	0x17
 993 0184 00        		.byte	0x0
 994 0185 05        		.uleb128 0x5
 995 0186 02        		.byte	0x2
 996 0187 0000 0000 		.long	.LM38
 997 018b 15        		.byte	0x15
 998 018c 00        		.byte	0x0
GAS LISTING D:\DOCUME~1\alex\LOCALS~1\Temp/ccPx0Pun.s 			page 19


 999 018d 05        		.uleb128 0x5
 1000 018e 02        		.byte	0x2
 1001 018f 0000 0000 		.long	.LM39
 1002 0193 1A        		.byte	0x1a
 1003 0194 00        		.byte	0x0
 1004 0195 05        		.uleb128 0x5
 1005 0196 02        		.byte	0x2
 1006 0197 0000 0000 		.long	.LM40
 1007 019b 16        		.byte	0x16
 1008 019c 00        		.byte	0x0
 1009 019d 05        		.uleb128 0x5
 1010 019e 02        		.byte	0x2
 1011 019f 0000 0000 		.long	.LM41
 1012 01a3 1A        		.byte	0x1a
 1013 01a4 00        		.byte	0x0
 1014 01a5 05        		.uleb128 0x5
 1015 01a6 02        		.byte	0x2
 1016 01a7 0000 0000 		.long	.LM42
 1017 01ab 03        		.byte	0x3
 1018 01ac 8A7F      		.sleb128 -118
 1019 01ae 01        		.byte	0x1
 1020 01af 00        		.byte	0x0
 1021 01b0 05        		.uleb128 0x5
 1022 01b1 02        		.byte	0x2
 1023 01b2 0000 0000 		.long	.LM43
 1024 01b6 8D        		.byte	0x8d
 1025 01b7 00        		.byte	0x0
 1026 01b8 05        		.uleb128 0x5
 1027 01b9 02        		.byte	0x2
 1028 01ba 0000 0000 		.long	.LM44
 1029 01be 12        		.byte	0x12
 1030 01bf 00        		.byte	0x0
 1031 01c0 05        		.uleb128 0x5
 1032 01c1 02        		.byte	0x2
 1033 01c2 0000 0000 		.long	.LM45
 1034 01c6 1B        		.byte	0x1b
 1035 01c7 00        		.byte	0x0
 1036 01c8 05        		.uleb128 0x5
 1037 01c9 02        		.byte	0x2
 1038 01ca 0000 0000 		.long	.LM46
 1039 01ce 17        		.byte	0x17
 1040 01cf 00        		.byte	0x0
 1041 01d0 05        		.uleb128 0x5
 1042 01d1 02        		.byte	0x2
 1043 01d2 0000 0000 		.long	.LM47
 1044 01d6 15        		.byte	0x15
 1045 01d7 00        		.byte	0x0
 1046 01d8 05        		.uleb128 0x5
 1047 01d9 02        		.byte	0x2
 1048 01da 0000 0000 		.long	.LM48
 1049 01de 18        		.byte	0x18
 1050 01df 00        		.byte	0x0
 1051 01e0 05        		.uleb128 0x5
 1052 01e1 02        		.byte	0x2
 1053 01e2 0000 0000 		.long	.LM49
 1054 01e6 15        		.byte	0x15
 1055 01e7 00        		.byte	0x0
GAS LISTING D:\DOCUME~1\alex\LOCALS~1\Temp/ccPx0Pun.s 			page 20


 1056 01e8 05        		.uleb128 0x5
 1057 01e9 02        		.byte	0x2
 1058 01ea 0000 0000 		.long	.Letext0
 1059 01ee 00        		.byte	0x0
 1060 01ef 01        		.uleb128 0x1
 1061 01f0 01        		.byte	0x1
 1062               	.LELT0:
 1063 01f1 1900 0000 		.section	.debug_str,"MS",@progbits,1
 1063      0200 1300 
 1063      0000 0101 
 1063      FB0E 0D00 
 1063      0101 0101 
 1064               	.LASF19:
 1065 0000 7761 6974 		.string	"wait_until_key_pressed"
 1065      5F75 6E74 
 1065      696C 5F6B 
 1065      6579 5F70 
 1065      7265 7373 
 1066               	.LASF15:
 1067 0017 636F 7079 		.string	"copyRightChar"
 1067      5269 6768 
 1067      7443 6861 
 1067      7200 
 1068               	.LASF16:
 1069 0025 474E 5520 		.string	"GNU C 4.2.2 (WinAVR 20071221rc1)"
 1069      4320 342E 
 1069      322E 3220 
 1069      2857 696E 
 1069      4156 5220 
 1070               	.LASF3:
 1071 0046 756E 7369 		.string	"unsigned char"
 1071      676E 6564 
 1071      2063 6861 
 1071      7200 
 1072               	.LASF6:
 1073 0054 6C6F 6E67 		.string	"long unsigned int"
 1073      2075 6E73 
 1073      6967 6E65 
 1073      6420 696E 
 1073      7400 
 1074               	.LASF13:
 1075 0066 5F5F 7265 		.string	"__result"
 1075      7375 6C74 
 1075      00
 1076               	.LASF20:
 1077 006f 6D61 696E 		.string	"main"
 1077      00
 1078               	.LASF0:
 1079 0074 756E 7369 		.string	"unsigned int"
 1079      676E 6564 
 1079      2069 6E74 
 1079      00
 1080               	.LASF8:
 1081 0081 6C6F 6E67 		.string	"long long unsigned int"
 1081      206C 6F6E 
 1081      6720 756E 
 1081      7369 676E 
GAS LISTING D:\DOCUME~1\alex\LOCALS~1\Temp/ccPx0Pun.s 			page 21


 1081      6564 2069 
 1082               	.LASF4:
 1083 0098 7569 6E74 		.string	"uint8_t"
 1083      385F 7400 
 1084               	.LASF12:
 1085 00a0 5F5F 6164 		.string	"__addr16"
 1085      6472 3136 
 1085      00
 1086               	.LASF18:
 1087 00a9 453A 5C61 		.string	"E:\\avr\\lcd"
 1087      7672 5C6C 
 1087      6364 00
 1088               	.LASF7:
 1089 00b4 6C6F 6E67 		.string	"long long int"
 1089      206C 6F6E 
 1089      6720 696E 
 1089      7400 
 1090               	.LASF17:
 1091 00c2 6D61 696E 		.string	"main.c"
 1091      2E63 00
 1092               	.LASF14:
 1093 00c9 6368 6172 		.string	"char"
 1093      00
 1094               	.LASF10:
 1095 00ce 7465 6D70 		.string	"temp1"
 1095      3100 
 1096               	.LASF9:
 1097 00d4 7465 6D70 		.string	"temp2"
 1097      3200 
 1098               	.LASF11:
 1099 00da 6275 6666 		.string	"buffer"
 1099      6572 00
 1100               	.LASF5:
 1101 00e1 7569 6E74 		.string	"uint16_t"
 1101      3136 5F74 
 1101      00
 1102               	.LASF1:
 1103 00ea 6C6F 6E67 		.string	"long int"
 1103      2069 6E74 
 1103      00
 1104               	.LASF2:
 1105 00f3 7369 676E 		.string	"signed char"
 1105      6564 2063 
 1105      6861 7200 
 1106               	/* File "main.c": code  180 = 0x00b4 ( 153), prologues  26, epilogues   1 */
GAS LISTING D:\DOCUME~1\alex\LOCALS~1\Temp/ccPx0Pun.s 			page 22


DEFINED SYMBOLS
                            *ABS*:00000000 main.c
D:\DOCUME~1\alex\LOCALS~1\Temp/ccPx0Pun.s:2      *ABS*:0000003f __SREG__
D:\DOCUME~1\alex\LOCALS~1\Temp/ccPx0Pun.s:3      *ABS*:0000003e __SP_H__
D:\DOCUME~1\alex\LOCALS~1\Temp/ccPx0Pun.s:4      *ABS*:0000003d __SP_L__
D:\DOCUME~1\alex\LOCALS~1\Temp/ccPx0Pun.s:5      *ABS*:00000000 __tmp_reg__
D:\DOCUME~1\alex\LOCALS~1\Temp/ccPx0Pun.s:6      *ABS*:00000001 __zero_reg__
D:\DOCUME~1\alex\LOCALS~1\Temp/ccPx0Pun.s:19     .text:00000000 wait_until_key_pressed
D:\DOCUME~1\alex\LOCALS~1\Temp/ccPx0Pun.s:56     .text:00000010 main
D:\DOCUME~1\alex\LOCALS~1\Temp/ccPx0Pun.s:280    .progmem.data:00000031 __c.1759
D:\DOCUME~1\alex\LOCALS~1\Temp/ccPx0Pun.s:276    .progmem.data:00000010 __c.1761
D:\DOCUME~1\alex\LOCALS~1\Temp/ccPx0Pun.s:257    .progmem.data:00000000 copyRightChar

UNDEFINED SYMBOLS
__do_copy_data
__do_clear_bss
lcd_init
lcd_backlight
lcd_clrscr
lcd_puts
lcd_gotoxy
lcd_putc
lcd_command
lcd_puts_p
itoa
lcd_data
