GAS LISTING d:\tmp/ccTi0z6A.s 			page 1


   1               		.file	"main.c"
   2               	__SREG__ = 0x3f
   3               	__SP_H__ = 0x3e
   4               	__SP_L__ = 0x3d
   5               	__tmp_reg__ = 0
   6               	__zero_reg__ = 1
   7               		.global __do_copy_data
   8               		.global __do_clear_bss
   9               		.section	.debug_abbrev,"",@progbits
  10               	.Ldebug_abbrev0:
  11               		.section	.debug_info,"",@progbits
  12               	.Ldebug_info0:
  13               		.section	.debug_line,"",@progbits
  14               	.Ldebug_line0:
  15               		.text
  16               	.Ltext0:
  17               		.data
  18               	.LC0:
  19 0000 0D0A 626F 		.string	"\r\nbooting..\r\n"
  19      6F74 696E 
  19      672E 2E0D 
  19      0A00 
  20               	.LC1:
  21 000e 2B32 3230 		.string	"+220\r\n"
  21      0D0A 00
  22               	.LC2:
  23 0015 4856 6F6E 		.string	"HVon\r\n"
  23      0D0A 00
  24               	.LC3:
  25 001c 4856 6675 		.string	"HVfull\r\n"
  25      6C6C 0D0A 
  25      00
  26               	.LC4:
  27 0025 6469 3A25 		.string	"di:%x , %x , %x , %x"
  27      7820 2C20 
  27      2578 202C 
  27      2025 7820 
  27      2C20 2578 
  28               	.LC5:
  29 003a 0920 7365 		.string	"\t se:%x , %x , %x , %x\r\n"
  29      3A25 7820 
  29      2C20 2578 
  29      202C 2025 
  29      7820 2C20 
  30               		.text
  31               	.global	main
  32               		.type	main, @function
  33               	main:
  34               	.LFB2:
  35               	.LM1:
  36               	/* prologue: frame size=0 */
  37 0000 8F92      		push r8
  38 0002 9F92      		push r9
  39 0004 AF92      		push r10
  40 0006 BF92      		push r11
  41 0008 CF92      		push r12
  42 000a DF92      		push r13
GAS LISTING d:\tmp/ccTi0z6A.s 			page 2


  43 000c EF92      		push r14
  44 000e FF92      		push r15
  45 0010 0F93      		push r16
  46 0012 1F93      		push r17
  47 0014 CF93      		push r28
  48 0016 DF93      		push r29
  49               	/* prologue end (size=12) */
  50               	.LM2:
  51 0018 0E94 0000 		call uart_init
  52               	.LM3:
  53 001c 8FEF      		ldi r24,lo8(-1)
  54 001e 84BB      		out 52-0x20,r24
  55               	.LM4:
  56 0020 1ABA      		out 58-0x20,__zero_reg__
  57               	.LM5:
  58 0022 87BB      		out 55-0x20,r24
  59               	.LM6:
  60 0024 1BBA      		out 59-0x20,__zero_reg__
  61               	.LM7:
  62 0026 88BB      		out 56-0x20,r24
  63               	.LM8:
  64 0028 85BB      		out 53-0x20,r24
  65               	.LM9:
  66 002a 06E1      		ldi r16,lo8(22)
  67 002c 25E1      		ldi r18,lo8(21)
  68 002e 47E1      		ldi r20,lo8(23)
  69 0030 63E1      		ldi r22,lo8(19)
  70 0032 80E0      		ldi r24,lo8(0)
  71 0034 0E94 0000 		call init_mcp3204
  72               	.LM10:
  73 0038 88EE      		ldi r24,lo8(1000)
  74 003a 93E0      		ldi r25,hi8(1000)
  75 003c 0E94 0000 		call delay
  76               	.LM11:
  77 0040 8AB3      		in r24,58-0x20
  78 0042 8760      		ori r24,lo8(7)
  79 0044 8ABB      		out 58-0x20,r24
  80               	.LM12:
  81 0046 1BBA      		out 59-0x20,__zero_reg__
  82               	.LM13:
  83 0048 80E0      		ldi r24,lo8(.LC0)
  84 004a 90E0      		ldi r25,hi8(.LC0)
  85 004c 9F93      		push r25
  86 004e 8F93      		push r24
  87 0050 0E94 0000 		call uart_printf
  88               	.LM14:
  89 0054 80E0      		ldi r24,lo8(.LC1)
  90 0056 90E0      		ldi r25,hi8(.LC1)
  91 0058 9F93      		push r25
  92 005a 8F93      		push r24
  93 005c 0E94 0000 		call uart_printf
  94               	.LM15:
  95 0060 DA9A      		sbi 59-0x20,2
  96               	.LM16:
  97 0062 80E0      		ldi r24,lo8(.LC2)
  98 0064 90E0      		ldi r25,hi8(.LC2)
  99 0066 9F93      		push r25
GAS LISTING d:\tmp/ccTi0z6A.s 			page 3


 100 0068 8F93      		push r24
 101 006a 0E94 0000 		call uart_printf
 102               	.LM17:
 103 006e D89A      		sbi 59-0x20,0
 104               	.LM18:
 105 0070 80E0      		ldi r24,lo8(.LC3)
 106 0072 90E0      		ldi r25,hi8(.LC3)
 107 0074 9F93      		push r25
 108 0076 8F93      		push r24
 109 0078 0E94 0000 		call uart_printf
 110               	.LM19:
 111 007c D99A      		sbi 59-0x20,1
 112 007e C0E0      		ldi r28,lo8(0)
 113 0080 D0E0      		ldi r29,hi8(0)
 114 0082 8DB7      		in r24,__SP_L__
 115 0084 9EB7      		in r25,__SP_H__
 116 0086 0896      		adiw r24,8
 117 0088 0FB6      		in __tmp_reg__,__SREG__
 118 008a F894      		cli
 119 008c 9EBF      		out __SP_H__,r25
 120 008e 0FBE      		out __SREG__,__tmp_reg__
 121 0090 8DBF      		out __SP_L__,r24
 122               	.LM20:
 123 0092 90E0      		ldi r25,lo8(.LC4)
 124 0094 892E      		mov r8,r25
 125 0096 90E0      		ldi r25,hi8(.LC4)
 126 0098 992E      		mov r9,r25
 127               	.LM21:
 128 009a 80E0      		ldi r24,lo8(.LC5)
 129 009c A82E      		mov r10,r24
 130 009e 80E0      		ldi r24,hi8(.LC5)
 131 00a0 B82E      		mov r11,r24
 132               	.L8:
 133               	.LM22:
 134 00a2 40E0      		ldi r20,lo8(0)
 135 00a4 60E0      		ldi r22,lo8(0)
 136 00a6 80E0      		ldi r24,lo8(0)
 137 00a8 0E94 0000 		call mcp3204_getw
 138 00ac 6C01      		movw r12,r24
 139               	.LM23:
 140 00ae 40E0      		ldi r20,lo8(0)
 141 00b0 60E0      		ldi r22,lo8(0)
 142 00b2 80E0      		ldi r24,lo8(0)
 143 00b4 0E94 0000 		call mcp3204_getw
 144 00b8 7C01      		movw r14,r24
 145               	.LM24:
 146 00ba 40E0      		ldi r20,lo8(0)
 147 00bc 62E0      		ldi r22,lo8(2)
 148 00be 80E0      		ldi r24,lo8(0)
 149 00c0 0E94 0000 		call mcp3204_getw
 150 00c4 8C01      		movw r16,r24
 151               	.LM25:
 152 00c6 40E0      		ldi r20,lo8(0)
 153 00c8 62E0      		ldi r22,lo8(2)
 154 00ca 80E0      		ldi r24,lo8(0)
 155 00cc 0E94 0000 		call mcp3204_getw
 156               	.LM26:
GAS LISTING d:\tmp/ccTi0z6A.s 			page 4


 157 00d0 9F93      		push r25
 158 00d2 8F93      		push r24
 159 00d4 1F93      		push r17
 160 00d6 0F93      		push r16
 161 00d8 FF92      		push r15
 162 00da EF92      		push r14
 163 00dc DF92      		push r13
 164 00de CF92      		push r12
 165 00e0 9F92      		push r9
 166 00e2 8F92      		push r8
 167 00e4 0E94 0000 		call uart_printf
 168               	.LM27:
 169 00e8 41E0      		ldi r20,lo8(1)
 170 00ea 60E0      		ldi r22,lo8(0)
 171 00ec 80E0      		ldi r24,lo8(0)
 172 00ee 0E94 0000 		call mcp3204_getw
 173 00f2 6C01      		movw r12,r24
 174               	.LM28:
 175 00f4 41E0      		ldi r20,lo8(1)
 176 00f6 61E0      		ldi r22,lo8(1)
 177 00f8 80E0      		ldi r24,lo8(0)
 178 00fa 0E94 0000 		call mcp3204_getw
 179 00fe 7C01      		movw r14,r24
 180               	.LM29:
 181 0100 41E0      		ldi r20,lo8(1)
 182 0102 62E0      		ldi r22,lo8(2)
 183 0104 80E0      		ldi r24,lo8(0)
 184 0106 0E94 0000 		call mcp3204_getw
 185 010a 8C01      		movw r16,r24
 186               	.LM30:
 187 010c 41E0      		ldi r20,lo8(1)
 188 010e 63E0      		ldi r22,lo8(3)
 189 0110 80E0      		ldi r24,lo8(0)
 190 0112 0E94 0000 		call mcp3204_getw
 191               	.LM31:
 192 0116 9F93      		push r25
 193 0118 8F93      		push r24
 194 011a 1F93      		push r17
 195 011c 0F93      		push r16
 196 011e FF92      		push r15
 197 0120 EF92      		push r14
 198 0122 DF92      		push r13
 199 0124 CF92      		push r12
 200 0126 BF92      		push r11
 201 0128 AF92      		push r10
 202 012a 0E94 0000 		call uart_printf
 203               	.LM32:
 204 012e 2196      		adiw r28,1
 205 0130 8DB7      		in r24,__SP_L__
 206 0132 9EB7      		in r25,__SP_H__
 207 0134 4496      		adiw r24,20
 208 0136 0FB6      		in __tmp_reg__,__SREG__
 209 0138 F894      		cli
 210 013a 9EBF      		out __SP_H__,r25
 211 013c 0FBE      		out __SREG__,__tmp_reg__
 212 013e 8DBF      		out __SP_L__,r24
 213 0140 90E1      		ldi r25,hi8(4096)
GAS LISTING d:\tmp/ccTi0z6A.s 			page 5


 214 0142 C030      		cpi r28,lo8(4096)
 215 0144 D907      		cpc r29,r25
 216 0146 04F4      		brge .+2
 217 0148 00C0      		rjmp .L8
 218 014a C0E0      		ldi r28,lo8(0)
 219 014c D0E0      		ldi r29,hi8(0)
 220 014e 00C0      		rjmp .L8
 221               	/* epilogue: frame size=0 */
 222               	/* epilogue: noreturn */
 223               	/* epilogue end (size=0) */
 224               	/* function main size 168 (156) */
 225               	.LFE2:
 226               		.size	main, .-main
 227               		.comm vol,2,1
 228               		.comm ch,2,1
 229               		.comm bal,2,1
 230               		.section	.debug_frame,"",@progbits
 231               	.Lframe0:
 232 0000 0C00 0000 		.long	.LECIE0-.LSCIE0
 233               	.LSCIE0:
 234 0004 FFFF FFFF 		.long	0xffffffff
 235 0008 01        		.byte	0x1
 236 0009 00        		.string	""
 237 000a 01        		.uleb128 0x1
 238 000b 7F        		.sleb128 -1
 239 000c 24        		.byte	0x24
 240 000d 0C        		.byte	0xc
 241 000e 20        		.uleb128 0x20
 242 000f 00        		.uleb128 0x0
 243               		.p2align	2
 244               	.LECIE0:
 245               	.LSFDE0:
 246 0010 0C00 0000 		.long	.LEFDE0-.LASFDE0
 247               	.LASFDE0:
 248 0014 0000 0000 		.long	.Lframe0
 249 0018 0000 0000 		.long	.LFB2
 250 001c 5001 0000 		.long	.LFE2-.LFB2
 251               		.p2align	2
 252               	.LEFDE0:
 253               		.text
 254               	.Letext0:
 255               		.section	.debug_info
 256 0000 E200 0000 		.long	0xe2
 257 0004 0200      		.word	0x2
 258 0006 0000 0000 		.long	.Ldebug_abbrev0
 259 000a 04        		.byte	0x4
 260 000b 01        		.uleb128 0x1
 261 000c 0000 0000 		.long	.LASF7
 262 0010 01        		.byte	0x1
 263 0011 0000 0000 		.long	.LASF8
 264 0015 0000 0000 		.long	.LASF9
 265 0019 0000 0000 		.long	.Ltext0
 266 001d 0000 0000 		.long	.Letext0
 267 0021 0000 0000 		.long	.Ldebug_line0
 268 0025 02        		.uleb128 0x2
 269 0026 01        		.byte	0x1
 270 0027 06        		.byte	0x6
GAS LISTING d:\tmp/ccTi0z6A.s 			page 6


 271 0028 0000 0000 		.long	.LASF0
 272 002c 02        		.uleb128 0x2
 273 002d 01        		.byte	0x1
 274 002e 08        		.byte	0x8
 275 002f 0000 0000 		.long	.LASF1
 276 0033 03        		.uleb128 0x3
 277 0034 02        		.byte	0x2
 278 0035 05        		.byte	0x5
 279 0036 696E 7400 		.string	"int"
 280 003a 02        		.uleb128 0x2
 281 003b 02        		.byte	0x2
 282 003c 07        		.byte	0x7
 283 003d 0000 0000 		.long	.LASF2
 284 0041 02        		.uleb128 0x2
 285 0042 04        		.byte	0x4
 286 0043 05        		.byte	0x5
 287 0044 0000 0000 		.long	.LASF3
 288 0048 02        		.uleb128 0x2
 289 0049 04        		.byte	0x4
 290 004a 07        		.byte	0x7
 291 004b 0000 0000 		.long	.LASF4
 292 004f 02        		.uleb128 0x2
 293 0050 08        		.byte	0x8
 294 0051 05        		.byte	0x5
 295 0052 0000 0000 		.long	.LASF5
 296 0056 02        		.uleb128 0x2
 297 0057 08        		.byte	0x8
 298 0058 07        		.byte	0x7
 299 0059 0000 0000 		.long	.LASF6
 300 005d 04        		.uleb128 0x4
 301 005e 01        		.byte	0x1
 302 005f 0000 0000 		.long	.LASF10
 303 0063 01        		.byte	0x1
 304 0064 28        		.byte	0x28
 305 0065 01        		.byte	0x1
 306 0066 3300 0000 		.long	0x33
 307 006a 0000 0000 		.long	.LFB2
 308 006e 0000 0000 		.long	.LFE2
 309 0072 02        		.byte	0x2
 310 0073 90        		.byte	0x90
 311 0074 20        		.uleb128 0x20
 312 0075 B000 0000 		.long	0xb0
 313 0079 05        		.uleb128 0x5
 314 007a 7661 6C00 		.string	"val"
 315 007e 01        		.byte	0x1
 316 007f 29        		.byte	0x29
 317 0080 3300 0000 		.long	0x33
 318 0084 06        		.byte	0x6
 319 0085 6C        		.byte	0x6c
 320 0086 93        		.byte	0x93
 321 0087 01        		.uleb128 0x1
 322 0088 6D        		.byte	0x6d
 323 0089 93        		.byte	0x93
 324 008a 01        		.uleb128 0x1
 325 008b 06        		.uleb128 0x6
 326 008c 6100      		.string	"a"
 327 008e 01        		.byte	0x1
GAS LISTING d:\tmp/ccTi0z6A.s 			page 7


 328 008f 2B        		.byte	0x2b
 329 0090 3300 0000 		.long	0x33
 330 0094 06        		.uleb128 0x6
 331 0095 6200      		.string	"b"
 332 0097 01        		.byte	0x1
 333 0098 2B        		.byte	0x2b
 334 0099 3300 0000 		.long	0x33
 335 009d 06        		.uleb128 0x6
 336 009e 6300      		.string	"c"
 337 00a0 01        		.byte	0x1
 338 00a1 2B        		.byte	0x2b
 339 00a2 3300 0000 		.long	0x33
 340 00a6 06        		.uleb128 0x6
 341 00a7 6400      		.string	"d"
 342 00a9 01        		.byte	0x1
 343 00aa 2B        		.byte	0x2b
 344 00ab 3300 0000 		.long	0x33
 345 00af 00        		.byte	0x0
 346 00b0 07        		.uleb128 0x7
 347 00b1 766F 6C00 		.string	"vol"
 348 00b5 01        		.byte	0x1
 349 00b6 1F        		.byte	0x1f
 350 00b7 3A00 0000 		.long	0x3a
 351 00bb 01        		.byte	0x1
 352 00bc 05        		.byte	0x5
 353 00bd 03        		.byte	0x3
 354 00be 0000 0000 		.long	vol
 355 00c2 07        		.uleb128 0x7
 356 00c3 6368 00   		.string	"ch"
 357 00c6 01        		.byte	0x1
 358 00c7 1F        		.byte	0x1f
 359 00c8 3A00 0000 		.long	0x3a
 360 00cc 01        		.byte	0x1
 361 00cd 05        		.byte	0x5
 362 00ce 03        		.byte	0x3
 363 00cf 0000 0000 		.long	ch
 364 00d3 07        		.uleb128 0x7
 365 00d4 6261 6C00 		.string	"bal"
 366 00d8 01        		.byte	0x1
 367 00d9 20        		.byte	0x20
 368 00da 3300 0000 		.long	0x33
 369 00de 01        		.byte	0x1
 370 00df 05        		.byte	0x5
 371 00e0 03        		.byte	0x3
 372 00e1 0000 0000 		.long	bal
 373 00e5 00        		.byte	0x0
 374               		.section	.debug_abbrev
 375 0000 01        		.uleb128 0x1
 376 0001 11        		.uleb128 0x11
 377 0002 01        		.byte	0x1
 378 0003 25        		.uleb128 0x25
 379 0004 0E        		.uleb128 0xe
 380 0005 13        		.uleb128 0x13
 381 0006 0B        		.uleb128 0xb
 382 0007 03        		.uleb128 0x3
 383 0008 0E        		.uleb128 0xe
 384 0009 1B        		.uleb128 0x1b
GAS LISTING d:\tmp/ccTi0z6A.s 			page 8


 385 000a 0E        		.uleb128 0xe
 386 000b 11        		.uleb128 0x11
 387 000c 01        		.uleb128 0x1
 388 000d 12        		.uleb128 0x12
 389 000e 01        		.uleb128 0x1
 390 000f 10        		.uleb128 0x10
 391 0010 06        		.uleb128 0x6
 392 0011 00        		.byte	0x0
 393 0012 00        		.byte	0x0
 394 0013 02        		.uleb128 0x2
 395 0014 24        		.uleb128 0x24
 396 0015 00        		.byte	0x0
 397 0016 0B        		.uleb128 0xb
 398 0017 0B        		.uleb128 0xb
 399 0018 3E        		.uleb128 0x3e
 400 0019 0B        		.uleb128 0xb
 401 001a 03        		.uleb128 0x3
 402 001b 0E        		.uleb128 0xe
 403 001c 00        		.byte	0x0
 404 001d 00        		.byte	0x0
 405 001e 03        		.uleb128 0x3
 406 001f 24        		.uleb128 0x24
 407 0020 00        		.byte	0x0
 408 0021 0B        		.uleb128 0xb
 409 0022 0B        		.uleb128 0xb
 410 0023 3E        		.uleb128 0x3e
 411 0024 0B        		.uleb128 0xb
 412 0025 03        		.uleb128 0x3
 413 0026 08        		.uleb128 0x8
 414 0027 00        		.byte	0x0
 415 0028 00        		.byte	0x0
 416 0029 04        		.uleb128 0x4
 417 002a 2E        		.uleb128 0x2e
 418 002b 01        		.byte	0x1
 419 002c 3F        		.uleb128 0x3f
 420 002d 0C        		.uleb128 0xc
 421 002e 03        		.uleb128 0x3
 422 002f 0E        		.uleb128 0xe
 423 0030 3A        		.uleb128 0x3a
 424 0031 0B        		.uleb128 0xb
 425 0032 3B        		.uleb128 0x3b
 426 0033 0B        		.uleb128 0xb
 427 0034 27        		.uleb128 0x27
 428 0035 0C        		.uleb128 0xc
 429 0036 49        		.uleb128 0x49
 430 0037 13        		.uleb128 0x13
 431 0038 11        		.uleb128 0x11
 432 0039 01        		.uleb128 0x1
 433 003a 12        		.uleb128 0x12
 434 003b 01        		.uleb128 0x1
 435 003c 40        		.uleb128 0x40
 436 003d 0A        		.uleb128 0xa
 437 003e 01        		.uleb128 0x1
 438 003f 13        		.uleb128 0x13
 439 0040 00        		.byte	0x0
 440 0041 00        		.byte	0x0
 441 0042 05        		.uleb128 0x5
GAS LISTING d:\tmp/ccTi0z6A.s 			page 9


 442 0043 34        		.uleb128 0x34
 443 0044 00        		.byte	0x0
 444 0045 03        		.uleb128 0x3
 445 0046 08        		.uleb128 0x8
 446 0047 3A        		.uleb128 0x3a
 447 0048 0B        		.uleb128 0xb
 448 0049 3B        		.uleb128 0x3b
 449 004a 0B        		.uleb128 0xb
 450 004b 49        		.uleb128 0x49
 451 004c 13        		.uleb128 0x13
 452 004d 02        		.uleb128 0x2
 453 004e 0A        		.uleb128 0xa
 454 004f 00        		.byte	0x0
 455 0050 00        		.byte	0x0
 456 0051 06        		.uleb128 0x6
 457 0052 34        		.uleb128 0x34
 458 0053 00        		.byte	0x0
 459 0054 03        		.uleb128 0x3
 460 0055 08        		.uleb128 0x8
 461 0056 3A        		.uleb128 0x3a
 462 0057 0B        		.uleb128 0xb
 463 0058 3B        		.uleb128 0x3b
 464 0059 0B        		.uleb128 0xb
 465 005a 49        		.uleb128 0x49
 466 005b 13        		.uleb128 0x13
 467 005c 00        		.byte	0x0
 468 005d 00        		.byte	0x0
 469 005e 07        		.uleb128 0x7
 470 005f 34        		.uleb128 0x34
 471 0060 00        		.byte	0x0
 472 0061 03        		.uleb128 0x3
 473 0062 08        		.uleb128 0x8
 474 0063 3A        		.uleb128 0x3a
 475 0064 0B        		.uleb128 0xb
 476 0065 3B        		.uleb128 0x3b
 477 0066 0B        		.uleb128 0xb
 478 0067 49        		.uleb128 0x49
 479 0068 13        		.uleb128 0x13
 480 0069 3F        		.uleb128 0x3f
 481 006a 0C        		.uleb128 0xc
 482 006b 02        		.uleb128 0x2
 483 006c 0A        		.uleb128 0xa
 484 006d 00        		.byte	0x0
 485 006e 00        		.byte	0x0
 486 006f 00        		.byte	0x0
 487               		.section	.debug_pubnames,"",@progbits
 488 0000 2E00 0000 		.long	0x2e
 489 0004 0200      		.word	0x2
 490 0006 0000 0000 		.long	.Ldebug_info0
 491 000a E600 0000 		.long	0xe6
 492 000e 5D00 0000 		.long	0x5d
 493 0012 6D61 696E 		.string	"main"
 493      00
 494 0017 B000 0000 		.long	0xb0
 495 001b 766F 6C00 		.string	"vol"
 496 001f C200 0000 		.long	0xc2
 497 0023 6368 00   		.string	"ch"
GAS LISTING d:\tmp/ccTi0z6A.s 			page 10


 498 0026 D300 0000 		.long	0xd3
 499 002a 6261 6C00 		.string	"bal"
 500 002e 0000 0000 		.long	0x0
 501               		.section	.debug_aranges,"",@progbits
 502 0000 1C00 0000 		.long	0x1c
 503 0004 0200      		.word	0x2
 504 0006 0000 0000 		.long	.Ldebug_info0
 505 000a 04        		.byte	0x4
 506 000b 00        		.byte	0x0
 507 000c 0000      		.word	0x0
 508 000e 0000      		.word	0x0
 509 0010 0000 0000 		.long	.Ltext0
 510 0014 5001 0000 		.long	.Letext0-.Ltext0
 511 0018 0000 0000 		.long	0x0
 512 001c 0000 0000 		.long	0x0
 513               		.section	.debug_line
 514 0000 2E01 0000 		.long	.LELT0-.LSLT0
 515               	.LSLT0:
 516 0004 0200      		.word	0x2
 517 0006 1A00 0000 		.long	.LELTP0-.LASLTP0
 518               	.LASLTP0:
 519 000a 01        		.byte	0x1
 520 000b 01        		.byte	0x1
 521 000c F6        		.byte	0xf6
 522 000d F5        		.byte	0xf5
 523 000e 0A        		.byte	0xa
 524 000f 00        		.byte	0x0
 525 0010 01        		.byte	0x1
 526 0011 01        		.byte	0x1
 527 0012 01        		.byte	0x1
 528 0013 01        		.byte	0x1
 529 0014 00        		.byte	0x0
 530 0015 00        		.byte	0x0
 531 0016 00        		.byte	0x0
 532 0017 01        		.byte	0x1
 533 0018 00        		.byte	0x0
 534 0019 6D61 696E 		.string	"main.c"
 534      2E63 00
 535 0020 00        		.uleb128 0x0
 536 0021 00        		.uleb128 0x0
 537 0022 00        		.uleb128 0x0
 538 0023 00        		.byte	0x0
 539               	.LELTP0:
 540 0024 00        		.byte	0x0
 541 0025 05        		.uleb128 0x5
 542 0026 02        		.byte	0x2
 543 0027 0000 0000 		.long	.LM1
 544 002b 3B        		.byte	0x3b
 545 002c 00        		.byte	0x0
 546 002d 05        		.uleb128 0x5
 547 002e 02        		.byte	0x2
 548 002f 0000 0000 		.long	.LM2
 549 0033 1A        		.byte	0x1a
 550 0034 00        		.byte	0x0
 551 0035 05        		.uleb128 0x5
 552 0036 02        		.byte	0x2
 553 0037 0000 0000 		.long	.LM3
GAS LISTING d:\tmp/ccTi0z6A.s 			page 11


 554 003b 18        		.byte	0x18
 555 003c 00        		.byte	0x0
 556 003d 05        		.uleb128 0x5
 557 003e 02        		.byte	0x2
 558 003f 0000 0000 		.long	.LM4
 559 0043 15        		.byte	0x15
 560 0044 00        		.byte	0x0
 561 0045 05        		.uleb128 0x5
 562 0046 02        		.byte	0x2
 563 0047 0000 0000 		.long	.LM5
 564 004b 15        		.byte	0x15
 565 004c 00        		.byte	0x0
 566 004d 05        		.uleb128 0x5
 567 004e 02        		.byte	0x2
 568 004f 0000 0000 		.long	.LM6
 569 0053 16        		.byte	0x16
 570 0054 00        		.byte	0x0
 571 0055 05        		.uleb128 0x5
 572 0056 02        		.byte	0x2
 573 0057 0000 0000 		.long	.LM7
 574 005b 15        		.byte	0x15
 575 005c 00        		.byte	0x0
 576 005d 05        		.uleb128 0x5
 577 005e 02        		.byte	0x2
 578 005f 0000 0000 		.long	.LM8
 579 0063 15        		.byte	0x15
 580 0064 00        		.byte	0x0
 581 0065 05        		.uleb128 0x5
 582 0066 02        		.byte	0x2
 583 0067 0000 0000 		.long	.LM9
 584 006b 1B        		.byte	0x1b
 585 006c 00        		.byte	0x0
 586 006d 05        		.uleb128 0x5
 587 006e 02        		.byte	0x2
 588 006f 0000 0000 		.long	.LM10
 589 0073 17        		.byte	0x17
 590 0074 00        		.byte	0x0
 591 0075 05        		.uleb128 0x5
 592 0076 02        		.byte	0x2
 593 0077 0000 0000 		.long	.LM11
 594 007b 17        		.byte	0x17
 595 007c 00        		.byte	0x0
 596 007d 05        		.uleb128 0x5
 597 007e 02        		.byte	0x2
 598 007f 0000 0000 		.long	.LM12
 599 0083 15        		.byte	0x15
 600 0084 00        		.byte	0x0
 601 0085 05        		.uleb128 0x5
 602 0086 02        		.byte	0x2
 603 0087 0000 0000 		.long	.LM13
 604 008b 15        		.byte	0x15
 605 008c 00        		.byte	0x0
 606 008d 05        		.uleb128 0x5
 607 008e 02        		.byte	0x2
 608 008f 0000 0000 		.long	.LM14
 609 0093 16        		.byte	0x16
 610 0094 00        		.byte	0x0
GAS LISTING d:\tmp/ccTi0z6A.s 			page 12


 611 0095 05        		.uleb128 0x5
 612 0096 02        		.byte	0x2
 613 0097 0000 0000 		.long	.LM15
 614 009b 15        		.byte	0x15
 615 009c 00        		.byte	0x0
 616 009d 05        		.uleb128 0x5
 617 009e 02        		.byte	0x2
 618 009f 0000 0000 		.long	.LM16
 619 00a3 16        		.byte	0x16
 620 00a4 00        		.byte	0x0
 621 00a5 05        		.uleb128 0x5
 622 00a6 02        		.byte	0x2
 623 00a7 0000 0000 		.long	.LM17
 624 00ab 15        		.byte	0x15
 625 00ac 00        		.byte	0x0
 626 00ad 05        		.uleb128 0x5
 627 00ae 02        		.byte	0x2
 628 00af 0000 0000 		.long	.LM18
 629 00b3 16        		.byte	0x16
 630 00b4 00        		.byte	0x0
 631 00b5 05        		.uleb128 0x5
 632 00b6 02        		.byte	0x2
 633 00b7 0000 0000 		.long	.LM19
 634 00bb 15        		.byte	0x15
 635 00bc 00        		.byte	0x0
 636 00bd 05        		.uleb128 0x5
 637 00be 02        		.byte	0x2
 638 00bf 0000 0000 		.long	.LM20
 639 00c3 22        		.byte	0x22
 640 00c4 00        		.byte	0x0
 641 00c5 05        		.uleb128 0x5
 642 00c6 02        		.byte	0x2
 643 00c7 0000 0000 		.long	.LM21
 644 00cb 1A        		.byte	0x1a
 645 00cc 00        		.byte	0x0
 646 00cd 05        		.uleb128 0x5
 647 00ce 02        		.byte	0x2
 648 00cf 0000 0000 		.long	.LM22
 649 00d3 03        		.byte	0x3
 650 00d4 75        		.sleb128 -11
 651 00d5 01        		.byte	0x1
 652 00d6 00        		.byte	0x0
 653 00d7 05        		.uleb128 0x5
 654 00d8 02        		.byte	0x2
 655 00d9 0000 0000 		.long	.LM23
 656 00dd 15        		.byte	0x15
 657 00de 00        		.byte	0x0
 658 00df 05        		.uleb128 0x5
 659 00e0 02        		.byte	0x2
 660 00e1 0000 0000 		.long	.LM24
 661 00e5 15        		.byte	0x15
 662 00e6 00        		.byte	0x0
 663 00e7 05        		.uleb128 0x5
 664 00e8 02        		.byte	0x2
 665 00e9 0000 0000 		.long	.LM25
 666 00ed 15        		.byte	0x15
 667 00ee 00        		.byte	0x0
GAS LISTING d:\tmp/ccTi0z6A.s 			page 13


 668 00ef 05        		.uleb128 0x5
 669 00f0 02        		.byte	0x2
 670 00f1 0000 0000 		.long	.LM26
 671 00f5 16        		.byte	0x16
 672 00f6 00        		.byte	0x0
 673 00f7 05        		.uleb128 0x5
 674 00f8 02        		.byte	0x2
 675 00f9 0000 0000 		.long	.LM27
 676 00fd 15        		.byte	0x15
 677 00fe 00        		.byte	0x0
 678 00ff 05        		.uleb128 0x5
 679 0100 02        		.byte	0x2
 680 0101 0000 0000 		.long	.LM28
 681 0105 15        		.byte	0x15
 682 0106 00        		.byte	0x0
 683 0107 05        		.uleb128 0x5
 684 0108 02        		.byte	0x2
 685 0109 0000 0000 		.long	.LM29
 686 010d 15        		.byte	0x15
 687 010e 00        		.byte	0x0
 688 010f 05        		.uleb128 0x5
 689 0110 02        		.byte	0x2
 690 0111 0000 0000 		.long	.LM30
 691 0115 15        		.byte	0x15
 692 0116 00        		.byte	0x0
 693 0117 05        		.uleb128 0x5
 694 0118 02        		.byte	0x2
 695 0119 0000 0000 		.long	.LM31
 696 011d 16        		.byte	0x16
 697 011e 00        		.byte	0x0
 698 011f 05        		.uleb128 0x5
 699 0120 02        		.byte	0x2
 700 0121 0000 0000 		.long	.LM32
 701 0125 03        		.byte	0x3
 702 0126 72        		.sleb128 -14
 703 0127 01        		.byte	0x1
 704 0128 00        		.byte	0x0
 705 0129 05        		.uleb128 0x5
 706 012a 02        		.byte	0x2
 707 012b 0000 0000 		.long	.Letext0
 708 012f 00        		.byte	0x0
 709 0130 01        		.uleb128 0x1
 710 0131 01        		.byte	0x1
 711               	.LELT0:
 712 0132 1900 0000 		.section	.debug_str,"MS",@progbits,1
 712      0200 1300 
 712      0000 0101 
 712      FB0E 0D00 
 712      0101 0101 
 713               	.LASF0:
 714 0000 7369 676E 		.string	"signed char"
 714      6564 2063 
 714      6861 7200 
 715               	.LASF1:
 716 000c 756E 7369 		.string	"unsigned char"
 716      676E 6564 
 716      2063 6861 
GAS LISTING d:\tmp/ccTi0z6A.s 			page 14


 716      7200 
 717               	.LASF4:
 718 001a 6C6F 6E67 		.string	"long unsigned int"
 718      2075 6E73 
 718      6967 6E65 
 718      6420 696E 
 718      7400 
 719               	.LASF10:
 720 002c 6D61 696E 		.string	"main"
 720      00
 721               	.LASF2:
 722 0031 756E 7369 		.string	"unsigned int"
 722      676E 6564 
 722      2069 6E74 
 722      00
 723               	.LASF6:
 724 003e 6C6F 6E67 		.string	"long long unsigned int"
 724      206C 6F6E 
 724      6720 756E 
 724      7369 676E 
 724      6564 2069 
 725               	.LASF7:
 726 0055 474E 5520 		.string	"GNU C 4.2.2 (WinAVR 20071221)"
 726      4320 342E 
 726      322E 3220 
 726      2857 696E 
 726      4156 5220 
 727               	.LASF5:
 728 0073 6C6F 6E67 		.string	"long long int"
 728      206C 6F6E 
 728      6720 696E 
 728      7400 
 729               	.LASF8:
 730 0081 6D61 696E 		.string	"main.c"
 730      2E63 00
 731               	.LASF3:
 732 0088 6C6F 6E67 		.string	"long int"
 732      2069 6E74 
 732      00
 733               	.LASF9:
 734 0091 473A 5C61 		.string	"G:\\avr\\hv_control"
 734      7672 5C68 
 734      765F 636F 
 734      6E74 726F 
 734      6C00 
 735               	/* File "main.c": code  168 = 0x00a8 ( 156), prologues  12, epilogues   0 */
GAS LISTING d:\tmp/ccTi0z6A.s 			page 15


DEFINED SYMBOLS
                            *ABS*:00000000 main.c
   d:\tmp/ccTi0z6A.s:2      *ABS*:0000003f __SREG__
   d:\tmp/ccTi0z6A.s:3      *ABS*:0000003e __SP_H__
   d:\tmp/ccTi0z6A.s:4      *ABS*:0000003d __SP_L__
   d:\tmp/ccTi0z6A.s:5      *ABS*:00000000 __tmp_reg__
   d:\tmp/ccTi0z6A.s:6      *ABS*:00000001 __zero_reg__
   d:\tmp/ccTi0z6A.s:33     .text:00000000 main
                            *COM*:00000002 vol
                            *COM*:00000002 ch
                            *COM*:00000002 bal

UNDEFINED SYMBOLS
__do_copy_data
__do_clear_bss
uart_init
init_mcp3204
delay
uart_printf
mcp3204_getw
