GAS LISTING D:\DOCUME~1\alex\LOCALS~1\Temp/ccBRQoIy.s 			page 1


   1               		.file	"adc_mcp3200.c"
   2               	__SREG__ = 0x3f
   3               	__SP_H__ = 0x3e
   4               	__SP_L__ = 0x3d
   5               	__tmp_reg__ = 0
   6               	__zero_reg__ = 1
   7               		.global __do_copy_data
   8               		.global __do_clear_bss
   9               		.text
  10               	.global	delay
  11               		.type	delay, @function
  12               	delay:
  13               	/* prologue: frame size=0 */
  14               	/* prologue end (size=0) */
  15 0000 80E0      		ldi r24,lo8(0)
  16 0002 90E0      		ldi r25,hi8(0)
  17               	.L2:
  18               	/* #APP */
  19 0004 00C0      		rjmp 1f
  20               	 1:
  21               	/* #NOAPP */
  22 0006 0196      		adiw r24,1
  23 0008 8431      		cpi r24,20
  24 000a 9105      		cpc r25,__zero_reg__
  25 000c 01F4      		brne .L2
  26               	/* epilogue: frame size=0 */
  27 000e 0895      		ret
  28               	/* epilogue end (size=1) */
  29               	/* function delay size 11 (10) */
  30               		.size	delay, .-delay
  31               	.global	init_adc
  32               		.type	init_adc, @function
  33               	init_adc:
  34               	/* prologue: frame size=0 */
  35 0010 0F93      		push r16
  36 0012 1F93      		push r17
  37               	/* prologue end (size=2) */
  38 0014 01E0      		ldi r16,lo8(1)
  39 0016 10E0      		ldi r17,hi8(1)
  40 0018 F801      		movw r30,r16
  41 001a 00C0      		rjmp 2f
  42 001c EE0F      	1:	lsl r30
  43 001e FF1F      		rol r31
  44 0020 6A95      	2:	dec r22
  45 0022 02F4      		brpl 1b
  46 0024 BF01      		movw r22,r30
  47 0026 5E2F      		mov r21,r30
  48 0028 F801      		movw r30,r16
  49 002a 00C0      		rjmp 2f
  50 002c EE0F      	1:	lsl r30
  51 002e FF1F      		rol r31
  52 0030 2A95      	2:	dec r18
  53 0032 02F4      		brpl 1b
  54 0034 9F01      		movw r18,r30
  55 0036 00C0      		rjmp 2f
  56 0038 000F      	1:	lsl r16
  57 003a 111F      		rol r17
GAS LISTING D:\DOCUME~1\alex\LOCALS~1\Temp/ccBRQoIy.s 			page 2


  58 003c 4A95      	2:	dec r20
  59 003e 02F4      		brpl 1b
  60 0040 402F      		mov r20,r16
  61 0042 E82F      		mov r30,r24
  62 0044 F0E0      		ldi r31,lo8(0)
  63 0046 DF01      		movw r26,r30
  64 0048 A050      		subi r26,lo8(-(clk_bit))
  65 004a B040      		sbci r27,hi8(-(clk_bit))
  66 004c 2C93      		st X,r18
  67 004e DF01      		movw r26,r30
  68 0050 A050      		subi r26,lo8(-(cs_bit))
  69 0052 B040      		sbci r27,hi8(-(cs_bit))
  70 0054 6C93      		st X,r22
  71 0056 E050      		subi r30,lo8(-(dout_bit))
  72 0058 F040      		sbci r31,hi8(-(dout_bit))
  73 005a 0083      		st Z,r16
  74 005c 81B3      		in r24,49-0x20
  75 005e 862B      		or r24,r22
  76 0060 822B      		or r24,r18
  77 0062 81BB      		out 49-0x20,r24
  78 0064 91B3      		in r25,49-0x20
  79 0066 802F      		mov r24,r16
  80 0068 8095      		com r24
  81 006a 8923      		and r24,r25
  82 006c 81BB      		out 49-0x20,r24
  83 006e 82B3      		in r24,50-0x20
  84 0070 482B      		or r20,r24
  85 0072 42BB      		out 50-0x20,r20
  86 0074 82B3      		in r24,50-0x20
  87 0076 582B      		or r21,r24
  88 0078 52BB      		out 50-0x20,r21
  89               	/* epilogue: frame size=0 */
  90 007a 1F91      		pop r17
  91 007c 0F91      		pop r16
  92 007e 0895      		ret
  93               	/* epilogue end (size=3) */
  94               	/* function init_adc size 59 (54) */
  95               		.size	init_adc, .-init_adc
  96               	.global	get_adc
  97               		.type	get_adc, @function
  98               	get_adc:
  99               	/* prologue: frame size=0 */
 100 0080 1F93      		push r17
 101               	/* prologue end (size=1) */
 102 0082 E82F      		mov r30,r24
 103 0084 F0E0      		ldi r31,lo8(0)
 104 0086 DF01      		movw r26,r30
 105 0088 A050      		subi r26,lo8(-(cs_bit))
 106 008a B040      		sbci r27,hi8(-(cs_bit))
 107 008c 1C91      		ld r17,X
 108 008e DF01      		movw r26,r30
 109 0090 A050      		subi r26,lo8(-(clk_bit))
 110 0092 B040      		sbci r27,hi8(-(clk_bit))
 111 0094 AC91      		ld r26,X
 112 0096 E050      		subi r30,lo8(-(dout_bit))
 113 0098 F040      		sbci r31,hi8(-(dout_bit))
 114 009a E081      		ld r30,Z
GAS LISTING D:\DOCUME~1\alex\LOCALS~1\Temp/ccBRQoIy.s 			page 3


 115 009c 92B3      		in r25,50-0x20
 116 009e 812F      		mov r24,r17
 117 00a0 8A2B      		or r24,r26
 118 00a2 892B      		or r24,r25
 119 00a4 82BB      		out 50-0x20,r24
 120 00a6 80E0      		ldi r24,lo8(0)
 121 00a8 90E0      		ldi r25,hi8(0)
 122               	.L10:
 123               	/* #APP */
 124 00aa 00C0      		rjmp 1f
 125               	 1:
 126               	/* #NOAPP */
 127 00ac 0196      		adiw r24,1
 128 00ae 8431      		cpi r24,20
 129 00b0 9105      		cpc r25,__zero_reg__
 130 00b2 01F4      		brne .L10
 131 00b4 82B3      		in r24,50-0x20
 132 00b6 912F      		mov r25,r17
 133 00b8 9095      		com r25
 134 00ba 9823      		and r25,r24
 135 00bc 92BB      		out 50-0x20,r25
 136 00be 82B3      		in r24,50-0x20
 137 00c0 BA2F      		mov r27,r26
 138 00c2 B095      		com r27
 139 00c4 8B23      		and r24,r27
 140 00c6 82BB      		out 50-0x20,r24
 141 00c8 80E0      		ldi r24,lo8(0)
 142 00ca 90E0      		ldi r25,hi8(0)
 143               	.L12:
 144               	/* #APP */
 145 00cc 00C0      		rjmp 1f
 146               	 1:
 147               	/* #NOAPP */
 148 00ce 0196      		adiw r24,1
 149 00d0 8431      		cpi r24,20
 150 00d2 9105      		cpc r25,__zero_reg__
 151 00d4 01F4      		brne .L12
 152 00d6 60E0      		ldi r22,lo8(0)
 153 00d8 70E0      		ldi r23,hi8(0)
 154 00da 40E0      		ldi r20,lo8(0)
 155 00dc 50E0      		ldi r21,hi8(0)
 156               	.L14:
 157 00de 82B3      		in r24,50-0x20
 158 00e0 8A2B      		or r24,r26
 159 00e2 82BB      		out 50-0x20,r24
 160 00e4 20E0      		ldi r18,lo8(0)
 161 00e6 30E0      		ldi r19,hi8(0)
 162               	.L15:
 163               	/* #APP */
 164 00e8 00C0      		rjmp 1f
 165               	 1:
 166               	/* #NOAPP */
 167 00ea 2F5F      		subi r18,lo8(-(1))
 168 00ec 3F4F      		sbci r19,hi8(-(1))
 169 00ee 2431      		cpi r18,20
 170 00f0 3105      		cpc r19,__zero_reg__
 171 00f2 01F4      		brne .L15
GAS LISTING D:\DOCUME~1\alex\LOCALS~1\Temp/ccBRQoIy.s 			page 4


 172 00f4 82B3      		in r24,50-0x20
 173 00f6 8B23      		and r24,r27
 174 00f8 82BB      		out 50-0x20,r24
 175 00fa 20E0      		ldi r18,lo8(0)
 176 00fc 30E0      		ldi r19,hi8(0)
 177               	.L17:
 178               	/* #APP */
 179 00fe 00C0      		rjmp 1f
 180               	 1:
 181               	/* #NOAPP */
 182 0100 2F5F      		subi r18,lo8(-(1))
 183 0102 3F4F      		sbci r19,hi8(-(1))
 184 0104 2431      		cpi r18,20
 185 0106 3105      		cpc r19,__zero_reg__
 186 0108 01F4      		brne .L17
 187 010a 4230      		cpi r20,lo8(2)
 188 010c 00F0      		brlo .L19
 189 010e 660F      		lsl r22
 190 0110 771F      		rol r23
 191 0112 80B3      		in r24,48-0x20
 192 0114 8E23      		and r24,r30
 193 0116 01F0      		breq .L19
 194 0118 6160      		ori r22,lo8(1)
 195               	.L19:
 196 011a 4F5F      		subi r20,lo8(-(1))
 197 011c 5F4F      		sbci r21,hi8(-(1))
 198 011e 4E30      		cpi r20,14
 199 0120 5105      		cpc r21,__zero_reg__
 200 0122 01F4      		brne .L14
 201 0124 82B3      		in r24,50-0x20
 202 0126 182B      		or r17,r24
 203 0128 12BB      		out 50-0x20,r17
 204 012a 20E0      		ldi r18,lo8(0)
 205 012c 30E0      		ldi r19,hi8(0)
 206               	.L23:
 207               	/* #APP */
 208 012e 00C0      		rjmp 1f
 209               	 1:
 210               	/* #NOAPP */
 211 0130 2F5F      		subi r18,lo8(-(1))
 212 0132 3F4F      		sbci r19,hi8(-(1))
 213 0134 2431      		cpi r18,20
 214 0136 3105      		cpc r19,__zero_reg__
 215 0138 01F4      		brne .L23
 216 013a CB01      		movw r24,r22
 217               	/* epilogue: frame size=0 */
 218 013c 1F91      		pop r17
 219 013e 0895      		ret
 220               	/* epilogue end (size=2) */
 221               	/* function get_adc size 112 (109) */
 222               		.size	get_adc, .-get_adc
 223               		.comm cs_bit,4,1
 224               		.comm clk_bit,4,1
 225               		.comm dout_bit,4,1
 226               		.comm val,8,1
 227               	/* File "adc_mcp3200.c": code  182 = 0x00b6 ( 173), prologues   3, epilogues   6 */
GAS LISTING D:\DOCUME~1\alex\LOCALS~1\Temp/ccBRQoIy.s 			page 5


DEFINED SYMBOLS
                            *ABS*:00000000 adc_mcp3200.c
D:\DOCUME~1\alex\LOCALS~1\Temp/ccBRQoIy.s:2      *ABS*:0000003f __SREG__
D:\DOCUME~1\alex\LOCALS~1\Temp/ccBRQoIy.s:3      *ABS*:0000003e __SP_H__
D:\DOCUME~1\alex\LOCALS~1\Temp/ccBRQoIy.s:4      *ABS*:0000003d __SP_L__
D:\DOCUME~1\alex\LOCALS~1\Temp/ccBRQoIy.s:5      *ABS*:00000000 __tmp_reg__
D:\DOCUME~1\alex\LOCALS~1\Temp/ccBRQoIy.s:6      *ABS*:00000001 __zero_reg__
D:\DOCUME~1\alex\LOCALS~1\Temp/ccBRQoIy.s:12     .text:00000000 delay
D:\DOCUME~1\alex\LOCALS~1\Temp/ccBRQoIy.s:33     .text:00000010 init_adc
                            *COM*:00000004 clk_bit
                            *COM*:00000004 cs_bit
                            *COM*:00000004 dout_bit
D:\DOCUME~1\alex\LOCALS~1\Temp/ccBRQoIy.s:98     .text:00000080 get_adc
                            *COM*:00000008 val

UNDEFINED SYMBOLS
__do_copy_data
__do_clear_bss
