GAS LISTING D:\DOCUME~1\alex\LOCALS~1\Temp/cc5e3Thb.s 			page 1


   1               		.file	"hv_supply.c"
   2               	__SREG__ = 0x3f
   3               	__SP_H__ = 0x3e
   4               	__SP_L__ = 0x3d
   5               	__tmp_reg__ = 0
   6               	__zero_reg__ = 1
   7               		.global __do_copy_data
   8               		.global __do_clear_bss
   9               		.data
  10               	.LC0:
  11 0000 0A0D 00   		.string	"\n\r"
  12               		.text
  13               	.global	do_sweep
  14               		.type	do_sweep, @function
  15               	do_sweep:
  16               	/* prologue: frame size=16 */
  17 0000 A0E1      		ldi r26,lo8(16)
  18 0002 B0E0      		ldi r27,hi8(16)
  19 0004 E0E0      		ldi r30,pm_lo8(1f)
  20 0006 F0E0      		ldi r31,pm_hi8(1f)
  21 0008 0C94 0000 		jmp __prologue_saves__+0
  22               	1:
  23               	/* prologue end (size=6) */
  24 000c 0E94 0000 		call uart_puts
  25 0010 8091 0000 		lds r24,dev
  26 0014 90E0      		ldi r25,lo8(0)
  27 0016 2BE1      		ldi r18,lo8(27)
  28 0018 30E0      		ldi r19,hi8(27)
  29 001a 829F      		mul r24,r18
  30 001c F001      		movw r30,r0
  31 001e 839F      		mul r24,r19
  32 0020 F00D      		add r31,r0
  33 0022 929F      		mul r25,r18
  34 0024 F00D      		add r31,r0
  35 0026 1124      		clr r1
  36 0028 E050      		subi r30,lo8(-(powersupply))
  37 002a F040      		sbci r31,hi8(-(powersupply))
  38 002c 6188      		ldd r6,Z+17
  39 002e 7288      		ldd r7,Z+18
  40 0030 8388      		ldd r8,Z+19
  41 0032 9488      		ldd r9,Z+20
  42 0034 A584      		ldd r10,Z+13
  43 0036 B684      		ldd r11,Z+14
  44 0038 C784      		ldd r12,Z+15
  45 003a D088      		ldd r13,Z+16
  46 003c E184      		ldd r14,Z+9
  47 003e F284      		ldd r15,Z+10
  48 0040 0385      		ldd r16,Z+11
  49 0042 1485      		ldd r17,Z+12
  50 0044 2E01      		movw r4,r28
  51 0046 0894      		sec
  52 0048 411C      		adc r4,__zero_reg__
  53 004a 511C      		adc r5,__zero_reg__
  54 004c 80E0      		ldi r24,lo8(.LC0)
  55 004e 282E      		mov r2,r24
  56 0050 80E0      		ldi r24,hi8(.LC0)
  57 0052 382E      		mov r3,r24
GAS LISTING D:\DOCUME~1\alex\LOCALS~1\Temp/cc5e3Thb.s 			page 2


  58 0054 00C0      		rjmp .L2
  59               	.L3:
  60 0056 A201      		movw r20,r4
  61 0058 C801      		movw r24,r16
  62 005a B701      		movw r22,r14
  63 005c 0E94 0000 		call ltostr
  64 0060 C201      		movw r24,r4
  65 0062 0E94 0000 		call uart_puts
  66 0066 C101      		movw r24,r2
  67 0068 0E94 0000 		call uart_puts
  68 006c E60C      		add r14,r6
  69 006e F71C      		adc r15,r7
  70 0070 081D      		adc r16,r8
  71 0072 191D      		adc r17,r9
  72               	.L2:
  73 0074 EA14      		cp r14,r10
  74 0076 FB04      		cpc r15,r11
  75 0078 0C05      		cpc r16,r12
  76 007a 1D05      		cpc r17,r13
  77 007c 04F0      		brlt .L3
  78 007e 80E0      		ldi r24,lo8(0)
  79 0080 90E0      		ldi r25,hi8(0)
  80               	/* epilogue: frame size=16 */
  81 0082 E2E1      		ldi r30,18
  82 0084 6096      		adiw r28,16
  83 0086 0C94 0000 		jmp __epilogue_restores__+0
  84               	/* epilogue end (size=4) */
  85               	/* function do_sweep size 69 (59) */
  86               		.size	do_sweep, .-do_sweep
  87               	.global	get_instrument_nsel
  88               		.type	get_instrument_nsel, @function
  89               	get_instrument_nsel:
  90               	/* prologue: frame size=0 */
  91               	/* prologue end (size=0) */
  92 008a 6091 0000 		lds r22,dev
  93 008e 70E0      		ldi r23,lo8(0)
  94 0090 80E0      		ldi r24,lo8(0)
  95 0092 90E0      		ldi r25,hi8(0)
  96 0094 40E0      		ldi r20,lo8(return_buf)
  97 0096 50E0      		ldi r21,hi8(return_buf)
  98 0098 0E94 0000 		call ltostr
  99 009c 80E0      		ldi r24,lo8(0)
 100 009e 90E0      		ldi r25,hi8(0)
 101               	/* epilogue: frame size=0 */
 102 00a0 0895      		ret
 103               	/* epilogue end (size=1) */
 104               	/* function get_instrument_nsel size 12 (11) */
 105               		.size	get_instrument_nsel, .-get_instrument_nsel
 106               	.global	get_sweep_time
 107               		.type	get_sweep_time, @function
 108               	get_sweep_time:
 109               	/* prologue: frame size=0 */
 110               	/* prologue end (size=0) */
 111 00a2 8091 0000 		lds r24,dev
 112 00a6 90E0      		ldi r25,lo8(0)
 113 00a8 2BE1      		ldi r18,lo8(27)
 114 00aa 30E0      		ldi r19,hi8(27)
GAS LISTING D:\DOCUME~1\alex\LOCALS~1\Temp/cc5e3Thb.s 			page 3


 115 00ac 829F      		mul r24,r18
 116 00ae F001      		movw r30,r0
 117 00b0 839F      		mul r24,r19
 118 00b2 F00D      		add r31,r0
 119 00b4 929F      		mul r25,r18
 120 00b6 F00D      		add r31,r0
 121 00b8 1124      		clr r1
 122 00ba E050      		subi r30,lo8(-(powersupply))
 123 00bc F040      		sbci r31,hi8(-(powersupply))
 124 00be 6689      		ldd r22,Z+22
 125 00c0 7789      		ldd r23,Z+23
 126 00c2 808D      		ldd r24,Z+24
 127 00c4 918D      		ldd r25,Z+25
 128 00c6 40E0      		ldi r20,lo8(return_buf)
 129 00c8 50E0      		ldi r21,hi8(return_buf)
 130 00ca 0E94 0000 		call ltostr
 131 00ce 80E0      		ldi r24,lo8(0)
 132 00d0 90E0      		ldi r25,hi8(0)
 133               	/* epilogue: frame size=0 */
 134 00d2 0895      		ret
 135               	/* epilogue end (size=1) */
 136               	/* function get_sweep_time size 25 (24) */
 137               		.size	get_sweep_time, .-get_sweep_time
 138               	.global	get_sweep_step
 139               		.type	get_sweep_step, @function
 140               	get_sweep_step:
 141               	/* prologue: frame size=0 */
 142               	/* prologue end (size=0) */
 143 00d4 8091 0000 		lds r24,dev
 144 00d8 90E0      		ldi r25,lo8(0)
 145 00da 2BE1      		ldi r18,lo8(27)
 146 00dc 30E0      		ldi r19,hi8(27)
 147 00de 829F      		mul r24,r18
 148 00e0 F001      		movw r30,r0
 149 00e2 839F      		mul r24,r19
 150 00e4 F00D      		add r31,r0
 151 00e6 929F      		mul r25,r18
 152 00e8 F00D      		add r31,r0
 153 00ea 1124      		clr r1
 154 00ec E050      		subi r30,lo8(-(powersupply))
 155 00ee F040      		sbci r31,hi8(-(powersupply))
 156 00f0 6189      		ldd r22,Z+17
 157 00f2 7289      		ldd r23,Z+18
 158 00f4 8389      		ldd r24,Z+19
 159 00f6 9489      		ldd r25,Z+20
 160 00f8 40E0      		ldi r20,lo8(return_buf)
 161 00fa 50E0      		ldi r21,hi8(return_buf)
 162 00fc 0E94 0000 		call ltostr
 163 0100 80E0      		ldi r24,lo8(0)
 164 0102 90E0      		ldi r25,hi8(0)
 165               	/* epilogue: frame size=0 */
 166 0104 0895      		ret
 167               	/* epilogue end (size=1) */
 168               	/* function get_sweep_step size 25 (24) */
 169               		.size	get_sweep_step, .-get_sweep_step
 170               	.global	get_sweep_stop
 171               		.type	get_sweep_stop, @function
GAS LISTING D:\DOCUME~1\alex\LOCALS~1\Temp/cc5e3Thb.s 			page 4


 172               	get_sweep_stop:
 173               	/* prologue: frame size=0 */
 174               	/* prologue end (size=0) */
 175 0106 8091 0000 		lds r24,dev
 176 010a 90E0      		ldi r25,lo8(0)
 177 010c 2BE1      		ldi r18,lo8(27)
 178 010e 30E0      		ldi r19,hi8(27)
 179 0110 829F      		mul r24,r18
 180 0112 F001      		movw r30,r0
 181 0114 839F      		mul r24,r19
 182 0116 F00D      		add r31,r0
 183 0118 929F      		mul r25,r18
 184 011a F00D      		add r31,r0
 185 011c 1124      		clr r1
 186 011e E050      		subi r30,lo8(-(powersupply))
 187 0120 F040      		sbci r31,hi8(-(powersupply))
 188 0122 6585      		ldd r22,Z+13
 189 0124 7685      		ldd r23,Z+14
 190 0126 8785      		ldd r24,Z+15
 191 0128 9089      		ldd r25,Z+16
 192 012a 40E0      		ldi r20,lo8(return_buf)
 193 012c 50E0      		ldi r21,hi8(return_buf)
 194 012e 0E94 0000 		call ltostr
 195 0132 80E0      		ldi r24,lo8(0)
 196 0134 90E0      		ldi r25,hi8(0)
 197               	/* epilogue: frame size=0 */
 198 0136 0895      		ret
 199               	/* epilogue end (size=1) */
 200               	/* function get_sweep_stop size 25 (24) */
 201               		.size	get_sweep_stop, .-get_sweep_stop
 202               	.global	get_sweep_start
 203               		.type	get_sweep_start, @function
 204               	get_sweep_start:
 205               	/* prologue: frame size=0 */
 206               	/* prologue end (size=0) */
 207 0138 8091 0000 		lds r24,dev
 208 013c 90E0      		ldi r25,lo8(0)
 209 013e 2BE1      		ldi r18,lo8(27)
 210 0140 30E0      		ldi r19,hi8(27)
 211 0142 829F      		mul r24,r18
 212 0144 F001      		movw r30,r0
 213 0146 839F      		mul r24,r19
 214 0148 F00D      		add r31,r0
 215 014a 929F      		mul r25,r18
 216 014c F00D      		add r31,r0
 217 014e 1124      		clr r1
 218 0150 E050      		subi r30,lo8(-(powersupply))
 219 0152 F040      		sbci r31,hi8(-(powersupply))
 220 0154 6185      		ldd r22,Z+9
 221 0156 7285      		ldd r23,Z+10
 222 0158 8385      		ldd r24,Z+11
 223 015a 9485      		ldd r25,Z+12
 224 015c 40E0      		ldi r20,lo8(return_buf)
 225 015e 50E0      		ldi r21,hi8(return_buf)
 226 0160 0E94 0000 		call ltostr
 227 0164 80E0      		ldi r24,lo8(0)
 228 0166 90E0      		ldi r25,hi8(0)
GAS LISTING D:\DOCUME~1\alex\LOCALS~1\Temp/cc5e3Thb.s 			page 5


 229               	/* epilogue: frame size=0 */
 230 0168 0895      		ret
 231               	/* epilogue end (size=1) */
 232               	/* function get_sweep_start size 25 (24) */
 233               		.size	get_sweep_start, .-get_sweep_start
 234               	.global	get_current
 235               		.type	get_current, @function
 236               	get_current:
 237               	/* prologue: frame size=0 */
 238               	/* prologue end (size=0) */
 239 016a 8091 0000 		lds r24,dev
 240 016e 90E0      		ldi r25,lo8(0)
 241 0170 2BE1      		ldi r18,lo8(27)
 242 0172 30E0      		ldi r19,hi8(27)
 243 0174 829F      		mul r24,r18
 244 0176 F001      		movw r30,r0
 245 0178 839F      		mul r24,r19
 246 017a F00D      		add r31,r0
 247 017c 929F      		mul r25,r18
 248 017e F00D      		add r31,r0
 249 0180 1124      		clr r1
 250 0182 E050      		subi r30,lo8(-(powersupply))
 251 0184 F040      		sbci r31,hi8(-(powersupply))
 252 0186 6481      		ldd r22,Z+4
 253 0188 7581      		ldd r23,Z+5
 254 018a 8681      		ldd r24,Z+6
 255 018c 9781      		ldd r25,Z+7
 256 018e 40E0      		ldi r20,lo8(return_buf)
 257 0190 50E0      		ldi r21,hi8(return_buf)
 258 0192 0E94 0000 		call ltostr
 259 0196 80E0      		ldi r24,lo8(0)
 260 0198 90E0      		ldi r25,hi8(0)
 261               	/* epilogue: frame size=0 */
 262 019a 0895      		ret
 263               	/* epilogue end (size=1) */
 264               	/* function get_current size 25 (24) */
 265               		.size	get_current, .-get_current
 266               	.global	get_voltage
 267               		.type	get_voltage, @function
 268               	get_voltage:
 269               	/* prologue: frame size=0 */
 270               	/* prologue end (size=0) */
 271 019c 8091 0000 		lds r24,dev
 272 01a0 90E0      		ldi r25,lo8(0)
 273 01a2 2BE1      		ldi r18,lo8(27)
 274 01a4 30E0      		ldi r19,hi8(27)
 275 01a6 829F      		mul r24,r18
 276 01a8 F001      		movw r30,r0
 277 01aa 839F      		mul r24,r19
 278 01ac F00D      		add r31,r0
 279 01ae 929F      		mul r25,r18
 280 01b0 F00D      		add r31,r0
 281 01b2 1124      		clr r1
 282 01b4 E050      		subi r30,lo8(-(powersupply))
 283 01b6 F040      		sbci r31,hi8(-(powersupply))
 284 01b8 6081      		ld r22,Z
 285 01ba 7181      		ldd r23,Z+1
GAS LISTING D:\DOCUME~1\alex\LOCALS~1\Temp/cc5e3Thb.s 			page 6


 286 01bc 8281      		ldd r24,Z+2
 287 01be 9381      		ldd r25,Z+3
 288 01c0 40E0      		ldi r20,lo8(return_buf)
 289 01c2 50E0      		ldi r21,hi8(return_buf)
 290 01c4 0E94 0000 		call ltostr
 291 01c8 80E0      		ldi r24,lo8(0)
 292 01ca 90E0      		ldi r25,hi8(0)
 293               	/* epilogue: frame size=0 */
 294 01cc 0895      		ret
 295               	/* epilogue end (size=1) */
 296               	/* function get_voltage size 25 (24) */
 297               		.size	get_voltage, .-get_voltage
 298               	.global	set_instrument_nsel
 299               		.type	set_instrument_nsel, @function
 300               	set_instrument_nsel:
 301               	/* prologue: frame size=2 */
 302 01ce A2E0      		ldi r26,lo8(2)
 303 01d0 B0E0      		ldi r27,hi8(2)
 304 01d2 E0E0      		ldi r30,pm_lo8(1f)
 305 01d4 F0E0      		ldi r31,pm_hi8(1f)
 306 01d6 0C94 0000 		jmp __prologue_saves__+28
 307               	1:
 308               	/* prologue end (size=6) */
 309 01da 8C01      		movw r16,r24
 310 01dc 40E0      		ldi r20,lo8(0)
 311 01de 50E0      		ldi r21,hi8(0)
 312 01e0 BE01      		movw r22,r28
 313 01e2 6F5F      		subi r22,lo8(-(1))
 314 01e4 7F4F      		sbci r23,hi8(-(1))
 315 01e6 0E94 0000 		call strtol
 316 01ea 9B01      		movw r18,r22
 317 01ec AC01      		movw r20,r24
 318 01ee E981      		ldd r30,Y+1
 319 01f0 FA81      		ldd r31,Y+2
 320 01f2 0E17      		cp r16,r30
 321 01f4 1F07      		cpc r17,r31
 322 01f6 01F0      		breq .L21
 323 01f8 8081      		ld r24,Z
 324 01fa 8823      		tst r24
 325 01fc 01F4      		brne .L21
 326 01fe 822F      		mov r24,r18
 327 0200 8150      		subi r24,lo8(-(-1))
 328 0202 8E37      		cpi r24,lo8(126)
 329 0204 00F4      		brsh .L28
 330 0206 2093 0000 		sts dev,r18
 331               	.L28:
 332 020a 80E0      		ldi r24,lo8(0)
 333 020c 90E0      		ldi r25,hi8(0)
 334 020e 00C0      		rjmp .L26
 335               	.L21:
 336 0210 8FEF      		ldi r24,lo8(-1)
 337 0212 9FEF      		ldi r25,hi8(-1)
 338               	.L26:
 339               	/* epilogue: frame size=2 */
 340 0214 E4E0      		ldi r30,4
 341 0216 2296      		adiw r28,2
 342 0218 0C94 0000 		jmp __epilogue_restores__+28
GAS LISTING D:\DOCUME~1\alex\LOCALS~1\Temp/cc5e3Thb.s 			page 7


 343               	/* epilogue end (size=4) */
 344               	/* function set_instrument_nsel size 39 (29) */
 345               		.size	set_instrument_nsel, .-set_instrument_nsel
 346               	.global	set_output
 347               		.type	set_output, @function
 348               	set_output:
 349               	/* prologue: frame size=4 */
 350 021c A4E0      		ldi r26,lo8(4)
 351 021e B0E0      		ldi r27,hi8(4)
 352 0220 E0E0      		ldi r30,pm_lo8(1f)
 353 0222 F0E0      		ldi r31,pm_hi8(1f)
 354 0224 0C94 0000 		jmp __prologue_saves__+32
 355               	1:
 356               	/* prologue end (size=6) */
 357 0228 BE01      		movw r22,r28
 358 022a 6F5F      		subi r22,lo8(-(1))
 359 022c 7F4F      		sbci r23,hi8(-(1))
 360 022e 0E94 0000 		call scpi_get_long_unit
 361 0232 AC01      		movw r20,r24
 362 0234 892B      		or r24,r25
 363 0236 01F4      		brne .L30
 364 0238 8091 0000 		lds r24,dev
 365 023c 90E0      		ldi r25,lo8(0)
 366 023e 2BE1      		ldi r18,lo8(27)
 367 0240 30E0      		ldi r19,hi8(27)
 368 0242 829F      		mul r24,r18
 369 0244 F001      		movw r30,r0
 370 0246 839F      		mul r24,r19
 371 0248 F00D      		add r31,r0
 372 024a 929F      		mul r25,r18
 373 024c F00D      		add r31,r0
 374 024e 1124      		clr r1
 375 0250 E050      		subi r30,lo8(-(powersupply))
 376 0252 F040      		sbci r31,hi8(-(powersupply))
 377 0254 128E      		std Z+26,__zero_reg__
 378               	.L30:
 379 0256 CA01      		movw r24,r20
 380               	/* epilogue: frame size=4 */
 381 0258 E2E0      		ldi r30,2
 382 025a 2496      		adiw r28,4
 383 025c 0C94 0000 		jmp __epilogue_restores__+32
 384               	/* epilogue end (size=4) */
 385               	/* function set_output size 34 (24) */
 386               		.size	set_output, .-set_output
 387               	.global	set_sweep_time
 388               		.type	set_sweep_time, @function
 389               	set_sweep_time:
 390               	/* prologue: frame size=4 */
 391 0260 A4E0      		ldi r26,lo8(4)
 392 0262 B0E0      		ldi r27,hi8(4)
 393 0264 E0E0      		ldi r30,pm_lo8(1f)
 394 0266 F0E0      		ldi r31,pm_hi8(1f)
 395 0268 0C94 0000 		jmp __prologue_saves__+32
 396               	1:
 397               	/* prologue end (size=6) */
 398 026c BE01      		movw r22,r28
 399 026e 6F5F      		subi r22,lo8(-(1))
GAS LISTING D:\DOCUME~1\alex\LOCALS~1\Temp/cc5e3Thb.s 			page 8


 400 0270 7F4F      		sbci r23,hi8(-(1))
 401 0272 0E94 0000 		call scpi_get_long_unit
 402 0276 AC01      		movw r20,r24
 403 0278 892B      		or r24,r25
 404 027a 01F4      		brne .L34
 405 027c 8091 0000 		lds r24,dev
 406 0280 90E0      		ldi r25,lo8(0)
 407 0282 2BE1      		ldi r18,lo8(27)
 408 0284 30E0      		ldi r19,hi8(27)
 409 0286 829F      		mul r24,r18
 410 0288 F001      		movw r30,r0
 411 028a 839F      		mul r24,r19
 412 028c F00D      		add r31,r0
 413 028e 929F      		mul r25,r18
 414 0290 F00D      		add r31,r0
 415 0292 1124      		clr r1
 416 0294 E050      		subi r30,lo8(-(powersupply))
 417 0296 F040      		sbci r31,hi8(-(powersupply))
 418 0298 8981      		ldd r24,Y+1
 419 029a 9A81      		ldd r25,Y+2
 420 029c AB81      		ldd r26,Y+3
 421 029e BC81      		ldd r27,Y+4
 422 02a0 868B      		std Z+22,r24
 423 02a2 978B      		std Z+23,r25
 424 02a4 A08F      		std Z+24,r26
 425 02a6 B18F      		std Z+25,r27
 426               	.L34:
 427 02a8 CA01      		movw r24,r20
 428               	/* epilogue: frame size=4 */
 429 02aa E2E0      		ldi r30,2
 430 02ac 2496      		adiw r28,4
 431 02ae 0C94 0000 		jmp __epilogue_restores__+32
 432               	/* epilogue end (size=4) */
 433               	/* function set_sweep_time size 41 (31) */
 434               		.size	set_sweep_time, .-set_sweep_time
 435               	.global	set_sweep_step
 436               		.type	set_sweep_step, @function
 437               	set_sweep_step:
 438               	/* prologue: frame size=4 */
 439 02b2 A4E0      		ldi r26,lo8(4)
 440 02b4 B0E0      		ldi r27,hi8(4)
 441 02b6 E0E0      		ldi r30,pm_lo8(1f)
 442 02b8 F0E0      		ldi r31,pm_hi8(1f)
 443 02ba 0C94 0000 		jmp __prologue_saves__+32
 444               	1:
 445               	/* prologue end (size=6) */
 446 02be BE01      		movw r22,r28
 447 02c0 6F5F      		subi r22,lo8(-(1))
 448 02c2 7F4F      		sbci r23,hi8(-(1))
 449 02c4 0E94 0000 		call scpi_get_long_unit
 450 02c8 AC01      		movw r20,r24
 451 02ca 892B      		or r24,r25
 452 02cc 01F4      		brne .L38
 453 02ce 8091 0000 		lds r24,dev
 454 02d2 90E0      		ldi r25,lo8(0)
 455 02d4 2BE1      		ldi r18,lo8(27)
 456 02d6 30E0      		ldi r19,hi8(27)
GAS LISTING D:\DOCUME~1\alex\LOCALS~1\Temp/cc5e3Thb.s 			page 9


 457 02d8 829F      		mul r24,r18
 458 02da F001      		movw r30,r0
 459 02dc 839F      		mul r24,r19
 460 02de F00D      		add r31,r0
 461 02e0 929F      		mul r25,r18
 462 02e2 F00D      		add r31,r0
 463 02e4 1124      		clr r1
 464 02e6 E050      		subi r30,lo8(-(powersupply))
 465 02e8 F040      		sbci r31,hi8(-(powersupply))
 466 02ea 8981      		ldd r24,Y+1
 467 02ec 9A81      		ldd r25,Y+2
 468 02ee AB81      		ldd r26,Y+3
 469 02f0 BC81      		ldd r27,Y+4
 470 02f2 818B      		std Z+17,r24
 471 02f4 928B      		std Z+18,r25
 472 02f6 A38B      		std Z+19,r26
 473 02f8 B48B      		std Z+20,r27
 474               	.L38:
 475 02fa CA01      		movw r24,r20
 476               	/* epilogue: frame size=4 */
 477 02fc E2E0      		ldi r30,2
 478 02fe 2496      		adiw r28,4
 479 0300 0C94 0000 		jmp __epilogue_restores__+32
 480               	/* epilogue end (size=4) */
 481               	/* function set_sweep_step size 41 (31) */
 482               		.size	set_sweep_step, .-set_sweep_step
 483               	.global	set_sweep_stop
 484               		.type	set_sweep_stop, @function
 485               	set_sweep_stop:
 486               	/* prologue: frame size=4 */
 487 0304 A4E0      		ldi r26,lo8(4)
 488 0306 B0E0      		ldi r27,hi8(4)
 489 0308 E0E0      		ldi r30,pm_lo8(1f)
 490 030a F0E0      		ldi r31,pm_hi8(1f)
 491 030c 0C94 0000 		jmp __prologue_saves__+32
 492               	1:
 493               	/* prologue end (size=6) */
 494 0310 BE01      		movw r22,r28
 495 0312 6F5F      		subi r22,lo8(-(1))
 496 0314 7F4F      		sbci r23,hi8(-(1))
 497 0316 0E94 0000 		call scpi_get_long_unit
 498 031a AC01      		movw r20,r24
 499 031c 892B      		or r24,r25
 500 031e 01F4      		brne .L42
 501 0320 8091 0000 		lds r24,dev
 502 0324 90E0      		ldi r25,lo8(0)
 503 0326 2BE1      		ldi r18,lo8(27)
 504 0328 30E0      		ldi r19,hi8(27)
 505 032a 829F      		mul r24,r18
 506 032c F001      		movw r30,r0
 507 032e 839F      		mul r24,r19
 508 0330 F00D      		add r31,r0
 509 0332 929F      		mul r25,r18
 510 0334 F00D      		add r31,r0
 511 0336 1124      		clr r1
 512 0338 E050      		subi r30,lo8(-(powersupply))
 513 033a F040      		sbci r31,hi8(-(powersupply))
GAS LISTING D:\DOCUME~1\alex\LOCALS~1\Temp/cc5e3Thb.s 			page 10


 514 033c 8981      		ldd r24,Y+1
 515 033e 9A81      		ldd r25,Y+2
 516 0340 AB81      		ldd r26,Y+3
 517 0342 BC81      		ldd r27,Y+4
 518 0344 8587      		std Z+13,r24
 519 0346 9687      		std Z+14,r25
 520 0348 A787      		std Z+15,r26
 521 034a B08B      		std Z+16,r27
 522               	.L42:
 523 034c CA01      		movw r24,r20
 524               	/* epilogue: frame size=4 */
 525 034e E2E0      		ldi r30,2
 526 0350 2496      		adiw r28,4
 527 0352 0C94 0000 		jmp __epilogue_restores__+32
 528               	/* epilogue end (size=4) */
 529               	/* function set_sweep_stop size 41 (31) */
 530               		.size	set_sweep_stop, .-set_sweep_stop
 531               	.global	set_sweep_start
 532               		.type	set_sweep_start, @function
 533               	set_sweep_start:
 534               	/* prologue: frame size=4 */
 535 0356 A4E0      		ldi r26,lo8(4)
 536 0358 B0E0      		ldi r27,hi8(4)
 537 035a E0E0      		ldi r30,pm_lo8(1f)
 538 035c F0E0      		ldi r31,pm_hi8(1f)
 539 035e 0C94 0000 		jmp __prologue_saves__+32
 540               	1:
 541               	/* prologue end (size=6) */
 542 0362 BE01      		movw r22,r28
 543 0364 6F5F      		subi r22,lo8(-(1))
 544 0366 7F4F      		sbci r23,hi8(-(1))
 545 0368 0E94 0000 		call scpi_get_long_unit
 546 036c AC01      		movw r20,r24
 547 036e 892B      		or r24,r25
 548 0370 01F4      		brne .L46
 549 0372 8091 0000 		lds r24,dev
 550 0376 90E0      		ldi r25,lo8(0)
 551 0378 2BE1      		ldi r18,lo8(27)
 552 037a 30E0      		ldi r19,hi8(27)
 553 037c 829F      		mul r24,r18
 554 037e F001      		movw r30,r0
 555 0380 839F      		mul r24,r19
 556 0382 F00D      		add r31,r0
 557 0384 929F      		mul r25,r18
 558 0386 F00D      		add r31,r0
 559 0388 1124      		clr r1
 560 038a E050      		subi r30,lo8(-(powersupply))
 561 038c F040      		sbci r31,hi8(-(powersupply))
 562 038e 8981      		ldd r24,Y+1
 563 0390 9A81      		ldd r25,Y+2
 564 0392 AB81      		ldd r26,Y+3
 565 0394 BC81      		ldd r27,Y+4
 566 0396 8187      		std Z+9,r24
 567 0398 9287      		std Z+10,r25
 568 039a A387      		std Z+11,r26
 569 039c B487      		std Z+12,r27
 570               	.L46:
GAS LISTING D:\DOCUME~1\alex\LOCALS~1\Temp/cc5e3Thb.s 			page 11


 571 039e CA01      		movw r24,r20
 572               	/* epilogue: frame size=4 */
 573 03a0 E2E0      		ldi r30,2
 574 03a2 2496      		adiw r28,4
 575 03a4 0C94 0000 		jmp __epilogue_restores__+32
 576               	/* epilogue end (size=4) */
 577               	/* function set_sweep_start size 41 (31) */
 578               		.size	set_sweep_start, .-set_sweep_start
 579               	.global	set_current
 580               		.type	set_current, @function
 581               	set_current:
 582               	/* prologue: frame size=4 */
 583 03a8 A4E0      		ldi r26,lo8(4)
 584 03aa B0E0      		ldi r27,hi8(4)
 585 03ac E0E0      		ldi r30,pm_lo8(1f)
 586 03ae F0E0      		ldi r31,pm_hi8(1f)
 587 03b0 0C94 0000 		jmp __prologue_saves__+32
 588               	1:
 589               	/* prologue end (size=6) */
 590 03b4 BE01      		movw r22,r28
 591 03b6 6F5F      		subi r22,lo8(-(1))
 592 03b8 7F4F      		sbci r23,hi8(-(1))
 593 03ba 0E94 0000 		call scpi_get_long_unit
 594 03be AC01      		movw r20,r24
 595 03c0 892B      		or r24,r25
 596 03c2 01F4      		brne .L50
 597 03c4 8091 0000 		lds r24,dev
 598 03c8 90E0      		ldi r25,lo8(0)
 599 03ca 2BE1      		ldi r18,lo8(27)
 600 03cc 30E0      		ldi r19,hi8(27)
 601 03ce 829F      		mul r24,r18
 602 03d0 F001      		movw r30,r0
 603 03d2 839F      		mul r24,r19
 604 03d4 F00D      		add r31,r0
 605 03d6 929F      		mul r25,r18
 606 03d8 F00D      		add r31,r0
 607 03da 1124      		clr r1
 608 03dc E050      		subi r30,lo8(-(powersupply))
 609 03de F040      		sbci r31,hi8(-(powersupply))
 610 03e0 8981      		ldd r24,Y+1
 611 03e2 9A81      		ldd r25,Y+2
 612 03e4 AB81      		ldd r26,Y+3
 613 03e6 BC81      		ldd r27,Y+4
 614 03e8 8483      		std Z+4,r24
 615 03ea 9583      		std Z+5,r25
 616 03ec A683      		std Z+6,r26
 617 03ee B783      		std Z+7,r27
 618               	.L50:
 619 03f0 CA01      		movw r24,r20
 620               	/* epilogue: frame size=4 */
 621 03f2 E2E0      		ldi r30,2
 622 03f4 2496      		adiw r28,4
 623 03f6 0C94 0000 		jmp __epilogue_restores__+32
 624               	/* epilogue end (size=4) */
 625               	/* function set_current size 41 (31) */
 626               		.size	set_current, .-set_current
 627               	.global	set_voltage
GAS LISTING D:\DOCUME~1\alex\LOCALS~1\Temp/cc5e3Thb.s 			page 12


 628               		.type	set_voltage, @function
 629               	set_voltage:
 630               	/* prologue: frame size=4 */
 631 03fa A4E0      		ldi r26,lo8(4)
 632 03fc B0E0      		ldi r27,hi8(4)
 633 03fe E0E0      		ldi r30,pm_lo8(1f)
 634 0400 F0E0      		ldi r31,pm_hi8(1f)
 635 0402 0C94 0000 		jmp __prologue_saves__+32
 636               	1:
 637               	/* prologue end (size=6) */
 638 0406 BE01      		movw r22,r28
 639 0408 6F5F      		subi r22,lo8(-(1))
 640 040a 7F4F      		sbci r23,hi8(-(1))
 641 040c 0E94 0000 		call scpi_get_long_unit
 642 0410 AC01      		movw r20,r24
 643 0412 892B      		or r24,r25
 644 0414 01F4      		brne .L54
 645 0416 8091 0000 		lds r24,dev
 646 041a 90E0      		ldi r25,lo8(0)
 647 041c 2BE1      		ldi r18,lo8(27)
 648 041e 30E0      		ldi r19,hi8(27)
 649 0420 829F      		mul r24,r18
 650 0422 F001      		movw r30,r0
 651 0424 839F      		mul r24,r19
 652 0426 F00D      		add r31,r0
 653 0428 929F      		mul r25,r18
 654 042a F00D      		add r31,r0
 655 042c 1124      		clr r1
 656 042e E050      		subi r30,lo8(-(powersupply))
 657 0430 F040      		sbci r31,hi8(-(powersupply))
 658 0432 8981      		ldd r24,Y+1
 659 0434 9A81      		ldd r25,Y+2
 660 0436 AB81      		ldd r26,Y+3
 661 0438 BC81      		ldd r27,Y+4
 662 043a 8083      		st Z,r24
 663 043c 9183      		std Z+1,r25
 664 043e A283      		std Z+2,r26
 665 0440 B383      		std Z+3,r27
 666               	.L54:
 667 0442 CA01      		movw r24,r20
 668               	/* epilogue: frame size=4 */
 669 0444 E2E0      		ldi r30,2
 670 0446 2496      		adiw r28,4
 671 0448 0C94 0000 		jmp __epilogue_restores__+32
 672               	/* epilogue end (size=4) */
 673               	/* function set_voltage size 41 (31) */
 674               		.size	set_voltage, .-set_voltage
 675               		.comm dev,1,1
 676               		.comm powersupply,108,1
 677               	/* File "hv_supply.c": code  550 = 0x0226 ( 453), prologues  54, epilogues  43 */
GAS LISTING D:\DOCUME~1\alex\LOCALS~1\Temp/cc5e3Thb.s 			page 13


DEFINED SYMBOLS
                            *ABS*:00000000 hv_supply.c
D:\DOCUME~1\alex\LOCALS~1\Temp/cc5e3Thb.s:2      *ABS*:0000003f __SREG__
D:\DOCUME~1\alex\LOCALS~1\Temp/cc5e3Thb.s:3      *ABS*:0000003e __SP_H__
D:\DOCUME~1\alex\LOCALS~1\Temp/cc5e3Thb.s:4      *ABS*:0000003d __SP_L__
D:\DOCUME~1\alex\LOCALS~1\Temp/cc5e3Thb.s:5      *ABS*:00000000 __tmp_reg__
D:\DOCUME~1\alex\LOCALS~1\Temp/cc5e3Thb.s:6      *ABS*:00000001 __zero_reg__
D:\DOCUME~1\alex\LOCALS~1\Temp/cc5e3Thb.s:15     .text:00000000 do_sweep
                            *COM*:00000001 dev
                            *COM*:0000006c powersupply
D:\DOCUME~1\alex\LOCALS~1\Temp/cc5e3Thb.s:89     .text:0000008a get_instrument_nsel
D:\DOCUME~1\alex\LOCALS~1\Temp/cc5e3Thb.s:108    .text:000000a2 get_sweep_time
D:\DOCUME~1\alex\LOCALS~1\Temp/cc5e3Thb.s:140    .text:000000d4 get_sweep_step
D:\DOCUME~1\alex\LOCALS~1\Temp/cc5e3Thb.s:172    .text:00000106 get_sweep_stop
D:\DOCUME~1\alex\LOCALS~1\Temp/cc5e3Thb.s:204    .text:00000138 get_sweep_start
D:\DOCUME~1\alex\LOCALS~1\Temp/cc5e3Thb.s:236    .text:0000016a get_current
D:\DOCUME~1\alex\LOCALS~1\Temp/cc5e3Thb.s:268    .text:0000019c get_voltage
D:\DOCUME~1\alex\LOCALS~1\Temp/cc5e3Thb.s:300    .text:000001ce set_instrument_nsel
D:\DOCUME~1\alex\LOCALS~1\Temp/cc5e3Thb.s:348    .text:0000021c set_output
D:\DOCUME~1\alex\LOCALS~1\Temp/cc5e3Thb.s:389    .text:00000260 set_sweep_time
D:\DOCUME~1\alex\LOCALS~1\Temp/cc5e3Thb.s:437    .text:000002b2 set_sweep_step
D:\DOCUME~1\alex\LOCALS~1\Temp/cc5e3Thb.s:485    .text:00000304 set_sweep_stop
D:\DOCUME~1\alex\LOCALS~1\Temp/cc5e3Thb.s:533    .text:00000356 set_sweep_start
D:\DOCUME~1\alex\LOCALS~1\Temp/cc5e3Thb.s:581    .text:000003a8 set_current
D:\DOCUME~1\alex\LOCALS~1\Temp/cc5e3Thb.s:629    .text:000003fa set_voltage

UNDEFINED SYMBOLS
__do_copy_data
__do_clear_bss
__prologue_saves__
uart_puts
ltostr
__epilogue_restores__
return_buf
strtol
scpi_get_long_unit
