GAS LISTING D:\DOCUME~1\alex\LOCALS~1\Temp/ccmkm7GZ.s 			page 1


   1               		.file	"scpi_cmds.c"
   2               	__SREG__ = 0x3f
   3               	__SP_H__ = 0x3e
   4               	__SP_L__ = 0x3d
   5               	__tmp_reg__ = 0
   6               	__zero_reg__ = 1
   7               		.global __do_copy_data
   8               		.global __do_clear_bss
   9               		.text
  10               	.global	scpi_dummy
  11               		.type	scpi_dummy, @function
  12               	scpi_dummy:
  13               	/* prologue: frame size=0 */
  14               	/* prologue end (size=0) */
  15 0000 80E0      		ldi r24,lo8(0)
  16 0002 90E0      		ldi r25,hi8(0)
  17               	/* epilogue: frame size=0 */
  18 0004 0895      		ret
  19               	/* epilogue end (size=1) */
  20               	/* function scpi_dummy size 3 (2) */
  21               		.size	scpi_dummy, .-scpi_dummy
  22               	.global	scpi_function
  23               		.type	scpi_function, @function
  24               	scpi_function:
  25               	/* prologue: frame size=0 */
  26               	/* prologue end (size=0) */
  27 0006 90E0      		ldi r25,lo8(0)
  28 0008 FC01      		movw r30,r24
  29 000a 3C97      		sbiw r30,12
  30 000c E031      		cpi r30,16
  31 000e F105      		cpc r31,__zero_reg__
  32 0010 00F4      		brsh .L4
  33 0012 E050      		subi r30,lo8(-(gs(.L21)))
****  Warning:expression dangerous with linker stubs
  34 0014 F040      		sbci r31,hi8(-(gs(.L21)))
****  Warning:expression dangerous with linker stubs
  35 0016 0C94 0000 		jmp __tablejump2__
  36               		.data
  37               		.section .progmem.gcc_sw_table, "a", @progbits
  38               		.p2align 1
  39               	.L21:
  40               		.data
  41               		.section .progmem.gcc_sw_table, "a", @progbits
  42               		.p2align 1
  43 0000 0000      		.word gs(.L5)
  44 0002 0000      		.word gs(.L6)
  45 0004 0000      		.word gs(.L7)
  46 0006 0000      		.word gs(.L8)
  47 0008 0000      		.word gs(.L9)
  48 000a 0000      		.word gs(.L10)
  49 000c 0000      		.word gs(.L11)
  50 000e 0000      		.word gs(.L12)
  51 0010 0000      		.word gs(.L13)
  52 0012 0000      		.word gs(.L14)
  53 0014 0000      		.word gs(.L15)
  54 0016 0000      		.word gs(.L16)
  55 0018 0000      		.word gs(.L17)
GAS LISTING D:\DOCUME~1\alex\LOCALS~1\Temp/ccmkm7GZ.s 			page 2


  56 001a 0000      		.word gs(.L18)
  57 001c 0000      		.word gs(.L19)
  58 001e 0000      		.word gs(.L20)
  59               		.text
  60               	.L4:
  61 001a 8EEF      		ldi r24,lo8(-2)
  62 001c 00C0      		rjmp .L22
  63               	.L5:
  64 001e CB01      		movw r24,r22
  65 0020 0E94 0000 		call get_voltage
  66 0024 00C0      		rjmp .L22
  67               	.L6:
  68 0026 CB01      		movw r24,r22
  69 0028 0E94 0000 		call set_voltage
  70 002c 00C0      		rjmp .L22
  71               	.L7:
  72 002e CB01      		movw r24,r22
  73 0030 0E94 0000 		call get_current
  74 0034 00C0      		rjmp .L22
  75               	.L8:
  76 0036 CB01      		movw r24,r22
  77 0038 0E94 0000 		call set_current
  78 003c 00C0      		rjmp .L22
  79               	.L9:
  80 003e CB01      		movw r24,r22
  81 0040 0E94 0000 		call get_sweep_start
  82 0044 00C0      		rjmp .L22
  83               	.L10:
  84 0046 CB01      		movw r24,r22
  85 0048 0E94 0000 		call set_sweep_start
  86 004c 00C0      		rjmp .L22
  87               	.L11:
  88 004e CB01      		movw r24,r22
  89 0050 0E94 0000 		call get_sweep_stop
  90 0054 00C0      		rjmp .L22
  91               	.L12:
  92 0056 CB01      		movw r24,r22
  93 0058 0E94 0000 		call set_sweep_stop
  94 005c 00C0      		rjmp .L22
  95               	.L13:
  96 005e CB01      		movw r24,r22
  97 0060 0E94 0000 		call get_sweep_step
  98 0064 00C0      		rjmp .L22
  99               	.L14:
 100 0066 CB01      		movw r24,r22
 101 0068 0E94 0000 		call set_sweep_step
 102 006c 00C0      		rjmp .L22
 103               	.L15:
 104 006e CB01      		movw r24,r22
 105 0070 0E94 0000 		call get_sweep_time
 106 0074 00C0      		rjmp .L22
 107               	.L16:
 108 0076 CB01      		movw r24,r22
 109 0078 0E94 0000 		call set_sweep_time
 110 007c 00C0      		rjmp .L22
 111               	.L17:
 112 007e CB01      		movw r24,r22
GAS LISTING D:\DOCUME~1\alex\LOCALS~1\Temp/ccmkm7GZ.s 			page 3


 113 0080 0E94 0000 		call do_sweep
 114 0084 00C0      		rjmp .L22
 115               	.L18:
 116 0086 CB01      		movw r24,r22
 117 0088 0E94 0000 		call set_output
 118 008c 00C0      		rjmp .L22
 119               	.L19:
 120 008e CB01      		movw r24,r22
 121 0090 0E94 0000 		call set_instrument_nsel
 122 0094 00C0      		rjmp .L22
 123               	.L20:
 124 0096 CB01      		movw r24,r22
 125 0098 0E94 0000 		call get_instrument_nsel
 126               	.L22:
 127 009c 90E0      		ldi r25,lo8(0)
 128               	/* epilogue: frame size=0 */
 129 009e 0895      		ret
 130               	/* epilogue end (size=1) */
 131               	/* function scpi_function size 93 (92) */
 132               		.size	scpi_function, .-scpi_function
 133               	.global	key00
 134               		.section	.progmem.data,"a",@progbits
 135               		.type	key00, @object
 136               		.size	key00, 5
 137               	key00:
 138 0000 2A43 4C53 		.string	"*CLS"
 138      00
 139               	.global	key01
 140               		.type	key01, @object
 141               		.size	key01, 5
 142               	key01:
 143 0005 2A45 5345 		.string	"*ESE"
 143      00
 144               	.global	key02
 145               		.type	key02, @object
 146               		.size	key02, 6
 147               	key02:
 148 000a 2A45 5345 		.string	"*ESE?"
 148      3F00 
 149               	.global	key03
 150               		.type	key03, @object
 151               		.size	key03, 5
 152               	key03:
 153 0010 2A49 444E 		.string	"*IDN"
 153      00
 154               	.global	key04
 155               		.type	key04, @object
 156               		.size	key04, 5
 157               	key04:
 158 0015 2A4F 5043 		.string	"*OPC"
 158      00
 159               	.global	key05
 160               		.type	key05, @object
 161               		.size	key05, 6
 162               	key05:
 163 001a 2A4F 5043 		.string	"*OPC?"
 163      3F00 
GAS LISTING D:\DOCUME~1\alex\LOCALS~1\Temp/ccmkm7GZ.s 			page 4


 164               	.global	key06
 165               		.type	key06, @object
 166               		.size	key06, 5
 167               	key06:
 168 0020 2A52 5354 		.string	"*RST"
 168      00
 169               	.global	key07
 170               		.type	key07, @object
 171               		.size	key07, 5
 172               	key07:
 173 0025 2A53 5245 		.string	"*SRE"
 173      00
 174               	.global	key08
 175               		.type	key08, @object
 176               		.size	key08, 6
 177               	key08:
 178 002a 2A53 5245 		.string	"*SRE?"
 178      3F00 
 179               	.global	key09
 180               		.type	key09, @object
 181               		.size	key09, 5
 182               	key09:
 183 0030 2A53 5442 		.string	"*STB"
 183      00
 184               	.global	key10
 185               		.type	key10, @object
 186               		.size	key10, 6
 187               	key10:
 188 0035 2A54 5354 		.string	"*TST?"
 188      3F00 
 189               	.global	key11
 190               		.type	key11, @object
 191               		.size	key11, 5
 192               	key11:
 193 003b 2A57 4149 		.string	"*WAI"
 193      00
 194               	.global	key12
 195               		.type	key12, @object
 196               		.size	key12, 9
 197               	key12:
 198 0040 564F 4C54 		.string	"VOLTage?"
 198      6167 653F 
 198      00
 199               	.global	key13
 200               		.type	key13, @object
 201               		.size	key13, 8
 202               	key13:
 203 0049 564F 4C54 		.string	"VOLTage"
 203      6167 6500 
 204               	.global	key14
 205               		.type	key14, @object
 206               		.size	key14, 9
 207               	key14:
 208 0051 4355 5252 		.string	"CURRent?"
 208      656E 743F 
 208      00
 209               	.global	key15
GAS LISTING D:\DOCUME~1\alex\LOCALS~1\Temp/ccmkm7GZ.s 			page 5


 210               		.type	key15, @object
 211               		.size	key15, 8
 212               	key15:
 213 005a 4355 5252 		.string	"CURRent"
 213      656E 7400 
 214               	.global	key16
 215               		.type	key16, @object
 216               		.size	key16, 13
 217               	key16:
 218 0062 5357 4565 		.string	"SWEep:STArt?"
 218      703A 5354 
 218      4172 743F 
 218      00
 219               	.global	key17
 220               		.type	key17, @object
 221               		.size	key17, 12
 222               	key17:
 223 006f 5357 4565 		.string	"SWEep:STArt"
 223      703A 5354 
 223      4172 7400 
 224               	.global	key18
 225               		.type	key18, @object
 226               		.size	key18, 12
 227               	key18:
 228 007b 5357 4565 		.string	"SWEeP:STOP?"
 228      503A 5354 
 228      4F50 3F00 
 229               	.global	key19
 230               		.type	key19, @object
 231               		.size	key19, 11
 232               	key19:
 233 0087 5357 4565 		.string	"SWEep:STOP"
 233      703A 5354 
 233      4F50 00
 234               	.global	key20
 235               		.type	key20, @object
 236               		.size	key20, 12
 237               	key20:
 238 0092 5357 4565 		.string	"SWEep:STEP?"
 238      703A 5354 
 238      4550 3F00 
 239               	.global	key21
 240               		.type	key21, @object
 241               		.size	key21, 11
 242               	key21:
 243 009e 5357 4565 		.string	"SWEep:STEP"
 243      703A 5354 
 243      4550 00
 244               	.global	key22
 245               		.type	key22, @object
 246               		.size	key22, 12
 247               	key22:
 248 00a9 5357 4565 		.string	"SWEep:TIME?"
 248      703A 5449 
 248      4D45 3F00 
 249               	.global	key23
 250               		.type	key23, @object
GAS LISTING D:\DOCUME~1\alex\LOCALS~1\Temp/ccmkm7GZ.s 			page 6


 251               		.size	key23, 11
 252               	key23:
 253 00b5 5357 4565 		.string	"SWEep:TIME"
 253      703A 5449 
 253      4D45 00
 254               	.global	key24
 255               		.type	key24, @object
 256               		.size	key24, 9
 257               	key24:
 258 00c0 5357 4565 		.string	"SWEep:GO"
 258      703A 474F 
 258      00
 259               	.global	key25
 260               		.type	key25, @object
 261               		.size	key25, 7
 262               	key25:
 263 00c9 4F55 5450 		.string	"OUTPut"
 263      7574 00
 264               	.global	key26
 265               		.type	key26, @object
 266               		.size	key26, 17
 267               	key26:
 268 00d0 494E 5354 		.string	"INSTrument:NSEL?"
 268      7275 6D65 
 268      6E74 3A4E 
 268      5345 4C3F 
 268      00
 269               	.global	key27
 270               		.type	key27, @object
 271               		.size	key27, 16
 272               	key27:
 273 00e1 494E 5354 		.string	"INSTrument:NSEL"
 273      7275 6D65 
 273      6E74 3A4E 
 273      5345 4C00 
 274               	.global	keywords
 275               		.type	keywords, @object
 276               		.size	keywords, 58
 277               	keywords:
 278 00f1 0000      		.word	key00
 279 00f3 0000      		.word	key01
 280 00f5 0000      		.word	key02
 281 00f7 0000      		.word	key03
 282 00f9 0000      		.word	key04
 283 00fb 0000      		.word	key05
 284 00fd 0000      		.word	key06
 285 00ff 0000      		.word	key07
 286 0101 0000      		.word	key08
 287 0103 0000      		.word	key09
 288 0105 0000      		.word	key10
 289 0107 0000      		.word	key11
 290 0109 0000      		.word	key12
 291 010b 0000      		.word	key13
 292 010d 0000      		.word	key14
 293 010f 0000      		.word	key15
 294 0111 0000      		.word	key16
 295 0113 0000      		.word	key17
GAS LISTING D:\DOCUME~1\alex\LOCALS~1\Temp/ccmkm7GZ.s 			page 7


 296 0115 0000      		.word	key18
 297 0117 0000      		.word	key19
 298 0119 0000      		.word	key20
 299 011b 0000      		.word	key21
 300 011d 0000      		.word	key22
 301 011f 0000      		.word	key23
 302 0121 0000      		.word	key24
 303 0123 0000      		.word	key25
 304 0125 0000      		.word	key26
 305 0127 0000      		.word	key27
 306 0129 0000      		.word	0
 307               	.global	units
 308               		.data
 309               		.type	units, @object
 310               		.size	units, 54
 311               	units:
 312 0000 4D56 00   		.string	"MV"
 313 0003 00        		.skip 1,0
 314 0004 01        		.byte	1
 315 0005 FD        		.byte	-3
 316 0006 5600      		.string	"V"
 317 0008 0000      		.skip 2,0
 318 000a 01        		.byte	1
 319 000b 00        		.byte	0
 320 000c 4B56 00   		.string	"KV"
 321 000f 00        		.skip 1,0
 322 0010 01        		.byte	1
 323 0011 03        		.byte	3
 324 0012 5541 00   		.string	"UA"
 325 0015 00        		.skip 1,0
 326 0016 02        		.byte	2
 327 0017 FA        		.byte	-6
 328 0018 4D41 00   		.string	"MA"
 329 001b 00        		.skip 1,0
 330 001c 02        		.byte	2
 331 001d FD        		.byte	-3
 332 001e 4100      		.string	"A"
 333 0020 0000      		.skip 2,0
 334 0022 02        		.byte	2
 335 0023 00        		.byte	0
 336 0024 4D53 00   		.string	"MS"
 337 0027 00        		.skip 1,0
 338 0028 03        		.byte	3
 339 0029 FD        		.byte	-3
 340 002a 5300      		.string	"S"
 341 002c 0000      		.skip 2,0
 342 002e 03        		.byte	3
 343 002f 00        		.byte	0
 344 0030 00        		.string	""
 345 0031 0000 00   		.skip 3,0
 346 0034 04        		.byte	4
 347 0035 00        		.byte	0
 348               	/* File "scpi_cmds.c": code   96 = 0x0060 (  94), prologues   0, epilogues   2 */
GAS LISTING D:\DOCUME~1\alex\LOCALS~1\Temp/ccmkm7GZ.s 			page 8


DEFINED SYMBOLS
                            *ABS*:00000000 scpi_cmds.c
D:\DOCUME~1\alex\LOCALS~1\Temp/ccmkm7GZ.s:2      *ABS*:0000003f __SREG__
D:\DOCUME~1\alex\LOCALS~1\Temp/ccmkm7GZ.s:3      *ABS*:0000003e __SP_H__
D:\DOCUME~1\alex\LOCALS~1\Temp/ccmkm7GZ.s:4      *ABS*:0000003d __SP_L__
D:\DOCUME~1\alex\LOCALS~1\Temp/ccmkm7GZ.s:5      *ABS*:00000000 __tmp_reg__
D:\DOCUME~1\alex\LOCALS~1\Temp/ccmkm7GZ.s:6      *ABS*:00000001 __zero_reg__
D:\DOCUME~1\alex\LOCALS~1\Temp/ccmkm7GZ.s:12     .text:00000000 scpi_dummy
D:\DOCUME~1\alex\LOCALS~1\Temp/ccmkm7GZ.s:24     .text:00000006 scpi_function
D:\DOCUME~1\alex\LOCALS~1\Temp/ccmkm7GZ.s:137    .progmem.data:00000000 key00
D:\DOCUME~1\alex\LOCALS~1\Temp/ccmkm7GZ.s:142    .progmem.data:00000005 key01
D:\DOCUME~1\alex\LOCALS~1\Temp/ccmkm7GZ.s:147    .progmem.data:0000000a key02
D:\DOCUME~1\alex\LOCALS~1\Temp/ccmkm7GZ.s:152    .progmem.data:00000010 key03
D:\DOCUME~1\alex\LOCALS~1\Temp/ccmkm7GZ.s:157    .progmem.data:00000015 key04
D:\DOCUME~1\alex\LOCALS~1\Temp/ccmkm7GZ.s:162    .progmem.data:0000001a key05
D:\DOCUME~1\alex\LOCALS~1\Temp/ccmkm7GZ.s:167    .progmem.data:00000020 key06
D:\DOCUME~1\alex\LOCALS~1\Temp/ccmkm7GZ.s:172    .progmem.data:00000025 key07
D:\DOCUME~1\alex\LOCALS~1\Temp/ccmkm7GZ.s:177    .progmem.data:0000002a key08
D:\DOCUME~1\alex\LOCALS~1\Temp/ccmkm7GZ.s:182    .progmem.data:00000030 key09
D:\DOCUME~1\alex\LOCALS~1\Temp/ccmkm7GZ.s:187    .progmem.data:00000035 key10
D:\DOCUME~1\alex\LOCALS~1\Temp/ccmkm7GZ.s:192    .progmem.data:0000003b key11
D:\DOCUME~1\alex\LOCALS~1\Temp/ccmkm7GZ.s:197    .progmem.data:00000040 key12
D:\DOCUME~1\alex\LOCALS~1\Temp/ccmkm7GZ.s:202    .progmem.data:00000049 key13
D:\DOCUME~1\alex\LOCALS~1\Temp/ccmkm7GZ.s:207    .progmem.data:00000051 key14
D:\DOCUME~1\alex\LOCALS~1\Temp/ccmkm7GZ.s:212    .progmem.data:0000005a key15
D:\DOCUME~1\alex\LOCALS~1\Temp/ccmkm7GZ.s:217    .progmem.data:00000062 key16
D:\DOCUME~1\alex\LOCALS~1\Temp/ccmkm7GZ.s:222    .progmem.data:0000006f key17
D:\DOCUME~1\alex\LOCALS~1\Temp/ccmkm7GZ.s:227    .progmem.data:0000007b key18
D:\DOCUME~1\alex\LOCALS~1\Temp/ccmkm7GZ.s:232    .progmem.data:00000087 key19
D:\DOCUME~1\alex\LOCALS~1\Temp/ccmkm7GZ.s:237    .progmem.data:00000092 key20
D:\DOCUME~1\alex\LOCALS~1\Temp/ccmkm7GZ.s:242    .progmem.data:0000009e key21
D:\DOCUME~1\alex\LOCALS~1\Temp/ccmkm7GZ.s:247    .progmem.data:000000a9 key22
D:\DOCUME~1\alex\LOCALS~1\Temp/ccmkm7GZ.s:252    .progmem.data:000000b5 key23
D:\DOCUME~1\alex\LOCALS~1\Temp/ccmkm7GZ.s:257    .progmem.data:000000c0 key24
D:\DOCUME~1\alex\LOCALS~1\Temp/ccmkm7GZ.s:262    .progmem.data:000000c9 key25
D:\DOCUME~1\alex\LOCALS~1\Temp/ccmkm7GZ.s:267    .progmem.data:000000d0 key26
D:\DOCUME~1\alex\LOCALS~1\Temp/ccmkm7GZ.s:272    .progmem.data:000000e1 key27
D:\DOCUME~1\alex\LOCALS~1\Temp/ccmkm7GZ.s:277    .progmem.data:000000f1 keywords
D:\DOCUME~1\alex\LOCALS~1\Temp/ccmkm7GZ.s:311    .data:00000000 units

UNDEFINED SYMBOLS
__do_copy_data
__do_clear_bss
__tablejump2__
get_voltage
set_voltage
get_current
set_current
get_sweep_start
set_sweep_start
get_sweep_stop
set_sweep_stop
get_sweep_step
set_sweep_step
get_sweep_time
set_sweep_time
do_sweep
GAS LISTING D:\DOCUME~1\alex\LOCALS~1\Temp/ccmkm7GZ.s 			page 9


set_output
set_instrument_nsel
get_instrument_nsel
