Archive member included because of file (symbol)

e:/winavr-20071221/bin/../lib/gcc/avr/4.2.2/avr5\libgcc.a(_exit.o)
                              e:/winavr-20071221/bin/../lib/gcc/avr/4.2.2/../../../../avr/lib/avr5/crtm32.o (exit)
e:/winavr-20071221/bin/../lib/gcc/avr/4.2.2/avr5\libgcc.a(_copy_data.o)
                              lcd.o (__do_copy_data)
e:/winavr-20071221/bin/../lib/gcc/avr/4.2.2/avr5\libgcc.a(_clear_bss.o)
                              lcd.o (__do_clear_bss)
e:/winavr-20071221/bin/../lib/gcc/avr/4.2.2/avr5\libgcc.a(_mul_sf.o)
                              scpi.o (__mulsf3)
e:/winavr-20071221/bin/../lib/gcc/avr/4.2.2/avr5\libgcc.a(_div_sf.o)
                              scpi.o (__divsf3)
e:/winavr-20071221/bin/../lib/gcc/avr/4.2.2/avr5\libgcc.a(_gt_sf.o)
                              hv_supply2.o (__gtsf2)
e:/winavr-20071221/bin/../lib/gcc/avr/4.2.2/avr5\libgcc.a(_thenan_sf.o)
                              e:/winavr-20071221/bin/../lib/gcc/avr/4.2.2/avr5\libgcc.a(_mul_sf.o) (__thenan_sf)
e:/winavr-20071221/bin/../lib/gcc/avr/4.2.2/avr5\libgcc.a(_usi_to_sf.o)
                              hv_supply.o (__floatunsisf)
e:/winavr-20071221/bin/../lib/gcc/avr/4.2.2/avr5\libgcc.a(_prologue.o)
                              e:/winavr-20071221/bin/../lib/gcc/avr/4.2.2/avr5\libgcc.a(_mul_sf.o) (__prologue_saves__)
e:/winavr-20071221/bin/../lib/gcc/avr/4.2.2/avr5\libgcc.a(_epilogue.o)
                              e:/winavr-20071221/bin/../lib/gcc/avr/4.2.2/avr5\libgcc.a(_mul_sf.o) (__epilogue_restores__)
e:/winavr-20071221/bin/../lib/gcc/avr/4.2.2/avr5\libgcc.a(_clzsi2.o)
                              e:/winavr-20071221/bin/../lib/gcc/avr/4.2.2/avr5\libgcc.a(_usi_to_sf.o) (__clzsi2)
e:/winavr-20071221/bin/../lib/gcc/avr/4.2.2/avr5\libgcc.a(_pack_sf.o)
                              e:/winavr-20071221/bin/../lib/gcc/avr/4.2.2/avr5\libgcc.a(_mul_sf.o) (__pack_f)
e:/winavr-20071221/bin/../lib/gcc/avr/4.2.2/avr5\libgcc.a(_unpack_sf.o)
                              e:/winavr-20071221/bin/../lib/gcc/avr/4.2.2/avr5\libgcc.a(_mul_sf.o) (__unpack_f)
e:/winavr-20071221/bin/../lib/gcc/avr/4.2.2/avr5\libgcc.a(_fpcmp_parts_sf.o)
                              e:/winavr-20071221/bin/../lib/gcc/avr/4.2.2/avr5\libgcc.a(_gt_sf.o) (__fpcmp_parts_f)
e:/winavr-20071221/bin/../lib/gcc/avr/4.2.2/avr5\libgcc.a(_clz.o)
                              e:/winavr-20071221/bin/../lib/gcc/avr/4.2.2/avr5\libgcc.a(_clzsi2.o) (__clz_tab)
e:/winavr-20071221/bin/../lib/gcc/avr/4.2.2/../../../../avr/lib/avr5\libc.a(errno.o)
                              scpi.o (errno)
e:/winavr-20071221/bin/../lib/gcc/avr/4.2.2/../../../../avr/lib/avr5\libc.a(dtostrf.o)
                              hv_supply.o (dtostrf)
e:/winavr-20071221/bin/../lib/gcc/avr/4.2.2/../../../../avr/lib/avr5\libc.a(strtod.o)
                              scpi.o (strtod)
e:/winavr-20071221/bin/../lib/gcc/avr/4.2.2/../../../../avr/lib/avr5\libc.a(strtol.o)
                              hv_supply.o (strtol)
e:/winavr-20071221/bin/../lib/gcc/avr/4.2.2/../../../../avr/lib/avr5\libc.a(isalpha.o)
                              scpi.o (islower)
e:/winavr-20071221/bin/../lib/gcc/avr/4.2.2/../../../../avr/lib/avr5\libc.a(isspace.o)
                              e:/winavr-20071221/bin/../lib/gcc/avr/4.2.2/../../../../avr/lib/avr5\libc.a(strtod.o) (isspace)
e:/winavr-20071221/bin/../lib/gcc/avr/4.2.2/../../../../avr/lib/avr5\libc.a(strcpy_P.o)
                              scpi.o (strcpy_P)
e:/winavr-20071221/bin/../lib/gcc/avr/4.2.2/../../../../avr/lib/avr5\libc.a(strncasecmp_P.o)
                              e:/winavr-20071221/bin/../lib/gcc/avr/4.2.2/../../../../avr/lib/avr5\libc.a(strtod.o) (strncasecmp_P)
e:/winavr-20071221/bin/../lib/gcc/avr/4.2.2/../../../../avr/lib/avr5\libc.a(strcpy.o)
                              main.o (strcpy)
e:/winavr-20071221/bin/../lib/gcc/avr/4.2.2/../../../../avr/lib/avr5\libc.a(strncasecmp.o)
                              scpi.o (strncasecmp)
e:/winavr-20071221/bin/../lib/gcc/avr/4.2.2/../../../../avr/lib/avr5\libc.a(itoa.o)
                              scpi.o (itoa)
e:/winavr-20071221/bin/../lib/gcc/avr/4.2.2/../../../../avr/lib/avr5\libc.a(floatsisf.o)
                              e:/winavr-20071221/bin/../lib/gcc/avr/4.2.2/../../../../avr/lib/avr5\libc.a(strtod.o) (__floatunssisf)
e:/winavr-20071221/bin/../lib/gcc/avr/4.2.2/../../../../avr/lib/avr5\libc.a(fp_cmp.o)
                              e:/winavr-20071221/bin/../lib/gcc/avr/4.2.2/../../../../avr/lib/avr5\libc.a(strtod.o) (__eqsf2)
e:/winavr-20071221/bin/../lib/gcc/avr/4.2.2/../../../../avr/lib/avr5\libc.a(dtoa_prf.o)
                              e:/winavr-20071221/bin/../lib/gcc/avr/4.2.2/../../../../avr/lib/avr5\libc.a(dtostrf.o) (dtoa_prf)
e:/winavr-20071221/bin/../lib/gcc/avr/4.2.2/../../../../avr/lib/avr5\libc.a(ftoa_engine.o)
                              e:/winavr-20071221/bin/../lib/gcc/avr/4.2.2/../../../../avr/lib/avr5\libc.a(dtoa_prf.o) (__ftoa_engine)
e:/winavr-20071221/bin/../lib/gcc/avr/4.2.2/../../../../avr/lib/avr5\libc.a(cty_isfalse.o)
                              e:/winavr-20071221/bin/../lib/gcc/avr/4.2.2/../../../../avr/lib/avr5\libc.a(isalpha.o) (__ctype_isfalse)
e:/winavr-20071221/bin/../lib/gcc/avr/4.2.2/../../../../avr/lib/avr5\libc.a(strrev.o)
                              e:/winavr-20071221/bin/../lib/gcc/avr/4.2.2/../../../../avr/lib/avr5\libc.a(itoa.o) (strrev)
e:/winavr-20071221/bin/../lib/gcc/avr/4.2.2/avr5\libgcc.a(_mulsi3.o)
                              e:/winavr-20071221/bin/../lib/gcc/avr/4.2.2/../../../../avr/lib/avr5\libc.a(strtol.o) (__mulsi3)
e:/winavr-20071221/bin/../lib/gcc/avr/4.2.2/avr5\libgcc.a(_udivmodhi4.o)
                              e:/winavr-20071221/bin/../lib/gcc/avr/4.2.2/../../../../avr/lib/avr5\libc.a(itoa.o) (__udivmodhi4)
e:/winavr-20071221/bin/../lib/gcc/avr/4.2.2/avr5\libgcc.a(_udivmodsi4.o)
                              e:/winavr-20071221/bin/../lib/gcc/avr/4.2.2/../../../../avr/lib/avr5\libc.a(strtol.o) (__udivmodsi4)

Allocating common symbols
Common symbol       size              file

dev                 0x1               hv_supply.o
powersupply         0x6c              hv_supply.o
errno               0x2               e:/winavr-20071221/bin/../lib/gcc/avr/4.2.2/../../../../avr/lib/avr5\libc.a(errno.o)
uartbuf             0x20              uart.o
uart_len            0x1               uart.o
err                 0x1               hv_supply.o
uart_done           0x1               uart.o
return_buf          0x50              scpi.o
sem_uart            0x1               uart.o

Memory Configuration

Name             Origin             Length             Attributes
text             0x00000000         0x00020000         xr
data             0x00800060         0x0000ffa0         rw !x
eeprom           0x00810000         0x00010000         rw !x
fuse             0x00820000         0x00000400         rw !x
lock             0x00830000         0x00000400         rw !x
signature        0x00840000         0x00000400         rw !x
*default*        0x00000000         0xffffffff

Linker script and memory map

LOAD e:/winavr-20071221/bin/../lib/gcc/avr/4.2.2/../../../../avr/lib/avr5/crtm32.o
LOAD e:/winavr-20071221/bin/../lib/gcc/avr/4.2.2/../../../../avr/lib/avr5\libm.a
LOAD lcd.o
LOAD uart.o
LOAD hv_supply.o
LOAD main.o
LOAD hv_supply2.o
LOAD scpi.o
LOAD e:/winavr-20071221/bin/../lib/gcc/avr/4.2.2/avr5\libgcc.a
LOAD e:/winavr-20071221/bin/../lib/gcc/avr/4.2.2/../../../../avr/lib/avr5\libc.a
LOAD e:/winavr-20071221/bin/../lib/gcc/avr/4.2.2/avr5\libgcc.a

.hash
 *(.hash)

.dynsym
 *(.dynsym)

.dynstr
 *(.dynstr)

.gnu.version
 *(.gnu.version)

.gnu.version_d
 *(.gnu.version_d)

.gnu.version_r
 *(.gnu.version_r)

.rel.init
 *(.rel.init)

.rela.init
 *(.rela.init)

.rel.text
 *(.rel.text)
 *(.rel.text.*)
 *(.rel.gnu.linkonce.t*)

.rela.text
 *(.rela.text)
 *(.rela.text.*)
 *(.rela.gnu.linkonce.t*)

.rel.fini
 *(.rel.fini)

.rela.fini
 *(.rela.fini)

.rel.rodata
 *(.rel.rodata)
 *(.rel.rodata.*)
 *(.rel.gnu.linkonce.r*)

.rela.rodata
 *(.rela.rodata)
 *(.rela.rodata.*)
 *(.rela.gnu.linkonce.r*)

.rel.data
 *(.rel.data)
 *(.rel.data.*)
 *(.rel.gnu.linkonce.d*)

.rela.data
 *(.rela.data)
 *(.rela.data.*)
 *(.rela.gnu.linkonce.d*)

.rel.ctors
 *(.rel.ctors)

.rela.ctors
 *(.rela.ctors)

.rel.dtors
 *(.rel.dtors)

.rela.dtors
 *(.rela.dtors)

.rel.got
 *(.rel.got)

.rela.got
 *(.rela.got)

.rel.bss
 *(.rel.bss)

.rela.bss
 *(.rela.bss)

.rel.plt
 *(.rel.plt)

.rela.plt
 *(.rela.plt)

.text           0x00000000     0x21f6
 *(.vectors)
 .vectors       0x00000000       0x54 e:/winavr-20071221/bin/../lib/gcc/avr/4.2.2/../../../../avr/lib/avr5/crtm32.o
                0x00000000                __vectors
                0x00000000                __vector_default
 *(.vectors)
 *(.progmem.gcc*)
 *(.progmem*)
 .progmem.data  0x00000054       0x3b e:/winavr-20071221/bin/../lib/gcc/avr/4.2.2/../../../../avr/lib/avr5\libc.a(strtod.o)
 .progmem.data  0x0000008f       0xfa e:/winavr-20071221/bin/../lib/gcc/avr/4.2.2/../../../../avr/lib/avr5\libc.a(ftoa_engine.o)
                0x0000018a                . = ALIGN (0x2)
 *fill*         0x00000189        0x1 00
                0x0000018a                __trampolines_start = .
 *(.trampolines)
 .trampolines   0x0000018a        0x0 linker stubs
 *(.trampolines*)
                0x0000018a                __trampolines_end = .
 *(.jumptables)
 *(.jumptables*)
 *(.lowtext)
 *(.lowtext*)
                0x0000018a                __ctors_start = .
 *(.ctors)
                0x0000018a                __ctors_end = .
                0x0000018a                __dtors_start = .
 *(.dtors)
                0x0000018a                __dtors_end = .
 SORT(*)(.ctors)
 SORT(*)(.dtors)
 *(.init0)
 .init0         0x0000018a        0x0 e:/winavr-20071221/bin/../lib/gcc/avr/4.2.2/../../../../avr/lib/avr5/crtm32.o
                0x0000018a                __init
 *(.init0)
 *(.init1)
 *(.init1)
 *(.init2)
 .init2         0x0000018a        0xc e:/winavr-20071221/bin/../lib/gcc/avr/4.2.2/../../../../avr/lib/avr5/crtm32.o
 *(.init2)
 *(.init3)
 *(.init3)
 *(.init4)
 .init4         0x00000196       0x16 e:/winavr-20071221/bin/../lib/gcc/avr/4.2.2/avr5\libgcc.a(_copy_data.o)
                0x00000196                __do_copy_data
 .init4         0x000001ac       0x10 e:/winavr-20071221/bin/../lib/gcc/avr/4.2.2/avr5\libgcc.a(_clear_bss.o)
                0x000001ac                __do_clear_bss
 *(.init4)
 *(.init5)
 *(.init5)
 *(.init6)
 *(.init6)
 *(.init7)
 *(.init7)
 *(.init8)
 *(.init8)
 *(.init9)
 .init9         0x000001bc        0x8 e:/winavr-20071221/bin/../lib/gcc/avr/4.2.2/../../../../avr/lib/avr5/crtm32.o
 *(.init9)
 *(.text)
 .text          0x000001c4        0x4 e:/winavr-20071221/bin/../lib/gcc/avr/4.2.2/../../../../avr/lib/avr5/crtm32.o
                0x000001c4                __vector_1
                0x000001c4                __vector_12
                0x000001c4                __bad_interrupt
                0x000001c4                __vector_6
                0x000001c4                __vector_3
                0x000001c4                __vector_11
                0x000001c4                __vector_17
                0x000001c4                __vector_19
                0x000001c4                __vector_7
                0x000001c4                __vector_5
                0x000001c4                __vector_4
                0x000001c4                __vector_9
                0x000001c4                __vector_2
                0x000001c4                __vector_15
                0x000001c4                __vector_8
                0x000001c4                __vector_14
                0x000001c4                __vector_10
                0x000001c4                __vector_16
                0x000001c4                __vector_18
                0x000001c4                __vector_20
 .text          0x000001c8      0x226 lcd.o
                0x000002b8                lcd_data
                0x000002cc                lcd_gotoxy
                0x00000304                lcd_putc
                0x000002fc                lcd_home
                0x000002f4                lcd_clrscr
                0x000002ec                lcd_getxy
                0x00000344                lcd_puts
                0x0000035c                lcd_puts_p
                0x00000378                lcd_init
                0x000002a4                lcd_command
                0x00000298                lcd_backlight
 .text          0x000003ee       0x96 uart.o
                0x000003f6                lock
                0x00000472                uart_puts
                0x00000424                __vector_13
                0x000003fe                unlock
                0x00000404                uart_init
                0x000003ee                uart_putc
 .text          0x00000484      0x354 hv_supply.o
                0x00000484                set_voltage
                0x0000057e                set_sweep_time
                0x000006b6                get_sweep_start
                0x000006f4                get_current
                0x0000051a                set_sweep_stop
                0x00000678                get_sweep_stop
                0x00000732                get_voltage
                0x0000054c                set_sweep_step
                0x000005fc                get_sweep_time
                0x000004b6                set_current
                0x000004e8                set_sweep_start
                0x000005b0                set_output
                0x00000770                set_instrument_nsel
                0x000005d4                get_instrument_nsel
                0x0000063a                get_sweep_step
 .text          0x000007d8       0xb8 main.o
                0x000007e8                command_loop
                0x0000086a                main
                0x000007d8                wait_until_key_pressed
 .text          0x00000890       0x82 hv_supply2.o
                0x00000890                do_sweep
 .text          0x00000912      0x3bc scpi.o
                0x00000ac4                scpi_parse_command
                0x00000a2a                scpi_get_double_unit
                0x00000912                scpi_apply_unit
                0x00000968                scpi_parse_unit
                0x00000c28                scpi_parse_line
 .text          0x00000cce        0x0 e:/winavr-20071221/bin/../lib/gcc/avr/4.2.2/avr5\libgcc.a(_exit.o)
 .text          0x00000cce        0x0 e:/winavr-20071221/bin/../lib/gcc/avr/4.2.2/avr5\libgcc.a(_copy_data.o)
 .text          0x00000cce        0x0 e:/winavr-20071221/bin/../lib/gcc/avr/4.2.2/avr5\libgcc.a(_clear_bss.o)
 .text          0x00000cce      0x1fe e:/winavr-20071221/bin/../lib/gcc/avr/4.2.2/avr5\libgcc.a(_mul_sf.o)
                0x00000cce                __mulsf3
 .text          0x00000ecc      0x16a e:/winavr-20071221/bin/../lib/gcc/avr/4.2.2/avr5\libgcc.a(_div_sf.o)
                0x00000ecc                __divsf3
 .text          0x00001036       0x6c e:/winavr-20071221/bin/../lib/gcc/avr/4.2.2/avr5\libgcc.a(_gt_sf.o)
                0x00001036                __gtsf2
 .text          0x000010a2        0x0 e:/winavr-20071221/bin/../lib/gcc/avr/4.2.2/avr5\libgcc.a(_thenan_sf.o)
 .text          0x000010a2       0xe6 e:/winavr-20071221/bin/../lib/gcc/avr/4.2.2/avr5\libgcc.a(_usi_to_sf.o)
                0x000010a2                __floatunsisf
 .text          0x00001188        0x0 e:/winavr-20071221/bin/../lib/gcc/avr/4.2.2/avr5\libgcc.a(_prologue.o)
 .text          0x00001188        0x0 e:/winavr-20071221/bin/../lib/gcc/avr/4.2.2/avr5\libgcc.a(_epilogue.o)
 .text          0x00001188       0x9a e:/winavr-20071221/bin/../lib/gcc/avr/4.2.2/avr5\libgcc.a(_clzsi2.o)
                0x00001188                __clzsi2
 .text          0x00001222      0x1c0 e:/winavr-20071221/bin/../lib/gcc/avr/4.2.2/avr5\libgcc.a(_pack_sf.o)
                0x00001222                __pack_f
 .text          0x000013e2       0xe0 e:/winavr-20071221/bin/../lib/gcc/avr/4.2.2/avr5\libgcc.a(_unpack_sf.o)
                0x000013e2                __unpack_f
 .text          0x000014c2       0xac e:/winavr-20071221/bin/../lib/gcc/avr/4.2.2/avr5\libgcc.a(_fpcmp_parts_sf.o)
                0x000014c2                __fpcmp_parts_f
 .text          0x0000156e        0x0 e:/winavr-20071221/bin/../lib/gcc/avr/4.2.2/avr5\libgcc.a(_clz.o)
 .text          0x0000156e        0x0 e:/winavr-20071221/bin/../lib/gcc/avr/4.2.2/../../../../avr/lib/avr5\libc.a(errno.o)
 .text          0x0000156e       0x42 e:/winavr-20071221/bin/../lib/gcc/avr/4.2.2/../../../../avr/lib/avr5\libc.a(dtostrf.o)
                0x0000156e                dtostrf
 .text          0x000015b0      0x2c6 e:/winavr-20071221/bin/../lib/gcc/avr/4.2.2/../../../../avr/lib/avr5\libc.a(strtod.o)
                0x000015b0                strtod
 .text          0x00001876      0x22c e:/winavr-20071221/bin/../lib/gcc/avr/4.2.2/../../../../avr/lib/avr5\libc.a(strtol.o)
                0x00001876                strtol
 .text          0x00001aa2        0x0 e:/winavr-20071221/bin/../lib/gcc/avr/4.2.2/../../../../avr/lib/avr5\libc.a(isalpha.o)
 .text          0x00001aa2        0x0 e:/winavr-20071221/bin/../lib/gcc/avr/4.2.2/../../../../avr/lib/avr5\libc.a(isspace.o)
 .text          0x00001aa2        0xe e:/winavr-20071221/bin/../lib/gcc/avr/4.2.2/../../../../avr/lib/avr5\libc.a(strcpy_P.o)
                0x00001aa2                strcpy_P
 .text          0x00001ab0       0x30 e:/winavr-20071221/bin/../lib/gcc/avr/4.2.2/../../../../avr/lib/avr5\libc.a(strncasecmp_P.o)
                0x00001ab0                strncasecmp_P
 .text          0x00001ae0        0xe e:/winavr-20071221/bin/../lib/gcc/avr/4.2.2/../../../../avr/lib/avr5\libc.a(strcpy.o)
                0x00001ae0                strcpy
 .text          0x00001aee       0x30 e:/winavr-20071221/bin/../lib/gcc/avr/4.2.2/../../../../avr/lib/avr5\libc.a(strncasecmp.o)
                0x00001aee                strncasecmp
 .text          0x00001b1e       0x42 e:/winavr-20071221/bin/../lib/gcc/avr/4.2.2/../../../../avr/lib/avr5\libc.a(itoa.o)
                0x00001b1e                itoa
 .text          0x00001b60        0x0 e:/winavr-20071221/bin/../lib/gcc/avr/4.2.2/../../../../avr/lib/avr5\libc.a(floatsisf.o)
 .text          0x00001b60        0x0 e:/winavr-20071221/bin/../lib/gcc/avr/4.2.2/../../../../avr/lib/avr5\libc.a(fp_cmp.o)
 .text          0x00001b60      0x2b2 e:/winavr-20071221/bin/../lib/gcc/avr/4.2.2/../../../../avr/lib/avr5\libc.a(dtoa_prf.o)
                0x00001b60                dtoa_prf
 .text          0x00001e12      0x1b0 e:/winavr-20071221/bin/../lib/gcc/avr/4.2.2/../../../../avr/lib/avr5\libc.a(ftoa_engine.o)
                0x00001e12                __ftoa_engine
 .text          0x00001fc2        0x0 e:/winavr-20071221/bin/../lib/gcc/avr/4.2.2/../../../../avr/lib/avr5\libc.a(cty_isfalse.o)
 .text          0x00001fc2       0x20 e:/winavr-20071221/bin/../lib/gcc/avr/4.2.2/../../../../avr/lib/avr5\libc.a(strrev.o)
                0x00001fc2                strrev
 .text          0x00001fe2        0x0 e:/winavr-20071221/bin/../lib/gcc/avr/4.2.2/avr5\libgcc.a(_mulsi3.o)
 .text          0x00001fe2        0x0 e:/winavr-20071221/bin/../lib/gcc/avr/4.2.2/avr5\libgcc.a(_udivmodhi4.o)
 .text          0x00001fe2        0x0 e:/winavr-20071221/bin/../lib/gcc/avr/4.2.2/avr5\libgcc.a(_udivmodsi4.o)
                0x00001fe2                . = ALIGN (0x2)
 *(.text.*)
 .text.libgcc   0x00001fe2        0x0 e:/winavr-20071221/bin/../lib/gcc/avr/4.2.2/avr5\libgcc.a(_exit.o)
 .text.libgcc   0x00001fe2        0x0 e:/winavr-20071221/bin/../lib/gcc/avr/4.2.2/avr5\libgcc.a(_copy_data.o)
 .text.libgcc   0x00001fe2        0x0 e:/winavr-20071221/bin/../lib/gcc/avr/4.2.2/avr5\libgcc.a(_clear_bss.o)
 .text.libgcc   0x00001fe2       0x38 e:/winavr-20071221/bin/../lib/gcc/avr/4.2.2/avr5\libgcc.a(_prologue.o)
                0x00001fe2                __prologue_saves__
 .text.libgcc   0x0000201a       0x36 e:/winavr-20071221/bin/../lib/gcc/avr/4.2.2/avr5\libgcc.a(_epilogue.o)
                0x0000201a                __epilogue_restores__
 .text.ctype    0x00002050       0x12 e:/winavr-20071221/bin/../lib/gcc/avr/4.2.2/../../../../avr/lib/avr5\libc.a(isalpha.o)
                0x00002056                islower
                0x00002050                isupper
                0x00002054                isalpha
 .text.ctype    0x00002062       0x10 e:/winavr-20071221/bin/../lib/gcc/avr/4.2.2/../../../../avr/lib/avr5\libc.a(isspace.o)
                0x00002062                isspace
 .text.fplib    0x00002072       0x7a e:/winavr-20071221/bin/../lib/gcc/avr/4.2.2/../../../../avr/lib/avr5\libc.a(floatsisf.o)
                0x00002076                __floatsisf
                0x00002072                __floatunssisf
 .text.fplib    0x000020ec       0x58 e:/winavr-20071221/bin/../lib/gcc/avr/4.2.2/../../../../avr/lib/avr5\libc.a(fp_cmp.o)
                0x000020ec                __lesf2
                0x000020ec                __nesf2
                0x000020ec                __eqsf2
                0x000020ec                __cmpsf2
                0x000020ec                __ltsf2
                0x000020f4                __gesf2
 .text.ctype    0x00002144        0x6 e:/winavr-20071221/bin/../lib/gcc/avr/4.2.2/../../../../avr/lib/avr5\libc.a(cty_isfalse.o)
                0x00002148                __ctype_istrue
                0x00002144                __ctype_isfalse
 .text.libgcc   0x0000214a       0x3e e:/winavr-20071221/bin/../lib/gcc/avr/4.2.2/avr5\libgcc.a(_mulsi3.o)
                0x0000214a                __mulsi3
 .text.libgcc   0x00002188       0x28 e:/winavr-20071221/bin/../lib/gcc/avr/4.2.2/avr5\libgcc.a(_udivmodhi4.o)
                0x00002188                __udivmodhi4
 .text.libgcc   0x000021b0       0x44 e:/winavr-20071221/bin/../lib/gcc/avr/4.2.2/avr5\libgcc.a(_udivmodsi4.o)
                0x000021b0                __udivmodsi4
                0x000021f4                . = ALIGN (0x2)
 *(.fini9)
 .fini9         0x000021f4        0x0 e:/winavr-20071221/bin/../lib/gcc/avr/4.2.2/avr5\libgcc.a(_exit.o)
                0x000021f4                exit
                0x000021f4                _exit
 *(.fini9)
 *(.fini8)
 *(.fini8)
 *(.fini7)
 *(.fini7)
 *(.fini6)
 *(.fini6)
 *(.fini5)
 *(.fini5)
 *(.fini4)
 *(.fini4)
 *(.fini3)
 *(.fini3)
 *(.fini2)
 *(.fini2)
 *(.fini1)
 *(.fini1)
 *(.fini0)
 .fini0         0x000021f4        0x2 e:/winavr-20071221/bin/../lib/gcc/avr/4.2.2/avr5\libgcc.a(_exit.o)
 *(.fini0)
                0x000021f6                _etext = .

.data           0x00800060      0x12a load address 0x000021f6
                0x00800060                PROVIDE (__data_start, .)
 *(.data)
 .data          0x00800060        0x0 e:/winavr-20071221/bin/../lib/gcc/avr/4.2.2/../../../../avr/lib/avr5/crtm32.o
 .data          0x00800060        0x0 lcd.o
 .data          0x00800060        0x0 uart.o
 .data          0x00800060        0x0 hv_supply.o
 .data          0x00800060       0x1b main.o
 .data          0x0080007b        0x0 hv_supply2.o
 .data          0x0080007b        0x7 scpi.o
 .data          0x00800082        0x0 e:/winavr-20071221/bin/../lib/gcc/avr/4.2.2/avr5\libgcc.a(_exit.o)
 .data          0x00800082        0x0 e:/winavr-20071221/bin/../lib/gcc/avr/4.2.2/avr5\libgcc.a(_copy_data.o)
 .data          0x00800082        0x0 e:/winavr-20071221/bin/../lib/gcc/avr/4.2.2/avr5\libgcc.a(_clear_bss.o)
 .data          0x00800082        0x0 e:/winavr-20071221/bin/../lib/gcc/avr/4.2.2/avr5\libgcc.a(_mul_sf.o)
 .data          0x00800082        0x0 e:/winavr-20071221/bin/../lib/gcc/avr/4.2.2/avr5\libgcc.a(_div_sf.o)
 .data          0x00800082        0x0 e:/winavr-20071221/bin/../lib/gcc/avr/4.2.2/avr5\libgcc.a(_gt_sf.o)
 .data          0x00800082        0x8 e:/winavr-20071221/bin/../lib/gcc/avr/4.2.2/avr5\libgcc.a(_thenan_sf.o)
                0x00800082                __thenan_sf
 .data          0x0080008a        0x0 e:/winavr-20071221/bin/../lib/gcc/avr/4.2.2/avr5\libgcc.a(_usi_to_sf.o)
 .data          0x0080008a        0x0 e:/winavr-20071221/bin/../lib/gcc/avr/4.2.2/avr5\libgcc.a(_prologue.o)
 .data          0x0080008a        0x0 e:/winavr-20071221/bin/../lib/gcc/avr/4.2.2/avr5\libgcc.a(_epilogue.o)
 .data          0x0080008a        0x0 e:/winavr-20071221/bin/../lib/gcc/avr/4.2.2/avr5\libgcc.a(_clzsi2.o)
 .data          0x0080008a        0x0 e:/winavr-20071221/bin/../lib/gcc/avr/4.2.2/avr5\libgcc.a(_pack_sf.o)
 .data          0x0080008a        0x0 e:/winavr-20071221/bin/../lib/gcc/avr/4.2.2/avr5\libgcc.a(_unpack_sf.o)
 .data          0x0080008a        0x0 e:/winavr-20071221/bin/../lib/gcc/avr/4.2.2/avr5\libgcc.a(_fpcmp_parts_sf.o)
 .data          0x0080008a      0x100 e:/winavr-20071221/bin/../lib/gcc/avr/4.2.2/avr5\libgcc.a(_clz.o)
                0x0080008a                __clz_tab
 .data          0x0080018a        0x0 e:/winavr-20071221/bin/../lib/gcc/avr/4.2.2/../../../../avr/lib/avr5\libc.a(errno.o)
 .data          0x0080018a        0x0 e:/winavr-20071221/bin/../lib/gcc/avr/4.2.2/../../../../avr/lib/avr5\libc.a(dtostrf.o)
 .data          0x0080018a        0x0 e:/winavr-20071221/bin/../lib/gcc/avr/4.2.2/../../../../avr/lib/avr5\libc.a(strtod.o)
 .data          0x0080018a        0x0 e:/winavr-20071221/bin/../lib/gcc/avr/4.2.2/../../../../avr/lib/avr5\libc.a(strtol.o)
 .data          0x0080018a        0x0 e:/winavr-20071221/bin/../lib/gcc/avr/4.2.2/../../../../avr/lib/avr5\libc.a(isalpha.o)
 .data          0x0080018a        0x0 e:/winavr-20071221/bin/../lib/gcc/avr/4.2.2/../../../../avr/lib/avr5\libc.a(isspace.o)
 .data          0x0080018a        0x0 e:/winavr-20071221/bin/../lib/gcc/avr/4.2.2/../../../../avr/lib/avr5\libc.a(strcpy_P.o)
 .data          0x0080018a        0x0 e:/winavr-20071221/bin/../lib/gcc/avr/4.2.2/../../../../avr/lib/avr5\libc.a(strncasecmp_P.o)
 .data          0x0080018a        0x0 e:/winavr-20071221/bin/../lib/gcc/avr/4.2.2/../../../../avr/lib/avr5\libc.a(strcpy.o)
 .data          0x0080018a        0x0 e:/winavr-20071221/bin/../lib/gcc/avr/4.2.2/../../../../avr/lib/avr5\libc.a(strncasecmp.o)
 .data          0x0080018a        0x0 e:/winavr-20071221/bin/../lib/gcc/avr/4.2.2/../../../../avr/lib/avr5\libc.a(itoa.o)
 .data          0x0080018a        0x0 e:/winavr-20071221/bin/../lib/gcc/avr/4.2.2/../../../../avr/lib/avr5\libc.a(floatsisf.o)
 .data          0x0080018a        0x0 e:/winavr-20071221/bin/../lib/gcc/avr/4.2.2/../../../../avr/lib/avr5\libc.a(fp_cmp.o)
 .data          0x0080018a        0x0 e:/winavr-20071221/bin/../lib/gcc/avr/4.2.2/../../../../avr/lib/avr5\libc.a(dtoa_prf.o)
 .data          0x0080018a        0x0 e:/winavr-20071221/bin/../lib/gcc/avr/4.2.2/../../../../avr/lib/avr5\libc.a(ftoa_engine.o)
 .data          0x0080018a        0x0 e:/winavr-20071221/bin/../lib/gcc/avr/4.2.2/../../../../avr/lib/avr5\libc.a(cty_isfalse.o)
 .data          0x0080018a        0x0 e:/winavr-20071221/bin/../lib/gcc/avr/4.2.2/../../../../avr/lib/avr5\libc.a(strrev.o)
 .data          0x0080018a        0x0 e:/winavr-20071221/bin/../lib/gcc/avr/4.2.2/avr5\libgcc.a(_mulsi3.o)
 .data          0x0080018a        0x0 e:/winavr-20071221/bin/../lib/gcc/avr/4.2.2/avr5\libgcc.a(_udivmodhi4.o)
 .data          0x0080018a        0x0 e:/winavr-20071221/bin/../lib/gcc/avr/4.2.2/avr5\libgcc.a(_udivmodsi4.o)
 *(.data*)
 *(.rodata)
 *(.rodata*)
 *(.gnu.linkonce.d*)
                0x0080018a                . = ALIGN (0x2)
                0x0080018a                _edata = .
                0x0080018a                PROVIDE (__data_end, .)

.bss            0x0080018a       0xe3 load address 0x00002320
                0x0080018a                PROVIDE (__bss_start, .)
 *(.bss)
 .bss           0x0080018a        0x0 e:/winavr-20071221/bin/../lib/gcc/avr/4.2.2/../../../../avr/lib/avr5/crtm32.o
 .bss           0x0080018a        0x0 lcd.o
 .bss           0x0080018a        0x0 uart.o
 .bss           0x0080018a        0x0 hv_supply.o
 .bss           0x0080018a        0x0 main.o
 .bss           0x0080018a        0x0 hv_supply2.o
 .bss           0x0080018a        0x0 scpi.o
 .bss           0x0080018a        0x0 e:/winavr-20071221/bin/../lib/gcc/avr/4.2.2/avr5\libgcc.a(_exit.o)
 .bss           0x0080018a        0x0 e:/winavr-20071221/bin/../lib/gcc/avr/4.2.2/avr5\libgcc.a(_copy_data.o)
 .bss           0x0080018a        0x0 e:/winavr-20071221/bin/../lib/gcc/avr/4.2.2/avr5\libgcc.a(_clear_bss.o)
 .bss           0x0080018a        0x0 e:/winavr-20071221/bin/../lib/gcc/avr/4.2.2/avr5\libgcc.a(_mul_sf.o)
 .bss           0x0080018a        0x0 e:/winavr-20071221/bin/../lib/gcc/avr/4.2.2/avr5\libgcc.a(_div_sf.o)
 .bss           0x0080018a        0x0 e:/winavr-20071221/bin/../lib/gcc/avr/4.2.2/avr5\libgcc.a(_gt_sf.o)
 .bss           0x0080018a        0x0 e:/winavr-20071221/bin/../lib/gcc/avr/4.2.2/avr5\libgcc.a(_thenan_sf.o)
 .bss           0x0080018a        0x0 e:/winavr-20071221/bin/../lib/gcc/avr/4.2.2/avr5\libgcc.a(_usi_to_sf.o)
 .bss           0x0080018a        0x0 e:/winavr-20071221/bin/../lib/gcc/avr/4.2.2/avr5\libgcc.a(_prologue.o)
 .bss           0x0080018a        0x0 e:/winavr-20071221/bin/../lib/gcc/avr/4.2.2/avr5\libgcc.a(_epilogue.o)
 .bss           0x0080018a        0x0 e:/winavr-20071221/bin/../lib/gcc/avr/4.2.2/avr5\libgcc.a(_clzsi2.o)
 .bss           0x0080018a        0x0 e:/winavr-20071221/bin/../lib/gcc/avr/4.2.2/avr5\libgcc.a(_pack_sf.o)
 .bss           0x0080018a        0x0 e:/winavr-20071221/bin/../lib/gcc/avr/4.2.2/avr5\libgcc.a(_unpack_sf.o)
 .bss           0x0080018a        0x0 e:/winavr-20071221/bin/../lib/gcc/avr/4.2.2/avr5\libgcc.a(_fpcmp_parts_sf.o)
 .bss           0x0080018a        0x0 e:/winavr-20071221/bin/../lib/gcc/avr/4.2.2/avr5\libgcc.a(_clz.o)
 .bss           0x0080018a        0x0 e:/winavr-20071221/bin/../lib/gcc/avr/4.2.2/../../../../avr/lib/avr5\libc.a(errno.o)
 .bss           0x0080018a        0x0 e:/winavr-20071221/bin/../lib/gcc/avr/4.2.2/../../../../avr/lib/avr5\libc.a(dtostrf.o)
 .bss           0x0080018a        0x0 e:/winavr-20071221/bin/../lib/gcc/avr/4.2.2/../../../../avr/lib/avr5\libc.a(strtod.o)
 .bss           0x0080018a        0x0 e:/winavr-20071221/bin/../lib/gcc/avr/4.2.2/../../../../avr/lib/avr5\libc.a(strtol.o)
 .bss           0x0080018a        0x0 e:/winavr-20071221/bin/../lib/gcc/avr/4.2.2/../../../../avr/lib/avr5\libc.a(isalpha.o)
 .bss           0x0080018a        0x0 e:/winavr-20071221/bin/../lib/gcc/avr/4.2.2/../../../../avr/lib/avr5\libc.a(isspace.o)
 .bss           0x0080018a        0x0 e:/winavr-20071221/bin/../lib/gcc/avr/4.2.2/../../../../avr/lib/avr5\libc.a(strcpy_P.o)
 .bss           0x0080018a        0x0 e:/winavr-20071221/bin/../lib/gcc/avr/4.2.2/../../../../avr/lib/avr5\libc.a(strncasecmp_P.o)
 .bss           0x0080018a        0x0 e:/winavr-20071221/bin/../lib/gcc/avr/4.2.2/../../../../avr/lib/avr5\libc.a(strcpy.o)
 .bss           0x0080018a        0x0 e:/winavr-20071221/bin/../lib/gcc/avr/4.2.2/../../../../avr/lib/avr5\libc.a(strncasecmp.o)
 .bss           0x0080018a        0x0 e:/winavr-20071221/bin/../lib/gcc/avr/4.2.2/../../../../avr/lib/avr5\libc.a(itoa.o)
 .bss           0x0080018a        0x0 e:/winavr-20071221/bin/../lib/gcc/avr/4.2.2/../../../../avr/lib/avr5\libc.a(floatsisf.o)
 .bss           0x0080018a        0x0 e:/winavr-20071221/bin/../lib/gcc/avr/4.2.2/../../../../avr/lib/avr5\libc.a(fp_cmp.o)
 .bss           0x0080018a        0x0 e:/winavr-20071221/bin/../lib/gcc/avr/4.2.2/../../../../avr/lib/avr5\libc.a(dtoa_prf.o)
 .bss           0x0080018a        0x0 e:/winavr-20071221/bin/../lib/gcc/avr/4.2.2/../../../../avr/lib/avr5\libc.a(ftoa_engine.o)
 .bss           0x0080018a        0x0 e:/winavr-20071221/bin/../lib/gcc/avr/4.2.2/../../../../avr/lib/avr5\libc.a(cty_isfalse.o)
 .bss           0x0080018a        0x0 e:/winavr-20071221/bin/../lib/gcc/avr/4.2.2/../../../../avr/lib/avr5\libc.a(strrev.o)
 .bss           0x0080018a        0x0 e:/winavr-20071221/bin/../lib/gcc/avr/4.2.2/avr5\libgcc.a(_mulsi3.o)
 .bss           0x0080018a        0x0 e:/winavr-20071221/bin/../lib/gcc/avr/4.2.2/avr5\libgcc.a(_udivmodhi4.o)
 .bss           0x0080018a        0x0 e:/winavr-20071221/bin/../lib/gcc/avr/4.2.2/avr5\libgcc.a(_udivmodsi4.o)
 *(.bss*)
 *(COMMON)
 COMMON         0x0080018a       0x23 uart.o
                0x0080018a                uartbuf
                0x008001aa                uart_len
                0x008001ab                uart_done
                0x008001ac                sem_uart
 COMMON         0x008001ad       0x6e hv_supply.o
                0x008001ad                dev
                0x008001ae                powersupply
                0x0080021a                err
 COMMON         0x0080021b       0x50 scpi.o
                0x0080021b                return_buf
 COMMON         0x0080026b        0x2 e:/winavr-20071221/bin/../lib/gcc/avr/4.2.2/../../../../avr/lib/avr5\libc.a(errno.o)
                0x0080026b                errno
                0x0080026d                PROVIDE (__bss_end, .)
                0x000021f6                __data_load_start = LOADADDR (.data)
                0x00002320                __data_load_end = (__data_load_start + SIZEOF (.data))

.noinit         0x0080026d        0x0
                0x0080026d                PROVIDE (__noinit_start, .)
 *(.noinit*)
                0x0080026d                PROVIDE (__noinit_end, .)
                0x0080026d                _end = .
                0x0080026d                PROVIDE (__heap_start, .)

.eeprom         0x00810000        0x0
 *(.eeprom*)
                0x00810000                __eeprom_end = .

.fuse
 *(.fuse)
 *(.lfuse)
 *(.hfuse)
 *(.efuse)

.lock
 *(.lock*)

.signature
 *(.signature*)

.stab           0x00000000      0x378
 *(.stab)
 .stab          0x00000000      0x378 e:/winavr-20071221/bin/../lib/gcc/avr/4.2.2/../../../../avr/lib/avr5/crtm32.o

.stabstr        0x00000000       0x5f
 *(.stabstr)
 .stabstr       0x00000000       0x5f e:/winavr-20071221/bin/../lib/gcc/avr/4.2.2/../../../../avr/lib/avr5/crtm32.o

.stab.excl
 *(.stab.excl)

.stab.exclstr
 *(.stab.exclstr)

.stab.index
 *(.stab.index)

.stab.indexstr
 *(.stab.indexstr)

.comment
 *(.comment)

.debug
 *(.debug)

.line
 *(.line)

.debug_srcinfo
 *(.debug_srcinfo)

.debug_sfnames
 *(.debug_sfnames)

.debug_aranges
 *(.debug_aranges)

.debug_pubnames
 *(.debug_pubnames)

.debug_info
 *(.debug_info)
 *(.gnu.linkonce.wi.*)

.debug_abbrev
 *(.debug_abbrev)

.debug_line
 *(.debug_line)

.debug_frame
 *(.debug_frame)

.debug_str
 *(.debug_str)

.debug_loc
 *(.debug_loc)

.debug_macinfo
 *(.debug_macinfo)
OUTPUT(lcd.out elf32-avr)
LOAD linker stubs
