GAS LISTING D:\DOCUME~1\alex\LOCALS~1\Temp/ccZEoYeM.s 			page 1


   1               		.file	"scpi_cmds.c"
   2               	__SREG__ = 0x3f
   3               	__SP_H__ = 0x3e
   4               	__SP_L__ = 0x3d
   5               	__tmp_reg__ = 0
   6               	__zero_reg__ = 1
   7               		.global __do_copy_data
   8               		.global __do_clear_bss
   9               		.text
  10               	.global	scpi_dummy
  11               		.type	scpi_dummy, @function
  12               	scpi_dummy:
  13               	/* prologue: frame size=0 */
  14               	/* prologue end (size=0) */
  15 0000 80E0      		ldi r24,lo8(0)
  16 0002 90E0      		ldi r25,hi8(0)
  17               	/* epilogue: frame size=0 */
  18 0004 0895      		ret
  19               	/* epilogue end (size=1) */
  20               	/* function scpi_dummy size 3 (2) */
  21               		.size	scpi_dummy, .-scpi_dummy
  22               	.global	scpi_function
  23               		.type	scpi_function, @function
  24               	scpi_function:
  25               	/* prologue: frame size=0 */
  26               	/* prologue end (size=0) */
  27 0006 8331      		cpi r24,lo8(19)
  28 0008 01F4      		brne .+2
  29 000a 00C0      		rjmp .L12
  30 000c 8431      		cpi r24,lo8(20)
  31 000e 00F4      		brsh .L21
  32 0010 8F30      		cpi r24,lo8(15)
  33 0012 01F0      		breq .L8
  34 0014 8031      		cpi r24,lo8(16)
  35 0016 00F4      		brsh .L22
  36 0018 8D30      		cpi r24,lo8(13)
  37 001a 01F0      		breq .L6
  38 001c 8E30      		cpi r24,lo8(14)
  39 001e 00F4      		brsh .L7
  40 0020 8C30      		cpi r24,lo8(12)
  41 0022 01F4      		brne .L4
  42 0024 00C0      		rjmp .L5
  43               	.L22:
  44 0026 8131      		cpi r24,lo8(17)
  45 0028 01F0      		breq .L10
  46 002a 8231      		cpi r24,lo8(18)
  47 002c 00F4      		brsh .L11
  48 002e 00C0      		rjmp .L26
  49               	.L21:
  50 0030 8731      		cpi r24,lo8(23)
  51 0032 01F0      		breq .L16
  52 0034 8831      		cpi r24,lo8(24)
  53 0036 00F4      		brsh .L23
  54 0038 8531      		cpi r24,lo8(21)
  55 003a 01F0      		breq .L14
  56 003c 8631      		cpi r24,lo8(22)
  57 003e 00F4      		brsh .L15
GAS LISTING D:\DOCUME~1\alex\LOCALS~1\Temp/ccZEoYeM.s 			page 2


  58 0040 00C0      		rjmp .L27
  59               	.L23:
  60 0042 8931      		cpi r24,lo8(25)
  61 0044 01F0      		breq .L18
  62 0046 8931      		cpi r24,lo8(25)
  63 0048 00F0      		brlo .L17
  64 004a 8A31      		cpi r24,lo8(26)
  65 004c 01F0      		breq .L19
  66 004e 8B31      		cpi r24,lo8(27)
  67 0050 01F0      		breq .L20
  68               	.L4:
  69 0052 8EEF      		ldi r24,lo8(-2)
  70 0054 00C0      		rjmp .L24
  71               	.L5:
  72 0056 CB01      		movw r24,r22
  73 0058 0E94 0000 		call get_voltage
  74 005c 00C0      		rjmp .L24
  75               	.L6:
  76 005e CB01      		movw r24,r22
  77 0060 0E94 0000 		call set_voltage
  78 0064 00C0      		rjmp .L24
  79               	.L7:
  80 0066 CB01      		movw r24,r22
  81 0068 0E94 0000 		call get_current
  82 006c 00C0      		rjmp .L24
  83               	.L8:
  84 006e CB01      		movw r24,r22
  85 0070 0E94 0000 		call set_current
  86 0074 00C0      		rjmp .L24
  87               	.L26:
  88 0076 CB01      		movw r24,r22
  89 0078 0E94 0000 		call get_sweep_start
  90 007c 00C0      		rjmp .L24
  91               	.L10:
  92 007e CB01      		movw r24,r22
  93 0080 0E94 0000 		call set_sweep_start
  94 0084 00C0      		rjmp .L24
  95               	.L11:
  96 0086 CB01      		movw r24,r22
  97 0088 0E94 0000 		call get_sweep_stop
  98 008c 00C0      		rjmp .L24
  99               	.L12:
 100 008e CB01      		movw r24,r22
 101 0090 0E94 0000 		call set_sweep_stop
 102 0094 00C0      		rjmp .L24
 103               	.L27:
 104 0096 CB01      		movw r24,r22
 105 0098 0E94 0000 		call get_sweep_step
 106 009c 00C0      		rjmp .L24
 107               	.L14:
 108 009e CB01      		movw r24,r22
 109 00a0 0E94 0000 		call set_sweep_step
 110 00a4 00C0      		rjmp .L24
 111               	.L15:
 112 00a6 CB01      		movw r24,r22
 113 00a8 0E94 0000 		call get_sweep_time
 114 00ac 00C0      		rjmp .L24
GAS LISTING D:\DOCUME~1\alex\LOCALS~1\Temp/ccZEoYeM.s 			page 3


 115               	.L16:
 116 00ae CB01      		movw r24,r22
 117 00b0 0E94 0000 		call set_sweep_time
 118 00b4 00C0      		rjmp .L24
 119               	.L17:
 120 00b6 CB01      		movw r24,r22
 121 00b8 0E94 0000 		call do_sweep
 122 00bc 00C0      		rjmp .L24
 123               	.L18:
 124 00be CB01      		movw r24,r22
 125 00c0 0E94 0000 		call set_output
 126 00c4 00C0      		rjmp .L24
 127               	.L19:
 128 00c6 CB01      		movw r24,r22
 129 00c8 0E94 0000 		call set_instrument_nsel
 130 00cc 00C0      		rjmp .L24
 131               	.L20:
 132 00ce CB01      		movw r24,r22
 133 00d0 0E94 0000 		call get_instrument_nsel
 134               	.L24:
 135 00d4 90E0      		ldi r25,lo8(0)
 136               	/* epilogue: frame size=0 */
 137 00d6 0895      		ret
 138               	/* epilogue end (size=1) */
 139               	/* function scpi_function size 105 (104) */
 140               		.size	scpi_function, .-scpi_function
 141               	.global	key00
 142               		.section	.progmem.data,"a",@progbits
 143               		.type	key00, @object
 144               		.size	key00, 5
 145               	key00:
 146 0000 2A43 4C53 		.string	"*CLS"
 146      00
 147               	.global	key01
 148               		.type	key01, @object
 149               		.size	key01, 5
 150               	key01:
 151 0005 2A45 5345 		.string	"*ESE"
 151      00
 152               	.global	key02
 153               		.type	key02, @object
 154               		.size	key02, 6
 155               	key02:
 156 000a 2A45 5345 		.string	"*ESE?"
 156      3F00 
 157               	.global	key03
 158               		.type	key03, @object
 159               		.size	key03, 5
 160               	key03:
 161 0010 2A49 444E 		.string	"*IDN"
 161      00
 162               	.global	key04
 163               		.type	key04, @object
 164               		.size	key04, 5
 165               	key04:
 166 0015 2A4F 5043 		.string	"*OPC"
 166      00
GAS LISTING D:\DOCUME~1\alex\LOCALS~1\Temp/ccZEoYeM.s 			page 4


 167               	.global	key05
 168               		.type	key05, @object
 169               		.size	key05, 6
 170               	key05:
 171 001a 2A4F 5043 		.string	"*OPC?"
 171      3F00 
 172               	.global	key06
 173               		.type	key06, @object
 174               		.size	key06, 5
 175               	key06:
 176 0020 2A52 5354 		.string	"*RST"
 176      00
 177               	.global	key07
 178               		.type	key07, @object
 179               		.size	key07, 5
 180               	key07:
 181 0025 2A53 5245 		.string	"*SRE"
 181      00
 182               	.global	key08
 183               		.type	key08, @object
 184               		.size	key08, 6
 185               	key08:
 186 002a 2A53 5245 		.string	"*SRE?"
 186      3F00 
 187               	.global	key09
 188               		.type	key09, @object
 189               		.size	key09, 5
 190               	key09:
 191 0030 2A53 5442 		.string	"*STB"
 191      00
 192               	.global	key10
 193               		.type	key10, @object
 194               		.size	key10, 6
 195               	key10:
 196 0035 2A54 5354 		.string	"*TST?"
 196      3F00 
 197               	.global	key11
 198               		.type	key11, @object
 199               		.size	key11, 5
 200               	key11:
 201 003b 2A57 4149 		.string	"*WAI"
 201      00
 202               	.global	key12
 203               		.type	key12, @object
 204               		.size	key12, 9
 205               	key12:
 206 0040 564F 4C54 		.string	"VOLTage?"
 206      6167 653F 
 206      00
 207               	.global	key13
 208               		.type	key13, @object
 209               		.size	key13, 8
 210               	key13:
 211 0049 564F 4C54 		.string	"VOLTage"
 211      6167 6500 
 212               	.global	key14
 213               		.type	key14, @object
GAS LISTING D:\DOCUME~1\alex\LOCALS~1\Temp/ccZEoYeM.s 			page 5


 214               		.size	key14, 9
 215               	key14:
 216 0051 4355 5252 		.string	"CURRent?"
 216      656E 743F 
 216      00
 217               	.global	key15
 218               		.type	key15, @object
 219               		.size	key15, 8
 220               	key15:
 221 005a 4355 5252 		.string	"CURRent"
 221      656E 7400 
 222               	.global	key16
 223               		.type	key16, @object
 224               		.size	key16, 13
 225               	key16:
 226 0062 5357 4565 		.string	"SWEep:STArt?"
 226      703A 5354 
 226      4172 743F 
 226      00
 227               	.global	key17
 228               		.type	key17, @object
 229               		.size	key17, 12
 230               	key17:
 231 006f 5357 4565 		.string	"SWEep:STArt"
 231      703A 5354 
 231      4172 7400 
 232               	.global	key18
 233               		.type	key18, @object
 234               		.size	key18, 12
 235               	key18:
 236 007b 5357 4565 		.string	"SWEeP:STOP?"
 236      503A 5354 
 236      4F50 3F00 
 237               	.global	key19
 238               		.type	key19, @object
 239               		.size	key19, 11
 240               	key19:
 241 0087 5357 4565 		.string	"SWEep:STOP"
 241      703A 5354 
 241      4F50 00
 242               	.global	key20
 243               		.type	key20, @object
 244               		.size	key20, 12
 245               	key20:
 246 0092 5357 4565 		.string	"SWEep:STEP?"
 246      703A 5354 
 246      4550 3F00 
 247               	.global	key21
 248               		.type	key21, @object
 249               		.size	key21, 11
 250               	key21:
 251 009e 5357 4565 		.string	"SWEep:STEP"
 251      703A 5354 
 251      4550 00
 252               	.global	key22
 253               		.type	key22, @object
 254               		.size	key22, 12
GAS LISTING D:\DOCUME~1\alex\LOCALS~1\Temp/ccZEoYeM.s 			page 6


 255               	key22:
 256 00a9 5357 4565 		.string	"SWEep:TIME?"
 256      703A 5449 
 256      4D45 3F00 
 257               	.global	key23
 258               		.type	key23, @object
 259               		.size	key23, 11
 260               	key23:
 261 00b5 5357 4565 		.string	"SWEep:TIME"
 261      703A 5449 
 261      4D45 00
 262               	.global	key24
 263               		.type	key24, @object
 264               		.size	key24, 9
 265               	key24:
 266 00c0 5357 4565 		.string	"SWEep:GO"
 266      703A 474F 
 266      00
 267               	.global	key25
 268               		.type	key25, @object
 269               		.size	key25, 7
 270               	key25:
 271 00c9 4F55 5450 		.string	"OUTPut"
 271      7574 00
 272               	.global	key26
 273               		.type	key26, @object
 274               		.size	key26, 17
 275               	key26:
 276 00d0 494E 5354 		.string	"INSTrument:NSEL?"
 276      7275 6D65 
 276      6E74 3A4E 
 276      5345 4C3F 
 276      00
 277               	.global	key27
 278               		.type	key27, @object
 279               		.size	key27, 16
 280               	key27:
 281 00e1 494E 5354 		.string	"INSTrument:NSEL"
 281      7275 6D65 
 281      6E74 3A4E 
 281      5345 4C00 
 282               	.global	keywords
 283               		.type	keywords, @object
 284               		.size	keywords, 58
 285               	keywords:
 286 00f1 0000      		.word	key00
 287 00f3 0000      		.word	key01
 288 00f5 0000      		.word	key02
 289 00f7 0000      		.word	key03
 290 00f9 0000      		.word	key04
 291 00fb 0000      		.word	key05
 292 00fd 0000      		.word	key06
 293 00ff 0000      		.word	key07
 294 0101 0000      		.word	key08
 295 0103 0000      		.word	key09
 296 0105 0000      		.word	key10
 297 0107 0000      		.word	key11
GAS LISTING D:\DOCUME~1\alex\LOCALS~1\Temp/ccZEoYeM.s 			page 7


 298 0109 0000      		.word	key12
 299 010b 0000      		.word	key13
 300 010d 0000      		.word	key14
 301 010f 0000      		.word	key15
 302 0111 0000      		.word	key16
 303 0113 0000      		.word	key17
 304 0115 0000      		.word	key18
 305 0117 0000      		.word	key19
 306 0119 0000      		.word	key20
 307 011b 0000      		.word	key21
 308 011d 0000      		.word	key22
 309 011f 0000      		.word	key23
 310 0121 0000      		.word	key24
 311 0123 0000      		.word	key25
 312 0125 0000      		.word	key26
 313 0127 0000      		.word	key27
 314 0129 0000      		.word	0
 315               	.global	units
 316               		.data
 317               		.type	units, @object
 318               		.size	units, 54
 319               	units:
 320 0000 6D56 00   		.string	"mV"
 321 0003 00        		.skip 1,0
 322 0004 01        		.byte	1
 323 0005 FD        		.byte	-3
 324 0006 5600      		.string	"V"
 325 0008 0000      		.skip 2,0
 326 000a 01        		.byte	1
 327 000b 00        		.byte	0
 328 000c 4B56 00   		.string	"KV"
 329 000f 00        		.skip 1,0
 330 0010 01        		.byte	1
 331 0011 03        		.byte	3
 332 0012 7541 00   		.string	"uA"
 333 0015 00        		.skip 1,0
 334 0016 02        		.byte	2
 335 0017 FA        		.byte	-6
 336 0018 6D41 00   		.string	"mA"
 337 001b 00        		.skip 1,0
 338 001c 02        		.byte	2
 339 001d FD        		.byte	-3
 340 001e 4100      		.string	"A"
 341 0020 0000      		.skip 2,0
 342 0022 02        		.byte	2
 343 0023 00        		.byte	0
 344 0024 4D53 00   		.string	"MS"
 345 0027 00        		.skip 1,0
 346 0028 03        		.byte	3
 347 0029 FD        		.byte	-3
 348 002a 5300      		.string	"S"
 349 002c 0000      		.skip 2,0
 350 002e 03        		.byte	3
 351 002f 00        		.byte	0
 352 0030 00        		.string	""
 353 0031 0000 00   		.skip 3,0
 354 0034 04        		.byte	4
GAS LISTING D:\DOCUME~1\alex\LOCALS~1\Temp/ccZEoYeM.s 			page 8


 355 0035 00        		.byte	0
 356               	/* File "scpi_cmds.c": code  108 = 0x006c ( 106), prologues   0, epilogues   2 */
GAS LISTING D:\DOCUME~1\alex\LOCALS~1\Temp/ccZEoYeM.s 			page 9


DEFINED SYMBOLS
                            *ABS*:00000000 scpi_cmds.c
D:\DOCUME~1\alex\LOCALS~1\Temp/ccZEoYeM.s:2      *ABS*:0000003f __SREG__
D:\DOCUME~1\alex\LOCALS~1\Temp/ccZEoYeM.s:3      *ABS*:0000003e __SP_H__
D:\DOCUME~1\alex\LOCALS~1\Temp/ccZEoYeM.s:4      *ABS*:0000003d __SP_L__
D:\DOCUME~1\alex\LOCALS~1\Temp/ccZEoYeM.s:5      *ABS*:00000000 __tmp_reg__
D:\DOCUME~1\alex\LOCALS~1\Temp/ccZEoYeM.s:6      *ABS*:00000001 __zero_reg__
D:\DOCUME~1\alex\LOCALS~1\Temp/ccZEoYeM.s:12     .text:00000000 scpi_dummy
D:\DOCUME~1\alex\LOCALS~1\Temp/ccZEoYeM.s:24     .text:00000006 scpi_function
D:\DOCUME~1\alex\LOCALS~1\Temp/ccZEoYeM.s:145    .progmem.data:00000000 key00
D:\DOCUME~1\alex\LOCALS~1\Temp/ccZEoYeM.s:150    .progmem.data:00000005 key01
D:\DOCUME~1\alex\LOCALS~1\Temp/ccZEoYeM.s:155    .progmem.data:0000000a key02
D:\DOCUME~1\alex\LOCALS~1\Temp/ccZEoYeM.s:160    .progmem.data:00000010 key03
D:\DOCUME~1\alex\LOCALS~1\Temp/ccZEoYeM.s:165    .progmem.data:00000015 key04
D:\DOCUME~1\alex\LOCALS~1\Temp/ccZEoYeM.s:170    .progmem.data:0000001a key05
D:\DOCUME~1\alex\LOCALS~1\Temp/ccZEoYeM.s:175    .progmem.data:00000020 key06
D:\DOCUME~1\alex\LOCALS~1\Temp/ccZEoYeM.s:180    .progmem.data:00000025 key07
D:\DOCUME~1\alex\LOCALS~1\Temp/ccZEoYeM.s:185    .progmem.data:0000002a key08
D:\DOCUME~1\alex\LOCALS~1\Temp/ccZEoYeM.s:190    .progmem.data:00000030 key09
D:\DOCUME~1\alex\LOCALS~1\Temp/ccZEoYeM.s:195    .progmem.data:00000035 key10
D:\DOCUME~1\alex\LOCALS~1\Temp/ccZEoYeM.s:200    .progmem.data:0000003b key11
D:\DOCUME~1\alex\LOCALS~1\Temp/ccZEoYeM.s:205    .progmem.data:00000040 key12
D:\DOCUME~1\alex\LOCALS~1\Temp/ccZEoYeM.s:210    .progmem.data:00000049 key13
D:\DOCUME~1\alex\LOCALS~1\Temp/ccZEoYeM.s:215    .progmem.data:00000051 key14
D:\DOCUME~1\alex\LOCALS~1\Temp/ccZEoYeM.s:220    .progmem.data:0000005a key15
D:\DOCUME~1\alex\LOCALS~1\Temp/ccZEoYeM.s:225    .progmem.data:00000062 key16
D:\DOCUME~1\alex\LOCALS~1\Temp/ccZEoYeM.s:230    .progmem.data:0000006f key17
D:\DOCUME~1\alex\LOCALS~1\Temp/ccZEoYeM.s:235    .progmem.data:0000007b key18
D:\DOCUME~1\alex\LOCALS~1\Temp/ccZEoYeM.s:240    .progmem.data:00000087 key19
D:\DOCUME~1\alex\LOCALS~1\Temp/ccZEoYeM.s:245    .progmem.data:00000092 key20
D:\DOCUME~1\alex\LOCALS~1\Temp/ccZEoYeM.s:250    .progmem.data:0000009e key21
D:\DOCUME~1\alex\LOCALS~1\Temp/ccZEoYeM.s:255    .progmem.data:000000a9 key22
D:\DOCUME~1\alex\LOCALS~1\Temp/ccZEoYeM.s:260    .progmem.data:000000b5 key23
D:\DOCUME~1\alex\LOCALS~1\Temp/ccZEoYeM.s:265    .progmem.data:000000c0 key24
D:\DOCUME~1\alex\LOCALS~1\Temp/ccZEoYeM.s:270    .progmem.data:000000c9 key25
D:\DOCUME~1\alex\LOCALS~1\Temp/ccZEoYeM.s:275    .progmem.data:000000d0 key26
D:\DOCUME~1\alex\LOCALS~1\Temp/ccZEoYeM.s:280    .progmem.data:000000e1 key27
D:\DOCUME~1\alex\LOCALS~1\Temp/ccZEoYeM.s:285    .progmem.data:000000f1 keywords
D:\DOCUME~1\alex\LOCALS~1\Temp/ccZEoYeM.s:319    .data:00000000 units

UNDEFINED SYMBOLS
__do_copy_data
__do_clear_bss
get_voltage
set_voltage
get_current
set_current
get_sweep_start
set_sweep_start
get_sweep_stop
set_sweep_stop
get_sweep_step
set_sweep_step
get_sweep_time
set_sweep_time
do_sweep
set_output
GAS LISTING D:\DOCUME~1\alex\LOCALS~1\Temp/ccZEoYeM.s 			page 10


set_instrument_nsel
get_instrument_nsel
