GAS LISTING D:\DOCUME~1\alex\LOCALS~1\Temp/ccckDAnf.s 			page 1


   1               		.file	"scpi.c"
   2               	__SREG__ = 0x3f
   3               	__SP_H__ = 0x3e
   4               	__SP_L__ = 0x3d
   5               	__tmp_reg__ = 0
   6               	__zero_reg__ = 1
   7               		.global __do_copy_data
   8               		.global __do_clear_bss
   9               		.text
  10               	.global	scpi_apply_unit
  11               		.type	scpi_apply_unit, @function
  12               	scpi_apply_unit:
  13               	/* prologue: frame size=0 */
  14               	/* prologue end (size=0) */
  15 0000 4115      		cp r20,__zero_reg__
  16 0002 5105      		cpc r21,__zero_reg__
  17 0004 01F0      		breq .L2
  18 0006 2FEF      		ldi r18,hi8(-3)
  19 0008 4D3F      		cpi r20,lo8(-3)
  20 000a 5207      		cpc r21,r18
  21 000c 01F4      		brne .L4
  22 000e 20E0      		ldi r18,lo8(0x447a0000)
  23 0010 30E0      		ldi r19,hi8(0x447a0000)
  24 0012 4AE7      		ldi r20,hlo8(0x447a0000)
  25 0014 54E4      		ldi r21,hhi8(0x447a0000)
  26 0016 00C0      		rjmp .L12
  27               	.L4:
  28 0018 2FEF      		ldi r18,hi8(-6)
  29 001a 4A3F      		cpi r20,lo8(-6)
  30 001c 5207      		cpc r21,r18
  31 001e 01F4      		brne .L6
  32 0020 20E0      		ldi r18,lo8(0x49742400)
  33 0022 34E2      		ldi r19,hi8(0x49742400)
  34 0024 44E7      		ldi r20,hlo8(0x49742400)
  35 0026 59E4      		ldi r21,hhi8(0x49742400)
  36               	.L12:
  37 0028 0E94 0000 		call __divsf3
  38 002c 0895      		ret
  39               	.L6:
  40 002e 4330      		cpi r20,3
  41 0030 5105      		cpc r21,__zero_reg__
  42 0032 01F4      		brne .L8
  43 0034 20E0      		ldi r18,lo8(0x447a0000)
  44 0036 30E0      		ldi r19,hi8(0x447a0000)
  45 0038 4AE7      		ldi r20,hlo8(0x447a0000)
  46 003a 54E4      		ldi r21,hhi8(0x447a0000)
  47 003c 0E94 0000 		call __mulsf3
  48 0040 0895      		ret
  49               	.L8:
  50 0042 4630      		cpi r20,6
  51 0044 5105      		cpc r21,__zero_reg__
  52 0046 01F4      		brne .L2
  53 0048 20E0      		ldi r18,lo8(0x49742400)
  54 004a 34E2      		ldi r19,hi8(0x49742400)
  55 004c 44E7      		ldi r20,hlo8(0x49742400)
  56 004e 59E4      		ldi r21,hhi8(0x49742400)
  57 0050 0E94 0000 		call __mulsf3
GAS LISTING D:\DOCUME~1\alex\LOCALS~1\Temp/ccckDAnf.s 			page 2


  58               	.L2:
  59 0054 0895      		ret
  60               	/* epilogue: frame size=0 */
  61               	/* epilogue: noreturn */
  62               	/* epilogue end (size=0) */
  63               	/* function scpi_apply_unit size 43 (43) */
  64               		.size	scpi_apply_unit, .-scpi_apply_unit
  65               	.global	scpi_parse_unit
  66               		.type	scpi_parse_unit, @function
  67               	scpi_parse_unit:
  68               	/* prologue: frame size=0 */
  69 0056 9F92      		push r9
  70 0058 AF92      		push r10
  71 005a BF92      		push r11
  72 005c CF92      		push r12
  73 005e DF92      		push r13
  74 0060 EF92      		push r14
  75 0062 FF92      		push r15
  76 0064 0F93      		push r16
  77 0066 1F93      		push r17
  78 0068 CF93      		push r28
  79 006a DF93      		push r29
  80               	/* prologue end (size=11) */
  81 006c 962E      		mov r9,r22
  82 006e 5A01      		movw r10,r20
  83 0070 7C01      		movw r14,r24
  84 0072 00C0      		rjmp .L14
  85               	.L15:
  86 0074 0894      		sec
  87 0076 E11C      		adc r14,__zero_reg__
  88 0078 F11C      		adc r15,__zero_reg__
  89               	.L14:
  90 007a F701      		movw r30,r14
  91 007c 8081      		ld r24,Z
  92 007e 8032      		cpi r24,lo8(32)
  93 0080 01F0      		breq .L15
  94 0082 88E5      		ldi r24,lo8(88)
  95 0084 0E94 0000 		call lcd_putc
  96 0088 C701      		movw r24,r14
  97 008a 0E94 0000 		call lcd_puts
  98 008e 0E94 0000 		call lcd_clrscr
  99 0092 CC24      		clr r12
 100 0094 DD24      		clr r13
 101 0096 00C0      		rjmp .L17
 102               	.L18:
 103 0098 0894      		sec
 104 009a C11C      		adc r12,__zero_reg__
 105 009c D11C      		adc r13,__zero_reg__
 106               	.L17:
 107 009e 86E0      		ldi r24,lo8(6)
 108 00a0 C89E      		mul r12,r24
 109 00a2 E001      		movw r28,r0
 110 00a4 1124      		clr r1
 111 00a6 C050      		subi r28,lo8(-(units))
 112 00a8 D040      		sbci r29,hi8(-(units))
 113 00aa FE01      		movw r30,r28
 114 00ac 0190      		ld __tmp_reg__,Z+
GAS LISTING D:\DOCUME~1\alex\LOCALS~1\Temp/ccckDAnf.s 			page 3


 115 00ae 0020      		tst __tmp_reg__
 116 00b0 01F4      		brne .-6
 117 00b2 8F01      		movw r16,r30
 118 00b4 0150      		subi r16,lo8(-(-1))
 119 00b6 1040      		sbci r17,hi8(-(-1))
 120 00b8 0C1B      		sub r16,r28
 121 00ba 1D0B      		sbc r17,r29
 122 00bc 8DE3      		ldi r24,lo8(61)
 123 00be 0E94 0000 		call lcd_putc
 124 00c2 CE01      		movw r24,r28
 125 00c4 0E94 0000 		call lcd_puts
 126 00c8 8C81      		ldd r24,Y+4
 127 00ca 8430      		cpi r24,lo8(4)
 128 00cc 01F4      		brne .L19
 129 00ce F501      		movw r30,r10
 130 00d0 1182      		std Z+1,__zero_reg__
 131 00d2 1082      		st Z,__zero_reg__
 132 00d4 80E0      		ldi r24,lo8(0)
 133 00d6 90E0      		ldi r25,hi8(0)
 134 00d8 00C0      		rjmp .L21
 135               	.L19:
 136 00da 8915      		cp r24,r9
 137 00dc 01F4      		brne .L18
 138 00de 10E0      		ldi r17,lo8(0)
 139 00e0 A801      		movw r20,r16
 140 00e2 B701      		movw r22,r14
 141 00e4 CE01      		movw r24,r28
 142 00e6 0E94 0000 		call strncasecmp
 143 00ea 892B      		or r24,r25
 144 00ec 01F4      		brne .L18
 145 00ee 0E0D      		add r16,r14
 146 00f0 1F1D      		adc r17,r15
 147 00f2 F501      		movw r30,r10
 148 00f4 1183      		std Z+1,r17
 149 00f6 0083      		st Z,r16
 150 00f8 8D81      		ldd r24,Y+5
 151 00fa 9927      		clr r25
 152 00fc 87FD      		sbrc r24,7
 153 00fe 9095      		com r25
 154               	.L21:
 155               	/* epilogue: frame size=0 */
 156 0100 DF91      		pop r29
 157 0102 CF91      		pop r28
 158 0104 1F91      		pop r17
 159 0106 0F91      		pop r16
 160 0108 FF90      		pop r15
 161 010a EF90      		pop r14
 162 010c DF90      		pop r13
 163 010e CF90      		pop r12
 164 0110 BF90      		pop r11
 165 0112 AF90      		pop r10
 166 0114 9F90      		pop r9
 167 0116 0895      		ret
 168               	/* epilogue end (size=12) */
 169               	/* function scpi_parse_unit size 97 (74) */
 170               		.size	scpi_parse_unit, .-scpi_parse_unit
 171               	.global	scpi_get_double_unit
GAS LISTING D:\DOCUME~1\alex\LOCALS~1\Temp/ccckDAnf.s 			page 4


 172               		.type	scpi_get_double_unit, @function
 173               	scpi_get_double_unit:
 174               	/* prologue: frame size=4 */
 175 0118 AF92      		push r10
 176 011a BF92      		push r11
 177 011c CF92      		push r12
 178 011e DF92      		push r13
 179 0120 EF92      		push r14
 180 0122 FF92      		push r15
 181 0124 0F93      		push r16
 182 0126 1F93      		push r17
 183 0128 CF93      		push r28
 184 012a DF93      		push r29
 185 012c CDB7      		in r28,__SP_L__
 186 012e DEB7      		in r29,__SP_H__
 187 0130 2497      		sbiw r28,4
 188 0132 0FB6      		in __tmp_reg__,__SREG__
 189 0134 F894      		cli
 190 0136 DEBF      		out __SP_H__,r29
 191 0138 0FBE      		out __SREG__,__tmp_reg__
 192 013a CDBF      		out __SP_L__,r28
 193               	/* prologue end (size=18) */
 194 013c 8C01      		movw r16,r24
 195 013e 5B01      		movw r10,r22
 196 0140 BE01      		movw r22,r28
 197 0142 6F5F      		subi r22,lo8(-(1))
 198 0144 7F4F      		sbci r23,hi8(-(1))
 199 0146 0E94 0000 		call strtod
 200 014a 6B01      		movw r12,r22
 201 014c 7C01      		movw r14,r24
 202 014e 2981      		ldd r18,Y+1
 203 0150 3A81      		ldd r19,Y+2
 204 0152 0217      		cp r16,r18
 205 0154 1307      		cpc r17,r19
 206 0156 01F0      		breq .L26
 207 0158 8091 0000 		lds r24,errno
 208 015c 9091 0000 		lds r25,(errno)+1
 209 0160 8297      		sbiw r24,34
 210 0162 01F0      		breq .L26
 211 0164 AE01      		movw r20,r28
 212 0166 4D5F      		subi r20,lo8(-(3))
 213 0168 5F4F      		sbci r21,hi8(-(3))
 214 016a 61E0      		ldi r22,lo8(1)
 215 016c C901      		movw r24,r18
 216 016e 0E94 0000 		call scpi_parse_unit
 217 0172 AC01      		movw r20,r24
 218 0174 C701      		movw r24,r14
 219 0176 B601      		movw r22,r12
 220 0178 0E94 0000 		call scpi_apply_unit
 221 017c F501      		movw r30,r10
 222 017e 6083      		st Z,r22
 223 0180 7183      		std Z+1,r23
 224 0182 8283      		std Z+2,r24
 225 0184 9383      		std Z+3,r25
 226 0186 80E0      		ldi r24,lo8(0)
 227 0188 90E0      		ldi r25,hi8(0)
 228 018a 00C0      		rjmp .L29
GAS LISTING D:\DOCUME~1\alex\LOCALS~1\Temp/ccckDAnf.s 			page 5


 229               	.L26:
 230 018c 8FEF      		ldi r24,lo8(-1)
 231 018e 9FEF      		ldi r25,hi8(-1)
 232               	.L29:
 233               	/* epilogue: frame size=4 */
 234 0190 2496      		adiw r28,4
 235 0192 0FB6      		in __tmp_reg__,__SREG__
 236 0194 F894      		cli
 237 0196 DEBF      		out __SP_H__,r29
 238 0198 0FBE      		out __SREG__,__tmp_reg__
 239 019a CDBF      		out __SP_L__,r28
 240 019c DF91      		pop r29
 241 019e CF91      		pop r28
 242 01a0 1F91      		pop r17
 243 01a2 0F91      		pop r16
 244 01a4 FF90      		pop r15
 245 01a6 EF90      		pop r14
 246 01a8 DF90      		pop r13
 247 01aa CF90      		pop r12
 248 01ac BF90      		pop r11
 249 01ae AF90      		pop r10
 250 01b0 0895      		ret
 251               	/* epilogue end (size=17) */
 252               	/* function scpi_get_double_unit size 78 (43) */
 253               		.size	scpi_get_double_unit, .-scpi_get_double_unit
 254               	.global	scpi_parse_command
 255               		.type	scpi_parse_command, @function
 256               	scpi_parse_command:
 257               	/* prologue: frame size=67 */
 258 01b2 2F92      		push r2
 259 01b4 3F92      		push r3
 260 01b6 4F92      		push r4
 261 01b8 5F92      		push r5
 262 01ba 6F92      		push r6
 263 01bc 7F92      		push r7
 264 01be 8F92      		push r8
 265 01c0 9F92      		push r9
 266 01c2 AF92      		push r10
 267 01c4 BF92      		push r11
 268 01c6 CF92      		push r12
 269 01c8 DF92      		push r13
 270 01ca EF92      		push r14
 271 01cc FF92      		push r15
 272 01ce 0F93      		push r16
 273 01d0 1F93      		push r17
 274 01d2 CF93      		push r28
 275 01d4 DF93      		push r29
 276 01d6 CDB7      		in r28,__SP_L__
 277 01d8 DEB7      		in r29,__SP_H__
 278 01da C354      		subi r28,lo8(67)
 279 01dc D040      		sbci r29,hi8(67)
 280 01de 0FB6      		in __tmp_reg__,__SREG__
 281 01e0 F894      		cli
 282 01e2 DEBF      		out __SP_H__,r29
 283 01e4 0FBE      		out __SREG__,__tmp_reg__
 284 01e6 CDBF      		out __SP_L__,r28
 285               	/* prologue end (size=27) */
GAS LISTING D:\DOCUME~1\alex\LOCALS~1\Temp/ccckDAnf.s 			page 6


 286 01e8 5C01      		movw r10,r24
 287 01ea 2496      		adiw r28,66-62
 288 01ec 7FAF      		std Y+63,r23
 289 01ee 6EAF      		std Y+62,r22
 290 01f0 2497      		sbiw r28,66-62
 291 01f2 E0E0      		ldi r30,lo8(keywords)
 292 01f4 F0E0      		ldi r31,hi8(keywords)
 293               	/* #APP */
 294 01f6 6591      		lpm r22, Z+
 295 01f8 7491      		lpm r23, Z
 296               		
 297               	/* #NOAPP */
 298 01fa 4424      		clr r4
 299 01fc 5524      		clr r5
 300 01fe 3E01      		movw r6,r28
 301 0200 0894      		sec
 302 0202 611C      		adc r6,__zero_reg__
 303 0204 711C      		adc r7,__zero_reg__
 304 0206 91E2      		ldi r25,lo8(33)
 305 0208 292E      		mov r2,r25
 306 020a 312C      		mov r3,__zero_reg__
 307 020c 2C0E      		add r2,r28
 308 020e 3D1E      		adc r3,r29
 309 0210 00C0      		rjmp .L32
 310               	.L33:
 311 0212 C301      		movw r24,r6
 312 0214 0E94 0000 		call strcpy_P
 313 0218 F301      		movw r30,r6
 314 021a 0190      		ld __tmp_reg__,Z+
 315 021c 0020      		tst __tmp_reg__
 316 021e 01F4      		brne .-6
 317 0220 3197      		sbiw r30,1
 318 0222 E619      		sub r30,r6
 319 0224 8301      		movw r16,r6
 320 0226 CC24      		clr r12
 321 0228 EE2E      		mov r14,r30
 322 022a FF24      		clr r15
 323 022c 4701      		movw r8,r14
 324 022e 860C      		add r8,r6
 325 0230 971C      		adc r9,r7
 326 0232 00C0      		rjmp .L34
 327               	.L35:
 328 0234 F801      		movw r30,r16
 329 0236 D080      		ld r13,Z
 330 0238 8D2D      		mov r24,r13
 331 023a 90E0      		ldi r25,lo8(0)
 332 023c 0E94 0000 		call islower
 333 0240 892B      		or r24,r25
 334 0242 01F4      		brne .L36
 335 0244 F101      		movw r30,r2
 336 0246 EC0D      		add r30,r12
 337 0248 F11D      		adc r31,__zero_reg__
 338 024a D082      		st Z,r13
 339 024c C394      		inc r12
 340               	.L36:
 341 024e 0F5F      		subi r16,lo8(-(1))
 342 0250 1F4F      		sbci r17,hi8(-(1))
GAS LISTING D:\DOCUME~1\alex\LOCALS~1\Temp/ccckDAnf.s 			page 7


 343               	.L34:
 344 0252 0815      		cp r16,r8
 345 0254 1905      		cpc r17,r9
 346 0256 01F4      		brne .L35
 347 0258 0C2D      		mov r16,r12
 348 025a 10E0      		ldi r17,lo8(0)
 349 025c F101      		movw r30,r2
 350 025e E00F      		add r30,r16
 351 0260 F11F      		adc r31,r17
 352 0262 80E2      		ldi r24,lo8(32)
 353 0264 8083      		st Z,r24
 354 0266 E2E2      		ldi r30,lo8(34)
 355 0268 F0E0      		ldi r31,hi8(34)
 356 026a EC0F      		add r30,r28
 357 026c FD1F      		adc r31,r29
 358 026e E00F      		add r30,r16
 359 0270 F11F      		adc r31,r17
 360 0272 1082      		st Z,__zero_reg__
 361 0274 A701      		movw r20,r14
 362 0276 B501      		movw r22,r10
 363 0278 C301      		movw r24,r6
 364 027a 0E94 0000 		call strncasecmp
 365 027e 892B      		or r24,r25
 366 0280 01F4      		brne .L39
 367 0282 EA0C      		add r14,r10
 368 0284 FB1C      		adc r15,r11
 369 0286 2496      		adiw r28,66-62
 370 0288 EEAD      		ldd r30,Y+62
 371 028a FFAD      		ldd r31,Y+63
 372 028c 2497      		sbiw r28,66-62
 373 028e F182      		std Z+1,r15
 374 0290 E082      		st Z,r14
 375 0292 00C0      		rjmp .L46
 376               	.L39:
 377 0294 0894      		sec
 378 0296 411C      		adc r4,__zero_reg__
 379 0298 511C      		adc r5,__zero_reg__
 380 029a A801      		movw r20,r16
 381 029c B501      		movw r22,r10
 382 029e C101      		movw r24,r2
 383 02a0 0E94 0000 		call strncasecmp
 384 02a4 892B      		or r24,r25
 385 02a6 01F4      		brne .L42
 386 02a8 0A0D      		add r16,r10
 387 02aa 1B1D      		adc r17,r11
 388 02ac 2496      		adiw r28,66-62
 389 02ae EEAD      		ldd r30,Y+62
 390 02b0 FFAD      		ldd r31,Y+63
 391 02b2 2497      		sbiw r28,66-62
 392 02b4 1183      		std Z+1,r17
 393 02b6 0083      		st Z,r16
 394               	.L46:
 395 02b8 2296      		adiw r28,65-63
 396 02ba 8FAD      		ldd r24,Y+63
 397 02bc 2297      		sbiw r28,65-63
 398 02be 00C0      		rjmp .L41
 399               	.L42:
GAS LISTING D:\DOCUME~1\alex\LOCALS~1\Temp/ccckDAnf.s 			page 8


 400 02c0 E42D      		mov r30,r4
 401 02c2 F0E0      		ldi r31,lo8(0)
 402 02c4 EE0F      		lsl r30
 403 02c6 FF1F      		rol r31
 404 02c8 E050      		subi r30,lo8(-(keywords))
 405 02ca F040      		sbci r31,hi8(-(keywords))
 406               	/* #APP */
 407 02cc 6591      		lpm r22, Z+
 408 02ce 7491      		lpm r23, Z
 409               		
 410               	/* #NOAPP */
 411               	.L32:
 412 02d0 2296      		adiw r28,65-63
 413 02d2 4FAE      		std Y+63,r4
 414 02d4 2297      		sbiw r28,65-63
 415 02d6 6115      		cp r22,__zero_reg__
 416 02d8 7105      		cpc r23,__zero_reg__
 417 02da 01F0      		breq .+2
 418 02dc 00C0      		rjmp .L33
 419 02de 8FEF      		ldi r24,lo8(-1)
 420               	.L41:
 421 02e0 90E0      		ldi r25,lo8(0)
 422               	/* epilogue: frame size=67 */
 423 02e2 CD5B      		subi r28,lo8(-67)
 424 02e4 DF4F      		sbci r29,hi8(-67)
 425 02e6 0FB6      		in __tmp_reg__,__SREG__
 426 02e8 F894      		cli
 427 02ea DEBF      		out __SP_H__,r29
 428 02ec 0FBE      		out __SREG__,__tmp_reg__
 429 02ee CDBF      		out __SP_L__,r28
 430 02f0 DF91      		pop r29
 431 02f2 CF91      		pop r28
 432 02f4 1F91      		pop r17
 433 02f6 0F91      		pop r16
 434 02f8 FF90      		pop r15
 435 02fa EF90      		pop r14
 436 02fc DF90      		pop r13
 437 02fe CF90      		pop r12
 438 0300 BF90      		pop r11
 439 0302 AF90      		pop r10
 440 0304 9F90      		pop r9
 441 0306 8F90      		pop r8
 442 0308 7F90      		pop r7
 443 030a 6F90      		pop r6
 444 030c 5F90      		pop r5
 445 030e 4F90      		pop r4
 446 0310 3F90      		pop r3
 447 0312 2F90      		pop r2
 448 0314 0895      		ret
 449               	/* epilogue end (size=26) */
 450               	/* function scpi_parse_command size 186 (133) */
 451               		.size	scpi_parse_command, .-scpi_parse_command
 452               		.data
 453               	.LC0:
 454 0000 636D 643A 		.string	"cmd:"
 454      00
 455               	.LC1:
GAS LISTING D:\DOCUME~1\alex\LOCALS~1\Temp/ccckDAnf.s 			page 9


 456 0005 5B00      		.string	"["
 457               		.text
 458               	.global	scpi_parse_line
 459               		.type	scpi_parse_line, @function
 460               	scpi_parse_line:
 461               	/* prologue: frame size=12 */
 462 0316 DF92      		push r13
 463 0318 EF92      		push r14
 464 031a FF92      		push r15
 465 031c 0F93      		push r16
 466 031e 1F93      		push r17
 467 0320 CF93      		push r28
 468 0322 DF93      		push r29
 469 0324 CDB7      		in r28,__SP_L__
 470 0326 DEB7      		in r29,__SP_H__
 471 0328 2C97      		sbiw r28,12
 472 032a 0FB6      		in __tmp_reg__,__SREG__
 473 032c F894      		cli
 474 032e DEBF      		out __SP_H__,r29
 475 0330 0FBE      		out __SREG__,__tmp_reg__
 476 0332 CDBF      		out __SP_L__,r28
 477               	/* prologue end (size=15) */
 478 0334 BE01      		movw r22,r28
 479 0336 6F5F      		subi r22,lo8(-(1))
 480 0338 7F4F      		sbci r23,hi8(-(1))
 481 033a 0E94 0000 		call scpi_parse_command
 482 033e 7C01      		movw r14,r24
 483 0340 80E0      		ldi r24,lo8(.LC0)
 484 0342 90E0      		ldi r25,hi8(.LC0)
 485 0344 0E94 0000 		call lcd_puts
 486 0348 8E01      		movw r16,r28
 487 034a 0D5F      		subi r16,lo8(-(3))
 488 034c 1F4F      		sbci r17,hi8(-(3))
 489 034e 4AE0      		ldi r20,lo8(10)
 490 0350 50E0      		ldi r21,hi8(10)
 491 0352 B801      		movw r22,r16
 492 0354 8E2D      		mov r24,r14
 493 0356 90E0      		ldi r25,lo8(0)
 494 0358 0E94 0000 		call itoa
 495 035c C801      		movw r24,r16
 496 035e 0E94 0000 		call lcd_puts
 497 0362 80E0      		ldi r24,lo8(.LC1)
 498 0364 90E0      		ldi r25,hi8(.LC1)
 499 0366 0E94 0000 		call lcd_puts
 500 036a 8981      		ldd r24,Y+1
 501 036c 9A81      		ldd r25,Y+2
 502 036e 0E94 0000 		call lcd_puts
 503 0372 6981      		ldd r22,Y+1
 504 0374 7A81      		ldd r23,Y+2
 505 0376 8E2D      		mov r24,r14
 506 0378 0E94 0000 		call scpi_function
 507 037c 8C01      		movw r16,r24
 508 037e 8091 0000 		lds r24,return_buf
 509 0382 8823      		tst r24
 510 0384 01F0      		breq .L48
 511 0386 8AE0      		ldi r24,lo8(10)
 512 0388 0E94 0000 		call lcd_putc
GAS LISTING D:\DOCUME~1\alex\LOCALS~1\Temp/ccckDAnf.s 			page 10


 513 038c 80E0      		ldi r24,lo8(return_buf)
 514 038e 90E0      		ldi r25,hi8(return_buf)
 515 0390 0E94 0000 		call lcd_puts
 516 0394 80E0      		ldi r24,lo8(return_buf)
 517 0396 90E0      		ldi r25,hi8(return_buf)
 518 0398 0E94 0000 		call uart_puts
 519               	.L48:
 520 039c 802F      		mov r24,r16
 521 039e 90E0      		ldi r25,lo8(0)
 522               	/* epilogue: frame size=12 */
 523 03a0 2C96      		adiw r28,12
 524 03a2 0FB6      		in __tmp_reg__,__SREG__
 525 03a4 F894      		cli
 526 03a6 DEBF      		out __SP_H__,r29
 527 03a8 0FBE      		out __SREG__,__tmp_reg__
 528 03aa CDBF      		out __SP_L__,r28
 529 03ac DF91      		pop r29
 530 03ae CF91      		pop r28
 531 03b0 1F91      		pop r17
 532 03b2 0F91      		pop r16
 533 03b4 FF90      		pop r15
 534 03b6 EF90      		pop r14
 535 03b8 DF90      		pop r13
 536 03ba 0895      		ret
 537               	/* epilogue end (size=14) */
 538               	/* function scpi_parse_line size 83 (54) */
 539               		.size	scpi_parse_line, .-scpi_parse_line
 540               		.comm return_buf,80,1
 541               	/* File "scpi.c": code  487 = 0x01e7 ( 347), prologues  71, epilogues  69 */
GAS LISTING D:\DOCUME~1\alex\LOCALS~1\Temp/ccckDAnf.s 			page 11


DEFINED SYMBOLS
                            *ABS*:00000000 scpi.c
D:\DOCUME~1\alex\LOCALS~1\Temp/ccckDAnf.s:2      *ABS*:0000003f __SREG__
D:\DOCUME~1\alex\LOCALS~1\Temp/ccckDAnf.s:3      *ABS*:0000003e __SP_H__
D:\DOCUME~1\alex\LOCALS~1\Temp/ccckDAnf.s:4      *ABS*:0000003d __SP_L__
D:\DOCUME~1\alex\LOCALS~1\Temp/ccckDAnf.s:5      *ABS*:00000000 __tmp_reg__
D:\DOCUME~1\alex\LOCALS~1\Temp/ccckDAnf.s:6      *ABS*:00000001 __zero_reg__
D:\DOCUME~1\alex\LOCALS~1\Temp/ccckDAnf.s:12     .text:00000000 scpi_apply_unit
D:\DOCUME~1\alex\LOCALS~1\Temp/ccckDAnf.s:67     .text:00000056 scpi_parse_unit
D:\DOCUME~1\alex\LOCALS~1\Temp/ccckDAnf.s:173    .text:00000118 scpi_get_double_unit
D:\DOCUME~1\alex\LOCALS~1\Temp/ccckDAnf.s:256    .text:000001b2 scpi_parse_command
D:\DOCUME~1\alex\LOCALS~1\Temp/ccckDAnf.s:460    .text:00000316 scpi_parse_line
                            *COM*:00000050 return_buf

UNDEFINED SYMBOLS
__do_copy_data
__do_clear_bss
__divsf3
__mulsf3
lcd_putc
lcd_puts
lcd_clrscr
units
strncasecmp
strtod
errno
keywords
strcpy_P
islower
itoa
scpi_function
uart_puts
