GAS LISTING d:\tmp/ccw1KJrZ.s 			page 1


   1               		.file	"main.c"
   2               	__SREG__ = 0x3f
   3               	__SP_H__ = 0x3e
   4               	__SP_L__ = 0x3d
   5               	__tmp_reg__ = 0
   6               	__zero_reg__ = 1
   7               		.global __do_copy_data
   8               		.global __do_clear_bss
   9               		.section	.debug_abbrev,"",@progbits
  10               	.Ldebug_abbrev0:
  11               		.section	.debug_info,"",@progbits
  12               	.Ldebug_info0:
  13               		.section	.debug_line,"",@progbits
  14               	.Ldebug_line0:
  15               		.text
  16               	.Ltext0:
  17               	.global	wait_accepted
  18               		.type	wait_accepted, @function
  19               	wait_accepted:
  20               	.LFB2:
  21               	.LM1:
  22               	/* prologue: frame size=0 */
  23               	/* prologue end (size=0) */
  24 0000 80E0      		ldi r24,lo8(0)
  25 0002 90E0      		ldi r25,hi8(0)
  26               	.LVL0:
  27 0004 20E0      		ldi r18,lo8(0)
  28               	.LVL1:
  29               	.L12:
  30               	.LM2:
  31 0006 CD9B      		sbis 57-0x20,5
  32 0008 00C0      		rjmp .L3
  33 000a 80E0      		ldi r24,lo8(0)
  34               	.LVL2:
  35 000c 00C0      		rjmp .L5
  36               	.LVL3:
  37               	.L3:
  38               	.LM3:
  39 000e 0196      		adiw r24,1
  40               	.LM4:
  41 0010 01F4      		brne .L12
  42               	.LM5:
  43 0012 2F5F      		subi r18,lo8(-(1))
  44               	.LM6:
  45 0014 2031      		cpi r18,lo8(16)
  46 0016 01F4      		brne .L12
  47               	.LM7:
  48 0018 89B3      		in r24,57-0x20
  49               	.LVL4:
  50 001a 8071      		andi r24,lo8(16)
  51 001c 8058      		subi r24,lo8(-(-128))
  52               	.L5:
  53               	.LM8:
  54 001e 90E0      		ldi r25,lo8(0)
  55               	.LVL5:
  56               	/* epilogue: frame size=0 */
  57 0020 0895      		ret
GAS LISTING d:\tmp/ccw1KJrZ.s 			page 2


  58               	/* epilogue end (size=1) */
  59               	/* function wait_accepted size 18 (17) */
  60               	.LFE2:
  61               		.size	wait_accepted, .-wait_accepted
  62               	.global	send_data
  63               		.type	send_data, @function
  64               	send_data:
  65               	.LFB3:
  66               	.LM9:
  67               	/* prologue: frame size=0 */
  68 0022 FF92      		push r15
  69 0024 0F93      		push r16
  70 0026 1F93      		push r17
  71 0028 CF93      		push r28
  72 002a DF93      		push r29
  73               	/* prologue end (size=5) */
  74               	.LVL6:
  75 002c 8C01      		movw r16,r24
  76               	.LM10:
  77 002e A998      		cbi 53-0x20,1
  78 0030 EC01      		movw r28,r24
  79               	.LVL7:
  80 0032 00C0      		rjmp .L14
  81               	.LVL8:
  82               	.L15:
  83               	.LM11:
  84 0034 0E94 0000 		call uart_putc
  85               	.LM12:
  86 0038 FBBA      		out 59-0x20,r15
  87               	.LM13:
  88 003a 2196      		adiw r28,1
  89               	.LM14:
  90 003c 8881      		ld r24,Y
  91 003e 8BBB      		out 59-0x20,r24
  92               	.LM15:
  93 0040 AB9A      		sbi 53-0x20,3
  94               	.LM16:
  95 0042 0E94 0000 		call wait_accepted
  96               	.LM17:
  97 0046 AB98      		cbi 53-0x20,3
  98               	.LVL9:
  99               	.L14:
 100 0048 CE01      		movw r24,r28
 101 004a 801B      		sub r24,r16
 102 004c F82E      		mov r15,r24
 103               	.LM18:
 104 004e 8881      		ld r24,Y
 105 0050 8823      		tst r24
 106 0052 01F4      		brne .L15
 107               	.LM19:
 108 0054 80E0      		ldi r24,lo8(0)
 109 0056 90E0      		ldi r25,hi8(0)
 110               	/* epilogue: frame size=0 */
 111 0058 DF91      		pop r29
 112 005a CF91      		pop r28
 113 005c 1F91      		pop r17
 114 005e 0F91      		pop r16
GAS LISTING d:\tmp/ccw1KJrZ.s 			page 3


 115 0060 FF90      		pop r15
 116 0062 0895      		ret
 117               	/* epilogue end (size=6) */
 118               	/* function send_data size 33 (22) */
 119               	.LFE3:
 120               		.size	send_data, .-send_data
 121               		.data
 122               	.LC0:
 123 0000 0D0A 626F 		.string	"\r\nbooting..\r\n"
 123      6F74 696E 
 123      672E 2E0D 
 123      0A00 
 124               	.LC1:
 125 000e 0D0A 7461 		.string	"\r\ntalk #16 %x\r\n"
 125      6C6B 2023 
 125      3136 2025 
 125      780D 0A00 
 126               	.LC2:
 127 001e 4633 580D 		.string	"F3X\r\n"
 127      0A00 
 128               	.LC3:
 129 0024 0D0A 7365 		.string	"\r\nsend command %x\r\n"
 129      6E64 2063 
 129      6F6D 6D61 
 129      6E64 2025 
 129      780D 0A00 
 130               		.text
 131               	.global	main
 132               		.type	main, @function
 133               	main:
 134               	.LFB4:
 135               	.LM20:
 136               	/* prologue: frame size=0 */
 137 0064 0F93      		push r16
 138 0066 1F93      		push r17
 139               	/* prologue end (size=2) */
 140               	.LM21:
 141 0068 0E94 0000 		call uart_init
 142               	.LM22:
 143 006c 1ABA      		out 58-0x20,__zero_reg__
 144               	.LM23:
 145 006e 1FEF      		ldi r17,lo8(-1)
 146 0070 17BB      		out 55-0x20,r17
 147               	.LM24:
 148 0072 14BB      		out 52-0x20,r17
 149               	.LM25:
 150 0074 1ABB      		out 58-0x20,r17
 151               	.LM26:
 152 0076 17BB      		out 55-0x20,r17
 153               	.LM27:
 154 0078 14BB      		out 52-0x20,r17
 155               	.LM28:
 156 007a 11BB      		out 49-0x20,r17
 157               	.LM29:
 158 007c 18BB      		out 56-0x20,r17
 159               	.LM30:
 160 007e 15BB      		out 53-0x20,r17
GAS LISTING d:\tmp/ccw1KJrZ.s 			page 4


 161               	.LM31:
 162 0080 12BB      		out 50-0x20,r17
 163               	.LM32:
 164 0082 80E0      		ldi r24,lo8(.LC0)
 165 0084 90E0      		ldi r25,hi8(.LC0)
 166 0086 9F93      		push r25
 167 0088 8F93      		push r24
 168 008a 0E94 0000 		call uart_printf
 169               	.LM33:
 170 008e 959A      		sbi 50-0x20,5
 171               	.LM34:
 172 0090 8FEC      		ldi r24,lo8(-49)
 173 0092 84BB      		out 52-0x20,r24
 174               	.LM35:
 175 0094 15BB      		out 53-0x20,r17
 176               	.LM36:
 177 0096 1ABB      		out 58-0x20,r17
 178               	.LM37:
 179 0098 1BBA      		out 59-0x20,__zero_reg__
 180               	.LM38:
 181 009a 9398      		cbi 50-0x20,3
 182               	.LM39:
 183 009c 9498      		cbi 50-0x20,4
 184               	.LM40:
 185 009e 969A      		sbi 50-0x20,6
 186               	.LM41:
 187 00a0 9798      		cbi 50-0x20,7
 188               	.LM42:
 189 00a2 AF98      		cbi 53-0x20,7
 190               	.LM43:
 191 00a4 AE9A      		sbi 53-0x20,6
 192               	.LM44:
 193 00a6 A89A      		sbi 53-0x20,0
 194               	.LM45:
 195 00a8 AA98      		cbi 53-0x20,2
 196               	.LM46:
 197 00aa A99A      		sbi 53-0x20,1
 198               	.LM47:
 199 00ac 81E5      		ldi r24,lo8(81)
 200 00ae 8BBB      		out 59-0x20,r24
 201               	.LM48:
 202 00b0 AB98      		cbi 53-0x20,3
 203               	.LM49:
 204 00b2 0E94 0000 		call wait_accepted
 205               	.LM50:
 206 00b6 AB9A      		sbi 53-0x20,3
 207               	.LM51:
 208 00b8 082F      		mov r16,r24
 209 00ba 10E0      		ldi r17,lo8(0)
 210 00bc 1F93      		push r17
 211 00be 0F93      		push r16
 212 00c0 80E0      		ldi r24,lo8(.LC1)
 213 00c2 90E0      		ldi r25,hi8(.LC1)
 214 00c4 9F93      		push r25
 215 00c6 8F93      		push r24
 216 00c8 0E94 0000 		call uart_printf
 217               	.LM52:
GAS LISTING d:\tmp/ccw1KJrZ.s 			page 5


 218 00cc 80E0      		ldi r24,lo8(.LC2)
 219 00ce 90E0      		ldi r25,hi8(.LC2)
 220 00d0 0E94 0000 		call send_data
 221               	.LM53:
 222 00d4 1F93      		push r17
 223 00d6 0F93      		push r16
 224 00d8 80E0      		ldi r24,lo8(.LC3)
 225 00da 90E0      		ldi r25,hi8(.LC3)
 226 00dc 9F93      		push r25
 227 00de 8F93      		push r24
 228 00e0 0E94 0000 		call uart_printf
 229 00e4 8DB7      		in r24,__SP_L__
 230 00e6 9EB7      		in r25,__SP_H__
 231 00e8 0A96      		adiw r24,10
 232 00ea 0FB6      		in __tmp_reg__,__SREG__
 233 00ec F894      		cli
 234 00ee 9EBF      		out __SP_H__,r25
 235 00f0 0FBE      		out __SREG__,__tmp_reg__
 236 00f2 8DBF      		out __SP_L__,r24
 237               	.LM54:
 238 00f4 80E0      		ldi r24,lo8(0)
 239 00f6 90E0      		ldi r25,hi8(0)
 240               	/* epilogue: frame size=0 */
 241 00f8 1F91      		pop r17
 242 00fa 0F91      		pop r16
 243 00fc 0895      		ret
 244               	/* epilogue end (size=3) */
 245               	/* function main size 77 (72) */
 246               	.LFE4:
 247               		.size	main, .-main
 248               		.comm vol,2,1
 249               		.comm ch,2,1
 250               		.comm bal,2,1
 251               		.section	.debug_frame,"",@progbits
 252               	.Lframe0:
 253 0000 0C00 0000 		.long	.LECIE0-.LSCIE0
 254               	.LSCIE0:
 255 0004 FFFF FFFF 		.long	0xffffffff
 256 0008 01        		.byte	0x1
 257 0009 00        		.string	""
 258 000a 01        		.uleb128 0x1
 259 000b 7F        		.sleb128 -1
 260 000c 24        		.byte	0x24
 261 000d 0C        		.byte	0xc
 262 000e 20        		.uleb128 0x20
 263 000f 00        		.uleb128 0x0
 264               		.p2align	2
 265               	.LECIE0:
 266               	.LSFDE0:
 267 0010 0C00 0000 		.long	.LEFDE0-.LASFDE0
 268               	.LASFDE0:
 269 0014 0000 0000 		.long	.Lframe0
 270 0018 0000 0000 		.long	.LFB2
 271 001c 2200 0000 		.long	.LFE2-.LFB2
 272               		.p2align	2
 273               	.LEFDE0:
 274               	.LSFDE2:
GAS LISTING d:\tmp/ccw1KJrZ.s 			page 6


 275 0020 0C00 0000 		.long	.LEFDE2-.LASFDE2
 276               	.LASFDE2:
 277 0024 0000 0000 		.long	.Lframe0
 278 0028 0000 0000 		.long	.LFB3
 279 002c 4200 0000 		.long	.LFE3-.LFB3
 280               		.p2align	2
 281               	.LEFDE2:
 282               	.LSFDE4:
 283 0030 0C00 0000 		.long	.LEFDE4-.LASFDE4
 284               	.LASFDE4:
 285 0034 0000 0000 		.long	.Lframe0
 286 0038 0000 0000 		.long	.LFB4
 287 003c 9A00 0000 		.long	.LFE4-.LFB4
 288               		.p2align	2
 289               	.LEFDE4:
 290               		.text
 291               	.Letext0:
 292               		.section	.debug_loc,"",@progbits
 293               	.Ldebug_loc0:
 294               	.LLST1:
 295 0000 0400 0000 		.long	.LVL0-.Ltext0
 296 0004 0C00 0000 		.long	.LVL2-.Ltext0
 297 0008 0600      		.word	0x6
 298 000a 68        		.byte	0x68
 299 000b 93        		.byte	0x93
 300 000c 01        		.uleb128 0x1
 301 000d 69        		.byte	0x69
 302 000e 93        		.byte	0x93
 303 000f 01        		.uleb128 0x1
 304 0010 0E00 0000 		.long	.LVL3-.Ltext0
 305 0014 1A00 0000 		.long	.LVL4-.Ltext0
 306 0018 0600      		.word	0x6
 307 001a 68        		.byte	0x68
 308 001b 93        		.byte	0x93
 309 001c 01        		.uleb128 0x1
 310 001d 69        		.byte	0x69
 311 001e 93        		.byte	0x93
 312 001f 01        		.uleb128 0x1
 313 0020 0000 0000 		.long	0x0
 314 0024 0000 0000 		.long	0x0
 315               	.LLST2:
 316 0028 0C00 0000 		.long	.LVL2-.Ltext0
 317 002c 0E00 0000 		.long	.LVL3-.Ltext0
 318 0030 0100      		.word	0x1
 319 0032 68        		.byte	0x68
 320 0033 1A00 0000 		.long	.LVL4-.Ltext0
 321 0037 2000 0000 		.long	.LVL5-.Ltext0
 322 003b 0100      		.word	0x1
 323 003d 68        		.byte	0x68
 324 003e 0000 0000 		.long	0x0
 325 0042 0000 0000 		.long	0x0
 326               	.LLST4:
 327 0046 2C00 0000 		.long	.LVL6-.Ltext0
 328 004a 3400 0000 		.long	.LVL8-.Ltext0
 329 004e 0600      		.word	0x6
 330 0050 68        		.byte	0x68
 331 0051 93        		.byte	0x93
GAS LISTING d:\tmp/ccw1KJrZ.s 			page 7


 332 0052 01        		.uleb128 0x1
 333 0053 69        		.byte	0x69
 334 0054 93        		.byte	0x93
 335 0055 01        		.uleb128 0x1
 336 0056 3400 0000 		.long	.LVL8-.Ltext0
 337 005a 6400 0000 		.long	.LFE3-.Ltext0
 338 005e 0600      		.word	0x6
 339 0060 60        		.byte	0x60
 340 0061 93        		.byte	0x93
 341 0062 01        		.uleb128 0x1
 342 0063 61        		.byte	0x61
 343 0064 93        		.byte	0x93
 344 0065 01        		.uleb128 0x1
 345 0066 0000 0000 		.long	0x0
 346 006a 0000 0000 		.long	0x0
 347               		.section	.debug_info
 348 0000 8201 0000 		.long	0x182
 349 0004 0200      		.word	0x2
 350 0006 0000 0000 		.long	.Ldebug_abbrev0
 351 000a 04        		.byte	0x4
 352 000b 01        		.uleb128 0x1
 353 000c 0000 0000 		.long	.LASF15
 354 0010 01        		.byte	0x1
 355 0011 0000 0000 		.long	.LASF16
 356 0015 0000 0000 		.long	.LASF17
 357 0019 0000 0000 		.long	.Ltext0
 358 001d 0000 0000 		.long	.Letext0
 359 0021 0000 0000 		.long	.Ldebug_line0
 360 0025 02        		.uleb128 0x2
 361 0026 01        		.byte	0x1
 362 0027 06        		.byte	0x6
 363 0028 0000 0000 		.long	.LASF0
 364 002c 03        		.uleb128 0x3
 365 002d 0000 0000 		.long	.LASF2
 366 0031 02        		.byte	0x2
 367 0032 7A        		.byte	0x7a
 368 0033 3700 0000 		.long	0x37
 369 0037 02        		.uleb128 0x2
 370 0038 01        		.byte	0x1
 371 0039 08        		.byte	0x8
 372 003a 0000 0000 		.long	.LASF1
 373 003e 04        		.uleb128 0x4
 374 003f 02        		.byte	0x2
 375 0040 05        		.byte	0x5
 376 0041 696E 7400 		.string	"int"
 377 0045 03        		.uleb128 0x3
 378 0046 0000 0000 		.long	.LASF3
 379 004a 02        		.byte	0x2
 380 004b 7C        		.byte	0x7c
 381 004c 5000 0000 		.long	0x50
 382 0050 02        		.uleb128 0x2
 383 0051 02        		.byte	0x2
 384 0052 07        		.byte	0x7
 385 0053 0000 0000 		.long	.LASF4
 386 0057 02        		.uleb128 0x2
 387 0058 04        		.byte	0x4
 388 0059 05        		.byte	0x5
GAS LISTING d:\tmp/ccw1KJrZ.s 			page 8


 389 005a 0000 0000 		.long	.LASF5
 390 005e 02        		.uleb128 0x2
 391 005f 04        		.byte	0x4
 392 0060 07        		.byte	0x7
 393 0061 0000 0000 		.long	.LASF6
 394 0065 02        		.uleb128 0x2
 395 0066 08        		.byte	0x8
 396 0067 05        		.byte	0x5
 397 0068 0000 0000 		.long	.LASF7
 398 006c 02        		.uleb128 0x2
 399 006d 08        		.byte	0x8
 400 006e 07        		.byte	0x7
 401 006f 0000 0000 		.long	.LASF8
 402 0073 05        		.uleb128 0x5
 403 0074 01        		.byte	0x1
 404 0075 0000 0000 		.long	.LASF10
 405 0079 01        		.byte	0x1
 406 007a 25        		.byte	0x25
 407 007b 01        		.byte	0x1
 408 007c 2C00 0000 		.long	0x2c
 409 0080 0000 0000 		.long	.LFB2
 410 0084 0000 0000 		.long	.LFE2
 411 0088 02        		.byte	0x2
 412 0089 90        		.byte	0x90
 413 008a 20        		.uleb128 0x20
 414 008b B700 0000 		.long	0xb7
 415 008f 06        		.uleb128 0x6
 416 0090 6900      		.string	"i"
 417 0092 01        		.byte	0x1
 418 0093 25        		.byte	0x25
 419 0094 4500 0000 		.long	0x45
 420 0098 0000 0000 		.long	.LLST1
 421 009c 07        		.uleb128 0x7
 422 009d 6A00      		.string	"j"
 423 009f 01        		.byte	0x1
 424 00a0 26        		.byte	0x26
 425 00a1 2C00 0000 		.long	0x2c
 426 00a5 01        		.byte	0x1
 427 00a6 62        		.byte	0x62
 428 00a7 08        		.uleb128 0x8
 429 00a8 0000 0000 		.long	.LASF9
 430 00ac 01        		.byte	0x1
 431 00ad 26        		.byte	0x26
 432 00ae 2C00 0000 		.long	0x2c
 433 00b2 0000 0000 		.long	.LLST2
 434 00b6 00        		.byte	0x0
 435 00b7 05        		.uleb128 0x5
 436 00b8 01        		.byte	0x1
 437 00b9 0000 0000 		.long	.LASF11
 438 00bd 01        		.byte	0x1
 439 00be 44        		.byte	0x44
 440 00bf 01        		.byte	0x1
 441 00c0 2C00 0000 		.long	0x2c
 442 00c4 0000 0000 		.long	.LFB3
 443 00c8 0000 0000 		.long	.LFE3
 444 00cc 02        		.byte	0x2
 445 00cd 90        		.byte	0x90
GAS LISTING d:\tmp/ccw1KJrZ.s 			page 9


 446 00ce 20        		.uleb128 0x20
 447 00cf 0701 0000 		.long	0x107
 448 00d3 09        		.uleb128 0x9
 449 00d4 7300      		.string	"s"
 450 00d6 01        		.byte	0x1
 451 00d7 42        		.byte	0x42
 452 00d8 0701 0000 		.long	0x107
 453 00dc 0000 0000 		.long	.LLST4
 454 00e0 07        		.uleb128 0x7
 455 00e1 7400      		.string	"t"
 456 00e3 01        		.byte	0x1
 457 00e4 45        		.byte	0x45
 458 00e5 0701 0000 		.long	0x107
 459 00e9 06        		.byte	0x6
 460 00ea 6C        		.byte	0x6c
 461 00eb 93        		.byte	0x93
 462 00ec 01        		.uleb128 0x1
 463 00ed 6D        		.byte	0x6d
 464 00ee 93        		.byte	0x93
 465 00ef 01        		.uleb128 0x1
 466 00f0 0A        		.uleb128 0xa
 467 00f1 6572 7200 		.string	"err"
 468 00f5 01        		.byte	0x1
 469 00f6 46        		.byte	0x46
 470 00f7 2C00 0000 		.long	0x2c
 471 00fb 07        		.uleb128 0x7
 472 00fc 6A00      		.string	"j"
 473 00fe 01        		.byte	0x1
 474 00ff 46        		.byte	0x46
 475 0100 2C00 0000 		.long	0x2c
 476 0104 01        		.byte	0x1
 477 0105 5F        		.byte	0x5f
 478 0106 00        		.byte	0x0
 479 0107 0B        		.uleb128 0xb
 480 0108 02        		.byte	0x2
 481 0109 0D01 0000 		.long	0x10d
 482 010d 02        		.uleb128 0x2
 483 010e 01        		.byte	0x1
 484 010f 08        		.byte	0x8
 485 0110 0000 0000 		.long	.LASF12
 486 0114 05        		.uleb128 0x5
 487 0115 01        		.byte	0x1
 488 0116 0000 0000 		.long	.LASF13
 489 011a 01        		.byte	0x1
 490 011b 5F        		.byte	0x5f
 491 011c 01        		.byte	0x1
 492 011d 3E00 0000 		.long	0x3e
 493 0121 0000 0000 		.long	.LFB4
 494 0125 0000 0000 		.long	.LFE4
 495 0129 02        		.byte	0x2
 496 012a 90        		.byte	0x90
 497 012b 20        		.uleb128 0x20
 498 012c 5001 0000 		.long	0x150
 499 0130 0C        		.uleb128 0xc
 500 0131 0000 0000 		.long	.LASF14
 501 0135 01        		.byte	0x1
 502 0136 60        		.byte	0x60
GAS LISTING d:\tmp/ccw1KJrZ.s 			page 10


 503 0137 2C00 0000 		.long	0x2c
 504 013b 0A        		.uleb128 0xa
 505 013c 6572 7200 		.string	"err"
 506 0140 01        		.byte	0x1
 507 0141 60        		.byte	0x60
 508 0142 2C00 0000 		.long	0x2c
 509 0146 0A        		.uleb128 0xa
 510 0147 6900      		.string	"i"
 511 0149 01        		.byte	0x1
 512 014a 60        		.byte	0x60
 513 014b 2C00 0000 		.long	0x2c
 514 014f 00        		.byte	0x0
 515 0150 0D        		.uleb128 0xd
 516 0151 766F 6C00 		.string	"vol"
 517 0155 01        		.byte	0x1
 518 0156 1D        		.byte	0x1d
 519 0157 5000 0000 		.long	0x50
 520 015b 01        		.byte	0x1
 521 015c 05        		.byte	0x5
 522 015d 03        		.byte	0x3
 523 015e 0000 0000 		.long	vol
 524 0162 0D        		.uleb128 0xd
 525 0163 6368 00   		.string	"ch"
 526 0166 01        		.byte	0x1
 527 0167 1D        		.byte	0x1d
 528 0168 5000 0000 		.long	0x50
 529 016c 01        		.byte	0x1
 530 016d 05        		.byte	0x5
 531 016e 03        		.byte	0x3
 532 016f 0000 0000 		.long	ch
 533 0173 0D        		.uleb128 0xd
 534 0174 6261 6C00 		.string	"bal"
 535 0178 01        		.byte	0x1
 536 0179 1E        		.byte	0x1e
 537 017a 3E00 0000 		.long	0x3e
 538 017e 01        		.byte	0x1
 539 017f 05        		.byte	0x5
 540 0180 03        		.byte	0x3
 541 0181 0000 0000 		.long	bal
 542 0185 00        		.byte	0x0
 543               		.section	.debug_abbrev
 544 0000 01        		.uleb128 0x1
 545 0001 11        		.uleb128 0x11
 546 0002 01        		.byte	0x1
 547 0003 25        		.uleb128 0x25
 548 0004 0E        		.uleb128 0xe
 549 0005 13        		.uleb128 0x13
 550 0006 0B        		.uleb128 0xb
 551 0007 03        		.uleb128 0x3
 552 0008 0E        		.uleb128 0xe
 553 0009 1B        		.uleb128 0x1b
 554 000a 0E        		.uleb128 0xe
 555 000b 11        		.uleb128 0x11
 556 000c 01        		.uleb128 0x1
 557 000d 12        		.uleb128 0x12
 558 000e 01        		.uleb128 0x1
 559 000f 10        		.uleb128 0x10
GAS LISTING d:\tmp/ccw1KJrZ.s 			page 11


 560 0010 06        		.uleb128 0x6
 561 0011 00        		.byte	0x0
 562 0012 00        		.byte	0x0
 563 0013 02        		.uleb128 0x2
 564 0014 24        		.uleb128 0x24
 565 0015 00        		.byte	0x0
 566 0016 0B        		.uleb128 0xb
 567 0017 0B        		.uleb128 0xb
 568 0018 3E        		.uleb128 0x3e
 569 0019 0B        		.uleb128 0xb
 570 001a 03        		.uleb128 0x3
 571 001b 0E        		.uleb128 0xe
 572 001c 00        		.byte	0x0
 573 001d 00        		.byte	0x0
 574 001e 03        		.uleb128 0x3
 575 001f 16        		.uleb128 0x16
 576 0020 00        		.byte	0x0
 577 0021 03        		.uleb128 0x3
 578 0022 0E        		.uleb128 0xe
 579 0023 3A        		.uleb128 0x3a
 580 0024 0B        		.uleb128 0xb
 581 0025 3B        		.uleb128 0x3b
 582 0026 0B        		.uleb128 0xb
 583 0027 49        		.uleb128 0x49
 584 0028 13        		.uleb128 0x13
 585 0029 00        		.byte	0x0
 586 002a 00        		.byte	0x0
 587 002b 04        		.uleb128 0x4
 588 002c 24        		.uleb128 0x24
 589 002d 00        		.byte	0x0
 590 002e 0B        		.uleb128 0xb
 591 002f 0B        		.uleb128 0xb
 592 0030 3E        		.uleb128 0x3e
 593 0031 0B        		.uleb128 0xb
 594 0032 03        		.uleb128 0x3
 595 0033 08        		.uleb128 0x8
 596 0034 00        		.byte	0x0
 597 0035 00        		.byte	0x0
 598 0036 05        		.uleb128 0x5
 599 0037 2E        		.uleb128 0x2e
 600 0038 01        		.byte	0x1
 601 0039 3F        		.uleb128 0x3f
 602 003a 0C        		.uleb128 0xc
 603 003b 03        		.uleb128 0x3
 604 003c 0E        		.uleb128 0xe
 605 003d 3A        		.uleb128 0x3a
 606 003e 0B        		.uleb128 0xb
 607 003f 3B        		.uleb128 0x3b
 608 0040 0B        		.uleb128 0xb
 609 0041 27        		.uleb128 0x27
 610 0042 0C        		.uleb128 0xc
 611 0043 49        		.uleb128 0x49
 612 0044 13        		.uleb128 0x13
 613 0045 11        		.uleb128 0x11
 614 0046 01        		.uleb128 0x1
 615 0047 12        		.uleb128 0x12
 616 0048 01        		.uleb128 0x1
GAS LISTING d:\tmp/ccw1KJrZ.s 			page 12


 617 0049 40        		.uleb128 0x40
 618 004a 0A        		.uleb128 0xa
 619 004b 01        		.uleb128 0x1
 620 004c 13        		.uleb128 0x13
 621 004d 00        		.byte	0x0
 622 004e 00        		.byte	0x0
 623 004f 06        		.uleb128 0x6
 624 0050 34        		.uleb128 0x34
 625 0051 00        		.byte	0x0
 626 0052 03        		.uleb128 0x3
 627 0053 08        		.uleb128 0x8
 628 0054 3A        		.uleb128 0x3a
 629 0055 0B        		.uleb128 0xb
 630 0056 3B        		.uleb128 0x3b
 631 0057 0B        		.uleb128 0xb
 632 0058 49        		.uleb128 0x49
 633 0059 13        		.uleb128 0x13
 634 005a 02        		.uleb128 0x2
 635 005b 06        		.uleb128 0x6
 636 005c 00        		.byte	0x0
 637 005d 00        		.byte	0x0
 638 005e 07        		.uleb128 0x7
 639 005f 34        		.uleb128 0x34
 640 0060 00        		.byte	0x0
 641 0061 03        		.uleb128 0x3
 642 0062 08        		.uleb128 0x8
 643 0063 3A        		.uleb128 0x3a
 644 0064 0B        		.uleb128 0xb
 645 0065 3B        		.uleb128 0x3b
 646 0066 0B        		.uleb128 0xb
 647 0067 49        		.uleb128 0x49
 648 0068 13        		.uleb128 0x13
 649 0069 02        		.uleb128 0x2
 650 006a 0A        		.uleb128 0xa
 651 006b 00        		.byte	0x0
 652 006c 00        		.byte	0x0
 653 006d 08        		.uleb128 0x8
 654 006e 34        		.uleb128 0x34
 655 006f 00        		.byte	0x0
 656 0070 03        		.uleb128 0x3
 657 0071 0E        		.uleb128 0xe
 658 0072 3A        		.uleb128 0x3a
 659 0073 0B        		.uleb128 0xb
 660 0074 3B        		.uleb128 0x3b
 661 0075 0B        		.uleb128 0xb
 662 0076 49        		.uleb128 0x49
 663 0077 13        		.uleb128 0x13
 664 0078 02        		.uleb128 0x2
 665 0079 06        		.uleb128 0x6
 666 007a 00        		.byte	0x0
 667 007b 00        		.byte	0x0
 668 007c 09        		.uleb128 0x9
 669 007d 05        		.uleb128 0x5
 670 007e 00        		.byte	0x0
 671 007f 03        		.uleb128 0x3
 672 0080 08        		.uleb128 0x8
 673 0081 3A        		.uleb128 0x3a
GAS LISTING d:\tmp/ccw1KJrZ.s 			page 13


 674 0082 0B        		.uleb128 0xb
 675 0083 3B        		.uleb128 0x3b
 676 0084 0B        		.uleb128 0xb
 677 0085 49        		.uleb128 0x49
 678 0086 13        		.uleb128 0x13
 679 0087 02        		.uleb128 0x2
 680 0088 06        		.uleb128 0x6
 681 0089 00        		.byte	0x0
 682 008a 00        		.byte	0x0
 683 008b 0A        		.uleb128 0xa
 684 008c 34        		.uleb128 0x34
 685 008d 00        		.byte	0x0
 686 008e 03        		.uleb128 0x3
 687 008f 08        		.uleb128 0x8
 688 0090 3A        		.uleb128 0x3a
 689 0091 0B        		.uleb128 0xb
 690 0092 3B        		.uleb128 0x3b
 691 0093 0B        		.uleb128 0xb
 692 0094 49        		.uleb128 0x49
 693 0095 13        		.uleb128 0x13
 694 0096 00        		.byte	0x0
 695 0097 00        		.byte	0x0
 696 0098 0B        		.uleb128 0xb
 697 0099 0F        		.uleb128 0xf
 698 009a 00        		.byte	0x0
 699 009b 0B        		.uleb128 0xb
 700 009c 0B        		.uleb128 0xb
 701 009d 49        		.uleb128 0x49
 702 009e 13        		.uleb128 0x13
 703 009f 00        		.byte	0x0
 704 00a0 00        		.byte	0x0
 705 00a1 0C        		.uleb128 0xc
 706 00a2 34        		.uleb128 0x34
 707 00a3 00        		.byte	0x0
 708 00a4 03        		.uleb128 0x3
 709 00a5 0E        		.uleb128 0xe
 710 00a6 3A        		.uleb128 0x3a
 711 00a7 0B        		.uleb128 0xb
 712 00a8 3B        		.uleb128 0x3b
 713 00a9 0B        		.uleb128 0xb
 714 00aa 49        		.uleb128 0x49
 715 00ab 13        		.uleb128 0x13
 716 00ac 00        		.byte	0x0
 717 00ad 00        		.byte	0x0
 718 00ae 0D        		.uleb128 0xd
 719 00af 34        		.uleb128 0x34
 720 00b0 00        		.byte	0x0
 721 00b1 03        		.uleb128 0x3
 722 00b2 08        		.uleb128 0x8
 723 00b3 3A        		.uleb128 0x3a
 724 00b4 0B        		.uleb128 0xb
 725 00b5 3B        		.uleb128 0x3b
 726 00b6 0B        		.uleb128 0xb
 727 00b7 49        		.uleb128 0x49
 728 00b8 13        		.uleb128 0x13
 729 00b9 3F        		.uleb128 0x3f
 730 00ba 0C        		.uleb128 0xc
GAS LISTING d:\tmp/ccw1KJrZ.s 			page 14


 731 00bb 02        		.uleb128 0x2
 732 00bc 0A        		.uleb128 0xa
 733 00bd 00        		.byte	0x0
 734 00be 00        		.byte	0x0
 735 00bf 00        		.byte	0x0
 736               		.section	.debug_pubnames,"",@progbits
 737 0000 4E00 0000 		.long	0x4e
 738 0004 0200      		.word	0x2
 739 0006 0000 0000 		.long	.Ldebug_info0
 740 000a 8601 0000 		.long	0x186
 741 000e 7300 0000 		.long	0x73
 742 0012 7761 6974 		.string	"wait_accepted"
 742      5F61 6363 
 742      6570 7465 
 742      6400 
 743 0020 B700 0000 		.long	0xb7
 744 0024 7365 6E64 		.string	"send_data"
 744      5F64 6174 
 744      6100 
 745 002e 1401 0000 		.long	0x114
 746 0032 6D61 696E 		.string	"main"
 746      00
 747 0037 5001 0000 		.long	0x150
 748 003b 766F 6C00 		.string	"vol"
 749 003f 6201 0000 		.long	0x162
 750 0043 6368 00   		.string	"ch"
 751 0046 7301 0000 		.long	0x173
 752 004a 6261 6C00 		.string	"bal"
 753 004e 0000 0000 		.long	0x0
 754               		.section	.debug_aranges,"",@progbits
 755 0000 1C00 0000 		.long	0x1c
 756 0004 0200      		.word	0x2
 757 0006 0000 0000 		.long	.Ldebug_info0
 758 000a 04        		.byte	0x4
 759 000b 00        		.byte	0x0
 760 000c 0000      		.word	0x0
 761 000e 0000      		.word	0x0
 762 0010 0000 0000 		.long	.Ltext0
 763 0014 FE00 0000 		.long	.Letext0-.Ltext0
 764 0018 0000 0000 		.long	0x0
 765 001c 0000 0000 		.long	0x0
 766               		.section	.debug_line
 767 0000 0C02 0000 		.long	.LELT0-.LSLT0
 768               	.LSLT0:
 769 0004 0200      		.word	0x2
 770 0006 4C00 0000 		.long	.LELTP0-.LASLTP0
 771               	.LASLTP0:
 772 000a 01        		.byte	0x1
 773 000b 01        		.byte	0x1
 774 000c F6        		.byte	0xf6
 775 000d F5        		.byte	0xf5
 776 000e 0A        		.byte	0xa
 777 000f 00        		.byte	0x0
 778 0010 01        		.byte	0x1
 779 0011 01        		.byte	0x1
 780 0012 01        		.byte	0x1
 781 0013 01        		.byte	0x1
GAS LISTING d:\tmp/ccw1KJrZ.s 			page 15


 782 0014 00        		.byte	0x0
 783 0015 00        		.byte	0x0
 784 0016 00        		.byte	0x0
 785 0017 01        		.byte	0x1
 786 0018 643A 2F77 		.ascii	"d:/winavr-20071221/bin/../avr/include"
 786      696E 6176 
 786      722D 3230 
 786      3037 3132 
 786      3231 2F62 
 787 003d 00        		.byte	0
 788 003e 00        		.byte	0x0
 789 003f 6D61 696E 		.string	"main.c"
 789      2E63 00
 790 0046 00        		.uleb128 0x0
 791 0047 00        		.uleb128 0x0
 792 0048 00        		.uleb128 0x0
 793 0049 7374 6469 		.string	"stdint.h"
 793      6E74 2E68 
 793      00
 794 0052 01        		.uleb128 0x1
 795 0053 00        		.uleb128 0x0
 796 0054 00        		.uleb128 0x0
 797 0055 00        		.byte	0x0
 798               	.LELTP0:
 799 0056 00        		.byte	0x0
 800 0057 05        		.uleb128 0x5
 801 0058 02        		.byte	0x2
 802 0059 0000 0000 		.long	.LM1
 803 005d 38        		.byte	0x38
 804 005e 00        		.byte	0x0
 805 005f 05        		.uleb128 0x5
 806 0060 02        		.byte	0x2
 807 0061 0000 0000 		.long	.LM2
 808 0065 1C        		.byte	0x1c
 809 0066 00        		.byte	0x0
 810 0067 05        		.uleb128 0x5
 811 0068 02        		.byte	0x2
 812 0069 0000 0000 		.long	.LM3
 813 006d 18        		.byte	0x18
 814 006e 00        		.byte	0x0
 815 006f 05        		.uleb128 0x5
 816 0070 02        		.byte	0x2
 817 0071 0000 0000 		.long	.LM4
 818 0075 15        		.byte	0x15
 819 0076 00        		.byte	0x0
 820 0077 05        		.uleb128 0x5
 821 0078 02        		.byte	0x2
 822 0079 0000 0000 		.long	.LM5
 823 007d 15        		.byte	0x15
 824 007e 00        		.byte	0x0
 825 007f 05        		.uleb128 0x5
 826 0080 02        		.byte	0x2
 827 0081 0000 0000 		.long	.LM6
 828 0085 15        		.byte	0x15
 829 0086 00        		.byte	0x0
 830 0087 05        		.uleb128 0x5
 831 0088 02        		.byte	0x2
GAS LISTING d:\tmp/ccw1KJrZ.s 			page 16


 832 0089 0000 0000 		.long	.LM7
 833 008d 15        		.byte	0x15
 834 008e 00        		.byte	0x0
 835 008f 05        		.uleb128 0x5
 836 0090 02        		.byte	0x2
 837 0091 0000 0000 		.long	.LM8
 838 0095 1D        		.byte	0x1d
 839 0096 00        		.byte	0x0
 840 0097 05        		.uleb128 0x5
 841 0098 02        		.byte	0x2
 842 0099 0000 0000 		.long	.LM9
 843 009d 1A        		.byte	0x1a
 844 009e 00        		.byte	0x0
 845 009f 05        		.uleb128 0x5
 846 00a0 02        		.byte	0x2
 847 00a1 0000 0000 		.long	.LM10
 848 00a5 1A        		.byte	0x1a
 849 00a6 00        		.byte	0x0
 850 00a7 05        		.uleb128 0x5
 851 00a8 02        		.byte	0x2
 852 00a9 0000 0000 		.long	.LM11
 853 00ad 17        		.byte	0x17
 854 00ae 00        		.byte	0x0
 855 00af 05        		.uleb128 0x5
 856 00b0 02        		.byte	0x2
 857 00b1 0000 0000 		.long	.LM12
 858 00b5 15        		.byte	0x15
 859 00b6 00        		.byte	0x0
 860 00b7 05        		.uleb128 0x5
 861 00b8 02        		.byte	0x2
 862 00b9 0000 0000 		.long	.LM13
 863 00bd 15        		.byte	0x15
 864 00be 00        		.byte	0x0
 865 00bf 05        		.uleb128 0x5
 866 00c0 02        		.byte	0x2
 867 00c1 0000 0000 		.long	.LM14
 868 00c5 16        		.byte	0x16
 869 00c6 00        		.byte	0x0
 870 00c7 05        		.uleb128 0x5
 871 00c8 02        		.byte	0x2
 872 00c9 0000 0000 		.long	.LM15
 873 00cd 15        		.byte	0x15
 874 00ce 00        		.byte	0x0
 875 00cf 05        		.uleb128 0x5
 876 00d0 02        		.byte	0x2
 877 00d1 0000 0000 		.long	.LM16
 878 00d5 15        		.byte	0x15
 879 00d6 00        		.byte	0x0
 880 00d7 05        		.uleb128 0x5
 881 00d8 02        		.byte	0x2
 882 00d9 0000 0000 		.long	.LM17
 883 00dd 15        		.byte	0x15
 884 00de 00        		.byte	0x0
 885 00df 05        		.uleb128 0x5
 886 00e0 02        		.byte	0x2
 887 00e1 0000 0000 		.long	.LM18
 888 00e5 0C        		.byte	0xc
GAS LISTING d:\tmp/ccw1KJrZ.s 			page 17


 889 00e6 00        		.byte	0x0
 890 00e7 05        		.uleb128 0x5
 891 00e8 02        		.byte	0x2
 892 00e9 0000 0000 		.long	.LM19
 893 00ed 22        		.byte	0x22
 894 00ee 00        		.byte	0x0
 895 00ef 05        		.uleb128 0x5
 896 00f0 02        		.byte	0x2
 897 00f1 0000 0000 		.long	.LM20
 898 00f5 19        		.byte	0x19
 899 00f6 00        		.byte	0x0
 900 00f7 05        		.uleb128 0x5
 901 00f8 02        		.byte	0x2
 902 00f9 0000 0000 		.long	.LM21
 903 00fd 17        		.byte	0x17
 904 00fe 00        		.byte	0x0
 905 00ff 05        		.uleb128 0x5
 906 0100 02        		.byte	0x2
 907 0101 0000 0000 		.long	.LM22
 908 0105 16        		.byte	0x16
 909 0106 00        		.byte	0x0
 910 0107 05        		.uleb128 0x5
 911 0108 02        		.byte	0x2
 912 0109 0000 0000 		.long	.LM23
 913 010d 15        		.byte	0x15
 914 010e 00        		.byte	0x0
 915 010f 05        		.uleb128 0x5
 916 0110 02        		.byte	0x2
 917 0111 0000 0000 		.long	.LM24
 918 0115 15        		.byte	0x15
 919 0116 00        		.byte	0x0
 920 0117 05        		.uleb128 0x5
 921 0118 02        		.byte	0x2
 922 0119 0000 0000 		.long	.LM25
 923 011d 17        		.byte	0x17
 924 011e 00        		.byte	0x0
 925 011f 05        		.uleb128 0x5
 926 0120 02        		.byte	0x2
 927 0121 0000 0000 		.long	.LM26
 928 0125 15        		.byte	0x15
 929 0126 00        		.byte	0x0
 930 0127 05        		.uleb128 0x5
 931 0128 02        		.byte	0x2
 932 0129 0000 0000 		.long	.LM27
 933 012d 15        		.byte	0x15
 934 012e 00        		.byte	0x0
 935 012f 05        		.uleb128 0x5
 936 0130 02        		.byte	0x2
 937 0131 0000 0000 		.long	.LM28
 938 0135 15        		.byte	0x15
 939 0136 00        		.byte	0x0
 940 0137 05        		.uleb128 0x5
 941 0138 02        		.byte	0x2
 942 0139 0000 0000 		.long	.LM29
 943 013d 17        		.byte	0x17
 944 013e 00        		.byte	0x0
 945 013f 05        		.uleb128 0x5
GAS LISTING d:\tmp/ccw1KJrZ.s 			page 18


 946 0140 02        		.byte	0x2
 947 0141 0000 0000 		.long	.LM30
 948 0145 15        		.byte	0x15
 949 0146 00        		.byte	0x0
 950 0147 05        		.uleb128 0x5
 951 0148 02        		.byte	0x2
 952 0149 0000 0000 		.long	.LM31
 953 014d 15        		.byte	0x15
 954 014e 00        		.byte	0x0
 955 014f 05        		.uleb128 0x5
 956 0150 02        		.byte	0x2
 957 0151 0000 0000 		.long	.LM32
 958 0155 17        		.byte	0x17
 959 0156 00        		.byte	0x0
 960 0157 05        		.uleb128 0x5
 961 0158 02        		.byte	0x2
 962 0159 0000 0000 		.long	.LM33
 963 015d 15        		.byte	0x15
 964 015e 00        		.byte	0x0
 965 015f 05        		.uleb128 0x5
 966 0160 02        		.byte	0x2
 967 0161 0000 0000 		.long	.LM34
 968 0165 19        		.byte	0x19
 969 0166 00        		.byte	0x0
 970 0167 05        		.uleb128 0x5
 971 0168 02        		.byte	0x2
 972 0169 0000 0000 		.long	.LM35
 973 016d 15        		.byte	0x15
 974 016e 00        		.byte	0x0
 975 016f 05        		.uleb128 0x5
 976 0170 02        		.byte	0x2
 977 0171 0000 0000 		.long	.LM36
 978 0175 15        		.byte	0x15
 979 0176 00        		.byte	0x0
 980 0177 05        		.uleb128 0x5
 981 0178 02        		.byte	0x2
 982 0179 0000 0000 		.long	.LM37
 983 017d 15        		.byte	0x15
 984 017e 00        		.byte	0x0
 985 017f 05        		.uleb128 0x5
 986 0180 02        		.byte	0x2
 987 0181 0000 0000 		.long	.LM38
 988 0185 17        		.byte	0x17
 989 0186 00        		.byte	0x0
 990 0187 05        		.uleb128 0x5
 991 0188 02        		.byte	0x2
 992 0189 0000 0000 		.long	.LM39
 993 018d 15        		.byte	0x15
 994 018e 00        		.byte	0x0
 995 018f 05        		.uleb128 0x5
 996 0190 02        		.byte	0x2
 997 0191 0000 0000 		.long	.LM40
 998 0195 15        		.byte	0x15
 999 0196 00        		.byte	0x0
 1000 0197 05        		.uleb128 0x5
 1001 0198 02        		.byte	0x2
 1002 0199 0000 0000 		.long	.LM41
GAS LISTING d:\tmp/ccw1KJrZ.s 			page 19


 1003 019d 15        		.byte	0x15
 1004 019e 00        		.byte	0x0
 1005 019f 05        		.uleb128 0x5
 1006 01a0 02        		.byte	0x2
 1007 01a1 0000 0000 		.long	.LM42
 1008 01a5 18        		.byte	0x18
 1009 01a6 00        		.byte	0x0
 1010 01a7 05        		.uleb128 0x5
 1011 01a8 02        		.byte	0x2
 1012 01a9 0000 0000 		.long	.LM43
 1013 01ad 15        		.byte	0x15
 1014 01ae 00        		.byte	0x0
 1015 01af 05        		.uleb128 0x5
 1016 01b0 02        		.byte	0x2
 1017 01b1 0000 0000 		.long	.LM44
 1018 01b5 16        		.byte	0x16
 1019 01b6 00        		.byte	0x0
 1020 01b7 05        		.uleb128 0x5
 1021 01b8 02        		.byte	0x2
 1022 01b9 0000 0000 		.long	.LM45
 1023 01bd 15        		.byte	0x15
 1024 01be 00        		.byte	0x0
 1025 01bf 05        		.uleb128 0x5
 1026 01c0 02        		.byte	0x2
 1027 01c1 0000 0000 		.long	.LM46
 1028 01c5 16        		.byte	0x16
 1029 01c6 00        		.byte	0x0
 1030 01c7 05        		.uleb128 0x5
 1031 01c8 02        		.byte	0x2
 1032 01c9 0000 0000 		.long	.LM47
 1033 01cd 24        		.byte	0x24
 1034 01ce 00        		.byte	0x0
 1035 01cf 05        		.uleb128 0x5
 1036 01d0 02        		.byte	0x2
 1037 01d1 0000 0000 		.long	.LM48
 1038 01d5 1A        		.byte	0x1a
 1039 01d6 00        		.byte	0x0
 1040 01d7 05        		.uleb128 0x5
 1041 01d8 02        		.byte	0x2
 1042 01d9 0000 0000 		.long	.LM49
 1043 01dd 15        		.byte	0x15
 1044 01de 00        		.byte	0x0
 1045 01df 05        		.uleb128 0x5
 1046 01e0 02        		.byte	0x2
 1047 01e1 0000 0000 		.long	.LM50
 1048 01e5 15        		.byte	0x15
 1049 01e6 00        		.byte	0x0
 1050 01e7 05        		.uleb128 0x5
 1051 01e8 02        		.byte	0x2
 1052 01e9 0000 0000 		.long	.LM51
 1053 01ed 16        		.byte	0x16
 1054 01ee 00        		.byte	0x0
 1055 01ef 05        		.uleb128 0x5
 1056 01f0 02        		.byte	0x2
 1057 01f1 0000 0000 		.long	.LM52
 1058 01f5 16        		.byte	0x16
 1059 01f6 00        		.byte	0x0
GAS LISTING d:\tmp/ccw1KJrZ.s 			page 20


 1060 01f7 05        		.uleb128 0x5
 1061 01f8 02        		.byte	0x2
 1062 01f9 0000 0000 		.long	.LM53
 1063 01fd 16        		.byte	0x16
 1064 01fe 00        		.byte	0x0
 1065 01ff 05        		.uleb128 0x5
 1066 0200 02        		.byte	0x2
 1067 0201 0000 0000 		.long	.LM54
 1068 0205 17        		.byte	0x17
 1069 0206 00        		.byte	0x0
 1070 0207 05        		.uleb128 0x5
 1071 0208 02        		.byte	0x2
 1072 0209 0000 0000 		.long	.Letext0
 1073 020d 00        		.byte	0x0
 1074 020e 01        		.uleb128 0x1
 1075 020f 01        		.byte	0x1
 1076               	.LELT0:
 1077 0210 1900 0000 		.section	.debug_str,"MS",@progbits,1
 1077      0200 1300 
 1077      0000 0101 
 1077      FB0E 0D00 
 1077      0101 0101 
 1078               	.LASF10:
 1079 0000 7761 6974 		.string	"wait_accepted"
 1079      5F61 6363 
 1079      6570 7465 
 1079      6400 
 1080               	.LASF2:
 1081 000e 7569 6E74 		.string	"uint8_t"
 1081      385F 7400 
 1082               	.LASF17:
 1083 0016 473A 5C61 		.string	"G:\\avr\\gpib"
 1083      7672 5C67 
 1083      7069 6200 
 1084               	.LASF1:
 1085 0022 756E 7369 		.string	"unsigned char"
 1085      676E 6564 
 1085      2063 6861 
 1085      7200 
 1086               	.LASF9:
 1087 0030 7265 7476 		.string	"retval"
 1087      616C 00
 1088               	.LASF6:
 1089 0037 6C6F 6E67 		.string	"long unsigned int"
 1089      2075 6E73 
 1089      6967 6E65 
 1089      6420 696E 
 1089      7400 
 1090               	.LASF11:
 1091 0049 7365 6E64 		.string	"send_data"
 1091      5F64 6174 
 1091      6100 
 1092               	.LASF13:
 1093 0053 6D61 696E 		.string	"main"
 1093      00
 1094               	.LASF4:
 1095 0058 756E 7369 		.string	"unsigned int"
GAS LISTING d:\tmp/ccw1KJrZ.s 			page 21


 1095      676E 6564 
 1095      2069 6E74 
 1095      00
 1096               	.LASF14:
 1097 0065 6164 6472 		.string	"address"
 1097      6573 7300 
 1098               	.LASF8:
 1099 006d 6C6F 6E67 		.string	"long long unsigned int"
 1099      206C 6F6E 
 1099      6720 756E 
 1099      7369 676E 
 1099      6564 2069 
 1100               	.LASF15:
 1101 0084 474E 5520 		.string	"GNU C 4.2.2 (WinAVR 20071221)"
 1101      4320 342E 
 1101      322E 3220 
 1101      2857 696E 
 1101      4156 5220 
 1102               	.LASF7:
 1103 00a2 6C6F 6E67 		.string	"long long int"
 1103      206C 6F6E 
 1103      6720 696E 
 1103      7400 
 1104               	.LASF16:
 1105 00b0 6D61 696E 		.string	"main.c"
 1105      2E63 00
 1106               	.LASF12:
 1107 00b7 6368 6172 		.string	"char"
 1107      00
 1108               	.LASF3:
 1109 00bc 7569 6E74 		.string	"uint16_t"
 1109      3136 5F74 
 1109      00
 1110               	.LASF5:
 1111 00c5 6C6F 6E67 		.string	"long int"
 1111      2069 6E74 
 1111      00
 1112               	.LASF0:
 1113 00ce 7369 676E 		.string	"signed char"
 1113      6564 2063 
 1113      6861 7200 
 1114               	/* File "main.c": code  128 = 0x0080 ( 111), prologues   7, epilogues  10 */
GAS LISTING d:\tmp/ccw1KJrZ.s 			page 22


DEFINED SYMBOLS
                            *ABS*:00000000 main.c
   d:\tmp/ccw1KJrZ.s:2      *ABS*:0000003f __SREG__
   d:\tmp/ccw1KJrZ.s:3      *ABS*:0000003e __SP_H__
   d:\tmp/ccw1KJrZ.s:4      *ABS*:0000003d __SP_L__
   d:\tmp/ccw1KJrZ.s:5      *ABS*:00000000 __tmp_reg__
   d:\tmp/ccw1KJrZ.s:6      *ABS*:00000001 __zero_reg__
   d:\tmp/ccw1KJrZ.s:19     .text:00000000 wait_accepted
   d:\tmp/ccw1KJrZ.s:64     .text:00000022 send_data
   d:\tmp/ccw1KJrZ.s:133    .text:00000064 main
                            *COM*:00000002 vol
                            *COM*:00000002 ch
                            *COM*:00000002 bal

UNDEFINED SYMBOLS
__do_copy_data
__do_clear_bss
uart_putc
uart_init
uart_printf
