GAS LISTING d:\tmp/cctmyUwb.s 			page 1


   1               		.file	"mcp3204.c"
   2               	__SREG__ = 0x3f
   3               	__SP_H__ = 0x3e
   4               	__SP_L__ = 0x3d
   5               	__tmp_reg__ = 0
   6               	__zero_reg__ = 1
   7               		.global __do_copy_data
   8               		.global __do_clear_bss
   9               		.section	.debug_abbrev,"",@progbits
  10               	.Ldebug_abbrev0:
  11               		.section	.debug_info,"",@progbits
  12               	.Ldebug_info0:
  13               		.section	.debug_line,"",@progbits
  14               	.Ldebug_line0:
  15               		.text
  16               	.Ltext0:
  17               	.global	init_mcp3204
  18               		.type	init_mcp3204, @function
  19               	init_mcp3204:
  20               	.LFB2:
  21               	.LM1:
  22               	/* prologue: frame size=0 */
  23 0000 FF92      		push r15
  24 0002 0F93      		push r16
  25 0004 1F93      		push r17
  26 0006 CF93      		push r28
  27 0008 DF93      		push r29
  28               	/* prologue end (size=5) */
  29               	.LVL0:
  30 000a F62E      		mov r15,r22
  31 000c B22F      		mov r27,r18
  32               	.LM2:
  33 000e 242F      		mov r18,r20
  34               	.LVL1:
  35 0010 2F70      		andi r18,lo8(15)
  36 0012 61E0      		ldi r22,lo8(1)
  37 0014 70E0      		ldi r23,hi8(1)
  38               	.LVL2:
  39 0016 FB01      		movw r30,r22
  40 0018 00C0      		rjmp 2f
  41 001a EE0F      	1:	lsl r30
  42 001c FF1F      		rol r31
  43 001e 2A95      	2:	dec r18
  44 0020 02F4      		brpl 1b
  45 0022 9F01      		movw r18,r30
  46 0024 5E2F      		mov r21,r30
  47               	.LVL3:
  48               	.LM3:
  49 0026 C82F      		mov r28,r24
  50 0028 D0E0      		ldi r29,lo8(0)
  51 002a FE01      		movw r30,r28
  52 002c E050      		subi r30,lo8(-(b_clk))
  53 002e F040      		sbci r31,hi8(-(b_clk))
  54 0030 2083      		st Z,r18
  55               	.LM4:
  56 0032 8B2F      		mov r24,r27
  57               	.LVL4:
GAS LISTING d:\tmp/cctmyUwb.s 			page 2


  58 0034 8F70      		andi r24,lo8(15)
  59 0036 9B01      		movw r18,r22
  60 0038 00C0      		rjmp 2f
  61 003a 220F      	1:	lsl r18
  62 003c 331F      		rol r19
  63 003e 8A95      	2:	dec r24
  64 0040 02F4      		brpl 1b
  65 0042 C901      		movw r24,r18
  66 0044 322F      		mov r19,r18
  67               	.LVL5:
  68               	.LM5:
  69 0046 FE01      		movw r30,r28
  70 0048 E050      		subi r30,lo8(-(b_dout))
  71 004a F040      		sbci r31,hi8(-(b_dout))
  72 004c 8083      		st Z,r24
  73               	.LM6:
  74 004e 8F2D      		mov r24,r15
  75 0050 8F70      		andi r24,lo8(15)
  76 0052 FB01      		movw r30,r22
  77 0054 00C0      		rjmp 2f
  78 0056 EE0F      	1:	lsl r30
  79 0058 FF1F      		rol r31
  80 005a 8A95      	2:	dec r24
  81 005c 02F4      		brpl 1b
  82 005e CF01      		movw r24,r30
  83 0060 1E2F      		mov r17,r30
  84               	.LVL6:
  85               	.LM7:
  86 0062 FE01      		movw r30,r28
  87 0064 E050      		subi r30,lo8(-(b_cs))
  88 0066 F040      		sbci r31,hi8(-(b_cs))
  89 0068 8083      		st Z,r24
  90               	.LM8:
  91 006a 802F      		mov r24,r16
  92 006c 8F70      		andi r24,lo8(15)
  93 006e 00C0      		rjmp 2f
  94 0070 660F      	1:	lsl r22
  95 0072 771F      		rol r23
  96 0074 8A95      	2:	dec r24
  97 0076 02F4      		brpl 1b
  98 0078 A62F      		mov r26,r22
  99               	.LVL7:
 100               	.LM9:
 101 007a FE01      		movw r30,r28
 102 007c E050      		subi r30,lo8(-(b_din))
 103 007e F040      		sbci r31,hi8(-(b_din))
 104 0080 6083      		st Z,r22
 105               	.LM10:
 106 0082 407F      		andi r20,lo8(-16)
 107               	.LVL8:
 108               	.LM11:
 109 0084 01F4      		brne .L2
 110               	.LM12:
 111 0086 FE01      		movw r30,r28
 112 0088 EE0F      		lsl r30
 113 008a FF1F      		rol r31
 114 008c E050      		subi r30,lo8(-(p_clk))
GAS LISTING d:\tmp/cctmyUwb.s 			page 3


 115 008e F040      		sbci r31,hi8(-(p_clk))
 116 0090 8BE3      		ldi r24,lo8(59)
 117 0092 90E0      		ldi r25,hi8(59)
 118 0094 9183      		std Z+1,r25
 119 0096 8083      		st Z,r24
 120 0098 8AB3      		in r24,58-0x20
 121 009a 582B      		or r21,r24
 122 009c 5ABB      		out 58-0x20,r21
 123 009e 00C0      		rjmp .L4
 124               	.L2:
 125               	.LM13:
 126 00a0 4031      		cpi r20,lo8(16)
 127 00a2 01F4      		brne .L5
 128 00a4 FE01      		movw r30,r28
 129 00a6 EE0F      		lsl r30
 130 00a8 FF1F      		rol r31
 131 00aa E050      		subi r30,lo8(-(p_clk))
 132 00ac F040      		sbci r31,hi8(-(p_clk))
 133 00ae 88E3      		ldi r24,lo8(56)
 134 00b0 90E0      		ldi r25,hi8(56)
 135 00b2 9183      		std Z+1,r25
 136 00b4 8083      		st Z,r24
 137 00b6 87B3      		in r24,55-0x20
 138 00b8 582B      		or r21,r24
 139 00ba 57BB      		out 55-0x20,r21
 140 00bc 00C0      		rjmp .L4
 141               	.L5:
 142               	.LM14:
 143 00be 4032      		cpi r20,lo8(32)
 144 00c0 01F4      		brne .L7
 145 00c2 FE01      		movw r30,r28
 146 00c4 EE0F      		lsl r30
 147 00c6 FF1F      		rol r31
 148 00c8 E050      		subi r30,lo8(-(p_clk))
 149 00ca F040      		sbci r31,hi8(-(p_clk))
 150 00cc 85E3      		ldi r24,lo8(53)
 151 00ce 90E0      		ldi r25,hi8(53)
 152 00d0 9183      		std Z+1,r25
 153 00d2 8083      		st Z,r24
 154 00d4 84B3      		in r24,52-0x20
 155 00d6 582B      		or r21,r24
 156 00d8 54BB      		out 52-0x20,r21
 157 00da 00C0      		rjmp .L4
 158               	.L7:
 159               	.LM15:
 160 00dc 4033      		cpi r20,lo8(48)
 161 00de 01F4      		brne .L4
 162 00e0 FE01      		movw r30,r28
 163 00e2 EE0F      		lsl r30
 164 00e4 FF1F      		rol r31
 165 00e6 E050      		subi r30,lo8(-(p_clk))
 166 00e8 F040      		sbci r31,hi8(-(p_clk))
 167 00ea 82E3      		ldi r24,lo8(50)
 168 00ec 90E0      		ldi r25,hi8(50)
 169 00ee 9183      		std Z+1,r25
 170 00f0 8083      		st Z,r24
 171 00f2 81B3      		in r24,49-0x20
GAS LISTING d:\tmp/cctmyUwb.s 			page 4


 172 00f4 582B      		or r21,r24
 173 00f6 51BB      		out 49-0x20,r21
 174               	.L4:
 175               	.LM16:
 176 00f8 2B2F      		mov r18,r27
 177 00fa 207F      		andi r18,lo8(-16)
 178               	.LVL9:
 179               	.LM17:
 180 00fc 01F4      		brne .L10
 181 00fe FE01      		movw r30,r28
 182 0100 EE0F      		lsl r30
 183 0102 FF1F      		rol r31
 184               	.LVL10:
 185 0104 E050      		subi r30,lo8(-(p_dout))
 186 0106 F040      		sbci r31,hi8(-(p_dout))
 187 0108 89E3      		ldi r24,lo8(57)
 188 010a 90E0      		ldi r25,hi8(57)
 189 010c 9183      		std Z+1,r25
 190 010e 8083      		st Z,r24
 191 0110 9AB3      		in r25,58-0x20
 192 0112 832F      		mov r24,r19
 193 0114 8095      		com r24
 194 0116 8923      		and r24,r25
 195 0118 8ABB      		out 58-0x20,r24
 196 011a 8BB3      		in r24,59-0x20
 197 011c 382B      		or r19,r24
 198 011e 3BBB      		out 59-0x20,r19
 199 0120 00C0      		rjmp .L12
 200               	.LVL11:
 201               	.L10:
 202               	.LM18:
 203 0122 2031      		cpi r18,lo8(16)
 204 0124 01F4      		brne .L13
 205 0126 FE01      		movw r30,r28
 206 0128 EE0F      		lsl r30
 207 012a FF1F      		rol r31
 208               	.LVL12:
 209 012c E050      		subi r30,lo8(-(p_dout))
 210 012e F040      		sbci r31,hi8(-(p_dout))
 211 0130 86E3      		ldi r24,lo8(54)
 212 0132 90E0      		ldi r25,hi8(54)
 213 0134 9183      		std Z+1,r25
 214 0136 8083      		st Z,r24
 215 0138 97B3      		in r25,55-0x20
 216 013a 832F      		mov r24,r19
 217 013c 8095      		com r24
 218 013e 8923      		and r24,r25
 219 0140 87BB      		out 55-0x20,r24
 220 0142 88B3      		in r24,56-0x20
 221 0144 382B      		or r19,r24
 222 0146 38BB      		out 56-0x20,r19
 223 0148 00C0      		rjmp .L12
 224               	.LVL13:
 225               	.L13:
 226               	.LM19:
 227 014a 2032      		cpi r18,lo8(32)
 228 014c 01F4      		brne .L15
GAS LISTING d:\tmp/cctmyUwb.s 			page 5


 229 014e FE01      		movw r30,r28
 230 0150 EE0F      		lsl r30
 231 0152 FF1F      		rol r31
 232 0154 E050      		subi r30,lo8(-(p_dout))
 233 0156 F040      		sbci r31,hi8(-(p_dout))
 234 0158 83E3      		ldi r24,lo8(51)
 235 015a 90E0      		ldi r25,hi8(51)
 236 015c 9183      		std Z+1,r25
 237 015e 8083      		st Z,r24
 238 0160 94B3      		in r25,52-0x20
 239 0162 832F      		mov r24,r19
 240 0164 8095      		com r24
 241 0166 8923      		and r24,r25
 242 0168 84BB      		out 52-0x20,r24
 243 016a 85B3      		in r24,53-0x20
 244 016c 382B      		or r19,r24
 245 016e 35BB      		out 53-0x20,r19
 246 0170 00C0      		rjmp .L12
 247               	.L15:
 248               	.LM20:
 249 0172 2033      		cpi r18,lo8(48)
 250 0174 01F4      		brne .L12
 251 0176 FE01      		movw r30,r28
 252 0178 EE0F      		lsl r30
 253 017a FF1F      		rol r31
 254 017c E050      		subi r30,lo8(-(p_dout))
 255 017e F040      		sbci r31,hi8(-(p_dout))
 256 0180 80E3      		ldi r24,lo8(48)
 257 0182 90E0      		ldi r25,hi8(48)
 258 0184 9183      		std Z+1,r25
 259 0186 8083      		st Z,r24
 260 0188 91B3      		in r25,49-0x20
 261 018a 832F      		mov r24,r19
 262 018c 8095      		com r24
 263 018e 8923      		and r24,r25
 264 0190 81BB      		out 49-0x20,r24
 265 0192 82B3      		in r24,50-0x20
 266 0194 382B      		or r19,r24
 267 0196 32BB      		out 50-0x20,r19
 268               	.L12:
 269               	.LM21:
 270 0198 007F      		andi r16,lo8(-16)
 271               	.LVL14:
 272               	.LM22:
 273 019a 01F4      		brne .L18
 274 019c FE01      		movw r30,r28
 275 019e EE0F      		lsl r30
 276 01a0 FF1F      		rol r31
 277 01a2 E050      		subi r30,lo8(-(p_din))
 278 01a4 F040      		sbci r31,hi8(-(p_din))
 279 01a6 8BE3      		ldi r24,lo8(59)
 280 01a8 90E0      		ldi r25,hi8(59)
 281 01aa 9183      		std Z+1,r25
 282 01ac 8083      		st Z,r24
 283 01ae 8AB3      		in r24,58-0x20
 284 01b0 A82B      		or r26,r24
 285 01b2 AABB      		out 58-0x20,r26
GAS LISTING d:\tmp/cctmyUwb.s 			page 6


 286 01b4 00C0      		rjmp .L20
 287               	.L18:
 288               	.LM23:
 289 01b6 0031      		cpi r16,lo8(16)
 290 01b8 01F4      		brne .L21
 291 01ba FE01      		movw r30,r28
 292 01bc EE0F      		lsl r30
 293 01be FF1F      		rol r31
 294 01c0 E050      		subi r30,lo8(-(p_din))
 295 01c2 F040      		sbci r31,hi8(-(p_din))
 296 01c4 88E3      		ldi r24,lo8(56)
 297 01c6 90E0      		ldi r25,hi8(56)
 298 01c8 9183      		std Z+1,r25
 299 01ca 8083      		st Z,r24
 300 01cc 87B3      		in r24,55-0x20
 301 01ce A82B      		or r26,r24
 302 01d0 A7BB      		out 55-0x20,r26
 303 01d2 00C0      		rjmp .L20
 304               	.L21:
 305               	.LM24:
 306 01d4 0032      		cpi r16,lo8(32)
 307 01d6 01F4      		brne .L23
 308 01d8 FE01      		movw r30,r28
 309 01da EE0F      		lsl r30
 310 01dc FF1F      		rol r31
 311 01de E050      		subi r30,lo8(-(p_din))
 312 01e0 F040      		sbci r31,hi8(-(p_din))
 313 01e2 85E3      		ldi r24,lo8(53)
 314 01e4 90E0      		ldi r25,hi8(53)
 315 01e6 9183      		std Z+1,r25
 316 01e8 8083      		st Z,r24
 317 01ea 84B3      		in r24,52-0x20
 318 01ec A82B      		or r26,r24
 319 01ee A4BB      		out 52-0x20,r26
 320 01f0 00C0      		rjmp .L20
 321               	.L23:
 322               	.LM25:
 323 01f2 0033      		cpi r16,lo8(48)
 324 01f4 01F4      		brne .L20
 325 01f6 FE01      		movw r30,r28
 326 01f8 EE0F      		lsl r30
 327 01fa FF1F      		rol r31
 328               	.LVL15:
 329 01fc E050      		subi r30,lo8(-(p_din))
 330 01fe F040      		sbci r31,hi8(-(p_din))
 331 0200 82E3      		ldi r24,lo8(50)
 332 0202 90E0      		ldi r25,hi8(50)
 333 0204 9183      		std Z+1,r25
 334 0206 8083      		st Z,r24
 335 0208 81B3      		in r24,49-0x20
 336 020a A82B      		or r26,r24
 337 020c A1BB      		out 49-0x20,r26
 338               	.LVL16:
 339               	.L20:
 340               	.LM26:
 341 020e 6F2D      		mov r22,r15
 342 0210 607F      		andi r22,lo8(-16)
GAS LISTING d:\tmp/cctmyUwb.s 			page 7


 343               	.LVL17:
 344               	.LM27:
 345 0212 01F4      		brne .L26
 346 0214 FE01      		movw r30,r28
 347 0216 EE0F      		lsl r30
 348 0218 FF1F      		rol r31
 349               	.LVL18:
 350 021a E050      		subi r30,lo8(-(p_cs))
 351 021c F040      		sbci r31,hi8(-(p_cs))
 352 021e 8BE3      		ldi r24,lo8(59)
 353 0220 90E0      		ldi r25,hi8(59)
 354 0222 9183      		std Z+1,r25
 355 0224 8083      		st Z,r24
 356 0226 8AB3      		in r24,58-0x20
 357 0228 812B      		or r24,r17
 358 022a 8ABB      		out 58-0x20,r24
 359 022c 00C0      		rjmp .L28
 360               	.LVL19:
 361               	.L26:
 362               	.LM28:
 363 022e 6031      		cpi r22,lo8(16)
 364 0230 01F4      		brne .L29
 365 0232 FE01      		movw r30,r28
 366 0234 EE0F      		lsl r30
 367 0236 FF1F      		rol r31
 368               	.LVL20:
 369 0238 E050      		subi r30,lo8(-(p_cs))
 370 023a F040      		sbci r31,hi8(-(p_cs))
 371 023c 88E3      		ldi r24,lo8(56)
 372 023e 90E0      		ldi r25,hi8(56)
 373 0240 9183      		std Z+1,r25
 374 0242 8083      		st Z,r24
 375 0244 87B3      		in r24,55-0x20
 376 0246 812B      		or r24,r17
 377 0248 87BB      		out 55-0x20,r24
 378 024a 00C0      		rjmp .L28
 379               	.LVL21:
 380               	.L29:
 381               	.LM29:
 382 024c 6032      		cpi r22,lo8(32)
 383 024e 01F4      		brne .L31
 384 0250 FE01      		movw r30,r28
 385 0252 EE0F      		lsl r30
 386 0254 FF1F      		rol r31
 387               	.LVL22:
 388 0256 E050      		subi r30,lo8(-(p_cs))
 389 0258 F040      		sbci r31,hi8(-(p_cs))
 390 025a 85E3      		ldi r24,lo8(53)
 391 025c 90E0      		ldi r25,hi8(53)
 392 025e 9183      		std Z+1,r25
 393 0260 8083      		st Z,r24
 394 0262 84B3      		in r24,52-0x20
 395 0264 812B      		or r24,r17
 396 0266 84BB      		out 52-0x20,r24
 397 0268 00C0      		rjmp .L28
 398               	.LVL23:
 399               	.L31:
GAS LISTING d:\tmp/cctmyUwb.s 			page 8


 400               	.LM30:
 401 026a 6033      		cpi r22,lo8(48)
 402 026c 01F4      		brne .L28
 403 026e FE01      		movw r30,r28
 404 0270 EE0F      		lsl r30
 405 0272 FF1F      		rol r31
 406 0274 E050      		subi r30,lo8(-(p_cs))
 407 0276 F040      		sbci r31,hi8(-(p_cs))
 408 0278 82E3      		ldi r24,lo8(50)
 409 027a 90E0      		ldi r25,hi8(50)
 410 027c 9183      		std Z+1,r25
 411 027e 8083      		st Z,r24
 412 0280 81B3      		in r24,49-0x20
 413 0282 812B      		or r24,r17
 414 0284 81BB      		out 49-0x20,r24
 415               	.L28:
 416               	.LM31:
 417 0286 DE01      		movw r26,r28
 418               	.LVL24:
 419 0288 AA0F      		lsl r26
 420 028a BB1F      		rol r27
 421 028c FD01      		movw r30,r26
 422 028e E050      		subi r30,lo8(-(p_cs))
 423 0290 F040      		sbci r31,hi8(-(p_cs))
 424 0292 0190      		ld __tmp_reg__,Z+
 425 0294 F081      		ld r31,Z
 426 0296 E02D      		mov r30,__tmp_reg__
 427 0298 8081      		ld r24,Z
 428 029a 182B      		or r17,r24
 429 029c 1083      		st Z,r17
 430               	.LM32:
 431 029e FD01      		movw r30,r26
 432 02a0 E050      		subi r30,lo8(-(p_clk))
 433 02a2 F040      		sbci r31,hi8(-(p_clk))
 434 02a4 2081      		ld r18,Z
 435 02a6 3181      		ldd r19,Z+1
 436               	.LVL25:
 437 02a8 F901      		movw r30,r18
 438 02aa 9081      		ld r25,Z
 439 02ac FE01      		movw r30,r28
 440 02ae E050      		subi r30,lo8(-(b_clk))
 441 02b0 F040      		sbci r31,hi8(-(b_clk))
 442 02b2 8081      		ld r24,Z
 443 02b4 8095      		com r24
 444 02b6 8923      		and r24,r25
 445 02b8 F901      		movw r30,r18
 446 02ba 8083      		st Z,r24
 447               	.LM33:
 448 02bc A050      		subi r26,lo8(-(p_din))
 449 02be B040      		sbci r27,hi8(-(p_din))
 450 02c0 ED91      		ld r30,X+
 451 02c2 FC91      		ld r31,X
 452 02c4 8081      		ld r24,Z
 453 02c6 C050      		subi r28,lo8(-(b_din))
 454 02c8 D040      		sbci r29,hi8(-(b_din))
 455 02ca 9881      		ld r25,Y
 456 02cc 892B      		or r24,r25
GAS LISTING d:\tmp/cctmyUwb.s 			page 9


 457 02ce 8083      		st Z,r24
 458               	/* epilogue: frame size=0 */
 459 02d0 DF91      		pop r29
 460 02d2 CF91      		pop r28
 461 02d4 1F91      		pop r17
 462 02d6 0F91      		pop r16
 463 02d8 FF90      		pop r15
 464 02da 0895      		ret
 465               	/* epilogue end (size=6) */
 466               	/* function init_mcp3204 size 374 (363) */
 467               	.LFE2:
 468               		.size	init_mcp3204, .-init_mcp3204
 469               	.global	mcp3204_getw
 470               		.type	mcp3204_getw, @function
 471               	mcp3204_getw:
 472               	.LFB3:
 473               	.LM34:
 474               	/* prologue: frame size=0 */
 475 02dc 4F92      		push r4
 476 02de 5F92      		push r5
 477 02e0 6F92      		push r6
 478 02e2 7F92      		push r7
 479 02e4 8F92      		push r8
 480 02e6 9F92      		push r9
 481 02e8 AF92      		push r10
 482 02ea BF92      		push r11
 483 02ec CF92      		push r12
 484 02ee DF92      		push r13
 485 02f0 EF92      		push r14
 486 02f2 FF92      		push r15
 487 02f4 0F93      		push r16
 488 02f6 1F93      		push r17
 489 02f8 CF93      		push r28
 490 02fa DF93      		push r29
 491               	/* prologue end (size=16) */
 492               	.LVL26:
 493 02fc D62E      		mov r13,r22
 494 02fe 142F      		mov r17,r20
 495               	.LM35:
 496 0300 90E0      		ldi r25,lo8(0)
 497 0302 DC01      		movw r26,r24
 498               	.LVL27:
 499 0304 AA0F      		lsl r26
 500 0306 BB1F      		rol r27
 501               	.LVL28:
 502 0308 FD01      		movw r30,r26
 503 030a E050      		subi r30,lo8(-(p_clk))
 504 030c F040      		sbci r31,hi8(-(p_clk))
 505 030e C081      		ld r28,Z
 506 0310 D181      		ldd r29,Z+1
 507               	.LVL29:
 508               	.LM36:
 509 0312 FD01      		movw r30,r26
 510 0314 E050      		subi r30,lo8(-(p_dout))
 511 0316 F040      		sbci r31,hi8(-(p_dout))
 512 0318 6080      		ld r6,Z
 513 031a 7180      		ldd r7,Z+1
GAS LISTING d:\tmp/cctmyUwb.s 			page 10


 514               	.LVL30:
 515               	.LM37:
 516 031c FD01      		movw r30,r26
 517 031e E050      		subi r30,lo8(-(p_din))
 518 0320 F040      		sbci r31,hi8(-(p_din))
 519 0322 E080      		ld r14,Z
 520 0324 F180      		ldd r15,Z+1
 521               	.LVL31:
 522               	.LM38:
 523 0326 A050      		subi r26,lo8(-(p_cs))
 524 0328 B040      		sbci r27,hi8(-(p_cs))
 525 032a 8D90      		ld r8,X+
 526 032c 9C90      		ld r9,X
 527               	.LVL32:
 528               	.LM39:
 529 032e FC01      		movw r30,r24
 530 0330 E050      		subi r30,lo8(-(b_clk))
 531 0332 F040      		sbci r31,hi8(-(b_clk))
 532 0334 A080      		ld r10,Z
 533               	.LVL33:
 534               	.LM40:
 535 0336 FC01      		movw r30,r24
 536 0338 E050      		subi r30,lo8(-(b_dout))
 537 033a F040      		sbci r31,hi8(-(b_dout))
 538 033c 4080      		ld r4,Z
 539               	.LVL34:
 540               	.LM41:
 541 033e FC01      		movw r30,r24
 542 0340 E050      		subi r30,lo8(-(b_din))
 543 0342 F040      		sbci r31,hi8(-(b_din))
 544 0344 0081      		ld r16,Z
 545               	.LVL35:
 546               	.LM42:
 547 0346 8050      		subi r24,lo8(-(b_cs))
 548 0348 9040      		sbci r25,hi8(-(b_cs))
 549 034a FC01      		movw r30,r24
 550 034c 5080      		ld r5,Z
 551               	.LVL36:
 552               	.LM43:
 553 034e F701      		movw r30,r14
 554 0350 8081      		ld r24,Z
 555 0352 802B      		or r24,r16
 556 0354 8083      		st Z,r24
 557               	.LM44:
 558 0356 8881      		ld r24,Y
 559 0358 BA2C      		mov r11,r10
 560 035a B094      		com r11
 561 035c 8B21      		and r24,r11
 562 035e 8883      		st Y,r24
 563               	.LM45:
 564 0360 F401      		movw r30,r8
 565 0362 9081      		ld r25,Z
 566 0364 852D      		mov r24,r5
 567 0366 8095      		com r24
 568 0368 8923      		and r24,r25
 569 036a 8083      		st Z,r24
 570               	.LM46:
GAS LISTING d:\tmp/cctmyUwb.s 			page 11


 571 036c 84E1      		ldi r24,lo8(20)
 572 036e 90E0      		ldi r25,hi8(20)
 573 0370 0E94 0000 		call udelay
 574               	.LVL37:
 575               	.LM47:
 576 0374 8881      		ld r24,Y
 577 0376 8A29      		or r24,r10
 578 0378 8883      		st Y,r24
 579               	.LM48:
 580 037a 84E6      		ldi r24,lo8(100)
 581 037c 90E0      		ldi r25,hi8(100)
 582 037e 0E94 0000 		call udelay
 583               	.LM49:
 584 0382 8881      		ld r24,Y
 585 0384 8B21      		and r24,r11
 586 0386 8883      		st Y,r24
 587               	.LM50:
 588 0388 84E6      		ldi r24,lo8(100)
 589 038a 90E0      		ldi r25,hi8(100)
 590 038c 0E94 0000 		call udelay
 591               	.LM51:
 592 0390 1123      		tst r17
 593 0392 01F0      		breq .L36
 594               	.LM52:
 595 0394 F701      		movw r30,r14
 596 0396 8081      		ld r24,Z
 597 0398 802B      		or r24,r16
 598 039a 00C0      		rjmp .L55
 599               	.L36:
 600               	.LM53:
 601 039c F701      		movw r30,r14
 602 039e 9081      		ld r25,Z
 603 03a0 802F      		mov r24,r16
 604 03a2 8095      		com r24
 605 03a4 8923      		and r24,r25
 606               	.L55:
 607 03a6 8083      		st Z,r24
 608               	.LM54:
 609 03a8 8881      		ld r24,Y
 610 03aa 8A29      		or r24,r10
 611 03ac 8883      		st Y,r24
 612               	.LM55:
 613 03ae 84E6      		ldi r24,lo8(100)
 614 03b0 90E0      		ldi r25,hi8(100)
 615 03b2 0E94 0000 		call udelay
 616               	.LM56:
 617 03b6 8881      		ld r24,Y
 618 03b8 8B21      		and r24,r11
 619 03ba 8883      		st Y,r24
 620               	.LM57:
 621 03bc 84E6      		ldi r24,lo8(100)
 622 03be 90E0      		ldi r25,hi8(100)
 623 03c0 0E94 0000 		call udelay
 624               	.LM58:
 625 03c4 CD2C      		mov r12,r13
 626 03c6 D2FE      		sbrs r13,2
 627 03c8 00C0      		rjmp .L39
GAS LISTING d:\tmp/cctmyUwb.s 			page 12


 628               	.LVL38:
 629 03ca F701      		movw r30,r14
 630 03cc 8081      		ld r24,Z
 631 03ce 802B      		or r24,r16
 632 03d0 00C0      		rjmp .L56
 633               	.L39:
 634               	.LM59:
 635 03d2 F701      		movw r30,r14
 636 03d4 9081      		ld r25,Z
 637 03d6 802F      		mov r24,r16
 638 03d8 8095      		com r24
 639 03da 8923      		and r24,r25
 640               	.L56:
 641 03dc 8083      		st Z,r24
 642               	.LM60:
 643 03de 8881      		ld r24,Y
 644 03e0 8A29      		or r24,r10
 645 03e2 8883      		st Y,r24
 646               	.LM61:
 647 03e4 84E6      		ldi r24,lo8(100)
 648 03e6 90E0      		ldi r25,hi8(100)
 649 03e8 0E94 0000 		call udelay
 650               	.LM62:
 651 03ec 8881      		ld r24,Y
 652 03ee 8B21      		and r24,r11
 653 03f0 8883      		st Y,r24
 654               	.LM63:
 655 03f2 84E6      		ldi r24,lo8(100)
 656 03f4 90E0      		ldi r25,hi8(100)
 657 03f6 0E94 0000 		call udelay
 658               	.LM64:
 659 03fa C1FE      		sbrs r12,1
 660 03fc 00C0      		rjmp .L42
 661 03fe F701      		movw r30,r14
 662 0400 8081      		ld r24,Z
 663 0402 802B      		or r24,r16
 664 0404 00C0      		rjmp .L57
 665               	.L42:
 666               	.LM65:
 667 0406 F701      		movw r30,r14
 668 0408 9081      		ld r25,Z
 669 040a 802F      		mov r24,r16
 670 040c 8095      		com r24
 671 040e 8923      		and r24,r25
 672               	.L57:
 673 0410 8083      		st Z,r24
 674               	.LM66:
 675 0412 8881      		ld r24,Y
 676 0414 8A29      		or r24,r10
 677 0416 8883      		st Y,r24
 678               	.LM67:
 679 0418 84E6      		ldi r24,lo8(100)
 680 041a 90E0      		ldi r25,hi8(100)
 681 041c 0E94 0000 		call udelay
 682               	.LM68:
 683 0420 8881      		ld r24,Y
 684 0422 8B21      		and r24,r11
GAS LISTING d:\tmp/cctmyUwb.s 			page 13


 685 0424 8883      		st Y,r24
 686               	.LM69:
 687 0426 84E6      		ldi r24,lo8(100)
 688 0428 90E0      		ldi r25,hi8(100)
 689 042a 0E94 0000 		call udelay
 690               	.LM70:
 691 042e C0FE      		sbrs r12,0
 692 0430 00C0      		rjmp .L45
 693 0432 F701      		movw r30,r14
 694 0434 8081      		ld r24,Z
 695 0436 802B      		or r24,r16
 696 0438 8083      		st Z,r24
 697 043a 00C0      		rjmp .L47
 698               	.L45:
 699               	.LM71:
 700 043c F701      		movw r30,r14
 701 043e 8081      		ld r24,Z
 702 0440 0095      		com r16
 703 0442 0823      		and r16,r24
 704 0444 0083      		st Z,r16
 705               	.L47:
 706               	.LM72:
 707 0446 8881      		ld r24,Y
 708 0448 8A29      		or r24,r10
 709 044a 8883      		st Y,r24
 710               	.LM73:
 711 044c 84E6      		ldi r24,lo8(100)
 712 044e 90E0      		ldi r25,hi8(100)
 713 0450 0E94 0000 		call udelay
 714               	.LM74:
 715 0454 8881      		ld r24,Y
 716 0456 8B21      		and r24,r11
 717 0458 8883      		st Y,r24
 718               	.LM75:
 719 045a 84E6      		ldi r24,lo8(100)
 720 045c 90E0      		ldi r25,hi8(100)
 721 045e 0E94 0000 		call udelay
 722               	.LM76:
 723 0462 8881      		ld r24,Y
 724 0464 8A29      		or r24,r10
 725 0466 8883      		st Y,r24
 726               	.LM77:
 727 0468 84E6      		ldi r24,lo8(100)
 728 046a 90E0      		ldi r25,hi8(100)
 729 046c 0E94 0000 		call udelay
 730               	.LM78:
 731 0470 8881      		ld r24,Y
 732 0472 8B21      		and r24,r11
 733 0474 8883      		st Y,r24
 734               	.LM79:
 735 0476 84E6      		ldi r24,lo8(100)
 736 0478 90E0      		ldi r25,hi8(100)
 737 047a 0E94 0000 		call udelay
 738 047e FF24      		clr r15
 739               	.LVL39:
 740 0480 00E0      		ldi r16,lo8(0)
 741 0482 10E0      		ldi r17,hi8(0)
GAS LISTING d:\tmp/cctmyUwb.s 			page 14


 742               	.LVL40:
 743               	.L48:
 744               	.LM80:
 745 0484 8881      		ld r24,Y
 746 0486 8A29      		or r24,r10
 747 0488 8883      		st Y,r24
 748               	.LM81:
 749 048a 84E6      		ldi r24,lo8(100)
 750 048c 90E0      		ldi r25,hi8(100)
 751 048e 0E94 0000 		call udelay
 752               	.LM82:
 753 0492 8881      		ld r24,Y
 754 0494 8B21      		and r24,r11
 755 0496 8883      		st Y,r24
 756               	.LM83:
 757 0498 84E6      		ldi r24,lo8(100)
 758 049a 90E0      		ldi r25,hi8(100)
 759 049c 0E94 0000 		call udelay
 760               	.LM84:
 761 04a0 000F      		lsl r16
 762 04a2 111F      		rol r17
 763               	.LM85:
 764 04a4 F301      		movw r30,r6
 765 04a6 8081      		ld r24,Z
 766 04a8 8421      		and r24,r4
 767 04aa 01F0      		breq .L49
 768 04ac 0F5F      		subi r16,lo8(-(1))
 769 04ae 1F4F      		sbci r17,hi8(-(1))
 770               	.L49:
 771               	.LM86:
 772 04b0 F394      		inc r15
 773 04b2 FDE0      		ldi r31,lo8(13)
 774 04b4 FF16      		cp r15,r31
 775 04b6 01F4      		brne .L48
 776               	.LM87:
 777 04b8 F401      		movw r30,r8
 778 04ba 8081      		ld r24,Z
 779 04bc 8529      		or r24,r5
 780 04be 8083      		st Z,r24
 781               	.LM88:
 782 04c0 84E6      		ldi r24,lo8(100)
 783 04c2 90E0      		ldi r25,hi8(100)
 784 04c4 0E94 0000 		call udelay
 785 04c8 1695      		lsr r17
 786 04ca 0795      		ror r16
 787               	.LM89:
 788 04cc C801      		movw r24,r16
 789 04ce 9F70      		andi r25,hi8(4095)
 790               	/* epilogue: frame size=0 */
 791 04d0 DF91      		pop r29
 792 04d2 CF91      		pop r28
 793 04d4 1F91      		pop r17
 794 04d6 0F91      		pop r16
 795 04d8 FF90      		pop r15
 796 04da EF90      		pop r14
 797 04dc DF90      		pop r13
 798 04de CF90      		pop r12
GAS LISTING d:\tmp/cctmyUwb.s 			page 15


 799 04e0 BF90      		pop r11
 800 04e2 AF90      		pop r10
 801 04e4 9F90      		pop r9
 802 04e6 8F90      		pop r8
 803 04e8 7F90      		pop r7
 804 04ea 6F90      		pop r6
 805 04ec 5F90      		pop r5
 806 04ee 4F90      		pop r4
 807 04f0 0895      		ret
 808               	/* epilogue end (size=17) */
 809               	/* function mcp3204_getw size 269 (236) */
 810               	.LFE3:
 811               		.size	mcp3204_getw, .-mcp3204_getw
 812               		.comm p_cs,8,1
 813               		.comm p_dout,8,1
 814               		.comm p_din,8,1
 815               		.comm p_clk,8,1
 816               		.comm b_cs,4,1
 817               		.comm b_dout,4,1
 818               		.comm b_din,4,1
 819               		.comm b_clk,4,1
 820               		.section	.debug_frame,"",@progbits
 821               	.Lframe0:
 822 0000 0C00 0000 		.long	.LECIE0-.LSCIE0
 823               	.LSCIE0:
 824 0004 FFFF FFFF 		.long	0xffffffff
 825 0008 01        		.byte	0x1
 826 0009 00        		.string	""
 827 000a 01        		.uleb128 0x1
 828 000b 7F        		.sleb128 -1
 829 000c 24        		.byte	0x24
 830 000d 0C        		.byte	0xc
 831 000e 20        		.uleb128 0x20
 832 000f 00        		.uleb128 0x0
 833               		.p2align	2
 834               	.LECIE0:
 835               	.LSFDE0:
 836 0010 0C00 0000 		.long	.LEFDE0-.LASFDE0
 837               	.LASFDE0:
 838 0014 0000 0000 		.long	.Lframe0
 839 0018 0000 0000 		.long	.LFB2
 840 001c DC02 0000 		.long	.LFE2-.LFB2
 841               		.p2align	2
 842               	.LEFDE0:
 843               	.LSFDE2:
 844 0020 0C00 0000 		.long	.LEFDE2-.LASFDE2
 845               	.LASFDE2:
 846 0024 0000 0000 		.long	.Lframe0
 847 0028 0000 0000 		.long	.LFB3
 848 002c 1602 0000 		.long	.LFE3-.LFB3
 849               		.p2align	2
 850               	.LEFDE2:
 851               		.text
 852               	.Letext0:
 853               		.section	.debug_loc,"",@progbits
 854               	.Ldebug_loc0:
 855               	.LLST1:
GAS LISTING d:\tmp/cctmyUwb.s 			page 16


 856 0000 0A00 0000 		.long	.LVL0-.Ltext0
 857 0004 3400 0000 		.long	.LVL4-.Ltext0
 858 0008 0100      		.word	0x1
 859 000a 68        		.byte	0x68
 860 000b 0000 0000 		.long	0x0
 861 000f 0000 0000 		.long	0x0
 862               	.LLST2:
 863 0013 0A00 0000 		.long	.LVL0-.Ltext0
 864 0017 1600 0000 		.long	.LVL2-.Ltext0
 865 001b 0100      		.word	0x1
 866 001d 66        		.byte	0x66
 867 001e 1600 0000 		.long	.LVL2-.Ltext0
 868 0022 1202 0000 		.long	.LVL17-.Ltext0
 869 0026 0100      		.word	0x1
 870 0028 5F        		.byte	0x5f
 871 0029 1202 0000 		.long	.LVL17-.Ltext0
 872 002d DC02 0000 		.long	.LFE2-.Ltext0
 873 0031 0100      		.word	0x1
 874 0033 66        		.byte	0x66
 875 0034 0000 0000 		.long	0x0
 876 0038 0000 0000 		.long	0x0
 877               	.LLST3:
 878 003c 0A00 0000 		.long	.LVL0-.Ltext0
 879 0040 0401 0000 		.long	.LVL10-.Ltext0
 880 0044 0100      		.word	0x1
 881 0046 64        		.byte	0x64
 882 0047 2201 0000 		.long	.LVL11-.Ltext0
 883 004b 1A02 0000 		.long	.LVL18-.Ltext0
 884 004f 0100      		.word	0x1
 885 0051 64        		.byte	0x64
 886 0052 2E02 0000 		.long	.LVL19-.Ltext0
 887 0056 DC02 0000 		.long	.LFE2-.Ltext0
 888 005a 0100      		.word	0x1
 889 005c 64        		.byte	0x64
 890 005d 0000 0000 		.long	0x0
 891 0061 0000 0000 		.long	0x0
 892               	.LLST4:
 893 0065 0A00 0000 		.long	.LVL0-.Ltext0
 894 0069 1000 0000 		.long	.LVL1-.Ltext0
 895 006d 0100      		.word	0x1
 896 006f 62        		.byte	0x62
 897 0070 1000 0000 		.long	.LVL1-.Ltext0
 898 0074 FC00 0000 		.long	.LVL9-.Ltext0
 899 0078 0100      		.word	0x1
 900 007a 6B        		.byte	0x6b
 901 007b FC00 0000 		.long	.LVL9-.Ltext0
 902 007f 2C01 0000 		.long	.LVL12-.Ltext0
 903 0083 0100      		.word	0x1
 904 0085 62        		.byte	0x62
 905 0086 4A01 0000 		.long	.LVL13-.Ltext0
 906 008a 5602 0000 		.long	.LVL22-.Ltext0
 907 008e 0100      		.word	0x1
 908 0090 62        		.byte	0x62
 909 0091 6A02 0000 		.long	.LVL23-.Ltext0
 910 0095 A802 0000 		.long	.LVL25-.Ltext0
 911 0099 0100      		.word	0x1
 912 009b 62        		.byte	0x62
GAS LISTING d:\tmp/cctmyUwb.s 			page 17


 913 009c 0000 0000 		.long	0x0
 914 00a0 0000 0000 		.long	0x0
 915               	.LLST5:
 916 00a4 2600 0000 		.long	.LVL3-.Ltext0
 917 00a8 FC01 0000 		.long	.LVL15-.Ltext0
 918 00ac 0100      		.word	0x1
 919 00ae 65        		.byte	0x65
 920 00af 0E02 0000 		.long	.LVL16-.Ltext0
 921 00b3 DC02 0000 		.long	.LFE2-.Ltext0
 922 00b7 0100      		.word	0x1
 923 00b9 65        		.byte	0x65
 924 00ba 0000 0000 		.long	0x0
 925 00be 0000 0000 		.long	0x0
 926               	.LLST6:
 927 00c2 4600 0000 		.long	.LVL5-.Ltext0
 928 00c6 3802 0000 		.long	.LVL20-.Ltext0
 929 00ca 0100      		.word	0x1
 930 00cc 63        		.byte	0x63
 931 00cd 4C02 0000 		.long	.LVL21-.Ltext0
 932 00d1 DC02 0000 		.long	.LFE2-.Ltext0
 933 00d5 0100      		.word	0x1
 934 00d7 63        		.byte	0x63
 935 00d8 0000 0000 		.long	0x0
 936 00dc 0000 0000 		.long	0x0
 937               	.LLST7:
 938 00e0 7A00 0000 		.long	.LVL7-.Ltext0
 939 00e4 8802 0000 		.long	.LVL24-.Ltext0
 940 00e8 0100      		.word	0x1
 941 00ea 6A        		.byte	0x6a
 942 00eb 0000 0000 		.long	0x0
 943 00ef 0000 0000 		.long	0x0
 944               	.LLST9:
 945 00f3 FC02 0000 		.long	.LVL26-.Ltext0
 946 00f7 0403 0000 		.long	.LVL27-.Ltext0
 947 00fb 0100      		.word	0x1
 948 00fd 68        		.byte	0x68
 949 00fe 0000 0000 		.long	0x0
 950 0102 0000 0000 		.long	0x0
 951               	.LLST10:
 952 0106 FC02 0000 		.long	.LVL26-.Ltext0
 953 010a 7403 0000 		.long	.LVL37-.Ltext0
 954 010e 0100      		.word	0x1
 955 0110 66        		.byte	0x66
 956 0111 7403 0000 		.long	.LVL37-.Ltext0
 957 0115 CA03 0000 		.long	.LVL38-.Ltext0
 958 0119 0100      		.word	0x1
 959 011b 5D        		.byte	0x5d
 960 011c 0000 0000 		.long	0x0
 961 0120 0000 0000 		.long	0x0
 962               	.LLST11:
 963 0124 FC02 0000 		.long	.LVL26-.Ltext0
 964 0128 0803 0000 		.long	.LVL28-.Ltext0
 965 012c 0100      		.word	0x1
 966 012e 64        		.byte	0x64
 967 012f 0803 0000 		.long	.LVL28-.Ltext0
 968 0133 F204 0000 		.long	.LFE3-.Ltext0
 969 0137 0100      		.word	0x1
GAS LISTING d:\tmp/cctmyUwb.s 			page 18


 970 0139 61        		.byte	0x61
 971 013a 0000 0000 		.long	0x0
 972 013e 0000 0000 		.long	0x0
 973               	.LLST12:
 974 0142 4603 0000 		.long	.LVL35-.Ltext0
 975 0146 8404 0000 		.long	.LVL40-.Ltext0
 976 014a 0100      		.word	0x1
 977 014c 60        		.byte	0x60
 978 014d 0000 0000 		.long	0x0
 979 0151 0000 0000 		.long	0x0
 980               		.section	.debug_info
 981 0000 A602 0000 		.long	0x2a6
 982 0004 0200      		.word	0x2
 983 0006 0000 0000 		.long	.Ldebug_abbrev0
 984 000a 04        		.byte	0x4
 985 000b 01        		.uleb128 0x1
 986 000c 0000 0000 		.long	.LASF25
 987 0010 01        		.byte	0x1
 988 0011 0000 0000 		.long	.LASF26
 989 0015 0000 0000 		.long	.LASF27
 990 0019 0000 0000 		.long	.Ltext0
 991 001d 0000 0000 		.long	.Letext0
 992 0021 0000 0000 		.long	.Ldebug_line0
 993 0025 02        		.uleb128 0x2
 994 0026 01        		.byte	0x1
 995 0027 06        		.byte	0x6
 996 0028 0000 0000 		.long	.LASF0
 997 002c 03        		.uleb128 0x3
 998 002d 0000 0000 		.long	.LASF28
 999 0031 02        		.byte	0x2
 1000 0032 7A        		.byte	0x7a
 1001 0033 3700 0000 		.long	0x37
 1002 0037 02        		.uleb128 0x2
 1003 0038 01        		.byte	0x1
 1004 0039 08        		.byte	0x8
 1005 003a 0000 0000 		.long	.LASF1
 1006 003e 04        		.uleb128 0x4
 1007 003f 02        		.byte	0x2
 1008 0040 05        		.byte	0x5
 1009 0041 696E 7400 		.string	"int"
 1010 0045 02        		.uleb128 0x2
 1011 0046 02        		.byte	0x2
 1012 0047 07        		.byte	0x7
 1013 0048 0000 0000 		.long	.LASF2
 1014 004c 02        		.uleb128 0x2
 1015 004d 04        		.byte	0x4
 1016 004e 05        		.byte	0x5
 1017 004f 0000 0000 		.long	.LASF3
 1018 0053 02        		.uleb128 0x2
 1019 0054 04        		.byte	0x4
 1020 0055 07        		.byte	0x7
 1021 0056 0000 0000 		.long	.LASF4
 1022 005a 02        		.uleb128 0x2
 1023 005b 08        		.byte	0x8
 1024 005c 05        		.byte	0x5
 1025 005d 0000 0000 		.long	.LASF5
 1026 0061 02        		.uleb128 0x2
GAS LISTING d:\tmp/cctmyUwb.s 			page 19


 1027 0062 08        		.byte	0x8
 1028 0063 07        		.byte	0x7
 1029 0064 0000 0000 		.long	.LASF6
 1030 0068 05        		.uleb128 0x5
 1031 0069 01        		.byte	0x1
 1032 006a 08        		.byte	0x8
 1033 006b 06        		.uleb128 0x6
 1034 006c 01        		.byte	0x1
 1035 006d 0000 0000 		.long	.LASF29
 1036 0071 01        		.byte	0x1
 1037 0072 28        		.byte	0x28
 1038 0073 01        		.byte	0x1
 1039 0074 0000 0000 		.long	.LFB2
 1040 0078 0000 0000 		.long	.LFE2
 1041 007c 02        		.byte	0x2
 1042 007d 90        		.byte	0x90
 1043 007e 20        		.uleb128 0x20
 1044 007f 0601 0000 		.long	0x106
 1045 0083 07        		.uleb128 0x7
 1046 0084 0000 0000 		.long	.LASF7
 1047 0088 01        		.byte	0x1
 1048 0089 26        		.byte	0x26
 1049 008a 2C00 0000 		.long	0x2c
 1050 008e 0000 0000 		.long	.LLST1
 1051 0092 08        		.uleb128 0x8
 1052 0093 6373 00   		.string	"cs"
 1053 0096 01        		.byte	0x1
 1054 0097 26        		.byte	0x26
 1055 0098 2C00 0000 		.long	0x2c
 1056 009c 0000 0000 		.long	.LLST2
 1057 00a0 08        		.uleb128 0x8
 1058 00a1 636C 6B00 		.string	"clk"
 1059 00a5 01        		.byte	0x1
 1060 00a6 26        		.byte	0x26
 1061 00a7 2C00 0000 		.long	0x2c
 1062 00ab 0000 0000 		.long	.LLST3
 1063 00af 07        		.uleb128 0x7
 1064 00b0 0000 0000 		.long	.LASF8
 1065 00b4 01        		.byte	0x1
 1066 00b5 26        		.byte	0x26
 1067 00b6 2C00 0000 		.long	0x2c
 1068 00ba 0000 0000 		.long	.LLST4
 1069 00be 09        		.uleb128 0x9
 1070 00bf 6469 6E00 		.string	"din"
 1071 00c3 01        		.byte	0x1
 1072 00c4 26        		.byte	0x26
 1073 00c5 2C00 0000 		.long	0x2c
 1074 00c9 01        		.byte	0x1
 1075 00ca 60        		.byte	0x60
 1076 00cb 0A        		.uleb128 0xa
 1077 00cc 0000 0000 		.long	.LASF9
 1078 00d0 01        		.byte	0x1
 1079 00d1 29        		.byte	0x29
 1080 00d2 2C00 0000 		.long	0x2c
 1081 00d6 0000 0000 		.long	.LLST5
 1082 00da 0B        		.uleb128 0xb
 1083 00db 6263 7300 		.string	"bcs"
GAS LISTING d:\tmp/cctmyUwb.s 			page 20


 1084 00df 01        		.byte	0x1
 1085 00e0 29        		.byte	0x29
 1086 00e1 2C00 0000 		.long	0x2c
 1087 00e5 01        		.byte	0x1
 1088 00e6 61        		.byte	0x61
 1089 00e7 0A        		.uleb128 0xa
 1090 00e8 0000 0000 		.long	.LASF10
 1091 00ec 01        		.byte	0x1
 1092 00ed 29        		.byte	0x29
 1093 00ee 2C00 0000 		.long	0x2c
 1094 00f2 0000 0000 		.long	.LLST6
 1095 00f6 0A        		.uleb128 0xa
 1096 00f7 0000 0000 		.long	.LASF11
 1097 00fb 01        		.byte	0x1
 1098 00fc 29        		.byte	0x29
 1099 00fd 2C00 0000 		.long	0x2c
 1100 0101 0000 0000 		.long	.LLST7
 1101 0105 00        		.byte	0x0
 1102 0106 0C        		.uleb128 0xc
 1103 0107 01        		.byte	0x1
 1104 0108 0000 0000 		.long	.LASF30
 1105 010c 01        		.byte	0x1
 1106 010d 57        		.byte	0x57
 1107 010e 01        		.byte	0x1
 1108 010f 4500 0000 		.long	0x45
 1109 0113 0000 0000 		.long	.LFB3
 1110 0117 0000 0000 		.long	.LFE3
 1111 011b 02        		.byte	0x2
 1112 011c 90        		.byte	0x90
 1113 011d 20        		.uleb128 0x20
 1114 011e EB01 0000 		.long	0x1eb
 1115 0122 07        		.uleb128 0x7
 1116 0123 0000 0000 		.long	.LASF7
 1117 0127 01        		.byte	0x1
 1118 0128 54        		.byte	0x54
 1119 0129 2C00 0000 		.long	0x2c
 1120 012d 0000 0000 		.long	.LLST9
 1121 0131 08        		.uleb128 0x8
 1122 0132 6164 6300 		.string	"adc"
 1123 0136 01        		.byte	0x1
 1124 0137 54        		.byte	0x54
 1125 0138 2C00 0000 		.long	0x2c
 1126 013c 0000 0000 		.long	.LLST10
 1127 0140 07        		.uleb128 0x7
 1128 0141 0000 0000 		.long	.LASF12
 1129 0145 01        		.byte	0x1
 1130 0146 54        		.byte	0x54
 1131 0147 2C00 0000 		.long	0x2c
 1132 014b 0000 0000 		.long	.LLST11
 1133 014f 0D        		.uleb128 0xd
 1134 0150 0000 0000 		.long	.LASF13
 1135 0154 01        		.byte	0x1
 1136 0155 58        		.byte	0x58
 1137 0156 EB01 0000 		.long	0x1eb
 1138 015a 06        		.byte	0x6
 1139 015b 6C        		.byte	0x6c
 1140 015c 93        		.byte	0x93
GAS LISTING d:\tmp/cctmyUwb.s 			page 21


 1141 015d 01        		.uleb128 0x1
 1142 015e 6D        		.byte	0x6d
 1143 015f 93        		.byte	0x93
 1144 0160 01        		.uleb128 0x1
 1145 0161 0B        		.uleb128 0xb
 1146 0162 7063 7300 		.string	"pcs"
 1147 0166 01        		.byte	0x1
 1148 0167 58        		.byte	0x58
 1149 0168 EB01 0000 		.long	0x1eb
 1150 016c 06        		.byte	0x6
 1151 016d 58        		.byte	0x58
 1152 016e 93        		.byte	0x93
 1153 016f 01        		.uleb128 0x1
 1154 0170 59        		.byte	0x59
 1155 0171 93        		.byte	0x93
 1156 0172 01        		.uleb128 0x1
 1157 0173 0D        		.uleb128 0xd
 1158 0174 0000 0000 		.long	.LASF14
 1159 0178 01        		.byte	0x1
 1160 0179 58        		.byte	0x58
 1161 017a EB01 0000 		.long	0x1eb
 1162 017e 06        		.byte	0x6
 1163 017f 56        		.byte	0x56
 1164 0180 93        		.byte	0x93
 1165 0181 01        		.uleb128 0x1
 1166 0182 57        		.byte	0x57
 1167 0183 93        		.byte	0x93
 1168 0184 01        		.uleb128 0x1
 1169 0185 0D        		.uleb128 0xd
 1170 0186 0000 0000 		.long	.LASF15
 1171 018a 01        		.byte	0x1
 1172 018b 58        		.byte	0x58
 1173 018c EB01 0000 		.long	0x1eb
 1174 0190 06        		.byte	0x6
 1175 0191 5E        		.byte	0x5e
 1176 0192 93        		.byte	0x93
 1177 0193 01        		.uleb128 0x1
 1178 0194 5F        		.byte	0x5f
 1179 0195 93        		.byte	0x93
 1180 0196 01        		.uleb128 0x1
 1181 0197 0D        		.uleb128 0xd
 1182 0198 0000 0000 		.long	.LASF9
 1183 019c 01        		.byte	0x1
 1184 019d 59        		.byte	0x59
 1185 019e 2C00 0000 		.long	0x2c
 1186 01a2 01        		.byte	0x1
 1187 01a3 5A        		.byte	0x5a
 1188 01a4 0B        		.uleb128 0xb
 1189 01a5 6263 7300 		.string	"bcs"
 1190 01a9 01        		.byte	0x1
 1191 01aa 59        		.byte	0x59
 1192 01ab 2C00 0000 		.long	0x2c
 1193 01af 01        		.byte	0x1
 1194 01b0 55        		.byte	0x55
 1195 01b1 0D        		.uleb128 0xd
 1196 01b2 0000 0000 		.long	.LASF10
 1197 01b6 01        		.byte	0x1
GAS LISTING d:\tmp/cctmyUwb.s 			page 22


 1198 01b7 59        		.byte	0x59
 1199 01b8 2C00 0000 		.long	0x2c
 1200 01bc 01        		.byte	0x1
 1201 01bd 54        		.byte	0x54
 1202 01be 0A        		.uleb128 0xa
 1203 01bf 0000 0000 		.long	.LASF11
 1204 01c3 01        		.byte	0x1
 1205 01c4 59        		.byte	0x59
 1206 01c5 2C00 0000 		.long	0x2c
 1207 01c9 0000 0000 		.long	.LLST12
 1208 01cd 0B        		.uleb128 0xb
 1209 01ce 6900      		.string	"i"
 1210 01d0 01        		.byte	0x1
 1211 01d1 5A        		.byte	0x5a
 1212 01d2 2C00 0000 		.long	0x2c
 1213 01d6 01        		.byte	0x1
 1214 01d7 5F        		.byte	0x5f
 1215 01d8 0D        		.uleb128 0xd
 1216 01d9 0000 0000 		.long	.LASF16
 1217 01dd 01        		.byte	0x1
 1218 01de 5B        		.byte	0x5b
 1219 01df 4500 0000 		.long	0x45
 1220 01e3 06        		.byte	0x6
 1221 01e4 60        		.byte	0x60
 1222 01e5 93        		.byte	0x93
 1223 01e6 01        		.uleb128 0x1
 1224 01e7 61        		.byte	0x61
 1225 01e8 93        		.byte	0x93
 1226 01e9 01        		.uleb128 0x1
 1227 01ea 00        		.byte	0x0
 1228 01eb 0E        		.uleb128 0xe
 1229 01ec 02        		.byte	0x2
 1230 01ed F101 0000 		.long	0x1f1
 1231 01f1 0F        		.uleb128 0xf
 1232 01f2 2C00 0000 		.long	0x2c
 1233 01f6 10        		.uleb128 0x10
 1234 01f7 EB01 0000 		.long	0x1eb
 1235 01fb 0602 0000 		.long	0x206
 1236 01ff 11        		.uleb128 0x11
 1237 0200 0602 0000 		.long	0x206
 1238 0204 03        		.byte	0x3
 1239 0205 00        		.byte	0x0
 1240 0206 05        		.uleb128 0x5
 1241 0207 02        		.byte	0x2
 1242 0208 07        		.byte	0x7
 1243 0209 12        		.uleb128 0x12
 1244 020a 0000 0000 		.long	.LASF17
 1245 020e 01        		.byte	0x1
 1246 020f 14        		.byte	0x14
 1247 0210 F601 0000 		.long	0x1f6
 1248 0214 01        		.byte	0x1
 1249 0215 05        		.byte	0x5
 1250 0216 03        		.byte	0x3
 1251 0217 0000 0000 		.long	p_cs
 1252 021b 12        		.uleb128 0x12
 1253 021c 0000 0000 		.long	.LASF18
 1254 0220 01        		.byte	0x1
GAS LISTING d:\tmp/cctmyUwb.s 			page 23


 1255 0221 15        		.byte	0x15
 1256 0222 F601 0000 		.long	0x1f6
 1257 0226 01        		.byte	0x1
 1258 0227 05        		.byte	0x5
 1259 0228 03        		.byte	0x3
 1260 0229 0000 0000 		.long	p_dout
 1261 022d 12        		.uleb128 0x12
 1262 022e 0000 0000 		.long	.LASF19
 1263 0232 01        		.byte	0x1
 1264 0233 16        		.byte	0x16
 1265 0234 F601 0000 		.long	0x1f6
 1266 0238 01        		.byte	0x1
 1267 0239 05        		.byte	0x5
 1268 023a 03        		.byte	0x3
 1269 023b 0000 0000 		.long	p_din
 1270 023f 12        		.uleb128 0x12
 1271 0240 0000 0000 		.long	.LASF20
 1272 0244 01        		.byte	0x1
 1273 0245 17        		.byte	0x17
 1274 0246 F601 0000 		.long	0x1f6
 1275 024a 01        		.byte	0x1
 1276 024b 05        		.byte	0x5
 1277 024c 03        		.byte	0x3
 1278 024d 0000 0000 		.long	p_clk
 1279 0251 10        		.uleb128 0x10
 1280 0252 2C00 0000 		.long	0x2c
 1281 0256 6102 0000 		.long	0x261
 1282 025a 11        		.uleb128 0x11
 1283 025b 0602 0000 		.long	0x206
 1284 025f 03        		.byte	0x3
 1285 0260 00        		.byte	0x0
 1286 0261 12        		.uleb128 0x12
 1287 0262 0000 0000 		.long	.LASF21
 1288 0266 01        		.byte	0x1
 1289 0267 19        		.byte	0x19
 1290 0268 5102 0000 		.long	0x251
 1291 026c 01        		.byte	0x1
 1292 026d 05        		.byte	0x5
 1293 026e 03        		.byte	0x3
 1294 026f 0000 0000 		.long	b_cs
 1295 0273 12        		.uleb128 0x12
 1296 0274 0000 0000 		.long	.LASF22
 1297 0278 01        		.byte	0x1
 1298 0279 1A        		.byte	0x1a
 1299 027a 5102 0000 		.long	0x251
 1300 027e 01        		.byte	0x1
 1301 027f 05        		.byte	0x5
 1302 0280 03        		.byte	0x3
 1303 0281 0000 0000 		.long	b_dout
 1304 0285 12        		.uleb128 0x12
 1305 0286 0000 0000 		.long	.LASF23
 1306 028a 01        		.byte	0x1
 1307 028b 1B        		.byte	0x1b
 1308 028c 5102 0000 		.long	0x251
 1309 0290 01        		.byte	0x1
 1310 0291 05        		.byte	0x5
 1311 0292 03        		.byte	0x3
GAS LISTING d:\tmp/cctmyUwb.s 			page 24


 1312 0293 0000 0000 		.long	b_din
 1313 0297 12        		.uleb128 0x12
 1314 0298 0000 0000 		.long	.LASF24
 1315 029c 01        		.byte	0x1
 1316 029d 1C        		.byte	0x1c
 1317 029e 5102 0000 		.long	0x251
 1318 02a2 01        		.byte	0x1
 1319 02a3 05        		.byte	0x5
 1320 02a4 03        		.byte	0x3
 1321 02a5 0000 0000 		.long	b_clk
 1322 02a9 00        		.byte	0x0
 1323               		.section	.debug_abbrev
 1324 0000 01        		.uleb128 0x1
 1325 0001 11        		.uleb128 0x11
 1326 0002 01        		.byte	0x1
 1327 0003 25        		.uleb128 0x25
 1328 0004 0E        		.uleb128 0xe
 1329 0005 13        		.uleb128 0x13
 1330 0006 0B        		.uleb128 0xb
 1331 0007 03        		.uleb128 0x3
 1332 0008 0E        		.uleb128 0xe
 1333 0009 1B        		.uleb128 0x1b
 1334 000a 0E        		.uleb128 0xe
 1335 000b 11        		.uleb128 0x11
 1336 000c 01        		.uleb128 0x1
 1337 000d 12        		.uleb128 0x12
 1338 000e 01        		.uleb128 0x1
 1339 000f 10        		.uleb128 0x10
 1340 0010 06        		.uleb128 0x6
 1341 0011 00        		.byte	0x0
 1342 0012 00        		.byte	0x0
 1343 0013 02        		.uleb128 0x2
 1344 0014 24        		.uleb128 0x24
 1345 0015 00        		.byte	0x0
 1346 0016 0B        		.uleb128 0xb
 1347 0017 0B        		.uleb128 0xb
 1348 0018 3E        		.uleb128 0x3e
 1349 0019 0B        		.uleb128 0xb
 1350 001a 03        		.uleb128 0x3
 1351 001b 0E        		.uleb128 0xe
 1352 001c 00        		.byte	0x0
 1353 001d 00        		.byte	0x0
 1354 001e 03        		.uleb128 0x3
 1355 001f 16        		.uleb128 0x16
 1356 0020 00        		.byte	0x0
 1357 0021 03        		.uleb128 0x3
 1358 0022 0E        		.uleb128 0xe
 1359 0023 3A        		.uleb128 0x3a
 1360 0024 0B        		.uleb128 0xb
 1361 0025 3B        		.uleb128 0x3b
 1362 0026 0B        		.uleb128 0xb
 1363 0027 49        		.uleb128 0x49
 1364 0028 13        		.uleb128 0x13
 1365 0029 00        		.byte	0x0
 1366 002a 00        		.byte	0x0
 1367 002b 04        		.uleb128 0x4
 1368 002c 24        		.uleb128 0x24
GAS LISTING d:\tmp/cctmyUwb.s 			page 25


 1369 002d 00        		.byte	0x0
 1370 002e 0B        		.uleb128 0xb
 1371 002f 0B        		.uleb128 0xb
 1372 0030 3E        		.uleb128 0x3e
 1373 0031 0B        		.uleb128 0xb
 1374 0032 03        		.uleb128 0x3
 1375 0033 08        		.uleb128 0x8
 1376 0034 00        		.byte	0x0
 1377 0035 00        		.byte	0x0
 1378 0036 05        		.uleb128 0x5
 1379 0037 24        		.uleb128 0x24
 1380 0038 00        		.byte	0x0
 1381 0039 0B        		.uleb128 0xb
 1382 003a 0B        		.uleb128 0xb
 1383 003b 3E        		.uleb128 0x3e
 1384 003c 0B        		.uleb128 0xb
 1385 003d 00        		.byte	0x0
 1386 003e 00        		.byte	0x0
 1387 003f 06        		.uleb128 0x6
 1388 0040 2E        		.uleb128 0x2e
 1389 0041 01        		.byte	0x1
 1390 0042 3F        		.uleb128 0x3f
 1391 0043 0C        		.uleb128 0xc
 1392 0044 03        		.uleb128 0x3
 1393 0045 0E        		.uleb128 0xe
 1394 0046 3A        		.uleb128 0x3a
 1395 0047 0B        		.uleb128 0xb
 1396 0048 3B        		.uleb128 0x3b
 1397 0049 0B        		.uleb128 0xb
 1398 004a 27        		.uleb128 0x27
 1399 004b 0C        		.uleb128 0xc
 1400 004c 11        		.uleb128 0x11
 1401 004d 01        		.uleb128 0x1
 1402 004e 12        		.uleb128 0x12
 1403 004f 01        		.uleb128 0x1
 1404 0050 40        		.uleb128 0x40
 1405 0051 0A        		.uleb128 0xa
 1406 0052 01        		.uleb128 0x1
 1407 0053 13        		.uleb128 0x13
 1408 0054 00        		.byte	0x0
 1409 0055 00        		.byte	0x0
 1410 0056 07        		.uleb128 0x7
 1411 0057 05        		.uleb128 0x5
 1412 0058 00        		.byte	0x0
 1413 0059 03        		.uleb128 0x3
 1414 005a 0E        		.uleb128 0xe
 1415 005b 3A        		.uleb128 0x3a
 1416 005c 0B        		.uleb128 0xb
 1417 005d 3B        		.uleb128 0x3b
 1418 005e 0B        		.uleb128 0xb
 1419 005f 49        		.uleb128 0x49
 1420 0060 13        		.uleb128 0x13
 1421 0061 02        		.uleb128 0x2
 1422 0062 06        		.uleb128 0x6
 1423 0063 00        		.byte	0x0
 1424 0064 00        		.byte	0x0
 1425 0065 08        		.uleb128 0x8
GAS LISTING d:\tmp/cctmyUwb.s 			page 26


 1426 0066 05        		.uleb128 0x5
 1427 0067 00        		.byte	0x0
 1428 0068 03        		.uleb128 0x3
 1429 0069 08        		.uleb128 0x8
 1430 006a 3A        		.uleb128 0x3a
 1431 006b 0B        		.uleb128 0xb
 1432 006c 3B        		.uleb128 0x3b
 1433 006d 0B        		.uleb128 0xb
 1434 006e 49        		.uleb128 0x49
 1435 006f 13        		.uleb128 0x13
 1436 0070 02        		.uleb128 0x2
 1437 0071 06        		.uleb128 0x6
 1438 0072 00        		.byte	0x0
 1439 0073 00        		.byte	0x0
 1440 0074 09        		.uleb128 0x9
 1441 0075 05        		.uleb128 0x5
 1442 0076 00        		.byte	0x0
 1443 0077 03        		.uleb128 0x3
 1444 0078 08        		.uleb128 0x8
 1445 0079 3A        		.uleb128 0x3a
 1446 007a 0B        		.uleb128 0xb
 1447 007b 3B        		.uleb128 0x3b
 1448 007c 0B        		.uleb128 0xb
 1449 007d 49        		.uleb128 0x49
 1450 007e 13        		.uleb128 0x13
 1451 007f 02        		.uleb128 0x2
 1452 0080 0A        		.uleb128 0xa
 1453 0081 00        		.byte	0x0
 1454 0082 00        		.byte	0x0
 1455 0083 0A        		.uleb128 0xa
 1456 0084 34        		.uleb128 0x34
 1457 0085 00        		.byte	0x0
 1458 0086 03        		.uleb128 0x3
 1459 0087 0E        		.uleb128 0xe
 1460 0088 3A        		.uleb128 0x3a
 1461 0089 0B        		.uleb128 0xb
 1462 008a 3B        		.uleb128 0x3b
 1463 008b 0B        		.uleb128 0xb
 1464 008c 49        		.uleb128 0x49
 1465 008d 13        		.uleb128 0x13
 1466 008e 02        		.uleb128 0x2
 1467 008f 06        		.uleb128 0x6
 1468 0090 00        		.byte	0x0
 1469 0091 00        		.byte	0x0
 1470 0092 0B        		.uleb128 0xb
 1471 0093 34        		.uleb128 0x34
 1472 0094 00        		.byte	0x0
 1473 0095 03        		.uleb128 0x3
 1474 0096 08        		.uleb128 0x8
 1475 0097 3A        		.uleb128 0x3a
 1476 0098 0B        		.uleb128 0xb
 1477 0099 3B        		.uleb128 0x3b
 1478 009a 0B        		.uleb128 0xb
 1479 009b 49        		.uleb128 0x49
 1480 009c 13        		.uleb128 0x13
 1481 009d 02        		.uleb128 0x2
 1482 009e 0A        		.uleb128 0xa
GAS LISTING d:\tmp/cctmyUwb.s 			page 27


 1483 009f 00        		.byte	0x0
 1484 00a0 00        		.byte	0x0
 1485 00a1 0C        		.uleb128 0xc
 1486 00a2 2E        		.uleb128 0x2e
 1487 00a3 01        		.byte	0x1
 1488 00a4 3F        		.uleb128 0x3f
 1489 00a5 0C        		.uleb128 0xc
 1490 00a6 03        		.uleb128 0x3
 1491 00a7 0E        		.uleb128 0xe
 1492 00a8 3A        		.uleb128 0x3a
 1493 00a9 0B        		.uleb128 0xb
 1494 00aa 3B        		.uleb128 0x3b
 1495 00ab 0B        		.uleb128 0xb
 1496 00ac 27        		.uleb128 0x27
 1497 00ad 0C        		.uleb128 0xc
 1498 00ae 49        		.uleb128 0x49
 1499 00af 13        		.uleb128 0x13
 1500 00b0 11        		.uleb128 0x11
 1501 00b1 01        		.uleb128 0x1
 1502 00b2 12        		.uleb128 0x12
 1503 00b3 01        		.uleb128 0x1
 1504 00b4 40        		.uleb128 0x40
 1505 00b5 0A        		.uleb128 0xa
 1506 00b6 01        		.uleb128 0x1
 1507 00b7 13        		.uleb128 0x13
 1508 00b8 00        		.byte	0x0
 1509 00b9 00        		.byte	0x0
 1510 00ba 0D        		.uleb128 0xd
 1511 00bb 34        		.uleb128 0x34
 1512 00bc 00        		.byte	0x0
 1513 00bd 03        		.uleb128 0x3
 1514 00be 0E        		.uleb128 0xe
 1515 00bf 3A        		.uleb128 0x3a
 1516 00c0 0B        		.uleb128 0xb
 1517 00c1 3B        		.uleb128 0x3b
 1518 00c2 0B        		.uleb128 0xb
 1519 00c3 49        		.uleb128 0x49
 1520 00c4 13        		.uleb128 0x13
 1521 00c5 02        		.uleb128 0x2
 1522 00c6 0A        		.uleb128 0xa
 1523 00c7 00        		.byte	0x0
 1524 00c8 00        		.byte	0x0
 1525 00c9 0E        		.uleb128 0xe
 1526 00ca 0F        		.uleb128 0xf
 1527 00cb 00        		.byte	0x0
 1528 00cc 0B        		.uleb128 0xb
 1529 00cd 0B        		.uleb128 0xb
 1530 00ce 49        		.uleb128 0x49
 1531 00cf 13        		.uleb128 0x13
 1532 00d0 00        		.byte	0x0
 1533 00d1 00        		.byte	0x0
 1534 00d2 0F        		.uleb128 0xf
 1535 00d3 35        		.uleb128 0x35
 1536 00d4 00        		.byte	0x0
 1537 00d5 49        		.uleb128 0x49
 1538 00d6 13        		.uleb128 0x13
 1539 00d7 00        		.byte	0x0
GAS LISTING d:\tmp/cctmyUwb.s 			page 28


 1540 00d8 00        		.byte	0x0
 1541 00d9 10        		.uleb128 0x10
 1542 00da 01        		.uleb128 0x1
 1543 00db 01        		.byte	0x1
 1544 00dc 49        		.uleb128 0x49
 1545 00dd 13        		.uleb128 0x13
 1546 00de 01        		.uleb128 0x1
 1547 00df 13        		.uleb128 0x13
 1548 00e0 00        		.byte	0x0
 1549 00e1 00        		.byte	0x0
 1550 00e2 11        		.uleb128 0x11
 1551 00e3 21        		.uleb128 0x21
 1552 00e4 00        		.byte	0x0
 1553 00e5 49        		.uleb128 0x49
 1554 00e6 13        		.uleb128 0x13
 1555 00e7 2F        		.uleb128 0x2f
 1556 00e8 0B        		.uleb128 0xb
 1557 00e9 00        		.byte	0x0
 1558 00ea 00        		.byte	0x0
 1559 00eb 12        		.uleb128 0x12
 1560 00ec 34        		.uleb128 0x34
 1561 00ed 00        		.byte	0x0
 1562 00ee 03        		.uleb128 0x3
 1563 00ef 0E        		.uleb128 0xe
 1564 00f0 3A        		.uleb128 0x3a
 1565 00f1 0B        		.uleb128 0xb
 1566 00f2 3B        		.uleb128 0x3b
 1567 00f3 0B        		.uleb128 0xb
 1568 00f4 49        		.uleb128 0x49
 1569 00f5 13        		.uleb128 0x13
 1570 00f6 3F        		.uleb128 0x3f
 1571 00f7 0C        		.uleb128 0xc
 1572 00f8 02        		.uleb128 0x2
 1573 00f9 0A        		.uleb128 0xa
 1574 00fa 00        		.byte	0x0
 1575 00fb 00        		.byte	0x0
 1576 00fc 00        		.byte	0x0
 1577               		.section	.debug_pubnames,"",@progbits
 1578 0000 8000 0000 		.long	0x80
 1579 0004 0200      		.word	0x2
 1580 0006 0000 0000 		.long	.Ldebug_info0
 1581 000a AA02 0000 		.long	0x2aa
 1582 000e 6B00 0000 		.long	0x6b
 1583 0012 696E 6974 		.string	"init_mcp3204"
 1583      5F6D 6370 
 1583      3332 3034 
 1583      00
 1584 001f 0601 0000 		.long	0x106
 1585 0023 6D63 7033 		.string	"mcp3204_getw"
 1585      3230 345F 
 1585      6765 7477 
 1585      00
 1586 0030 0902 0000 		.long	0x209
 1587 0034 705F 6373 		.string	"p_cs"
 1587      00
 1588 0039 1B02 0000 		.long	0x21b
 1589 003d 705F 646F 		.string	"p_dout"
GAS LISTING d:\tmp/cctmyUwb.s 			page 29


 1589      7574 00
 1590 0044 2D02 0000 		.long	0x22d
 1591 0048 705F 6469 		.string	"p_din"
 1591      6E00 
 1592 004e 3F02 0000 		.long	0x23f
 1593 0052 705F 636C 		.string	"p_clk"
 1593      6B00 
 1594 0058 6102 0000 		.long	0x261
 1595 005c 625F 6373 		.string	"b_cs"
 1595      00
 1596 0061 7302 0000 		.long	0x273
 1597 0065 625F 646F 		.string	"b_dout"
 1597      7574 00
 1598 006c 8502 0000 		.long	0x285
 1599 0070 625F 6469 		.string	"b_din"
 1599      6E00 
 1600 0076 9702 0000 		.long	0x297
 1601 007a 625F 636C 		.string	"b_clk"
 1601      6B00 
 1602 0080 0000 0000 		.long	0x0
 1603               		.section	.debug_aranges,"",@progbits
 1604 0000 1C00 0000 		.long	0x1c
 1605 0004 0200      		.word	0x2
 1606 0006 0000 0000 		.long	.Ldebug_info0
 1607 000a 04        		.byte	0x4
 1608 000b 00        		.byte	0x0
 1609 000c 0000      		.word	0x0
 1610 000e 0000      		.word	0x0
 1611 0010 0000 0000 		.long	.Ltext0
 1612 0014 F204 0000 		.long	.Letext0-.Ltext0
 1613 0018 0000 0000 		.long	0x0
 1614 001c 0000 0000 		.long	0x0
 1615               		.section	.debug_line
 1616 0000 2703 0000 		.long	.LELT0-.LSLT0
 1617               	.LSLT0:
 1618 0004 0200      		.word	0x2
 1619 0006 4F00 0000 		.long	.LELTP0-.LASLTP0
 1620               	.LASLTP0:
 1621 000a 01        		.byte	0x1
 1622 000b 01        		.byte	0x1
 1623 000c F6        		.byte	0xf6
 1624 000d F5        		.byte	0xf5
 1625 000e 0A        		.byte	0xa
 1626 000f 00        		.byte	0x0
 1627 0010 01        		.byte	0x1
 1628 0011 01        		.byte	0x1
 1629 0012 01        		.byte	0x1
 1630 0013 01        		.byte	0x1
 1631 0014 00        		.byte	0x0
 1632 0015 00        		.byte	0x0
 1633 0016 00        		.byte	0x0
 1634 0017 01        		.byte	0x1
 1635 0018 643A 2F77 		.ascii	"d:/winavr-20071221/bin/../avr/include"
 1635      696E 6176 
 1635      722D 3230 
 1635      3037 3132 
 1635      3231 2F62 
GAS LISTING d:\tmp/cctmyUwb.s 			page 30


 1636 003d 00        		.byte	0
 1637 003e 00        		.byte	0x0
 1638 003f 6D63 7033 		.string	"mcp3204.c"
 1638      3230 342E 
 1638      6300 
 1639 0049 00        		.uleb128 0x0
 1640 004a 00        		.uleb128 0x0
 1641 004b 00        		.uleb128 0x0
 1642 004c 7374 6469 		.string	"stdint.h"
 1642      6E74 2E68 
 1642      00
 1643 0055 01        		.uleb128 0x1
 1644 0056 00        		.uleb128 0x0
 1645 0057 00        		.uleb128 0x0
 1646 0058 00        		.byte	0x0
 1647               	.LELTP0:
 1648 0059 00        		.byte	0x0
 1649 005a 05        		.uleb128 0x5
 1650 005b 02        		.byte	0x2
 1651 005c 0000 0000 		.long	.LM1
 1652 0060 3B        		.byte	0x3b
 1653 0061 00        		.byte	0x0
 1654 0062 05        		.uleb128 0x5
 1655 0063 02        		.byte	0x2
 1656 0064 0000 0000 		.long	.LM2
 1657 0068 17        		.byte	0x17
 1658 0069 00        		.byte	0x0
 1659 006a 05        		.uleb128 0x5
 1660 006b 02        		.byte	0x2
 1661 006c 0000 0000 		.long	.LM3
 1662 0070 15        		.byte	0x15
 1663 0071 00        		.byte	0x0
 1664 0072 05        		.uleb128 0x5
 1665 0073 02        		.byte	0x2
 1666 0074 0000 0000 		.long	.LM4
 1667 0078 15        		.byte	0x15
 1668 0079 00        		.byte	0x0
 1669 007a 05        		.uleb128 0x5
 1670 007b 02        		.byte	0x2
 1671 007c 0000 0000 		.long	.LM5
 1672 0080 15        		.byte	0x15
 1673 0081 00        		.byte	0x0
 1674 0082 05        		.uleb128 0x5
 1675 0083 02        		.byte	0x2
 1676 0084 0000 0000 		.long	.LM6
 1677 0088 15        		.byte	0x15
 1678 0089 00        		.byte	0x0
 1679 008a 05        		.uleb128 0x5
 1680 008b 02        		.byte	0x2
 1681 008c 0000 0000 		.long	.LM7
 1682 0090 15        		.byte	0x15
 1683 0091 00        		.byte	0x0
 1684 0092 05        		.uleb128 0x5
 1685 0093 02        		.byte	0x2
 1686 0094 0000 0000 		.long	.LM8
 1687 0098 15        		.byte	0x15
 1688 0099 00        		.byte	0x0
GAS LISTING d:\tmp/cctmyUwb.s 			page 31


 1689 009a 05        		.uleb128 0x5
 1690 009b 02        		.byte	0x2
 1691 009c 0000 0000 		.long	.LM9
 1692 00a0 15        		.byte	0x15
 1693 00a1 00        		.byte	0x0
 1694 00a2 05        		.uleb128 0x5
 1695 00a3 02        		.byte	0x2
 1696 00a4 0000 0000 		.long	.LM10
 1697 00a8 16        		.byte	0x16
 1698 00a9 00        		.byte	0x0
 1699 00aa 05        		.uleb128 0x5
 1700 00ab 02        		.byte	0x2
 1701 00ac 0000 0000 		.long	.LM11
 1702 00b0 15        		.byte	0x15
 1703 00b1 00        		.byte	0x0
 1704 00b2 05        		.uleb128 0x5
 1705 00b3 02        		.byte	0x2
 1706 00b4 0000 0000 		.long	.LM12
 1707 00b8 01        		.byte	0x1
 1708 00b9 00        		.byte	0x0
 1709 00ba 05        		.uleb128 0x5
 1710 00bb 02        		.byte	0x2
 1711 00bc 0000 0000 		.long	.LM13
 1712 00c0 15        		.byte	0x15
 1713 00c1 00        		.byte	0x0
 1714 00c2 05        		.uleb128 0x5
 1715 00c3 02        		.byte	0x2
 1716 00c4 0000 0000 		.long	.LM14
 1717 00c8 15        		.byte	0x15
 1718 00c9 00        		.byte	0x0
 1719 00ca 05        		.uleb128 0x5
 1720 00cb 02        		.byte	0x2
 1721 00cc 0000 0000 		.long	.LM15
 1722 00d0 15        		.byte	0x15
 1723 00d1 00        		.byte	0x0
 1724 00d2 05        		.uleb128 0x5
 1725 00d3 02        		.byte	0x2
 1726 00d4 0000 0000 		.long	.LM16
 1727 00d8 16        		.byte	0x16
 1728 00d9 00        		.byte	0x0
 1729 00da 05        		.uleb128 0x5
 1730 00db 02        		.byte	0x2
 1731 00dc 0000 0000 		.long	.LM17
 1732 00e0 15        		.byte	0x15
 1733 00e1 00        		.byte	0x0
 1734 00e2 05        		.uleb128 0x5
 1735 00e3 02        		.byte	0x2
 1736 00e4 0000 0000 		.long	.LM18
 1737 00e8 15        		.byte	0x15
 1738 00e9 00        		.byte	0x0
 1739 00ea 05        		.uleb128 0x5
 1740 00eb 02        		.byte	0x2
 1741 00ec 0000 0000 		.long	.LM19
 1742 00f0 15        		.byte	0x15
 1743 00f1 00        		.byte	0x0
 1744 00f2 05        		.uleb128 0x5
 1745 00f3 02        		.byte	0x2
GAS LISTING d:\tmp/cctmyUwb.s 			page 32


 1746 00f4 0000 0000 		.long	.LM20
 1747 00f8 15        		.byte	0x15
 1748 00f9 00        		.byte	0x0
 1749 00fa 05        		.uleb128 0x5
 1750 00fb 02        		.byte	0x2
 1751 00fc 0000 0000 		.long	.LM21
 1752 0100 16        		.byte	0x16
 1753 0101 00        		.byte	0x0
 1754 0102 05        		.uleb128 0x5
 1755 0103 02        		.byte	0x2
 1756 0104 0000 0000 		.long	.LM22
 1757 0108 15        		.byte	0x15
 1758 0109 00        		.byte	0x0
 1759 010a 05        		.uleb128 0x5
 1760 010b 02        		.byte	0x2
 1761 010c 0000 0000 		.long	.LM23
 1762 0110 15        		.byte	0x15
 1763 0111 00        		.byte	0x0
 1764 0112 05        		.uleb128 0x5
 1765 0113 02        		.byte	0x2
 1766 0114 0000 0000 		.long	.LM24
 1767 0118 15        		.byte	0x15
 1768 0119 00        		.byte	0x0
 1769 011a 05        		.uleb128 0x5
 1770 011b 02        		.byte	0x2
 1771 011c 0000 0000 		.long	.LM25
 1772 0120 15        		.byte	0x15
 1773 0121 00        		.byte	0x0
 1774 0122 05        		.uleb128 0x5
 1775 0123 02        		.byte	0x2
 1776 0124 0000 0000 		.long	.LM26
 1777 0128 16        		.byte	0x16
 1778 0129 00        		.byte	0x0
 1779 012a 05        		.uleb128 0x5
 1780 012b 02        		.byte	0x2
 1781 012c 0000 0000 		.long	.LM27
 1782 0130 15        		.byte	0x15
 1783 0131 00        		.byte	0x0
 1784 0132 05        		.uleb128 0x5
 1785 0133 02        		.byte	0x2
 1786 0134 0000 0000 		.long	.LM28
 1787 0138 15        		.byte	0x15
 1788 0139 00        		.byte	0x0
 1789 013a 05        		.uleb128 0x5
 1790 013b 02        		.byte	0x2
 1791 013c 0000 0000 		.long	.LM29
 1792 0140 15        		.byte	0x15
 1793 0141 00        		.byte	0x0
 1794 0142 05        		.uleb128 0x5
 1795 0143 02        		.byte	0x2
 1796 0144 0000 0000 		.long	.LM30
 1797 0148 15        		.byte	0x15
 1798 0149 00        		.byte	0x0
 1799 014a 05        		.uleb128 0x5
 1800 014b 02        		.byte	0x2
 1801 014c 0000 0000 		.long	.LM31
 1802 0150 17        		.byte	0x17
GAS LISTING d:\tmp/cctmyUwb.s 			page 33


 1803 0151 00        		.byte	0x0
 1804 0152 05        		.uleb128 0x5
 1805 0153 02        		.byte	0x2
 1806 0154 0000 0000 		.long	.LM32
 1807 0158 15        		.byte	0x15
 1808 0159 00        		.byte	0x0
 1809 015a 05        		.uleb128 0x5
 1810 015b 02        		.byte	0x2
 1811 015c 0000 0000 		.long	.LM33
 1812 0160 15        		.byte	0x15
 1813 0161 00        		.byte	0x0
 1814 0162 05        		.uleb128 0x5
 1815 0163 02        		.byte	0x2
 1816 0164 0000 0000 		.long	.LM34
 1817 0168 1C        		.byte	0x1c
 1818 0169 00        		.byte	0x0
 1819 016a 05        		.uleb128 0x5
 1820 016b 02        		.byte	0x2
 1821 016c 0000 0000 		.long	.LM35
 1822 0170 1B        		.byte	0x1b
 1823 0171 00        		.byte	0x0
 1824 0172 05        		.uleb128 0x5
 1825 0173 02        		.byte	0x2
 1826 0174 0000 0000 		.long	.LM36
 1827 0178 15        		.byte	0x15
 1828 0179 00        		.byte	0x0
 1829 017a 05        		.uleb128 0x5
 1830 017b 02        		.byte	0x2
 1831 017c 0000 0000 		.long	.LM37
 1832 0180 15        		.byte	0x15
 1833 0181 00        		.byte	0x0
 1834 0182 05        		.uleb128 0x5
 1835 0183 02        		.byte	0x2
 1836 0184 0000 0000 		.long	.LM38
 1837 0188 15        		.byte	0x15
 1838 0189 00        		.byte	0x0
 1839 018a 05        		.uleb128 0x5
 1840 018b 02        		.byte	0x2
 1841 018c 0000 0000 		.long	.LM39
 1842 0190 16        		.byte	0x16
 1843 0191 00        		.byte	0x0
 1844 0192 05        		.uleb128 0x5
 1845 0193 02        		.byte	0x2
 1846 0194 0000 0000 		.long	.LM40
 1847 0198 15        		.byte	0x15
 1848 0199 00        		.byte	0x0
 1849 019a 05        		.uleb128 0x5
 1850 019b 02        		.byte	0x2
 1851 019c 0000 0000 		.long	.LM41
 1852 01a0 15        		.byte	0x15
 1853 01a1 00        		.byte	0x0
 1854 01a2 05        		.uleb128 0x5
 1855 01a3 02        		.byte	0x2
 1856 01a4 0000 0000 		.long	.LM42
 1857 01a8 15        		.byte	0x15
 1858 01a9 00        		.byte	0x0
 1859 01aa 05        		.uleb128 0x5
GAS LISTING d:\tmp/cctmyUwb.s 			page 34


 1860 01ab 02        		.byte	0x2
 1861 01ac 0000 0000 		.long	.LM43
 1862 01b0 16        		.byte	0x16
 1863 01b1 00        		.byte	0x0
 1864 01b2 05        		.uleb128 0x5
 1865 01b3 02        		.byte	0x2
 1866 01b4 0000 0000 		.long	.LM44
 1867 01b8 15        		.byte	0x15
 1868 01b9 00        		.byte	0x0
 1869 01ba 05        		.uleb128 0x5
 1870 01bb 02        		.byte	0x2
 1871 01bc 0000 0000 		.long	.LM45
 1872 01c0 15        		.byte	0x15
 1873 01c1 00        		.byte	0x0
 1874 01c2 05        		.uleb128 0x5
 1875 01c3 02        		.byte	0x2
 1876 01c4 0000 0000 		.long	.LM46
 1877 01c8 17        		.byte	0x17
 1878 01c9 00        		.byte	0x0
 1879 01ca 05        		.uleb128 0x5
 1880 01cb 02        		.byte	0x2
 1881 01cc 0000 0000 		.long	.LM47
 1882 01d0 15        		.byte	0x15
 1883 01d1 00        		.byte	0x0
 1884 01d2 05        		.uleb128 0x5
 1885 01d3 02        		.byte	0x2
 1886 01d4 0000 0000 		.long	.LM48
 1887 01d8 15        		.byte	0x15
 1888 01d9 00        		.byte	0x0
 1889 01da 05        		.uleb128 0x5
 1890 01db 02        		.byte	0x2
 1891 01dc 0000 0000 		.long	.LM49
 1892 01e0 15        		.byte	0x15
 1893 01e1 00        		.byte	0x0
 1894 01e2 05        		.uleb128 0x5
 1895 01e3 02        		.byte	0x2
 1896 01e4 0000 0000 		.long	.LM50
 1897 01e8 15        		.byte	0x15
 1898 01e9 00        		.byte	0x0
 1899 01ea 05        		.uleb128 0x5
 1900 01eb 02        		.byte	0x2
 1901 01ec 0000 0000 		.long	.LM51
 1902 01f0 17        		.byte	0x17
 1903 01f1 00        		.byte	0x0
 1904 01f2 05        		.uleb128 0x5
 1905 01f3 02        		.byte	0x2
 1906 01f4 0000 0000 		.long	.LM52
 1907 01f8 01        		.byte	0x1
 1908 01f9 00        		.byte	0x0
 1909 01fa 05        		.uleb128 0x5
 1910 01fb 02        		.byte	0x2
 1911 01fc 0000 0000 		.long	.LM53
 1912 0200 15        		.byte	0x15
 1913 0201 00        		.byte	0x0
 1914 0202 05        		.uleb128 0x5
 1915 0203 02        		.byte	0x2
 1916 0204 0000 0000 		.long	.LM54
GAS LISTING d:\tmp/cctmyUwb.s 			page 35


 1917 0208 15        		.byte	0x15
 1918 0209 00        		.byte	0x0
 1919 020a 05        		.uleb128 0x5
 1920 020b 02        		.byte	0x2
 1921 020c 0000 0000 		.long	.LM55
 1922 0210 15        		.byte	0x15
 1923 0211 00        		.byte	0x0
 1924 0212 05        		.uleb128 0x5
 1925 0213 02        		.byte	0x2
 1926 0214 0000 0000 		.long	.LM56
 1927 0218 15        		.byte	0x15
 1928 0219 00        		.byte	0x0
 1929 021a 05        		.uleb128 0x5
 1930 021b 02        		.byte	0x2
 1931 021c 0000 0000 		.long	.LM57
 1932 0220 15        		.byte	0x15
 1933 0221 00        		.byte	0x0
 1934 0222 05        		.uleb128 0x5
 1935 0223 02        		.byte	0x2
 1936 0224 0000 0000 		.long	.LM58
 1937 0228 16        		.byte	0x16
 1938 0229 00        		.byte	0x0
 1939 022a 05        		.uleb128 0x5
 1940 022b 02        		.byte	0x2
 1941 022c 0000 0000 		.long	.LM59
 1942 0230 15        		.byte	0x15
 1943 0231 00        		.byte	0x0
 1944 0232 05        		.uleb128 0x5
 1945 0233 02        		.byte	0x2
 1946 0234 0000 0000 		.long	.LM60
 1947 0238 15        		.byte	0x15
 1948 0239 00        		.byte	0x0
 1949 023a 05        		.uleb128 0x5
 1950 023b 02        		.byte	0x2
 1951 023c 0000 0000 		.long	.LM61
 1952 0240 15        		.byte	0x15
 1953 0241 00        		.byte	0x0
 1954 0242 05        		.uleb128 0x5
 1955 0243 02        		.byte	0x2
 1956 0244 0000 0000 		.long	.LM62
 1957 0248 15        		.byte	0x15
 1958 0249 00        		.byte	0x0
 1959 024a 05        		.uleb128 0x5
 1960 024b 02        		.byte	0x2
 1961 024c 0000 0000 		.long	.LM63
 1962 0250 15        		.byte	0x15
 1963 0251 00        		.byte	0x0
 1964 0252 05        		.uleb128 0x5
 1965 0253 02        		.byte	0x2
 1966 0254 0000 0000 		.long	.LM64
 1967 0258 16        		.byte	0x16
 1968 0259 00        		.byte	0x0
 1969 025a 05        		.uleb128 0x5
 1970 025b 02        		.byte	0x2
 1971 025c 0000 0000 		.long	.LM65
 1972 0260 15        		.byte	0x15
 1973 0261 00        		.byte	0x0
GAS LISTING d:\tmp/cctmyUwb.s 			page 36


 1974 0262 05        		.uleb128 0x5
 1975 0263 02        		.byte	0x2
 1976 0264 0000 0000 		.long	.LM66
 1977 0268 15        		.byte	0x15
 1978 0269 00        		.byte	0x0
 1979 026a 05        		.uleb128 0x5
 1980 026b 02        		.byte	0x2
 1981 026c 0000 0000 		.long	.LM67
 1982 0270 15        		.byte	0x15
 1983 0271 00        		.byte	0x0
 1984 0272 05        		.uleb128 0x5
 1985 0273 02        		.byte	0x2
 1986 0274 0000 0000 		.long	.LM68
 1987 0278 15        		.byte	0x15
 1988 0279 00        		.byte	0x0
 1989 027a 05        		.uleb128 0x5
 1990 027b 02        		.byte	0x2
 1991 027c 0000 0000 		.long	.LM69
 1992 0280 15        		.byte	0x15
 1993 0281 00        		.byte	0x0
 1994 0282 05        		.uleb128 0x5
 1995 0283 02        		.byte	0x2
 1996 0284 0000 0000 		.long	.LM70
 1997 0288 16        		.byte	0x16
 1998 0289 00        		.byte	0x0
 1999 028a 05        		.uleb128 0x5
 2000 028b 02        		.byte	0x2
 2001 028c 0000 0000 		.long	.LM71
 2002 0290 15        		.byte	0x15
 2003 0291 00        		.byte	0x0
 2004 0292 05        		.uleb128 0x5
 2005 0293 02        		.byte	0x2
 2006 0294 0000 0000 		.long	.LM72
 2007 0298 15        		.byte	0x15
 2008 0299 00        		.byte	0x0
 2009 029a 05        		.uleb128 0x5
 2010 029b 02        		.byte	0x2
 2011 029c 0000 0000 		.long	.LM73
 2012 02a0 15        		.byte	0x15
 2013 02a1 00        		.byte	0x0
 2014 02a2 05        		.uleb128 0x5
 2015 02a3 02        		.byte	0x2
 2016 02a4 0000 0000 		.long	.LM74
 2017 02a8 15        		.byte	0x15
 2018 02a9 00        		.byte	0x0
 2019 02aa 05        		.uleb128 0x5
 2020 02ab 02        		.byte	0x2
 2021 02ac 0000 0000 		.long	.LM75
 2022 02b0 15        		.byte	0x15
 2023 02b1 00        		.byte	0x0
 2024 02b2 05        		.uleb128 0x5
 2025 02b3 02        		.byte	0x2
 2026 02b4 0000 0000 		.long	.LM76
 2027 02b8 16        		.byte	0x16
 2028 02b9 00        		.byte	0x0
 2029 02ba 05        		.uleb128 0x5
 2030 02bb 02        		.byte	0x2
GAS LISTING d:\tmp/cctmyUwb.s 			page 37


 2031 02bc 0000 0000 		.long	.LM77
 2032 02c0 15        		.byte	0x15
 2033 02c1 00        		.byte	0x0
 2034 02c2 05        		.uleb128 0x5
 2035 02c3 02        		.byte	0x2
 2036 02c4 0000 0000 		.long	.LM78
 2037 02c8 15        		.byte	0x15
 2038 02c9 00        		.byte	0x0
 2039 02ca 05        		.uleb128 0x5
 2040 02cb 02        		.byte	0x2
 2041 02cc 0000 0000 		.long	.LM79
 2042 02d0 15        		.byte	0x15
 2043 02d1 00        		.byte	0x0
 2044 02d2 05        		.uleb128 0x5
 2045 02d3 02        		.byte	0x2
 2046 02d4 0000 0000 		.long	.LM80
 2047 02d8 1A        		.byte	0x1a
 2048 02d9 00        		.byte	0x0
 2049 02da 05        		.uleb128 0x5
 2050 02db 02        		.byte	0x2
 2051 02dc 0000 0000 		.long	.LM81
 2052 02e0 15        		.byte	0x15
 2053 02e1 00        		.byte	0x0
 2054 02e2 05        		.uleb128 0x5
 2055 02e3 02        		.byte	0x2
 2056 02e4 0000 0000 		.long	.LM82
 2057 02e8 15        		.byte	0x15
 2058 02e9 00        		.byte	0x0
 2059 02ea 05        		.uleb128 0x5
 2060 02eb 02        		.byte	0x2
 2061 02ec 0000 0000 		.long	.LM83
 2062 02f0 15        		.byte	0x15
 2063 02f1 00        		.byte	0x0
 2064 02f2 05        		.uleb128 0x5
 2065 02f3 02        		.byte	0x2
 2066 02f4 0000 0000 		.long	.LM84
 2067 02f8 15        		.byte	0x15
 2068 02f9 00        		.byte	0x0
 2069 02fa 05        		.uleb128 0x5
 2070 02fb 02        		.byte	0x2
 2071 02fc 0000 0000 		.long	.LM85
 2072 0300 15        		.byte	0x15
 2073 0301 00        		.byte	0x0
 2074 0302 05        		.uleb128 0x5
 2075 0303 02        		.byte	0x2
 2076 0304 0000 0000 		.long	.LM86
 2077 0308 0D        		.byte	0xd
 2078 0309 00        		.byte	0x0
 2079 030a 05        		.uleb128 0x5
 2080 030b 02        		.byte	0x2
 2081 030c 0000 0000 		.long	.LM87
 2082 0310 1E        		.byte	0x1e
 2083 0311 00        		.byte	0x0
 2084 0312 05        		.uleb128 0x5
 2085 0313 02        		.byte	0x2
 2086 0314 0000 0000 		.long	.LM88
 2087 0318 15        		.byte	0x15
GAS LISTING d:\tmp/cctmyUwb.s 			page 38


 2088 0319 00        		.byte	0x0
 2089 031a 05        		.uleb128 0x5
 2090 031b 02        		.byte	0x2
 2091 031c 0000 0000 		.long	.LM89
 2092 0320 18        		.byte	0x18
 2093 0321 00        		.byte	0x0
 2094 0322 05        		.uleb128 0x5
 2095 0323 02        		.byte	0x2
 2096 0324 0000 0000 		.long	.Letext0
 2097 0328 00        		.byte	0x0
 2098 0329 01        		.uleb128 0x1
 2099 032a 01        		.byte	0x1
 2100               	.LELT0:
 2101 032b 1900 0000 		.section	.debug_str,"MS",@progbits,1
 2101      0200 1300 
 2101      0000 0101 
 2101      FB0E 0D00 
 2101      0101 0101 
 2102               	.LASF16:
 2103 0000 776F 7264 		.string	"word"
 2103      00
 2104               	.LASF19:
 2105 0005 705F 6469 		.string	"p_din"
 2105      6E00 
 2106               	.LASF18:
 2107 000b 705F 646F 		.string	"p_dout"
 2107      7574 00
 2108               	.LASF24:
 2109 0012 625F 636C 		.string	"b_clk"
 2109      6B00 
 2110               	.LASF10:
 2111 0018 6264 6F75 		.string	"bdout"
 2111      7400 
 2112               	.LASF28:
 2113 001e 7569 6E74 		.string	"uint8_t"
 2113      385F 7400 
 2114               	.LASF8:
 2115 0026 646F 7574 		.string	"dout"
 2115      00
 2116               	.LASF11:
 2117 002b 6264 696E 		.string	"bdin"
 2117      00
 2118               	.LASF7:
 2119 0030 6368 6970 		.string	"chip"
 2119      00
 2120               	.LASF21:
 2121 0035 625F 6373 		.string	"b_cs"
 2121      00
 2122               	.LASF15:
 2123 003a 7064 696E 		.string	"pdin"
 2123      00
 2124               	.LASF0:
 2125 003f 7369 676E 		.string	"signed char"
 2125      6564 2063 
 2125      6861 7200 
 2126               	.LASF1:
 2127 004b 756E 7369 		.string	"unsigned char"
GAS LISTING d:\tmp/cctmyUwb.s 			page 39


 2127      676E 6564 
 2127      2063 6861 
 2127      7200 
 2128               	.LASF29:
 2129 0059 696E 6974 		.string	"init_mcp3204"
 2129      5F6D 6370 
 2129      3332 3034 
 2129      00
 2130               	.LASF4:
 2131 0066 6C6F 6E67 		.string	"long unsigned int"
 2131      2075 6E73 
 2131      6967 6E65 
 2131      6420 696E 
 2131      7400 
 2132               	.LASF9:
 2133 0078 6263 6C6B 		.string	"bclk"
 2133      00
 2134               	.LASF20:
 2135 007d 705F 636C 		.string	"p_clk"
 2135      6B00 
 2136               	.LASF2:
 2137 0083 756E 7369 		.string	"unsigned int"
 2137      676E 6564 
 2137      2069 6E74 
 2137      00
 2138               	.LASF6:
 2139 0090 6C6F 6E67 		.string	"long long unsigned int"
 2139      206C 6F6E 
 2139      6720 756E 
 2139      7369 676E 
 2139      6564 2069 
 2140               	.LASF25:
 2141 00a7 474E 5520 		.string	"GNU C 4.2.2 (WinAVR 20071221)"
 2141      4320 342E 
 2141      322E 3220 
 2141      2857 696E 
 2141      4156 5220 
 2142               	.LASF12:
 2143 00c5 6D6F 6465 		.string	"mode"
 2143      00
 2144               	.LASF17:
 2145 00ca 705F 6373 		.string	"p_cs"
 2145      00
 2146               	.LASF5:
 2147 00cf 6C6F 6E67 		.string	"long long int"
 2147      206C 6F6E 
 2147      6720 696E 
 2147      7400 
 2148               	.LASF22:
 2149 00dd 625F 646F 		.string	"b_dout"
 2149      7574 00
 2150               	.LASF26:
 2151 00e4 6D63 7033 		.string	"mcp3204.c"
 2151      3230 342E 
 2151      6300 
 2152               	.LASF30:
 2153 00ee 6D63 7033 		.string	"mcp3204_getw"
GAS LISTING d:\tmp/cctmyUwb.s 			page 40


 2153      3230 345F 
 2153      6765 7477 
 2153      00
 2154               	.LASF3:
 2155 00fb 6C6F 6E67 		.string	"long int"
 2155      2069 6E74 
 2155      00
 2156               	.LASF23:
 2157 0104 625F 6469 		.string	"b_din"
 2157      6E00 
 2158               	.LASF13:
 2159 010a 7063 6C6B 		.string	"pclk"
 2159      00
 2160               	.LASF27:
 2161 010f 473A 5C61 		.string	"G:\\avr\\hv_control"
 2161      7672 5C68 
 2161      765F 636F 
 2161      6E74 726F 
 2161      6C00 
 2162               	.LASF14:
 2163 0121 7064 6F75 		.string	"pdout"
 2163      7400 
 2164               	/* File "mcp3204.c": code  643 = 0x0283 ( 599), prologues  21, epilogues  23 */
GAS LISTING d:\tmp/cctmyUwb.s 			page 41


DEFINED SYMBOLS
                            *ABS*:00000000 mcp3204.c
   d:\tmp/cctmyUwb.s:2      *ABS*:0000003f __SREG__
   d:\tmp/cctmyUwb.s:3      *ABS*:0000003e __SP_H__
   d:\tmp/cctmyUwb.s:4      *ABS*:0000003d __SP_L__
   d:\tmp/cctmyUwb.s:5      *ABS*:00000000 __tmp_reg__
   d:\tmp/cctmyUwb.s:6      *ABS*:00000001 __zero_reg__
   d:\tmp/cctmyUwb.s:19     .text:00000000 init_mcp3204
                            *COM*:00000004 b_clk
                            *COM*:00000004 b_dout
                            *COM*:00000004 b_cs
                            *COM*:00000004 b_din
                            *COM*:00000008 p_clk
                            *COM*:00000008 p_dout
                            *COM*:00000008 p_din
                            *COM*:00000008 p_cs
   d:\tmp/cctmyUwb.s:471    .text:000002dc mcp3204_getw

UNDEFINED SYMBOLS
__do_copy_data
__do_clear_bss
udelay
