GAS LISTING D:\DOCUME~1\alex\LOCALS~1\Temp/cc0xZShb.s 			page 1


   1               		.file	"main.c"
   2               	__SREG__ = 0x3f
   3               	__SP_H__ = 0x3e
   4               	__SP_L__ = 0x3d
   5               	__tmp_reg__ = 0
   6               	__zero_reg__ = 1
   7               		.global __do_copy_data
   8               		.global __do_clear_bss
   9               		.section	.debug_abbrev,"",@progbits
  10               	.Ldebug_abbrev0:
  11               		.section	.debug_info,"",@progbits
  12               	.Ldebug_info0:
  13               		.section	.debug_line,"",@progbits
  14               	.Ldebug_line0:
  15               		.text
  16               	.Ltext0:
  17               	.global	main
  18               		.type	main, @function
  19               	main:
  20               	.LFB4:
  21               	.LM1:
  22               	/* prologue: frame size=0 */
  23               	/* prologue end (size=0) */
  24               	.LM2:
  25 0000 8091 0000 		lds r24,dev
  26 0004 90E0      		ldi r25,lo8(0)
  27               	.LM3:
  28 0006 2BE1      		ldi r18,lo8(27)
  29 0008 30E0      		ldi r19,hi8(27)
  30 000a 829F      		mul r24,r18
  31 000c F001      		movw r30,r0
  32 000e 839F      		mul r24,r19
  33 0010 F00D      		add r31,r0
  34 0012 929F      		mul r25,r18
  35 0014 F00D      		add r31,r0
  36 0016 1124      		clr r1
  37 0018 E050      		subi r30,lo8(-(powersupply))
  38 001a F040      		sbci r31,hi8(-(powersupply))
  39 001c 2585      		ldd r18,Z+13
  40 001e 3685      		ldd r19,Z+14
  41 0020 4785      		ldd r20,Z+15
  42 0022 5089      		ldd r21,Z+16
  43 0024 6185      		ldd r22,Z+9
  44 0026 7285      		ldd r23,Z+10
  45 0028 8385      		ldd r24,Z+11
  46 002a 9485      		ldd r25,Z+12
  47 002c 0E94 0000 		call __ltsf2
  48 0030 8823      		tst r24
  49 0032 04F4      		brge .L2
  50               	.L6:
  51 0034 00C0      		rjmp .L6
  52               	.L2:
  53               	.LM4:
  54 0036 80E0      		ldi r24,lo8(0)
  55 0038 90E0      		ldi r25,hi8(0)
  56               	/* epilogue: frame size=0 */
  57 003a 0895      		ret
GAS LISTING D:\DOCUME~1\alex\LOCALS~1\Temp/cc0xZShb.s 			page 2


  58               	/* epilogue end (size=1) */
  59               	/* function main size 31 (30) */
  60               	.LFE4:
  61               		.size	main, .-main
  62               		.comm powersupply,108,1
  63               		.comm dev,1,1
  64               		.section	.debug_frame,"",@progbits
  65               	.Lframe0:
  66 0000 0C00 0000 		.long	.LECIE0-.LSCIE0
  67               	.LSCIE0:
  68 0004 FFFF FFFF 		.long	0xffffffff
  69 0008 01        		.byte	0x1
  70 0009 00        		.string	""
  71 000a 01        		.uleb128 0x1
  72 000b 7F        		.sleb128 -1
  73 000c 24        		.byte	0x24
  74 000d 0C        		.byte	0xc
  75 000e 20        		.uleb128 0x20
  76 000f 00        		.uleb128 0x0
  77               		.p2align	2
  78               	.LECIE0:
  79               	.LSFDE0:
  80 0010 0C00 0000 		.long	.LEFDE0-.LASFDE0
  81               	.LASFDE0:
  82 0014 0000 0000 		.long	.Lframe0
  83 0018 0000 0000 		.long	.LFB4
  84 001c 3C00 0000 		.long	.LFE4-.LFB4
  85               		.p2align	2
  86               	.LEFDE0:
  87               		.text
  88               	.Letext0:
  89               		.section	.debug_info
  90 0000 8C01 0000 		.long	0x18c
  91 0004 0200      		.word	0x2
  92 0006 0000 0000 		.long	.Ldebug_abbrev0
  93 000a 04        		.byte	0x4
  94 000b 01        		.uleb128 0x1
  95 000c 0000 0000 		.long	.LASF24
  96 0010 01        		.byte	0x1
  97 0011 0000 0000 		.long	.LASF25
  98 0015 0000 0000 		.long	.LASF26
  99 0019 0000 0000 		.long	.Ltext0
 100 001d 0000 0000 		.long	.Letext0
 101 0021 0000 0000 		.long	.Ldebug_line0
 102 0025 02        		.uleb128 0x2
 103 0026 01        		.byte	0x1
 104 0027 06        		.byte	0x6
 105 0028 0000 0000 		.long	.LASF0
 106 002c 03        		.uleb128 0x3
 107 002d 0000 0000 		.long	.LASF17
 108 0031 03        		.byte	0x3
 109 0032 7A        		.byte	0x7a
 110 0033 3700 0000 		.long	0x37
 111 0037 02        		.uleb128 0x2
 112 0038 01        		.byte	0x1
 113 0039 08        		.byte	0x8
 114 003a 0000 0000 		.long	.LASF1
GAS LISTING D:\DOCUME~1\alex\LOCALS~1\Temp/cc0xZShb.s 			page 3


 115 003e 04        		.uleb128 0x4
 116 003f 02        		.byte	0x2
 117 0040 05        		.byte	0x5
 118 0041 696E 7400 		.string	"int"
 119 0045 02        		.uleb128 0x2
 120 0046 02        		.byte	0x2
 121 0047 07        		.byte	0x7
 122 0048 0000 0000 		.long	.LASF2
 123 004c 02        		.uleb128 0x2
 124 004d 04        		.byte	0x4
 125 004e 05        		.byte	0x5
 126 004f 0000 0000 		.long	.LASF3
 127 0053 02        		.uleb128 0x2
 128 0054 04        		.byte	0x4
 129 0055 07        		.byte	0x7
 130 0056 0000 0000 		.long	.LASF4
 131 005a 02        		.uleb128 0x2
 132 005b 08        		.byte	0x8
 133 005c 05        		.byte	0x5
 134 005d 0000 0000 		.long	.LASF5
 135 0061 02        		.uleb128 0x2
 136 0062 08        		.byte	0x8
 137 0063 07        		.byte	0x7
 138 0064 0000 0000 		.long	.LASF6
 139 0068 05        		.uleb128 0x5
 140 0069 01        		.byte	0x1
 141 006a 08        		.byte	0x8
 142 006b 06        		.uleb128 0x6
 143 006c 1B        		.byte	0x1b
 144 006d 02        		.byte	0x2
 145 006e 08        		.byte	0x8
 146 006f F200 0000 		.long	0xf2
 147 0073 07        		.uleb128 0x7
 148 0074 0000 0000 		.long	.LASF7
 149 0078 02        		.byte	0x2
 150 0079 09        		.byte	0x9
 151 007a F200 0000 		.long	0xf2
 152 007e 02        		.byte	0x2
 153 007f 23        		.byte	0x23
 154 0080 00        		.uleb128 0x0
 155 0081 07        		.uleb128 0x7
 156 0082 0000 0000 		.long	.LASF8
 157 0086 02        		.byte	0x2
 158 0087 0A        		.byte	0xa
 159 0088 F200 0000 		.long	0xf2
 160 008c 02        		.byte	0x2
 161 008d 23        		.byte	0x23
 162 008e 04        		.uleb128 0x4
 163 008f 07        		.uleb128 0x7
 164 0090 0000 0000 		.long	.LASF9
 165 0094 02        		.byte	0x2
 166 0095 0B        		.byte	0xb
 167 0096 2C00 0000 		.long	0x2c
 168 009a 02        		.byte	0x2
 169 009b 23        		.byte	0x23
 170 009c 08        		.uleb128 0x8
 171 009d 07        		.uleb128 0x7
GAS LISTING D:\DOCUME~1\alex\LOCALS~1\Temp/cc0xZShb.s 			page 4


 172 009e 0000 0000 		.long	.LASF10
 173 00a2 02        		.byte	0x2
 174 00a3 0D        		.byte	0xd
 175 00a4 F200 0000 		.long	0xf2
 176 00a8 02        		.byte	0x2
 177 00a9 23        		.byte	0x23
 178 00aa 09        		.uleb128 0x9
 179 00ab 07        		.uleb128 0x7
 180 00ac 0000 0000 		.long	.LASF11
 181 00b0 02        		.byte	0x2
 182 00b1 0E        		.byte	0xe
 183 00b2 F200 0000 		.long	0xf2
 184 00b6 02        		.byte	0x2
 185 00b7 23        		.byte	0x23
 186 00b8 0D        		.uleb128 0xd
 187 00b9 07        		.uleb128 0x7
 188 00ba 0000 0000 		.long	.LASF12
 189 00be 02        		.byte	0x2
 190 00bf 0F        		.byte	0xf
 191 00c0 F200 0000 		.long	0xf2
 192 00c4 02        		.byte	0x2
 193 00c5 23        		.byte	0x23
 194 00c6 11        		.uleb128 0x11
 195 00c7 07        		.uleb128 0x7
 196 00c8 0000 0000 		.long	.LASF13
 197 00cc 02        		.byte	0x2
 198 00cd 10        		.byte	0x10
 199 00ce 2C00 0000 		.long	0x2c
 200 00d2 02        		.byte	0x2
 201 00d3 23        		.byte	0x23
 202 00d4 15        		.uleb128 0x15
 203 00d5 07        		.uleb128 0x7
 204 00d6 0000 0000 		.long	.LASF14
 205 00da 02        		.byte	0x2
 206 00db 11        		.byte	0x11
 207 00dc F200 0000 		.long	0xf2
 208 00e0 02        		.byte	0x2
 209 00e1 23        		.byte	0x23
 210 00e2 16        		.uleb128 0x16
 211 00e3 07        		.uleb128 0x7
 212 00e4 0000 0000 		.long	.LASF15
 213 00e8 02        		.byte	0x2
 214 00e9 12        		.byte	0x12
 215 00ea 2C00 0000 		.long	0x2c
 216 00ee 02        		.byte	0x2
 217 00ef 23        		.byte	0x23
 218 00f0 1A        		.uleb128 0x1a
 219 00f1 00        		.byte	0x0
 220 00f2 02        		.uleb128 0x2
 221 00f3 04        		.byte	0x4
 222 00f4 04        		.byte	0x4
 223 00f5 0000 0000 		.long	.LASF16
 224 00f9 03        		.uleb128 0x3
 225 00fa 0000 0000 		.long	.LASF18
 226 00fe 02        		.byte	0x2
 227 00ff 13        		.byte	0x13
 228 0100 6B00 0000 		.long	0x6b
GAS LISTING D:\DOCUME~1\alex\LOCALS~1\Temp/cc0xZShb.s 			page 5


 229 0104 08        		.uleb128 0x8
 230 0105 01        		.byte	0x1
 231 0106 0000 0000 		.long	.LASF27
 232 010a 01        		.byte	0x1
 233 010b 11        		.byte	0x11
 234 010c 01        		.byte	0x1
 235 010d 3E00 0000 		.long	0x3e
 236 0111 0000 0000 		.long	.LFB4
 237 0115 0000 0000 		.long	.LFE4
 238 0119 02        		.byte	0x2
 239 011a 90        		.byte	0x90
 240 011b 20        		.uleb128 0x20
 241 011c 5801 0000 		.long	0x158
 242 0120 09        		.uleb128 0x9
 243 0121 0000 0000 		.long	.LASF19
 244 0125 01        		.byte	0x1
 245 0126 12        		.byte	0x12
 246 0127 F200 0000 		.long	0xf2
 247 012b 09        		.uleb128 0x9
 248 012c 0000 0000 		.long	.LASF20
 249 0130 01        		.byte	0x1
 250 0131 12        		.byte	0x12
 251 0132 F200 0000 		.long	0xf2
 252 0136 09        		.uleb128 0x9
 253 0137 0000 0000 		.long	.LASF21
 254 013b 01        		.byte	0x1
 255 013c 12        		.byte	0x12
 256 013d F200 0000 		.long	0xf2
 257 0141 09        		.uleb128 0x9
 258 0142 0000 0000 		.long	.LASF22
 259 0146 01        		.byte	0x1
 260 0147 12        		.byte	0x12
 261 0148 F200 0000 		.long	0xf2
 262 014c 0A        		.uleb128 0xa
 263 014d 7661 6C00 		.string	"val"
 264 0151 01        		.byte	0x1
 265 0152 13        		.byte	0x13
 266 0153 F200 0000 		.long	0xf2
 267 0157 00        		.byte	0x0
 268 0158 0B        		.uleb128 0xb
 269 0159 F900 0000 		.long	0xf9
 270 015d 6801 0000 		.long	0x168
 271 0161 0C        		.uleb128 0xc
 272 0162 6801 0000 		.long	0x168
 273 0166 03        		.byte	0x3
 274 0167 00        		.byte	0x0
 275 0168 05        		.uleb128 0x5
 276 0169 02        		.byte	0x2
 277 016a 07        		.byte	0x7
 278 016b 0D        		.uleb128 0xd
 279 016c 0000 0000 		.long	.LASF23
 280 0170 01        		.byte	0x1
 281 0171 0D        		.byte	0xd
 282 0172 5801 0000 		.long	0x158
 283 0176 01        		.byte	0x1
 284 0177 05        		.byte	0x5
 285 0178 03        		.byte	0x3
GAS LISTING D:\DOCUME~1\alex\LOCALS~1\Temp/cc0xZShb.s 			page 6


 286 0179 0000 0000 		.long	powersupply
 287 017d 0E        		.uleb128 0xe
 288 017e 6465 7600 		.string	"dev"
 289 0182 01        		.byte	0x1
 290 0183 0C        		.byte	0xc
 291 0184 2C00 0000 		.long	0x2c
 292 0188 01        		.byte	0x1
 293 0189 05        		.byte	0x5
 294 018a 03        		.byte	0x3
 295 018b 0000 0000 		.long	dev
 296 018f 00        		.byte	0x0
 297               		.section	.debug_abbrev
 298 0000 01        		.uleb128 0x1
 299 0001 11        		.uleb128 0x11
 300 0002 01        		.byte	0x1
 301 0003 25        		.uleb128 0x25
 302 0004 0E        		.uleb128 0xe
 303 0005 13        		.uleb128 0x13
 304 0006 0B        		.uleb128 0xb
 305 0007 03        		.uleb128 0x3
 306 0008 0E        		.uleb128 0xe
 307 0009 1B        		.uleb128 0x1b
 308 000a 0E        		.uleb128 0xe
 309 000b 11        		.uleb128 0x11
 310 000c 01        		.uleb128 0x1
 311 000d 12        		.uleb128 0x12
 312 000e 01        		.uleb128 0x1
 313 000f 10        		.uleb128 0x10
 314 0010 06        		.uleb128 0x6
 315 0011 00        		.byte	0x0
 316 0012 00        		.byte	0x0
 317 0013 02        		.uleb128 0x2
 318 0014 24        		.uleb128 0x24
 319 0015 00        		.byte	0x0
 320 0016 0B        		.uleb128 0xb
 321 0017 0B        		.uleb128 0xb
 322 0018 3E        		.uleb128 0x3e
 323 0019 0B        		.uleb128 0xb
 324 001a 03        		.uleb128 0x3
 325 001b 0E        		.uleb128 0xe
 326 001c 00        		.byte	0x0
 327 001d 00        		.byte	0x0
 328 001e 03        		.uleb128 0x3
 329 001f 16        		.uleb128 0x16
 330 0020 00        		.byte	0x0
 331 0021 03        		.uleb128 0x3
 332 0022 0E        		.uleb128 0xe
 333 0023 3A        		.uleb128 0x3a
 334 0024 0B        		.uleb128 0xb
 335 0025 3B        		.uleb128 0x3b
 336 0026 0B        		.uleb128 0xb
 337 0027 49        		.uleb128 0x49
 338 0028 13        		.uleb128 0x13
 339 0029 00        		.byte	0x0
 340 002a 00        		.byte	0x0
 341 002b 04        		.uleb128 0x4
 342 002c 24        		.uleb128 0x24
GAS LISTING D:\DOCUME~1\alex\LOCALS~1\Temp/cc0xZShb.s 			page 7


 343 002d 00        		.byte	0x0
 344 002e 0B        		.uleb128 0xb
 345 002f 0B        		.uleb128 0xb
 346 0030 3E        		.uleb128 0x3e
 347 0031 0B        		.uleb128 0xb
 348 0032 03        		.uleb128 0x3
 349 0033 08        		.uleb128 0x8
 350 0034 00        		.byte	0x0
 351 0035 00        		.byte	0x0
 352 0036 05        		.uleb128 0x5
 353 0037 24        		.uleb128 0x24
 354 0038 00        		.byte	0x0
 355 0039 0B        		.uleb128 0xb
 356 003a 0B        		.uleb128 0xb
 357 003b 3E        		.uleb128 0x3e
 358 003c 0B        		.uleb128 0xb
 359 003d 00        		.byte	0x0
 360 003e 00        		.byte	0x0
 361 003f 06        		.uleb128 0x6
 362 0040 13        		.uleb128 0x13
 363 0041 01        		.byte	0x1
 364 0042 0B        		.uleb128 0xb
 365 0043 0B        		.uleb128 0xb
 366 0044 3A        		.uleb128 0x3a
 367 0045 0B        		.uleb128 0xb
 368 0046 3B        		.uleb128 0x3b
 369 0047 0B        		.uleb128 0xb
 370 0048 01        		.uleb128 0x1
 371 0049 13        		.uleb128 0x13
 372 004a 00        		.byte	0x0
 373 004b 00        		.byte	0x0
 374 004c 07        		.uleb128 0x7
 375 004d 0D        		.uleb128 0xd
 376 004e 00        		.byte	0x0
 377 004f 03        		.uleb128 0x3
 378 0050 0E        		.uleb128 0xe
 379 0051 3A        		.uleb128 0x3a
 380 0052 0B        		.uleb128 0xb
 381 0053 3B        		.uleb128 0x3b
 382 0054 0B        		.uleb128 0xb
 383 0055 49        		.uleb128 0x49
 384 0056 13        		.uleb128 0x13
 385 0057 38        		.uleb128 0x38
 386 0058 0A        		.uleb128 0xa
 387 0059 00        		.byte	0x0
 388 005a 00        		.byte	0x0
 389 005b 08        		.uleb128 0x8
 390 005c 2E        		.uleb128 0x2e
 391 005d 01        		.byte	0x1
 392 005e 3F        		.uleb128 0x3f
 393 005f 0C        		.uleb128 0xc
 394 0060 03        		.uleb128 0x3
 395 0061 0E        		.uleb128 0xe
 396 0062 3A        		.uleb128 0x3a
 397 0063 0B        		.uleb128 0xb
 398 0064 3B        		.uleb128 0x3b
 399 0065 0B        		.uleb128 0xb
GAS LISTING D:\DOCUME~1\alex\LOCALS~1\Temp/cc0xZShb.s 			page 8


 400 0066 27        		.uleb128 0x27
 401 0067 0C        		.uleb128 0xc
 402 0068 49        		.uleb128 0x49
 403 0069 13        		.uleb128 0x13
 404 006a 11        		.uleb128 0x11
 405 006b 01        		.uleb128 0x1
 406 006c 12        		.uleb128 0x12
 407 006d 01        		.uleb128 0x1
 408 006e 40        		.uleb128 0x40
 409 006f 0A        		.uleb128 0xa
 410 0070 01        		.uleb128 0x1
 411 0071 13        		.uleb128 0x13
 412 0072 00        		.byte	0x0
 413 0073 00        		.byte	0x0
 414 0074 09        		.uleb128 0x9
 415 0075 34        		.uleb128 0x34
 416 0076 00        		.byte	0x0
 417 0077 03        		.uleb128 0x3
 418 0078 0E        		.uleb128 0xe
 419 0079 3A        		.uleb128 0x3a
 420 007a 0B        		.uleb128 0xb
 421 007b 3B        		.uleb128 0x3b
 422 007c 0B        		.uleb128 0xb
 423 007d 49        		.uleb128 0x49
 424 007e 13        		.uleb128 0x13
 425 007f 00        		.byte	0x0
 426 0080 00        		.byte	0x0
 427 0081 0A        		.uleb128 0xa
 428 0082 34        		.uleb128 0x34
 429 0083 00        		.byte	0x0
 430 0084 03        		.uleb128 0x3
 431 0085 08        		.uleb128 0x8
 432 0086 3A        		.uleb128 0x3a
 433 0087 0B        		.uleb128 0xb
 434 0088 3B        		.uleb128 0x3b
 435 0089 0B        		.uleb128 0xb
 436 008a 49        		.uleb128 0x49
 437 008b 13        		.uleb128 0x13
 438 008c 00        		.byte	0x0
 439 008d 00        		.byte	0x0
 440 008e 0B        		.uleb128 0xb
 441 008f 01        		.uleb128 0x1
 442 0090 01        		.byte	0x1
 443 0091 49        		.uleb128 0x49
 444 0092 13        		.uleb128 0x13
 445 0093 01        		.uleb128 0x1
 446 0094 13        		.uleb128 0x13
 447 0095 00        		.byte	0x0
 448 0096 00        		.byte	0x0
 449 0097 0C        		.uleb128 0xc
 450 0098 21        		.uleb128 0x21
 451 0099 00        		.byte	0x0
 452 009a 49        		.uleb128 0x49
 453 009b 13        		.uleb128 0x13
 454 009c 2F        		.uleb128 0x2f
 455 009d 0B        		.uleb128 0xb
 456 009e 00        		.byte	0x0
GAS LISTING D:\DOCUME~1\alex\LOCALS~1\Temp/cc0xZShb.s 			page 9


 457 009f 00        		.byte	0x0
 458 00a0 0D        		.uleb128 0xd
 459 00a1 34        		.uleb128 0x34
 460 00a2 00        		.byte	0x0
 461 00a3 03        		.uleb128 0x3
 462 00a4 0E        		.uleb128 0xe
 463 00a5 3A        		.uleb128 0x3a
 464 00a6 0B        		.uleb128 0xb
 465 00a7 3B        		.uleb128 0x3b
 466 00a8 0B        		.uleb128 0xb
 467 00a9 49        		.uleb128 0x49
 468 00aa 13        		.uleb128 0x13
 469 00ab 3F        		.uleb128 0x3f
 470 00ac 0C        		.uleb128 0xc
 471 00ad 02        		.uleb128 0x2
 472 00ae 0A        		.uleb128 0xa
 473 00af 00        		.byte	0x0
 474 00b0 00        		.byte	0x0
 475 00b1 0E        		.uleb128 0xe
 476 00b2 34        		.uleb128 0x34
 477 00b3 00        		.byte	0x0
 478 00b4 03        		.uleb128 0x3
 479 00b5 08        		.uleb128 0x8
 480 00b6 3A        		.uleb128 0x3a
 481 00b7 0B        		.uleb128 0xb
 482 00b8 3B        		.uleb128 0x3b
 483 00b9 0B        		.uleb128 0xb
 484 00ba 49        		.uleb128 0x49
 485 00bb 13        		.uleb128 0x13
 486 00bc 3F        		.uleb128 0x3f
 487 00bd 0C        		.uleb128 0xc
 488 00be 02        		.uleb128 0x2
 489 00bf 0A        		.uleb128 0xa
 490 00c0 00        		.byte	0x0
 491 00c1 00        		.byte	0x0
 492 00c2 00        		.byte	0x0
 493               		.section	.debug_pubnames,"",@progbits
 494 0000 2F00 0000 		.long	0x2f
 495 0004 0200      		.word	0x2
 496 0006 0000 0000 		.long	.Ldebug_info0
 497 000a 9001 0000 		.long	0x190
 498 000e 0401 0000 		.long	0x104
 499 0012 6D61 696E 		.string	"main"
 499      00
 500 0017 6B01 0000 		.long	0x16b
 501 001b 706F 7765 		.string	"powersupply"
 501      7273 7570 
 501      706C 7900 
 502 0027 7D01 0000 		.long	0x17d
 503 002b 6465 7600 		.string	"dev"
 504 002f 0000 0000 		.long	0x0
 505               		.section	.debug_aranges,"",@progbits
 506 0000 1C00 0000 		.long	0x1c
 507 0004 0200      		.word	0x2
 508 0006 0000 0000 		.long	.Ldebug_info0
 509 000a 04        		.byte	0x4
 510 000b 00        		.byte	0x0
GAS LISTING D:\DOCUME~1\alex\LOCALS~1\Temp/cc0xZShb.s 			page 10


 511 000c 0000      		.word	0x0
 512 000e 0000      		.word	0x0
 513 0010 0000 0000 		.long	.Ltext0
 514 0014 3C00 0000 		.long	.Letext0-.Ltext0
 515 0018 0000 0000 		.long	0x0
 516 001c 0000 0000 		.long	0x0
 517               		.section	.debug_line
 518 0000 8E00 0000 		.long	.LELT0-.LSLT0
 519               	.LSLT0:
 520 0004 0200      		.word	0x2
 521 0006 5E00 0000 		.long	.LELTP0-.LASLTP0
 522               	.LASLTP0:
 523 000a 01        		.byte	0x1
 524 000b 01        		.byte	0x1
 525 000c F6        		.byte	0xf6
 526 000d F5        		.byte	0xf5
 527 000e 0A        		.byte	0xa
 528 000f 00        		.byte	0x0
 529 0010 01        		.byte	0x1
 530 0011 01        		.byte	0x1
 531 0012 01        		.byte	0x1
 532 0013 01        		.byte	0x1
 533 0014 00        		.byte	0x0
 534 0015 00        		.byte	0x0
 535 0016 00        		.byte	0x0
 536 0017 01        		.byte	0x1
 537 0018 653A 2F77 		.ascii	"e:/winavr-20071221rc1/bin/../avr/include"
 537      696E 6176 
 537      722D 3230 
 537      3037 3132 
 537      3231 7263 
 538 0040 00        		.byte	0
 539 0041 00        		.byte	0x0
 540 0042 6D61 696E 		.string	"main.c"
 540      2E63 00
 541 0049 00        		.uleb128 0x0
 542 004a 00        		.uleb128 0x0
 543 004b 00        		.uleb128 0x0
 544 004c 6876 5F73 		.string	"hv_supply.h"
 544      7570 706C 
 544      792E 6800 
 545 0058 00        		.uleb128 0x0
 546 0059 00        		.uleb128 0x0
 547 005a 00        		.uleb128 0x0
 548 005b 7374 6469 		.string	"stdint.h"
 548      6E74 2E68 
 548      00
 549 0064 01        		.uleb128 0x1
 550 0065 00        		.uleb128 0x0
 551 0066 00        		.uleb128 0x0
 552 0067 00        		.byte	0x0
 553               	.LELTP0:
 554 0068 00        		.byte	0x0
 555 0069 05        		.uleb128 0x5
 556 006a 02        		.byte	0x2
 557 006b 0000 0000 		.long	.LM1
 558 006f 24        		.byte	0x24
GAS LISTING D:\DOCUME~1\alex\LOCALS~1\Temp/cc0xZShb.s 			page 11


 559 0070 00        		.byte	0x0
 560 0071 05        		.uleb128 0x5
 561 0072 02        		.byte	0x2
 562 0073 0000 0000 		.long	.LM2
 563 0077 18        		.byte	0x18
 564 0078 00        		.byte	0x0
 565 0079 05        		.uleb128 0x5
 566 007a 02        		.byte	0x2
 567 007b 0000 0000 		.long	.LM3
 568 007f 1B        		.byte	0x1b
 569 0080 00        		.byte	0x0
 570 0081 05        		.uleb128 0x5
 571 0082 02        		.byte	0x2
 572 0083 0000 0000 		.long	.LM4
 573 0087 1C        		.byte	0x1c
 574 0088 00        		.byte	0x0
 575 0089 05        		.uleb128 0x5
 576 008a 02        		.byte	0x2
 577 008b 0000 0000 		.long	.Letext0
 578 008f 00        		.byte	0x0
 579 0090 01        		.uleb128 0x1
 580 0091 01        		.byte	0x1
 581               	.LELT0:
 582 0092 1900 0000 		.section	.debug_str,"MS",@progbits,1
 582      0200 1300 
 582      0000 0101 
 582      FB0E 0D00 
 582      0101 0101 
 583               	.LASF19:
 584 0000 7374 6172 		.string	"start"
 584      7400 
 585               	.LASF18:
 586 0006 7374 725F 		.string	"str_powersupply"
 586      706F 7765 
 586      7273 7570 
 586      706C 7900 
 587               	.LASF21:
 588 0016 7374 6570 		.string	"step"
 588      00
 589               	.LASF24:
 590 001b 474E 5520 		.string	"GNU C 4.2.2 (WinAVR 20071221rc1)"
 590      4320 342E 
 590      322E 3220 
 590      2857 696E 
 590      4156 5220 
 591               	.LASF15:
 592 003c 656E 6162 		.string	"enable"
 592      6C65 00
 593               	.LASF10:
 594 0043 7377 7374 		.string	"swstart"
 594      6172 7400 
 595               	.LASF22:
 596 004b 6465 6C61 		.string	"delay"
 596      7900 
 597               	.LASF12:
 598 0051 7377 7374 		.string	"swstep"
 598      6570 00
GAS LISTING D:\DOCUME~1\alex\LOCALS~1\Temp/cc0xZShb.s 			page 12


 599               	.LASF1:
 600 0058 756E 7369 		.string	"unsigned char"
 600      676E 6564 
 600      2063 6861 
 600      7200 
 601               	.LASF26:
 602 0066 453A 5C61 		.string	"E:\\avr\\test"
 602      7672 5C74 
 602      6573 7400 
 603               	.LASF4:
 604 0072 6C6F 6E67 		.string	"long unsigned int"
 604      2075 6E73 
 604      6967 6E65 
 604      6420 696E 
 604      7400 
 605               	.LASF7:
 606 0084 766F 6C74 		.string	"voltage"
 606      6167 6500 
 607               	.LASF20:
 608 008c 7374 6F70 		.string	"stop"
 608      00
 609               	.LASF14:
 610 0091 7377 7469 		.string	"swtime"
 610      6D65 00
 611               	.LASF16:
 612 0098 646F 7562 		.string	"double"
 612      6C65 00
 613               	.LASF27:
 614 009f 6D61 696E 		.string	"main"
 614      00
 615               	.LASF2:
 616 00a4 756E 7369 		.string	"unsigned int"
 616      676E 6564 
 616      2069 6E74 
 616      00
 617               	.LASF11:
 618 00b1 7377 7374 		.string	"swstop"
 618      6F70 00
 619               	.LASF6:
 620 00b8 6C6F 6E67 		.string	"long long unsigned int"
 620      206C 6F6E 
 620      6720 756E 
 620      7369 676E 
 620      6564 2069 
 621               	.LASF17:
 622 00cf 7569 6E74 		.string	"uint8_t"
 622      385F 7400 
 623               	.LASF9:
 624 00d7 6D6F 6465 		.string	"mode"
 624      00
 625               	.LASF5:
 626 00dc 6C6F 6E67 		.string	"long long int"
 626      206C 6F6E 
 626      6720 696E 
 626      7400 
 627               	.LASF25:
 628 00ea 6D61 696E 		.string	"main.c"
GAS LISTING D:\DOCUME~1\alex\LOCALS~1\Temp/cc0xZShb.s 			page 13


 628      2E63 00
 629               	.LASF8:
 630 00f1 6375 7272 		.string	"current"
 630      656E 7400 
 631               	.LASF3:
 632 00f9 6C6F 6E67 		.string	"long int"
 632      2069 6E74 
 632      00
 633               	.LASF0:
 634 0102 7369 676E 		.string	"signed char"
 634      6564 2063 
 634      6861 7200 
 635               	.LASF13:
 636 010e 7377 7479 		.string	"swtype"
 636      7065 00
 637               	.LASF23:
 638 0115 706F 7765 		.string	"powersupply"
 638      7273 7570 
 638      706C 7900 
 639               	/* File "main.c": code   31 = 0x001f (  30), prologues   0, epilogues   1 */
GAS LISTING D:\DOCUME~1\alex\LOCALS~1\Temp/cc0xZShb.s 			page 14


DEFINED SYMBOLS
                            *ABS*:00000000 main.c
D:\DOCUME~1\alex\LOCALS~1\Temp/cc0xZShb.s:2      *ABS*:0000003f __SREG__
D:\DOCUME~1\alex\LOCALS~1\Temp/cc0xZShb.s:3      *ABS*:0000003e __SP_H__
D:\DOCUME~1\alex\LOCALS~1\Temp/cc0xZShb.s:4      *ABS*:0000003d __SP_L__
D:\DOCUME~1\alex\LOCALS~1\Temp/cc0xZShb.s:5      *ABS*:00000000 __tmp_reg__
D:\DOCUME~1\alex\LOCALS~1\Temp/cc0xZShb.s:6      *ABS*:00000001 __zero_reg__
D:\DOCUME~1\alex\LOCALS~1\Temp/cc0xZShb.s:19     .text:00000000 main
                            *COM*:00000001 dev
                            *COM*:0000006c powersupply

UNDEFINED SYMBOLS
__do_copy_data
__do_clear_bss
__ltsf2
