GAS LISTING D:\DOCUME~1\alex\LOCALS~1\Temp/ccoSPUC8.s 			page 1


   1               		.file	"lcd.c"
   2               	__SREG__ = 0x3f
   3               	__SP_H__ = 0x3e
   4               	__SP_L__ = 0x3d
   5               	__tmp_reg__ = 0
   6               	__zero_reg__ = 1
   7               		.global __do_copy_data
   8               		.global __do_clear_bss
   9               		.section	.debug_abbrev,"",@progbits
  10               	.Ldebug_abbrev0:
  11               		.section	.debug_info,"",@progbits
  12               	.Ldebug_info0:
  13               		.section	.debug_line,"",@progbits
  14               	.Ldebug_line0:
  15               		.text
  16               	.Ltext0:
  17               		.type	toggle_e, @function
  18               	toggle_e:
  19               	.LFB3:
  20               	.LM1:
  21               	/* prologue: frame size=0 */
  22               	/* prologue end (size=0) */
  23               	.LM2:
  24 0000 939A      		sbi 50-0x20,3
  25               	.LM3:
  26               	/* #APP */
  27 0002 00C0      		rjmp 1f
  28               	 1:
  29               	.LM4:
  30               	/* #NOAPP */
  31 0004 9398      		cbi 50-0x20,3
  32               	/* epilogue: frame size=0 */
  33 0006 0895      		ret
  34               	/* epilogue end (size=1) */
  35               	/* function toggle_e size 7 (6) */
  36               	.LFE3:
  37               		.size	toggle_e, .-toggle_e
  38               		.type	lcd_write, @function
  39               	lcd_write:
  40               	.LFB4:
  41               	.LM5:
  42               	/* prologue: frame size=0 */
  43 0008 CF93      		push r28
  44 000a DF93      		push r29
  45               	/* prologue end (size=2) */
  46               	.LVL0:
  47               	.LM6:
  48 000c 6623      		tst r22
  49 000e 01F0      		breq .L4
  50               	.LM7:
  51 0010 979A      		sbi 50-0x20,7
  52 0012 00C0      		rjmp .L6
  53               	.L4:
  54               	.LM8:
  55 0014 9798      		cbi 50-0x20,7
  56               	.L6:
  57               	.LM9:
GAS LISTING D:\DOCUME~1\alex\LOCALS~1\Temp/ccoSPUC8.s 			page 2


  58 0016 9598      		cbi 50-0x20,5
  59               	.LM10:
  60 0018 889A      		sbi 49-0x20,0
  61               	.LM11:
  62 001a 8A9A      		sbi 49-0x20,2
  63               	.LM12:
  64 001c 8C9A      		sbi 49-0x20,4
  65               	.LM13:
  66 001e 8E9A      		sbi 49-0x20,6
  67               	.LM14:
  68 0020 9698      		cbi 50-0x20,6
  69               	.LM15:
  70 0022 9498      		cbi 50-0x20,4
  71               	.LM16:
  72 0024 9298      		cbi 50-0x20,2
  73               	.LM17:
  74 0026 9098      		cbi 50-0x20,0
  75               	.LM18:
  76 0028 87FD      		sbrc r24,7
  77 002a 969A      		sbi 50-0x20,6
  78               	.L7:
  79               	.LM19:
  80 002c C82F      		mov r28,r24
  81 002e 86FD      		sbrc r24,6
  82               	.LVL1:
  83 0030 949A      		sbi 50-0x20,4
  84               	.L9:
  85               	.LM20:
  86 0032 C5FD      		sbrc r28,5
  87 0034 929A      		sbi 50-0x20,2
  88               	.L11:
  89               	.LM21:
  90 0036 C4FD      		sbrc r28,4
  91 0038 909A      		sbi 50-0x20,0
  92               	.L13:
  93               	.LM22:
  94 003a 00D0      		rcall toggle_e
  95               	.LVL2:
  96               	.LM23:
  97 003c 9698      		cbi 50-0x20,6
  98               	.LM24:
  99 003e 9498      		cbi 50-0x20,4
 100               	.LM25:
 101 0040 9298      		cbi 50-0x20,2
 102               	.LM26:
 103 0042 9098      		cbi 50-0x20,0
 104               	.LM27:
 105 0044 C3FD      		sbrc r28,3
 106 0046 969A      		sbi 50-0x20,6
 107               	.L15:
 108               	.LM28:
 109 0048 C2FD      		sbrc r28,2
 110 004a 949A      		sbi 50-0x20,4
 111               	.L17:
 112               	.LM29:
 113 004c C1FD      		sbrc r28,1
 114 004e 929A      		sbi 50-0x20,2
GAS LISTING D:\DOCUME~1\alex\LOCALS~1\Temp/ccoSPUC8.s 			page 3


 115               	.L19:
 116               	.LM30:
 117 0050 C0FD      		sbrc r28,0
 118 0052 909A      		sbi 50-0x20,0
 119               	.L21:
 120               	.LM31:
 121 0054 00D0      		rcall toggle_e
 122               	.LM32:
 123 0056 909A      		sbi 50-0x20,0
 124               	.LM33:
 125 0058 929A      		sbi 50-0x20,2
 126               	.LM34:
 127 005a 949A      		sbi 50-0x20,4
 128               	.LM35:
 129 005c 969A      		sbi 50-0x20,6
 130               	/* epilogue: frame size=0 */
 131 005e DF91      		pop r29
 132 0060 CF91      		pop r28
 133 0062 0895      		ret
 134               	/* epilogue end (size=3) */
 135               	/* function lcd_write size 54 (49) */
 136               	.LFE4:
 137               		.size	lcd_write, .-lcd_write
 138               		.type	lcd_read, @function
 139               	lcd_read:
 140               	.LFB5:
 141               	.LM36:
 142               	/* prologue: frame size=0 */
 143               	/* prologue end (size=0) */
 144               	.LVL3:
 145               	.LM37:
 146 0064 8823      		tst r24
 147 0066 01F0      		breq .L25
 148               	.LM38:
 149 0068 979A      		sbi 50-0x20,7
 150 006a 00C0      		rjmp .L27
 151               	.L25:
 152               	.LM39:
 153 006c 9798      		cbi 50-0x20,7
 154               	.L27:
 155               	.LM40:
 156 006e 959A      		sbi 50-0x20,5
 157               	.LM41:
 158 0070 8898      		cbi 49-0x20,0
 159               	.LM42:
 160 0072 8A98      		cbi 49-0x20,2
 161               	.LM43:
 162 0074 8C98      		cbi 49-0x20,4
 163               	.LM44:
 164 0076 8E98      		cbi 49-0x20,6
 165               	.LM45:
 166 0078 939A      		sbi 50-0x20,3
 167               	.LM46:
 168               	/* #APP */
 169 007a 00C0      		rjmp 1f
 170               	 1:
 171               	.LM47:
GAS LISTING D:\DOCUME~1\alex\LOCALS~1\Temp/ccoSPUC8.s 			page 4


 172               	/* #NOAPP */
 173 007c 809B      		sbis 48-0x20,0
 174 007e 00C0      		rjmp .L28
 175 0080 80E1      		ldi r24,lo8(16)
 176               	.LVL4:
 177 0082 00C0      		rjmp .L30
 178               	.LVL5:
 179               	.L28:
 180 0084 80E0      		ldi r24,lo8(0)
 181               	.LVL6:
 182               	.L30:
 183               	.LM48:
 184 0086 8299      		sbic 48-0x20,2
 185 0088 8062      		ori r24,lo8(32)
 186               	.L31:
 187               	.LM49:
 188 008a 8499      		sbic 48-0x20,4
 189 008c 8064      		ori r24,lo8(64)
 190               	.L33:
 191               	.LM50:
 192 008e 8699      		sbic 48-0x20,6
 193 0090 8068      		ori r24,lo8(-128)
 194               	.L35:
 195               	.LM51:
 196 0092 9398      		cbi 50-0x20,3
 197               	.LM52:
 198               	/* #APP */
 199 0094 00C0      		rjmp 1f
 200               	 1:
 201               	.LM53:
 202               	/* #NOAPP */
 203 0096 939A      		sbi 50-0x20,3
 204               	.LM54:
 205               	/* #APP */
 206 0098 00C0      		rjmp 1f
 207               	 1:
 208               	.LM55:
 209               	/* #NOAPP */
 210 009a 8099      		sbic 48-0x20,0
 211 009c 8160      		ori r24,lo8(1)
 212               	.L37:
 213               	.LM56:
 214 009e 8299      		sbic 48-0x20,2
 215 00a0 8260      		ori r24,lo8(2)
 216               	.L39:
 217               	.LM57:
 218 00a2 8499      		sbic 48-0x20,4
 219 00a4 8460      		ori r24,lo8(4)
 220               	.L41:
 221               	.LM58:
 222 00a6 8699      		sbic 48-0x20,6
 223 00a8 8860      		ori r24,lo8(8)
 224               	.L43:
 225               	.LM59:
 226 00aa 9398      		cbi 50-0x20,3
 227               	.LM60:
 228 00ac 90E0      		ldi r25,lo8(0)
GAS LISTING D:\DOCUME~1\alex\LOCALS~1\Temp/ccoSPUC8.s 			page 5


 229               	.LVL7:
 230               	/* epilogue: frame size=0 */
 231 00ae 0895      		ret
 232               	/* epilogue end (size=1) */
 233               	/* function lcd_read size 54 (53) */
 234               	.LFE5:
 235               		.size	lcd_read, .-lcd_read
 236               		.type	lcd_waitbusy, @function
 237               	lcd_waitbusy:
 238               	.LFB6:
 239               	.LM61:
 240               	/* prologue: frame size=0 */
 241               	/* prologue end (size=0) */
 242               	.L48:
 243               	.LM62:
 244 00b0 80E0      		ldi r24,lo8(0)
 245 00b2 00D0      		rcall lcd_read
 246 00b4 87FD      		sbrc r24,7
 247 00b6 00C0      		rjmp .L48
 248               	.LBB4:
 249               	.LBB5:
 250               	.LM63:
 251 00b8 81E0      		ldi r24,lo8(1)
 252 00ba 90E0      		ldi r25,hi8(1)
 253               	.LVL8:
 254               	/* #APP */
 255 00bc 0197      		1: sbiw r24,1
 256 00be 01F4      		brne 1b
 257               	/* #NOAPP */
 258               	.LBE5:
 259               	.LBE4:
 260               	.LM64:
 261 00c0 80E0      		ldi r24,lo8(0)
 262               	.LVL9:
 263 00c2 00D0      		rcall lcd_read
 264               	.LM65:
 265 00c4 90E0      		ldi r25,lo8(0)
 266               	/* epilogue: frame size=0 */
 267 00c6 0895      		ret
 268               	/* epilogue end (size=1) */
 269               	/* function lcd_waitbusy size 14 (13) */
 270               	.LFE6:
 271               		.size	lcd_waitbusy, .-lcd_waitbusy
 272               	.global	lcd_backlight
 273               		.type	lcd_backlight, @function
 274               	lcd_backlight:
 275               	.LFB8:
 276               	.LM66:
 277               	/* prologue: frame size=0 */
 278               	/* prologue end (size=0) */
 279               	.LVL10:
 280               	.LM67:
 281 00c8 8130      		cpi r24,lo8(1)
 282 00ca 01F4      		brne .L54
 283               	.LM68:
 284 00cc 919A      		sbi 50-0x20,1
 285 00ce 0895      		ret
GAS LISTING D:\DOCUME~1\alex\LOCALS~1\Temp/ccoSPUC8.s 			page 6


 286               	.L54:
 287               	.LM69:
 288 00d0 9198      		cbi 50-0x20,1
 289 00d2 0895      		ret
 290               	/* epilogue: frame size=0 */
 291               	/* epilogue: noreturn */
 292               	/* epilogue end (size=0) */
 293               	/* function lcd_backlight size 6 (6) */
 294               	.LFE8:
 295               		.size	lcd_backlight, .-lcd_backlight
 296               	.global	lcd_command
 297               		.type	lcd_command, @function
 298               	lcd_command:
 299               	.LFB9:
 300               	.LM70:
 301               	/* prologue: frame size=0 */
 302 00d4 1F93      		push r17
 303               	/* prologue end (size=1) */
 304               	.LVL11:
 305 00d6 182F      		mov r17,r24
 306               	.LM71:
 307 00d8 00D0      		rcall lcd_waitbusy
 308               	.LVL12:
 309               	.LM72:
 310 00da 60E0      		ldi r22,lo8(0)
 311 00dc 812F      		mov r24,r17
 312 00de 00D0      		rcall lcd_write
 313               	/* epilogue: frame size=0 */
 314 00e0 1F91      		pop r17
 315 00e2 0895      		ret
 316               	/* epilogue end (size=2) */
 317               	/* function lcd_command size 8 (5) */
 318               	.LFE9:
 319               		.size	lcd_command, .-lcd_command
 320               	.global	lcd_data
 321               		.type	lcd_data, @function
 322               	lcd_data:
 323               	.LFB10:
 324               	.LM73:
 325               	/* prologue: frame size=0 */
 326 00e4 1F93      		push r17
 327               	/* prologue end (size=1) */
 328               	.LVL13:
 329 00e6 182F      		mov r17,r24
 330               	.LM74:
 331 00e8 00D0      		rcall lcd_waitbusy
 332               	.LVL14:
 333               	.LM75:
 334 00ea 61E0      		ldi r22,lo8(1)
 335 00ec 812F      		mov r24,r17
 336 00ee 00D0      		rcall lcd_write
 337               	/* epilogue: frame size=0 */
 338 00f0 1F91      		pop r17
 339 00f2 0895      		ret
 340               	/* epilogue end (size=2) */
 341               	/* function lcd_data size 8 (5) */
 342               	.LFE10:
GAS LISTING D:\DOCUME~1\alex\LOCALS~1\Temp/ccoSPUC8.s 			page 7


 343               		.size	lcd_data, .-lcd_data
 344               	.global	lcd_gotoxy
 345               		.type	lcd_gotoxy, @function
 346               	lcd_gotoxy:
 347               	.LFB11:
 348               	.LM76:
 349               	/* prologue: frame size=0 */
 350               	/* prologue end (size=0) */
 351               	.LVL15:
 352               	.LM77:
 353 00f4 6623      		tst r22
 354 00f6 01F4      		brne .L63
 355               	.LM78:
 356 00f8 8058      		subi r24,lo8(-(-128))
 357               	.LVL16:
 358 00fa 00C0      		rjmp .L67
 359               	.LVL17:
 360               	.L63:
 361               	.LM79:
 362 00fc 8054      		subi r24,lo8(-(-64))
 363               	.LVL18:
 364               	.L67:
 365 00fe 00D0      		rcall lcd_command
 366               	.LVL19:
 367 0100 0895      		ret
 368               	/* epilogue: frame size=0 */
 369               	/* epilogue: noreturn */
 370               	/* epilogue end (size=0) */
 371               	/* function lcd_gotoxy size 7 (7) */
 372               	.LFE11:
 373               		.size	lcd_gotoxy, .-lcd_gotoxy
 374               	.global	lcd_getxy
 375               		.type	lcd_getxy, @function
 376               	lcd_getxy:
 377               	.LFB12:
 378               	.LM80:
 379               	/* prologue: frame size=0 */
 380               	/* prologue end (size=0) */
 381               	.LM81:
 382 0102 00D0      		rcall lcd_waitbusy
 383               	.LM82:
 384 0104 90E0      		ldi r25,lo8(0)
 385               	/* epilogue: frame size=0 */
 386 0106 0895      		ret
 387               	/* epilogue end (size=1) */
 388               	/* function lcd_getxy size 3 (2) */
 389               	.LFE12:
 390               		.size	lcd_getxy, .-lcd_getxy
 391               	.global	lcd_clrscr
 392               		.type	lcd_clrscr, @function
 393               	lcd_clrscr:
 394               	.LFB13:
 395               	.LM83:
 396               	/* prologue: frame size=0 */
 397               	/* prologue end (size=0) */
 398               	.LM84:
 399 0108 81E0      		ldi r24,lo8(1)
GAS LISTING D:\DOCUME~1\alex\LOCALS~1\Temp/ccoSPUC8.s 			page 8


 400 010a 00D0      		rcall lcd_command
 401               	/* epilogue: frame size=0 */
 402 010c 0895      		ret
 403               	/* epilogue end (size=1) */
 404               	/* function lcd_clrscr size 3 (2) */
 405               	.LFE13:
 406               		.size	lcd_clrscr, .-lcd_clrscr
 407               	.global	lcd_home
 408               		.type	lcd_home, @function
 409               	lcd_home:
 410               	.LFB14:
 411               	.LM85:
 412               	/* prologue: frame size=0 */
 413               	/* prologue end (size=0) */
 414               	.LM86:
 415 010e 82E0      		ldi r24,lo8(2)
 416 0110 00D0      		rcall lcd_command
 417               	/* epilogue: frame size=0 */
 418 0112 0895      		ret
 419               	/* epilogue end (size=1) */
 420               	/* function lcd_home size 3 (2) */
 421               	.LFE14:
 422               		.size	lcd_home, .-lcd_home
 423               	.global	lcd_putc
 424               		.type	lcd_putc, @function
 425               	lcd_putc:
 426               	.LFB15:
 427               	.LM87:
 428               	/* prologue: frame size=0 */
 429 0114 1F93      		push r17
 430               	/* prologue end (size=1) */
 431               	.LVL20:
 432 0116 182F      		mov r17,r24
 433               	.LM88:
 434 0118 00D0      		rcall lcd_waitbusy
 435               	.LVL21:
 436               	.LM89:
 437 011a 1A30      		cpi r17,lo8(10)
 438 011c 01F4      		brne .L75
 439               	.LBB8:
 440               	.LBB9:
 441               	.LM90:
 442 011e 8034      		cpi r24,lo8(64)
 443               	.LVL22:
 444 0120 00F4      		brsh .L77
 445 0122 80E4      		ldi r24,lo8(64)
 446               	.LVL23:
 447 0124 00C0      		rjmp .L79
 448               	.LVL24:
 449               	.L77:
 450 0126 80E0      		ldi r24,lo8(0)
 451               	.LVL25:
 452               	.L79:
 453               	.LM91:
 454 0128 8058      		subi r24,lo8(-(-128))
 455               	.LVL26:
 456 012a 00D0      		rcall lcd_command
GAS LISTING D:\DOCUME~1\alex\LOCALS~1\Temp/ccoSPUC8.s 			page 9


 457 012c 00C0      		rjmp .L81
 458               	.L75:
 459               	.LBE9:
 460               	.LBE8:
 461               	.LM92:
 462 012e 61E0      		ldi r22,lo8(1)
 463 0130 812F      		mov r24,r17
 464 0132 00D0      		rcall lcd_write
 465               	.L81:
 466               	/* epilogue: frame size=0 */
 467 0134 1F91      		pop r17
 468 0136 0895      		ret
 469               	/* epilogue end (size=2) */
 470               	/* function lcd_putc size 18 (15) */
 471               	.LFE15:
 472               		.size	lcd_putc, .-lcd_putc
 473               	.global	lcd_puts
 474               		.type	lcd_puts, @function
 475               	lcd_puts:
 476               	.LFB16:
 477               	.LM93:
 478               	/* prologue: frame size=0 */
 479 0138 CF93      		push r28
 480 013a DF93      		push r29
 481               	/* prologue end (size=2) */
 482               	.LVL27:
 483 013c EC01      		movw r28,r24
 484 013e 00C0      		rjmp .L83
 485               	.LVL28:
 486               	.L84:
 487               	.LM94:
 488 0140 00D0      		rcall lcd_putc
 489               	.LVL29:
 490               	.L83:
 491               	.LM95:
 492 0142 8991      		ld r24,Y+
 493               	.LVL30:
 494 0144 8823      		tst r24
 495 0146 01F4      		brne .L84
 496               	/* epilogue: frame size=0 */
 497 0148 DF91      		pop r29
 498 014a CF91      		pop r28
 499 014c 0895      		ret
 500               	/* epilogue end (size=3) */
 501               	/* function lcd_puts size 11 (6) */
 502               	.LFE16:
 503               		.size	lcd_puts, .-lcd_puts
 504               	.global	lcd_puts_p
 505               		.type	lcd_puts_p, @function
 506               	lcd_puts_p:
 507               	.LFB17:
 508               	.LM96:
 509               	/* prologue: frame size=0 */
 510 014e CF93      		push r28
 511 0150 DF93      		push r29
 512               	/* prologue end (size=2) */
 513               	.LVL31:
GAS LISTING D:\DOCUME~1\alex\LOCALS~1\Temp/ccoSPUC8.s 			page 10


 514 0152 EC01      		movw r28,r24
 515 0154 00C0      		rjmp .L88
 516               	.LVL32:
 517               	.L89:
 518               	.LM97:
 519 0156 00D0      		rcall lcd_putc
 520               	.LVL33:
 521               	.L88:
 522 0158 FE01      		movw r30,r28
 523               	.LVL34:
 524               	.LBB10:
 525               	.LM98:
 526 015a 2196      		adiw r28,1
 527               	/* #APP */
 528 015c 8491      		lpm r24, Z
 529               		
 530               	.LVL35:
 531               	/* #NOAPP */
 532               	.LBE10:
 533 015e 8823      		tst r24
 534 0160 01F4      		brne .L89
 535               	/* epilogue: frame size=0 */
 536 0162 DF91      		pop r29
 537 0164 CF91      		pop r28
 538 0166 0895      		ret
 539               	/* epilogue end (size=3) */
 540               	/* function lcd_puts_p size 16 (11) */
 541               	.LFE17:
 542               		.size	lcd_puts_p, .-lcd_puts_p
 543               	.global	lcd_init
 544               		.type	lcd_init, @function
 545               	lcd_init:
 546               	.LFB18:
 547               	.LM99:
 548               	/* prologue: frame size=0 */
 549 0168 FF92      		push r15
 550 016a 0F93      		push r16
 551 016c 1F93      		push r17
 552               	/* prologue end (size=3) */
 553               	.LVL36:
 554 016e F82E      		mov r15,r24
 555               	.LM100:
 556 0170 8F9A      		sbi 49-0x20,7
 557               	.LM101:
 558 0172 8D9A      		sbi 49-0x20,5
 559               	.LM102:
 560 0174 8B9A      		sbi 49-0x20,3
 561               	.LM103:
 562 0176 889A      		sbi 49-0x20,0
 563               	.LM104:
 564 0178 8A9A      		sbi 49-0x20,2
 565               	.LM105:
 566 017a 8C9A      		sbi 49-0x20,4
 567               	.LM106:
 568 017c 8E9A      		sbi 49-0x20,6
 569               	.LBB21:
 570               	.LBB22:
GAS LISTING D:\DOCUME~1\alex\LOCALS~1\Temp/ccoSPUC8.s 			page 11


 571               	.LM107:
 572 017e 80E8      		ldi r24,lo8(14720)
 573 0180 99E3      		ldi r25,hi8(14720)
 574               	.LVL37:
 575               	/* #APP */
 576 0182 0197      		1: sbiw r24,1
 577 0184 01F4      		brne 1b
 578               	/* #NOAPP */
 579               	.LBE22:
 580               	.LBE21:
 581               	.LM108:
 582 0186 929A      		sbi 50-0x20,2
 583               	.LM109:
 584 0188 909A      		sbi 50-0x20,0
 585               	.LM110:
 586 018a 00D0      		rcall toggle_e
 587               	.LVL38:
 588               	.LBB23:
 589               	.LBB24:
 590               	.LM111:
 591 018c 80EF      		ldi r24,lo8(4592)
 592 018e 91E1      		ldi r25,hi8(4592)
 593               	.LVL39:
 594               	/* #APP */
 595 0190 0197      		1: sbiw r24,1
 596 0192 01F4      		brne 1b
 597               	/* #NOAPP */
 598               	.LBE24:
 599               	.LBE23:
 600               	.LM112:
 601 0194 00D0      		rcall toggle_e
 602               	.LVL40:
 603               	.LBB25:
 604               	.LBB26:
 605               	.LM113:
 606 0196 0AE3      		ldi r16,lo8(58)
 607 0198 10E0      		ldi r17,hi8(58)
 608 019a C801      		movw r24,r16
 609               	.LVL41:
 610               	/* #APP */
 611 019c 0197      		1: sbiw r24,1
 612 019e 01F4      		brne 1b
 613               	/* #NOAPP */
 614               	.LBE26:
 615               	.LBE25:
 616               	.LM114:
 617 01a0 00D0      		rcall toggle_e
 618               	.LVL42:
 619               	.LBB27:
 620               	.LBB28:
 621               	.LM115:
 622 01a2 C801      		movw r24,r16
 623               	.LVL43:
 624               	/* #APP */
 625 01a4 0197      		1: sbiw r24,1
 626 01a6 01F4      		brne 1b
 627               	/* #NOAPP */
GAS LISTING D:\DOCUME~1\alex\LOCALS~1\Temp/ccoSPUC8.s 			page 12


 628               	.LBE28:
 629               	.LBE27:
 630               	.LM116:
 631 01a8 9098      		cbi 50-0x20,0
 632               	.LM117:
 633 01aa 00D0      		rcall toggle_e
 634               	.LVL44:
 635               	.LBB29:
 636               	.LBB30:
 637               	.LM118:
 638 01ac C801      		movw r24,r16
 639               	/* #APP */
 640 01ae 0197      		1: sbiw r24,1
 641 01b0 01F4      		brne 1b
 642               	/* #NOAPP */
 643               	.LBE30:
 644               	.LBE29:
 645               	.LM119:
 646 01b2 88E2      		ldi r24,lo8(40)
 647 01b4 00D0      		rcall lcd_command
 648               	.LM120:
 649 01b6 88E0      		ldi r24,lo8(8)
 650 01b8 00D0      		rcall lcd_command
 651               	.LM121:
 652 01ba 00D0      		rcall lcd_clrscr
 653               	.LM122:
 654 01bc 86E0      		ldi r24,lo8(6)
 655 01be 00D0      		rcall lcd_command
 656               	.LM123:
 657 01c0 8F2D      		mov r24,r15
 658 01c2 00D0      		rcall lcd_command
 659               	/* epilogue: frame size=0 */
 660 01c4 1F91      		pop r17
 661 01c6 0F91      		pop r16
 662 01c8 FF90      		pop r15
 663 01ca 0895      		ret
 664               	/* epilogue end (size=4) */
 665               	/* function lcd_init size 60 (53) */
 666               	.LFE18:
 667               		.size	lcd_init, .-lcd_init
 668               		.section	.debug_frame,"",@progbits
 669               	.Lframe0:
 670 0000 0C00 0000 		.long	.LECIE0-.LSCIE0
 671               	.LSCIE0:
 672 0004 FFFF FFFF 		.long	0xffffffff
 673 0008 01        		.byte	0x1
 674 0009 00        		.string	""
 675 000a 01        		.uleb128 0x1
 676 000b 7F        		.sleb128 -1
 677 000c 24        		.byte	0x24
 678 000d 0C        		.byte	0xc
 679 000e 20        		.uleb128 0x20
 680 000f 00        		.uleb128 0x0
 681               		.p2align	2
 682               	.LECIE0:
 683               	.LSFDE0:
 684 0010 0C00 0000 		.long	.LEFDE0-.LASFDE0
GAS LISTING D:\DOCUME~1\alex\LOCALS~1\Temp/ccoSPUC8.s 			page 13


 685               	.LASFDE0:
 686 0014 0000 0000 		.long	.Lframe0
 687 0018 0000 0000 		.long	.LFB3
 688 001c 0800 0000 		.long	.LFE3-.LFB3
 689               		.p2align	2
 690               	.LEFDE0:
 691               	.LSFDE2:
 692 0020 0C00 0000 		.long	.LEFDE2-.LASFDE2
 693               	.LASFDE2:
 694 0024 0000 0000 		.long	.Lframe0
 695 0028 0000 0000 		.long	.LFB4
 696 002c 5C00 0000 		.long	.LFE4-.LFB4
 697               		.p2align	2
 698               	.LEFDE2:
 699               	.LSFDE4:
 700 0030 0C00 0000 		.long	.LEFDE4-.LASFDE4
 701               	.LASFDE4:
 702 0034 0000 0000 		.long	.Lframe0
 703 0038 0000 0000 		.long	.LFB5
 704 003c 4C00 0000 		.long	.LFE5-.LFB5
 705               		.p2align	2
 706               	.LEFDE4:
 707               	.LSFDE6:
 708 0040 0C00 0000 		.long	.LEFDE6-.LASFDE6
 709               	.LASFDE6:
 710 0044 0000 0000 		.long	.Lframe0
 711 0048 0000 0000 		.long	.LFB6
 712 004c 1800 0000 		.long	.LFE6-.LFB6
 713               		.p2align	2
 714               	.LEFDE6:
 715               	.LSFDE8:
 716 0050 0C00 0000 		.long	.LEFDE8-.LASFDE8
 717               	.LASFDE8:
 718 0054 0000 0000 		.long	.Lframe0
 719 0058 0000 0000 		.long	.LFB8
 720 005c 0C00 0000 		.long	.LFE8-.LFB8
 721               		.p2align	2
 722               	.LEFDE8:
 723               	.LSFDE10:
 724 0060 0C00 0000 		.long	.LEFDE10-.LASFDE10
 725               	.LASFDE10:
 726 0064 0000 0000 		.long	.Lframe0
 727 0068 0000 0000 		.long	.LFB9
 728 006c 1000 0000 		.long	.LFE9-.LFB9
 729               		.p2align	2
 730               	.LEFDE10:
 731               	.LSFDE12:
 732 0070 0C00 0000 		.long	.LEFDE12-.LASFDE12
 733               	.LASFDE12:
 734 0074 0000 0000 		.long	.Lframe0
 735 0078 0000 0000 		.long	.LFB10
 736 007c 1000 0000 		.long	.LFE10-.LFB10
 737               		.p2align	2
 738               	.LEFDE12:
 739               	.LSFDE14:
 740 0080 0C00 0000 		.long	.LEFDE14-.LASFDE14
 741               	.LASFDE14:
GAS LISTING D:\DOCUME~1\alex\LOCALS~1\Temp/ccoSPUC8.s 			page 14


 742 0084 0000 0000 		.long	.Lframe0
 743 0088 0000 0000 		.long	.LFB11
 744 008c 0E00 0000 		.long	.LFE11-.LFB11
 745               		.p2align	2
 746               	.LEFDE14:
 747               	.LSFDE16:
 748 0090 0C00 0000 		.long	.LEFDE16-.LASFDE16
 749               	.LASFDE16:
 750 0094 0000 0000 		.long	.Lframe0
 751 0098 0000 0000 		.long	.LFB12
 752 009c 0600 0000 		.long	.LFE12-.LFB12
 753               		.p2align	2
 754               	.LEFDE16:
 755               	.LSFDE18:
 756 00a0 0C00 0000 		.long	.LEFDE18-.LASFDE18
 757               	.LASFDE18:
 758 00a4 0000 0000 		.long	.Lframe0
 759 00a8 0000 0000 		.long	.LFB13
 760 00ac 0600 0000 		.long	.LFE13-.LFB13
 761               		.p2align	2
 762               	.LEFDE18:
 763               	.LSFDE20:
 764 00b0 0C00 0000 		.long	.LEFDE20-.LASFDE20
 765               	.LASFDE20:
 766 00b4 0000 0000 		.long	.Lframe0
 767 00b8 0000 0000 		.long	.LFB14
 768 00bc 0600 0000 		.long	.LFE14-.LFB14
 769               		.p2align	2
 770               	.LEFDE20:
 771               	.LSFDE22:
 772 00c0 0C00 0000 		.long	.LEFDE22-.LASFDE22
 773               	.LASFDE22:
 774 00c4 0000 0000 		.long	.Lframe0
 775 00c8 0000 0000 		.long	.LFB15
 776 00cc 2400 0000 		.long	.LFE15-.LFB15
 777               		.p2align	2
 778               	.LEFDE22:
 779               	.LSFDE24:
 780 00d0 0C00 0000 		.long	.LEFDE24-.LASFDE24
 781               	.LASFDE24:
 782 00d4 0000 0000 		.long	.Lframe0
 783 00d8 0000 0000 		.long	.LFB16
 784 00dc 1600 0000 		.long	.LFE16-.LFB16
 785               		.p2align	2
 786               	.LEFDE24:
 787               	.LSFDE26:
 788 00e0 0C00 0000 		.long	.LEFDE26-.LASFDE26
 789               	.LASFDE26:
 790 00e4 0000 0000 		.long	.Lframe0
 791 00e8 0000 0000 		.long	.LFB17
 792 00ec 1A00 0000 		.long	.LFE17-.LFB17
 793               		.p2align	2
 794               	.LEFDE26:
 795               	.LSFDE28:
 796 00f0 0C00 0000 		.long	.LEFDE28-.LASFDE28
 797               	.LASFDE28:
 798 00f4 0000 0000 		.long	.Lframe0
GAS LISTING D:\DOCUME~1\alex\LOCALS~1\Temp/ccoSPUC8.s 			page 15


 799 00f8 0000 0000 		.long	.LFB18
 800 00fc 6400 0000 		.long	.LFE18-.LFB18
 801               		.p2align	2
 802               	.LEFDE28:
 803               		.text
 804               	.Letext0:
 805               		.section	.debug_loc,"",@progbits
 806               	.Ldebug_loc0:
 807               	.LLST2:
 808 0000 0C00 0000 		.long	.LVL0-.Ltext0
 809 0004 3000 0000 		.long	.LVL1-.Ltext0
 810 0008 0100      		.word	0x1
 811 000a 68        		.byte	0x68
 812 000b 0000 0000 		.long	0x0
 813 000f 0000 0000 		.long	0x0
 814               	.LLST3:
 815 0013 0C00 0000 		.long	.LVL0-.Ltext0
 816 0017 3C00 0000 		.long	.LVL2-.Ltext0
 817 001b 0100      		.word	0x1
 818 001d 66        		.byte	0x66
 819 001e 0000 0000 		.long	0x0
 820 0022 0000 0000 		.long	0x0
 821               	.LLST5:
 822 0026 6400 0000 		.long	.LVL3-.Ltext0
 823 002a 8200 0000 		.long	.LVL4-.Ltext0
 824 002e 0100      		.word	0x1
 825 0030 68        		.byte	0x68
 826 0031 8400 0000 		.long	.LVL5-.Ltext0
 827 0035 8600 0000 		.long	.LVL6-.Ltext0
 828 0039 0100      		.word	0x1
 829 003b 68        		.byte	0x68
 830 003c 0000 0000 		.long	0x0
 831 0040 0000 0000 		.long	0x0
 832               	.LLST6:
 833 0044 8200 0000 		.long	.LVL4-.Ltext0
 834 0048 8400 0000 		.long	.LVL5-.Ltext0
 835 004c 0100      		.word	0x1
 836 004e 68        		.byte	0x68
 837 004f 8600 0000 		.long	.LVL6-.Ltext0
 838 0053 AE00 0000 		.long	.LVL7-.Ltext0
 839 0057 0100      		.word	0x1
 840 0059 68        		.byte	0x68
 841 005a 0000 0000 		.long	0x0
 842 005e 0000 0000 		.long	0x0
 843               	.LLST8:
 844 0062 BC00 0000 		.long	.LVL8-.Ltext0
 845 0066 C200 0000 		.long	.LVL9-.Ltext0
 846 006a 0600      		.word	0x6
 847 006c 68        		.byte	0x68
 848 006d 93        		.byte	0x93
 849 006e 01        		.uleb128 0x1
 850 006f 69        		.byte	0x69
 851 0070 93        		.byte	0x93
 852 0071 01        		.uleb128 0x1
 853 0072 0000 0000 		.long	0x0
 854 0076 0000 0000 		.long	0x0
 855               	.LLST11:
GAS LISTING D:\DOCUME~1\alex\LOCALS~1\Temp/ccoSPUC8.s 			page 16


 856 007a D600 0000 		.long	.LVL11-.Ltext0
 857 007e DA00 0000 		.long	.LVL12-.Ltext0
 858 0082 0100      		.word	0x1
 859 0084 68        		.byte	0x68
 860 0085 DA00 0000 		.long	.LVL12-.Ltext0
 861 0089 E400 0000 		.long	.LFE9-.Ltext0
 862 008d 0100      		.word	0x1
 863 008f 61        		.byte	0x61
 864 0090 0000 0000 		.long	0x0
 865 0094 0000 0000 		.long	0x0
 866               	.LLST13:
 867 0098 E600 0000 		.long	.LVL13-.Ltext0
 868 009c EA00 0000 		.long	.LVL14-.Ltext0
 869 00a0 0100      		.word	0x1
 870 00a2 68        		.byte	0x68
 871 00a3 EA00 0000 		.long	.LVL14-.Ltext0
 872 00a7 F400 0000 		.long	.LFE10-.Ltext0
 873 00ab 0100      		.word	0x1
 874 00ad 61        		.byte	0x61
 875 00ae 0000 0000 		.long	0x0
 876 00b2 0000 0000 		.long	0x0
 877               	.LLST15:
 878 00b6 F400 0000 		.long	.LVL15-.Ltext0
 879 00ba FA00 0000 		.long	.LVL16-.Ltext0
 880 00be 0100      		.word	0x1
 881 00c0 68        		.byte	0x68
 882 00c1 FC00 0000 		.long	.LVL17-.Ltext0
 883 00c5 FE00 0000 		.long	.LVL18-.Ltext0
 884 00c9 0100      		.word	0x1
 885 00cb 68        		.byte	0x68
 886 00cc 0000 0000 		.long	0x0
 887 00d0 0000 0000 		.long	0x0
 888               	.LLST16:
 889 00d4 F400 0000 		.long	.LVL15-.Ltext0
 890 00d8 0001 0000 		.long	.LVL19-.Ltext0
 891 00dc 0100      		.word	0x1
 892 00de 66        		.byte	0x66
 893 00df 0000 0000 		.long	0x0
 894 00e3 0000 0000 		.long	0x0
 895               	.LLST21:
 896 00e7 1601 0000 		.long	.LVL20-.Ltext0
 897 00eb 1A01 0000 		.long	.LVL21-.Ltext0
 898 00ef 0100      		.word	0x1
 899 00f1 68        		.byte	0x68
 900 00f2 1A01 0000 		.long	.LVL21-.Ltext0
 901 00f6 3801 0000 		.long	.LFE15-.Ltext0
 902 00fa 0100      		.word	0x1
 903 00fc 61        		.byte	0x61
 904 00fd 0000 0000 		.long	0x0
 905 0101 0000 0000 		.long	0x0
 906               	.LLST22:
 907 0105 2001 0000 		.long	.LVL22-.Ltext0
 908 0109 2401 0000 		.long	.LVL23-.Ltext0
 909 010d 0100      		.word	0x1
 910 010f 68        		.byte	0x68
 911 0110 2601 0000 		.long	.LVL24-.Ltext0
 912 0114 2801 0000 		.long	.LVL25-.Ltext0
GAS LISTING D:\DOCUME~1\alex\LOCALS~1\Temp/ccoSPUC8.s 			page 17


 913 0118 0100      		.word	0x1
 914 011a 68        		.byte	0x68
 915 011b 0000 0000 		.long	0x0
 916 011f 0000 0000 		.long	0x0
 917               	.LLST23:
 918 0123 2401 0000 		.long	.LVL23-.Ltext0
 919 0127 2601 0000 		.long	.LVL24-.Ltext0
 920 012b 0100      		.word	0x1
 921 012d 68        		.byte	0x68
 922 012e 2801 0000 		.long	.LVL25-.Ltext0
 923 0132 2A01 0000 		.long	.LVL26-.Ltext0
 924 0136 0100      		.word	0x1
 925 0138 68        		.byte	0x68
 926 0139 0000 0000 		.long	0x0
 927 013d 0000 0000 		.long	0x0
 928               	.LLST25:
 929 0141 3C01 0000 		.long	.LVL27-.Ltext0
 930 0145 4001 0000 		.long	.LVL28-.Ltext0
 931 0149 0600      		.word	0x6
 932 014b 68        		.byte	0x68
 933 014c 93        		.byte	0x93
 934 014d 01        		.uleb128 0x1
 935 014e 69        		.byte	0x69
 936 014f 93        		.byte	0x93
 937 0150 01        		.uleb128 0x1
 938 0151 4001 0000 		.long	.LVL28-.Ltext0
 939 0155 4E01 0000 		.long	.LFE16-.Ltext0
 940 0159 0600      		.word	0x6
 941 015b 6C        		.byte	0x6c
 942 015c 93        		.byte	0x93
 943 015d 01        		.uleb128 0x1
 944 015e 6D        		.byte	0x6d
 945 015f 93        		.byte	0x93
 946 0160 01        		.uleb128 0x1
 947 0161 0000 0000 		.long	0x0
 948 0165 0000 0000 		.long	0x0
 949               	.LLST26:
 950 0169 4001 0000 		.long	.LVL28-.Ltext0
 951 016d 4201 0000 		.long	.LVL29-.Ltext0
 952 0171 0100      		.word	0x1
 953 0173 68        		.byte	0x68
 954 0174 4401 0000 		.long	.LVL30-.Ltext0
 955 0178 4E01 0000 		.long	.LFE16-.Ltext0
 956 017c 0100      		.word	0x1
 957 017e 68        		.byte	0x68
 958 017f 0000 0000 		.long	0x0
 959 0183 0000 0000 		.long	0x0
 960               	.LLST28:
 961 0187 5201 0000 		.long	.LVL31-.Ltext0
 962 018b 5601 0000 		.long	.LVL32-.Ltext0
 963 018f 0600      		.word	0x6
 964 0191 68        		.byte	0x68
 965 0192 93        		.byte	0x93
 966 0193 01        		.uleb128 0x1
 967 0194 69        		.byte	0x69
 968 0195 93        		.byte	0x93
 969 0196 01        		.uleb128 0x1
GAS LISTING D:\DOCUME~1\alex\LOCALS~1\Temp/ccoSPUC8.s 			page 18


 970 0197 5601 0000 		.long	.LVL32-.Ltext0
 971 019b 6801 0000 		.long	.LFE17-.Ltext0
 972 019f 0600      		.word	0x6
 973 01a1 6C        		.byte	0x6c
 974 01a2 93        		.byte	0x93
 975 01a3 01        		.uleb128 0x1
 976 01a4 6D        		.byte	0x6d
 977 01a5 93        		.byte	0x93
 978 01a6 01        		.uleb128 0x1
 979 01a7 0000 0000 		.long	0x0
 980 01ab 0000 0000 		.long	0x0
 981               	.LLST29:
 982 01af 5601 0000 		.long	.LVL32-.Ltext0
 983 01b3 5801 0000 		.long	.LVL33-.Ltext0
 984 01b7 0600      		.word	0x6
 985 01b9 6E        		.byte	0x6e
 986 01ba 93        		.byte	0x93
 987 01bb 01        		.uleb128 0x1
 988 01bc 6F        		.byte	0x6f
 989 01bd 93        		.byte	0x93
 990 01be 01        		.uleb128 0x1
 991 01bf 5A01 0000 		.long	.LVL34-.Ltext0
 992 01c3 6801 0000 		.long	.LFE17-.Ltext0
 993 01c7 0600      		.word	0x6
 994 01c9 6E        		.byte	0x6e
 995 01ca 93        		.byte	0x93
 996 01cb 01        		.uleb128 0x1
 997 01cc 6F        		.byte	0x6f
 998 01cd 93        		.byte	0x93
 999 01ce 01        		.uleb128 0x1
 1000 01cf 0000 0000 		.long	0x0
 1001 01d3 0000 0000 		.long	0x0
 1002               	.LLST30:
 1003 01d7 5601 0000 		.long	.LVL32-.Ltext0
 1004 01db 5801 0000 		.long	.LVL33-.Ltext0
 1005 01df 0100      		.word	0x1
 1006 01e1 68        		.byte	0x68
 1007 01e2 5E01 0000 		.long	.LVL35-.Ltext0
 1008 01e6 6801 0000 		.long	.LFE17-.Ltext0
 1009 01ea 0100      		.word	0x1
 1010 01ec 68        		.byte	0x68
 1011 01ed 0000 0000 		.long	0x0
 1012 01f1 0000 0000 		.long	0x0
 1013               	.LLST32:
 1014 01f5 6E01 0000 		.long	.LVL36-.Ltext0
 1015 01f9 8201 0000 		.long	.LVL37-.Ltext0
 1016 01fd 0100      		.word	0x1
 1017 01ff 68        		.byte	0x68
 1018 0200 8201 0000 		.long	.LVL37-.Ltext0
 1019 0204 CC01 0000 		.long	.LFE18-.Ltext0
 1020 0208 0100      		.word	0x1
 1021 020a 5F        		.byte	0x5f
 1022 020b 0000 0000 		.long	0x0
 1023 020f 0000 0000 		.long	0x0
 1024               	.LLST33:
 1025 0213 8201 0000 		.long	.LVL37-.Ltext0
 1026 0217 8C01 0000 		.long	.LVL38-.Ltext0
GAS LISTING D:\DOCUME~1\alex\LOCALS~1\Temp/ccoSPUC8.s 			page 19


 1027 021b 0600      		.word	0x6
 1028 021d 68        		.byte	0x68
 1029 021e 93        		.byte	0x93
 1030 021f 01        		.uleb128 0x1
 1031 0220 69        		.byte	0x69
 1032 0221 93        		.byte	0x93
 1033 0222 01        		.uleb128 0x1
 1034 0223 0000 0000 		.long	0x0
 1035 0227 0000 0000 		.long	0x0
 1036               	.LLST34:
 1037 022b 9001 0000 		.long	.LVL39-.Ltext0
 1038 022f 9601 0000 		.long	.LVL40-.Ltext0
 1039 0233 0600      		.word	0x6
 1040 0235 68        		.byte	0x68
 1041 0236 93        		.byte	0x93
 1042 0237 01        		.uleb128 0x1
 1043 0238 69        		.byte	0x69
 1044 0239 93        		.byte	0x93
 1045 023a 01        		.uleb128 0x1
 1046 023b 0000 0000 		.long	0x0
 1047 023f 0000 0000 		.long	0x0
 1048               	.LLST35:
 1049 0243 9C01 0000 		.long	.LVL41-.Ltext0
 1050 0247 A201 0000 		.long	.LVL42-.Ltext0
 1051 024b 0600      		.word	0x6
 1052 024d 68        		.byte	0x68
 1053 024e 93        		.byte	0x93
 1054 024f 01        		.uleb128 0x1
 1055 0250 69        		.byte	0x69
 1056 0251 93        		.byte	0x93
 1057 0252 01        		.uleb128 0x1
 1058 0253 0000 0000 		.long	0x0
 1059 0257 0000 0000 		.long	0x0
 1060               	.LLST36:
 1061 025b A401 0000 		.long	.LVL43-.Ltext0
 1062 025f AC01 0000 		.long	.LVL44-.Ltext0
 1063 0263 0600      		.word	0x6
 1064 0265 68        		.byte	0x68
 1065 0266 93        		.byte	0x93
 1066 0267 01        		.uleb128 0x1
 1067 0268 69        		.byte	0x69
 1068 0269 93        		.byte	0x93
 1069 026a 01        		.uleb128 0x1
 1070 026b 0000 0000 		.long	0x0
 1071 026f 0000 0000 		.long	0x0
 1072               		.section	.debug_info
 1073 0000 3704 0000 		.long	0x437
 1074 0004 0200      		.word	0x2
 1075 0006 0000 0000 		.long	.Ldebug_abbrev0
 1076 000a 04        		.byte	0x4
 1077 000b 01        		.uleb128 0x1
 1078 000c 0000 0000 		.long	.LASF31
 1079 0010 01        		.byte	0x1
 1080 0011 0000 0000 		.long	.LASF32
 1081 0015 0000 0000 		.long	.LASF33
 1082 0019 0000 0000 		.long	.Ltext0
 1083 001d 0000 0000 		.long	.Letext0
GAS LISTING D:\DOCUME~1\alex\LOCALS~1\Temp/ccoSPUC8.s 			page 20


 1084 0021 0000 0000 		.long	.Ldebug_line0
 1085 0025 02        		.uleb128 0x2
 1086 0026 01        		.byte	0x1
 1087 0027 06        		.byte	0x6
 1088 0028 0000 0000 		.long	.LASF0
 1089 002c 03        		.uleb128 0x3
 1090 002d 0000 0000 		.long	.LASF2
 1091 0031 02        		.byte	0x2
 1092 0032 7A        		.byte	0x7a
 1093 0033 3700 0000 		.long	0x37
 1094 0037 02        		.uleb128 0x2
 1095 0038 01        		.byte	0x1
 1096 0039 08        		.byte	0x8
 1097 003a 0000 0000 		.long	.LASF1
 1098 003e 04        		.uleb128 0x4
 1099 003f 02        		.byte	0x2
 1100 0040 05        		.byte	0x5
 1101 0041 696E 7400 		.string	"int"
 1102 0045 03        		.uleb128 0x3
 1103 0046 0000 0000 		.long	.LASF3
 1104 004a 02        		.byte	0x2
 1105 004b 7C        		.byte	0x7c
 1106 004c 5000 0000 		.long	0x50
 1107 0050 02        		.uleb128 0x2
 1108 0051 02        		.byte	0x2
 1109 0052 07        		.byte	0x7
 1110 0053 0000 0000 		.long	.LASF4
 1111 0057 02        		.uleb128 0x2
 1112 0058 04        		.byte	0x4
 1113 0059 05        		.byte	0x5
 1114 005a 0000 0000 		.long	.LASF5
 1115 005e 02        		.uleb128 0x2
 1116 005f 04        		.byte	0x4
 1117 0060 07        		.byte	0x7
 1118 0061 0000 0000 		.long	.LASF6
 1119 0065 02        		.uleb128 0x2
 1120 0066 08        		.byte	0x8
 1121 0067 05        		.byte	0x5
 1122 0068 0000 0000 		.long	.LASF7
 1123 006c 02        		.uleb128 0x2
 1124 006d 08        		.byte	0x8
 1125 006e 07        		.byte	0x7
 1126 006f 0000 0000 		.long	.LASF8
 1127 0073 05        		.uleb128 0x5
 1128 0074 01        		.byte	0x1
 1129 0075 08        		.byte	0x8
 1130 0076 06        		.uleb128 0x6
 1131 0077 0000 0000 		.long	.LASF19
 1132 007b 01        		.byte	0x1
 1133 007c 62        		.byte	0x62
 1134 007d 01        		.byte	0x1
 1135 007e 03        		.byte	0x3
 1136 007f 8F00 0000 		.long	0x8f
 1137 0083 07        		.uleb128 0x7
 1138 0084 0000 0000 		.long	.LASF21
 1139 0088 01        		.byte	0x1
 1140 0089 61        		.byte	0x61
GAS LISTING D:\DOCUME~1\alex\LOCALS~1\Temp/ccoSPUC8.s 			page 21


 1141 008a 5000 0000 		.long	0x50
 1142 008e 00        		.byte	0x0
 1143 008f 08        		.uleb128 0x8
 1144 0090 0000 0000 		.long	.LASF34
 1145 0094 01        		.byte	0x1
 1146 0095 79        		.byte	0x79
 1147 0096 01        		.byte	0x1
 1148 0097 0000 0000 		.long	.LFB3
 1149 009b 0000 0000 		.long	.LFE3
 1150 009f 02        		.byte	0x2
 1151 00a0 90        		.byte	0x90
 1152 00a1 20        		.uleb128 0x20
 1153 00a2 09        		.uleb128 0x9
 1154 00a3 0000 0000 		.long	.LASF35
 1155 00a7 01        		.byte	0x1
 1156 00a8 8A        		.byte	0x8a
 1157 00a9 01        		.byte	0x1
 1158 00aa 0000 0000 		.long	.LFB4
 1159 00ae 0000 0000 		.long	.LFE4
 1160 00b2 02        		.byte	0x2
 1161 00b3 90        		.byte	0x90
 1162 00b4 20        		.uleb128 0x20
 1163 00b5 E200 0000 		.long	0xe2
 1164 00b9 0A        		.uleb128 0xa
 1165 00ba 0000 0000 		.long	.LASF9
 1166 00be 01        		.byte	0x1
 1167 00bf 89        		.byte	0x89
 1168 00c0 2C00 0000 		.long	0x2c
 1169 00c4 0000 0000 		.long	.LLST2
 1170 00c8 0B        		.uleb128 0xb
 1171 00c9 7273 00   		.string	"rs"
 1172 00cc 01        		.byte	0x1
 1173 00cd 89        		.byte	0x89
 1174 00ce 2C00 0000 		.long	0x2c
 1175 00d2 0000 0000 		.long	.LLST3
 1176 00d6 0C        		.uleb128 0xc
 1177 00d7 0000 0000 		.long	.LASF12
 1178 00db 01        		.byte	0x1
 1179 00dc 8B        		.byte	0x8b
 1180 00dd 3700 0000 		.long	0x37
 1181 00e1 00        		.byte	0x0
 1182 00e2 0D        		.uleb128 0xd
 1183 00e3 0000 0000 		.long	.LASF10
 1184 00e7 01        		.byte	0x1
 1185 00e8 DB        		.byte	0xdb
 1186 00e9 01        		.byte	0x1
 1187 00ea 2C00 0000 		.long	0x2c
 1188 00ee 0000 0000 		.long	.LFB5
 1189 00f2 0000 0000 		.long	.LFE5
 1190 00f6 02        		.byte	0x2
 1191 00f7 90        		.byte	0x90
 1192 00f8 20        		.uleb128 0x20
 1193 00f9 1B01 0000 		.long	0x11b
 1194 00fd 0B        		.uleb128 0xb
 1195 00fe 7273 00   		.string	"rs"
 1196 0101 01        		.byte	0x1
 1197 0102 DA        		.byte	0xda
GAS LISTING D:\DOCUME~1\alex\LOCALS~1\Temp/ccoSPUC8.s 			page 22


 1198 0103 2C00 0000 		.long	0x2c
 1199 0107 0000 0000 		.long	.LLST5
 1200 010b 0E        		.uleb128 0xe
 1201 010c 0000 0000 		.long	.LASF9
 1202 0110 01        		.byte	0x1
 1203 0111 DC        		.byte	0xdc
 1204 0112 2C00 0000 		.long	0x2c
 1205 0116 0000 0000 		.long	.LLST6
 1206 011a 00        		.byte	0x0
 1207 011b 0F        		.uleb128 0xf
 1208 011c 0000 0000 		.long	.LASF11
 1209 0120 01        		.byte	0x1
 1210 0121 2101      		.word	0x121
 1211 0123 01        		.byte	0x1
 1212 0124 2C00 0000 		.long	0x2c
 1213 0128 0000 0000 		.long	.LFB6
 1214 012c 0000 0000 		.long	.LFE6
 1215 0130 02        		.byte	0x2
 1216 0131 90        		.byte	0x90
 1217 0132 20        		.uleb128 0x20
 1218 0133 5C01 0000 		.long	0x15c
 1219 0137 10        		.uleb128 0x10
 1220 0138 6300      		.string	"c"
 1221 013a 01        		.byte	0x1
 1222 013b 2201      		.word	0x122
 1223 013d 2C00 0000 		.long	0x2c
 1224 0141 11        		.uleb128 0x11
 1225 0142 7600 0000 		.long	0x76
 1226 0146 0000 0000 		.long	.LBB4
 1227 014a 0000 0000 		.long	.LBE4
 1228 014e 01        		.byte	0x1
 1229 014f 2801      		.word	0x128
 1230 0151 12        		.uleb128 0x12
 1231 0152 8300 0000 		.long	0x83
 1232 0156 0000 0000 		.long	.LLST8
 1233 015a 00        		.byte	0x0
 1234 015b 00        		.byte	0x0
 1235 015c 13        		.uleb128 0x13
 1236 015d 01        		.byte	0x1
 1237 015e 0000 0000 		.long	.LASF13
 1238 0162 01        		.byte	0x1
 1239 0163 6901      		.word	0x169
 1240 0165 01        		.byte	0x1
 1241 0166 0000 0000 		.long	.LFB8
 1242 016a 0000 0000 		.long	.LFE8
 1243 016e 02        		.byte	0x2
 1244 016f 90        		.byte	0x90
 1245 0170 20        		.uleb128 0x20
 1246 0171 8401 0000 		.long	0x184
 1247 0175 14        		.uleb128 0x14
 1248 0176 636D 6400 		.string	"cmd"
 1249 017a 01        		.byte	0x1
 1250 017b 6801      		.word	0x168
 1251 017d 2C00 0000 		.long	0x2c
 1252 0181 01        		.byte	0x1
 1253 0182 68        		.byte	0x68
 1254 0183 00        		.byte	0x0
GAS LISTING D:\DOCUME~1\alex\LOCALS~1\Temp/ccoSPUC8.s 			page 23


 1255 0184 13        		.uleb128 0x13
 1256 0185 01        		.byte	0x1
 1257 0186 0000 0000 		.long	.LASF14
 1258 018a 01        		.byte	0x1
 1259 018b 7901      		.word	0x179
 1260 018d 01        		.byte	0x1
 1261 018e 0000 0000 		.long	.LFB9
 1262 0192 0000 0000 		.long	.LFE9
 1263 0196 02        		.byte	0x2
 1264 0197 90        		.byte	0x90
 1265 0198 20        		.uleb128 0x20
 1266 0199 AE01 0000 		.long	0x1ae
 1267 019d 15        		.uleb128 0x15
 1268 019e 636D 6400 		.string	"cmd"
 1269 01a2 01        		.byte	0x1
 1270 01a3 7801      		.word	0x178
 1271 01a5 2C00 0000 		.long	0x2c
 1272 01a9 0000 0000 		.long	.LLST11
 1273 01ad 00        		.byte	0x0
 1274 01ae 13        		.uleb128 0x13
 1275 01af 01        		.byte	0x1
 1276 01b0 0000 0000 		.long	.LASF15
 1277 01b4 01        		.byte	0x1
 1278 01b5 8501      		.word	0x185
 1279 01b7 01        		.byte	0x1
 1280 01b8 0000 0000 		.long	.LFB10
 1281 01bc 0000 0000 		.long	.LFE10
 1282 01c0 02        		.byte	0x2
 1283 01c1 90        		.byte	0x90
 1284 01c2 20        		.uleb128 0x20
 1285 01c3 D801 0000 		.long	0x1d8
 1286 01c7 16        		.uleb128 0x16
 1287 01c8 0000 0000 		.long	.LASF9
 1288 01cc 01        		.byte	0x1
 1289 01cd 8401      		.word	0x184
 1290 01cf 2C00 0000 		.long	0x2c
 1291 01d3 0000 0000 		.long	.LLST13
 1292 01d7 00        		.byte	0x0
 1293 01d8 13        		.uleb128 0x13
 1294 01d9 01        		.byte	0x1
 1295 01da 0000 0000 		.long	.LASF16
 1296 01de 01        		.byte	0x1
 1297 01df 9301      		.word	0x193
 1298 01e1 01        		.byte	0x1
 1299 01e2 0000 0000 		.long	.LFB11
 1300 01e6 0000 0000 		.long	.LFE11
 1301 01ea 02        		.byte	0x2
 1302 01eb 90        		.byte	0x90
 1303 01ec 20        		.uleb128 0x20
 1304 01ed 0E02 0000 		.long	0x20e
 1305 01f1 15        		.uleb128 0x15
 1306 01f2 7800      		.string	"x"
 1307 01f4 01        		.byte	0x1
 1308 01f5 9201      		.word	0x192
 1309 01f7 2C00 0000 		.long	0x2c
 1310 01fb 0000 0000 		.long	.LLST15
 1311 01ff 15        		.uleb128 0x15
GAS LISTING D:\DOCUME~1\alex\LOCALS~1\Temp/ccoSPUC8.s 			page 24


 1312 0200 7900      		.string	"y"
 1313 0202 01        		.byte	0x1
 1314 0203 9201      		.word	0x192
 1315 0205 2C00 0000 		.long	0x2c
 1316 0209 0000 0000 		.long	.LLST16
 1317 020d 00        		.byte	0x0
 1318 020e 17        		.uleb128 0x17
 1319 020f 01        		.byte	0x1
 1320 0210 0000 0000 		.long	.LASF36
 1321 0214 01        		.byte	0x1
 1322 0215 AE01      		.word	0x1ae
 1323 0217 01        		.byte	0x1
 1324 0218 3E00 0000 		.long	0x3e
 1325 021c 0000 0000 		.long	.LFB12
 1326 0220 0000 0000 		.long	.LFE12
 1327 0224 02        		.byte	0x2
 1328 0225 90        		.byte	0x90
 1329 0226 20        		.uleb128 0x20
 1330 0227 18        		.uleb128 0x18
 1331 0228 01        		.byte	0x1
 1332 0229 0000 0000 		.long	.LASF17
 1333 022d 01        		.byte	0x1
 1334 022e B701      		.word	0x1b7
 1335 0230 01        		.byte	0x1
 1336 0231 0000 0000 		.long	.LFB13
 1337 0235 0000 0000 		.long	.LFE13
 1338 0239 02        		.byte	0x2
 1339 023a 90        		.byte	0x90
 1340 023b 20        		.uleb128 0x20
 1341 023c 18        		.uleb128 0x18
 1342 023d 01        		.byte	0x1
 1343 023e 0000 0000 		.long	.LASF18
 1344 0242 01        		.byte	0x1
 1345 0243 C001      		.word	0x1c0
 1346 0245 01        		.byte	0x1
 1347 0246 0000 0000 		.long	.LFB14
 1348 024a 0000 0000 		.long	.LFE14
 1349 024e 02        		.byte	0x2
 1350 024f 90        		.byte	0x90
 1351 0250 20        		.uleb128 0x20
 1352 0251 19        		.uleb128 0x19
 1353 0252 0000 0000 		.long	.LASF20
 1354 0256 01        		.byte	0x1
 1355 0257 3501      		.word	0x135
 1356 0259 01        		.byte	0x1
 1357 025a 03        		.byte	0x3
 1358 025b 7802 0000 		.long	0x278
 1359 025f 1A        		.uleb128 0x1a
 1360 0260 706F 7300 		.string	"pos"
 1361 0264 01        		.byte	0x1
 1362 0265 3401      		.word	0x134
 1363 0267 2C00 0000 		.long	0x2c
 1364 026b 1B        		.uleb128 0x1b
 1365 026c 0000 0000 		.long	.LASF22
 1366 0270 01        		.byte	0x1
 1367 0271 3601      		.word	0x136
 1368 0273 2C00 0000 		.long	0x2c
GAS LISTING D:\DOCUME~1\alex\LOCALS~1\Temp/ccoSPUC8.s 			page 25


 1369 0277 00        		.byte	0x0
 1370 0278 13        		.uleb128 0x13
 1371 0279 01        		.byte	0x1
 1372 027a 0000 0000 		.long	.LASF23
 1373 027e 01        		.byte	0x1
 1374 027f CB01      		.word	0x1cb
 1375 0281 01        		.byte	0x1
 1376 0282 0000 0000 		.long	.LFB15
 1377 0286 0000 0000 		.long	.LFE15
 1378 028a 02        		.byte	0x2
 1379 028b 90        		.byte	0x90
 1380 028c 20        		.uleb128 0x20
 1381 028d D902 0000 		.long	0x2d9
 1382 0291 15        		.uleb128 0x15
 1383 0292 6300      		.string	"c"
 1384 0294 01        		.byte	0x1
 1385 0295 CA01      		.word	0x1ca
 1386 0297 D902 0000 		.long	0x2d9
 1387 029b 0000 0000 		.long	.LLST21
 1388 029f 1C        		.uleb128 0x1c
 1389 02a0 706F 7300 		.string	"pos"
 1390 02a4 01        		.byte	0x1
 1391 02a5 CC01      		.word	0x1cc
 1392 02a7 2C00 0000 		.long	0x2c
 1393 02ab 0000 0000 		.long	.LLST22
 1394 02af 11        		.uleb128 0x11
 1395 02b0 5102 0000 		.long	0x251
 1396 02b4 0000 0000 		.long	.LBB8
 1397 02b8 0000 0000 		.long	.LBE8
 1398 02bc 01        		.byte	0x1
 1399 02bd D201      		.word	0x1d2
 1400 02bf 1D        		.uleb128 0x1d
 1401 02c0 5F02 0000 		.long	0x25f
 1402 02c4 1E        		.uleb128 0x1e
 1403 02c5 0000 0000 		.long	.LBB9
 1404 02c9 0000 0000 		.long	.LBE9
 1405 02cd 1F        		.uleb128 0x1f
 1406 02ce 6B02 0000 		.long	0x26b
 1407 02d2 0000 0000 		.long	.LLST23
 1408 02d6 00        		.byte	0x0
 1409 02d7 00        		.byte	0x0
 1410 02d8 00        		.byte	0x0
 1411 02d9 02        		.uleb128 0x2
 1412 02da 01        		.byte	0x1
 1413 02db 08        		.byte	0x8
 1414 02dc 0000 0000 		.long	.LASF24
 1415 02e0 13        		.uleb128 0x13
 1416 02e1 01        		.byte	0x1
 1417 02e2 0000 0000 		.long	.LASF25
 1418 02e6 01        		.byte	0x1
 1419 02e7 FB01      		.word	0x1fb
 1420 02e9 01        		.byte	0x1
 1421 02ea 0000 0000 		.long	.LFB16
 1422 02ee 0000 0000 		.long	.LFE16
 1423 02f2 02        		.byte	0x2
 1424 02f3 90        		.byte	0x90
 1425 02f4 20        		.uleb128 0x20
GAS LISTING D:\DOCUME~1\alex\LOCALS~1\Temp/ccoSPUC8.s 			page 26


 1426 02f5 1603 0000 		.long	0x316
 1427 02f9 15        		.uleb128 0x15
 1428 02fa 7300      		.string	"s"
 1429 02fc 01        		.byte	0x1
 1430 02fd F901      		.word	0x1f9
 1431 02ff 1603 0000 		.long	0x316
 1432 0303 0000 0000 		.long	.LLST25
 1433 0307 1C        		.uleb128 0x1c
 1434 0308 6300      		.string	"c"
 1435 030a 01        		.byte	0x1
 1436 030b FC01      		.word	0x1fc
 1437 030d D902 0000 		.long	0x2d9
 1438 0311 0000 0000 		.long	.LLST26
 1439 0315 00        		.byte	0x0
 1440 0316 20        		.uleb128 0x20
 1441 0317 02        		.byte	0x2
 1442 0318 1C03 0000 		.long	0x31c
 1443 031c 21        		.uleb128 0x21
 1444 031d D902 0000 		.long	0x2d9
 1445 0321 13        		.uleb128 0x13
 1446 0322 01        		.byte	0x1
 1447 0323 0000 0000 		.long	.LASF26
 1448 0327 01        		.byte	0x1
 1449 0328 0C02      		.word	0x20c
 1450 032a 01        		.byte	0x1
 1451 032b 0000 0000 		.long	.LFB17
 1452 032f 0000 0000 		.long	.LFE17
 1453 0333 02        		.byte	0x2
 1454 0334 90        		.byte	0x90
 1455 0335 20        		.uleb128 0x20
 1456 0336 7F03 0000 		.long	0x37f
 1457 033a 16        		.uleb128 0x16
 1458 033b 0000 0000 		.long	.LASF27
 1459 033f 01        		.byte	0x1
 1460 0340 0A02      		.word	0x20a
 1461 0342 1603 0000 		.long	0x316
 1462 0346 0000 0000 		.long	.LLST28
 1463 034a 10        		.uleb128 0x10
 1464 034b 6300      		.string	"c"
 1465 034d 01        		.byte	0x1
 1466 034e 0D02      		.word	0x20d
 1467 0350 D902 0000 		.long	0x2d9
 1468 0354 1E        		.uleb128 0x1e
 1469 0355 0000 0000 		.long	.LBB10
 1470 0359 0000 0000 		.long	.LBE10
 1471 035d 22        		.uleb128 0x22
 1472 035e 0000 0000 		.long	.LASF28
 1473 0362 01        		.byte	0x1
 1474 0363 0F02      		.word	0x20f
 1475 0365 4500 0000 		.long	0x45
 1476 0369 0000 0000 		.long	.LLST29
 1477 036d 22        		.uleb128 0x22
 1478 036e 0000 0000 		.long	.LASF29
 1479 0372 01        		.byte	0x1
 1480 0373 0F02      		.word	0x20f
 1481 0375 2C00 0000 		.long	0x2c
 1482 0379 0000 0000 		.long	.LLST30
GAS LISTING D:\DOCUME~1\alex\LOCALS~1\Temp/ccoSPUC8.s 			page 27


 1483 037d 00        		.byte	0x0
 1484 037e 00        		.byte	0x0
 1485 037f 23        		.uleb128 0x23
 1486 0380 01        		.byte	0x1
 1487 0381 0000 0000 		.long	.LASF37
 1488 0385 01        		.byte	0x1
 1489 0386 1F02      		.word	0x21f
 1490 0388 01        		.byte	0x1
 1491 0389 0000 0000 		.long	.LFB18
 1492 038d 0000 0000 		.long	.LFE18
 1493 0391 02        		.byte	0x2
 1494 0392 90        		.byte	0x90
 1495 0393 20        		.uleb128 0x20
 1496 0394 16        		.uleb128 0x16
 1497 0395 0000 0000 		.long	.LASF30
 1498 0399 01        		.byte	0x1
 1499 039a 1E02      		.word	0x21e
 1500 039c 2C00 0000 		.long	0x2c
 1501 03a0 0000 0000 		.long	.LLST32
 1502 03a4 24        		.uleb128 0x24
 1503 03a5 7600 0000 		.long	0x76
 1504 03a9 0000 0000 		.long	.LBB21
 1505 03ad 0000 0000 		.long	.LBE21
 1506 03b1 01        		.byte	0x1
 1507 03b2 4102      		.word	0x241
 1508 03b4 C203 0000 		.long	0x3c2
 1509 03b8 12        		.uleb128 0x12
 1510 03b9 8300 0000 		.long	0x83
 1511 03bd 0000 0000 		.long	.LLST33
 1512 03c1 00        		.byte	0x0
 1513 03c2 24        		.uleb128 0x24
 1514 03c3 7600 0000 		.long	0x76
 1515 03c7 0000 0000 		.long	.LBB23
 1516 03cb 0000 0000 		.long	.LBE23
 1517 03cf 01        		.byte	0x1
 1518 03d0 4702      		.word	0x247
 1519 03d2 E003 0000 		.long	0x3e0
 1520 03d6 12        		.uleb128 0x12
 1521 03d7 8300 0000 		.long	0x83
 1522 03db 0000 0000 		.long	.LLST34
 1523 03df 00        		.byte	0x0
 1524 03e0 24        		.uleb128 0x24
 1525 03e1 7600 0000 		.long	0x76
 1526 03e5 0000 0000 		.long	.LBB25
 1527 03e9 0000 0000 		.long	.LBE25
 1528 03ed 01        		.byte	0x1
 1529 03ee 4B02      		.word	0x24b
 1530 03f0 FE03 0000 		.long	0x3fe
 1531 03f4 12        		.uleb128 0x12
 1532 03f5 8300 0000 		.long	0x83
 1533 03f9 0000 0000 		.long	.LLST35
 1534 03fd 00        		.byte	0x0
 1535 03fe 24        		.uleb128 0x24
 1536 03ff 7600 0000 		.long	0x76
 1537 0403 0000 0000 		.long	.LBB27
 1538 0407 0000 0000 		.long	.LBE27
 1539 040b 01        		.byte	0x1
GAS LISTING D:\DOCUME~1\alex\LOCALS~1\Temp/ccoSPUC8.s 			page 28


 1540 040c 4F02      		.word	0x24f
 1541 040e 1C04 0000 		.long	0x41c
 1542 0412 12        		.uleb128 0x12
 1543 0413 8300 0000 		.long	0x83
 1544 0417 0000 0000 		.long	.LLST36
 1545 041b 00        		.byte	0x0
 1546 041c 11        		.uleb128 0x11
 1547 041d 7600 0000 		.long	0x76
 1548 0421 0000 0000 		.long	.LBB29
 1549 0425 0000 0000 		.long	.LBE29
 1550 0429 01        		.byte	0x1
 1551 042a 5402      		.word	0x254
 1552 042c 25        		.uleb128 0x25
 1553 042d 8300 0000 		.long	0x83
 1554 0431 06        		.byte	0x6
 1555 0432 60        		.byte	0x60
 1556 0433 93        		.byte	0x93
 1557 0434 01        		.uleb128 0x1
 1558 0435 61        		.byte	0x61
 1559 0436 93        		.byte	0x93
 1560 0437 01        		.uleb128 0x1
 1561 0438 00        		.byte	0x0
 1562 0439 00        		.byte	0x0
 1563 043a 00        		.byte	0x0
 1564               		.section	.debug_abbrev
 1565 0000 01        		.uleb128 0x1
 1566 0001 11        		.uleb128 0x11
 1567 0002 01        		.byte	0x1
 1568 0003 25        		.uleb128 0x25
 1569 0004 0E        		.uleb128 0xe
 1570 0005 13        		.uleb128 0x13
 1571 0006 0B        		.uleb128 0xb
 1572 0007 03        		.uleb128 0x3
 1573 0008 0E        		.uleb128 0xe
 1574 0009 1B        		.uleb128 0x1b
 1575 000a 0E        		.uleb128 0xe
 1576 000b 11        		.uleb128 0x11
 1577 000c 01        		.uleb128 0x1
 1578 000d 12        		.uleb128 0x12
 1579 000e 01        		.uleb128 0x1
 1580 000f 10        		.uleb128 0x10
 1581 0010 06        		.uleb128 0x6
 1582 0011 00        		.byte	0x0
 1583 0012 00        		.byte	0x0
 1584 0013 02        		.uleb128 0x2
 1585 0014 24        		.uleb128 0x24
 1586 0015 00        		.byte	0x0
 1587 0016 0B        		.uleb128 0xb
 1588 0017 0B        		.uleb128 0xb
 1589 0018 3E        		.uleb128 0x3e
 1590 0019 0B        		.uleb128 0xb
 1591 001a 03        		.uleb128 0x3
 1592 001b 0E        		.uleb128 0xe
 1593 001c 00        		.byte	0x0
 1594 001d 00        		.byte	0x0
 1595 001e 03        		.uleb128 0x3
 1596 001f 16        		.uleb128 0x16
GAS LISTING D:\DOCUME~1\alex\LOCALS~1\Temp/ccoSPUC8.s 			page 29


 1597 0020 00        		.byte	0x0
 1598 0021 03        		.uleb128 0x3
 1599 0022 0E        		.uleb128 0xe
 1600 0023 3A        		.uleb128 0x3a
 1601 0024 0B        		.uleb128 0xb
 1602 0025 3B        		.uleb128 0x3b
 1603 0026 0B        		.uleb128 0xb
 1604 0027 49        		.uleb128 0x49
 1605 0028 13        		.uleb128 0x13
 1606 0029 00        		.byte	0x0
 1607 002a 00        		.byte	0x0
 1608 002b 04        		.uleb128 0x4
 1609 002c 24        		.uleb128 0x24
 1610 002d 00        		.byte	0x0
 1611 002e 0B        		.uleb128 0xb
 1612 002f 0B        		.uleb128 0xb
 1613 0030 3E        		.uleb128 0x3e
 1614 0031 0B        		.uleb128 0xb
 1615 0032 03        		.uleb128 0x3
 1616 0033 08        		.uleb128 0x8
 1617 0034 00        		.byte	0x0
 1618 0035 00        		.byte	0x0
 1619 0036 05        		.uleb128 0x5
 1620 0037 24        		.uleb128 0x24
 1621 0038 00        		.byte	0x0
 1622 0039 0B        		.uleb128 0xb
 1623 003a 0B        		.uleb128 0xb
 1624 003b 3E        		.uleb128 0x3e
 1625 003c 0B        		.uleb128 0xb
 1626 003d 00        		.byte	0x0
 1627 003e 00        		.byte	0x0
 1628 003f 06        		.uleb128 0x6
 1629 0040 2E        		.uleb128 0x2e
 1630 0041 01        		.byte	0x1
 1631 0042 03        		.uleb128 0x3
 1632 0043 0E        		.uleb128 0xe
 1633 0044 3A        		.uleb128 0x3a
 1634 0045 0B        		.uleb128 0xb
 1635 0046 3B        		.uleb128 0x3b
 1636 0047 0B        		.uleb128 0xb
 1637 0048 27        		.uleb128 0x27
 1638 0049 0C        		.uleb128 0xc
 1639 004a 20        		.uleb128 0x20
 1640 004b 0B        		.uleb128 0xb
 1641 004c 01        		.uleb128 0x1
 1642 004d 13        		.uleb128 0x13
 1643 004e 00        		.byte	0x0
 1644 004f 00        		.byte	0x0
 1645 0050 07        		.uleb128 0x7
 1646 0051 05        		.uleb128 0x5
 1647 0052 00        		.byte	0x0
 1648 0053 03        		.uleb128 0x3
 1649 0054 0E        		.uleb128 0xe
 1650 0055 3A        		.uleb128 0x3a
 1651 0056 0B        		.uleb128 0xb
 1652 0057 3B        		.uleb128 0x3b
 1653 0058 0B        		.uleb128 0xb
GAS LISTING D:\DOCUME~1\alex\LOCALS~1\Temp/ccoSPUC8.s 			page 30


 1654 0059 49        		.uleb128 0x49
 1655 005a 13        		.uleb128 0x13
 1656 005b 00        		.byte	0x0
 1657 005c 00        		.byte	0x0
 1658 005d 08        		.uleb128 0x8
 1659 005e 2E        		.uleb128 0x2e
 1660 005f 00        		.byte	0x0
 1661 0060 03        		.uleb128 0x3
 1662 0061 0E        		.uleb128 0xe
 1663 0062 3A        		.uleb128 0x3a
 1664 0063 0B        		.uleb128 0xb
 1665 0064 3B        		.uleb128 0x3b
 1666 0065 0B        		.uleb128 0xb
 1667 0066 27        		.uleb128 0x27
 1668 0067 0C        		.uleb128 0xc
 1669 0068 11        		.uleb128 0x11
 1670 0069 01        		.uleb128 0x1
 1671 006a 12        		.uleb128 0x12
 1672 006b 01        		.uleb128 0x1
 1673 006c 40        		.uleb128 0x40
 1674 006d 0A        		.uleb128 0xa
 1675 006e 00        		.byte	0x0
 1676 006f 00        		.byte	0x0
 1677 0070 09        		.uleb128 0x9
 1678 0071 2E        		.uleb128 0x2e
 1679 0072 01        		.byte	0x1
 1680 0073 03        		.uleb128 0x3
 1681 0074 0E        		.uleb128 0xe
 1682 0075 3A        		.uleb128 0x3a
 1683 0076 0B        		.uleb128 0xb
 1684 0077 3B        		.uleb128 0x3b
 1685 0078 0B        		.uleb128 0xb
 1686 0079 27        		.uleb128 0x27
 1687 007a 0C        		.uleb128 0xc
 1688 007b 11        		.uleb128 0x11
 1689 007c 01        		.uleb128 0x1
 1690 007d 12        		.uleb128 0x12
 1691 007e 01        		.uleb128 0x1
 1692 007f 40        		.uleb128 0x40
 1693 0080 0A        		.uleb128 0xa
 1694 0081 01        		.uleb128 0x1
 1695 0082 13        		.uleb128 0x13
 1696 0083 00        		.byte	0x0
 1697 0084 00        		.byte	0x0
 1698 0085 0A        		.uleb128 0xa
 1699 0086 05        		.uleb128 0x5
 1700 0087 00        		.byte	0x0
 1701 0088 03        		.uleb128 0x3
 1702 0089 0E        		.uleb128 0xe
 1703 008a 3A        		.uleb128 0x3a
 1704 008b 0B        		.uleb128 0xb
 1705 008c 3B        		.uleb128 0x3b
 1706 008d 0B        		.uleb128 0xb
 1707 008e 49        		.uleb128 0x49
 1708 008f 13        		.uleb128 0x13
 1709 0090 02        		.uleb128 0x2
 1710 0091 06        		.uleb128 0x6
GAS LISTING D:\DOCUME~1\alex\LOCALS~1\Temp/ccoSPUC8.s 			page 31


 1711 0092 00        		.byte	0x0
 1712 0093 00        		.byte	0x0
 1713 0094 0B        		.uleb128 0xb
 1714 0095 05        		.uleb128 0x5
 1715 0096 00        		.byte	0x0
 1716 0097 03        		.uleb128 0x3
 1717 0098 08        		.uleb128 0x8
 1718 0099 3A        		.uleb128 0x3a
 1719 009a 0B        		.uleb128 0xb
 1720 009b 3B        		.uleb128 0x3b
 1721 009c 0B        		.uleb128 0xb
 1722 009d 49        		.uleb128 0x49
 1723 009e 13        		.uleb128 0x13
 1724 009f 02        		.uleb128 0x2
 1725 00a0 06        		.uleb128 0x6
 1726 00a1 00        		.byte	0x0
 1727 00a2 00        		.byte	0x0
 1728 00a3 0C        		.uleb128 0xc
 1729 00a4 34        		.uleb128 0x34
 1730 00a5 00        		.byte	0x0
 1731 00a6 03        		.uleb128 0x3
 1732 00a7 0E        		.uleb128 0xe
 1733 00a8 3A        		.uleb128 0x3a
 1734 00a9 0B        		.uleb128 0xb
 1735 00aa 3B        		.uleb128 0x3b
 1736 00ab 0B        		.uleb128 0xb
 1737 00ac 49        		.uleb128 0x49
 1738 00ad 13        		.uleb128 0x13
 1739 00ae 00        		.byte	0x0
 1740 00af 00        		.byte	0x0
 1741 00b0 0D        		.uleb128 0xd
 1742 00b1 2E        		.uleb128 0x2e
 1743 00b2 01        		.byte	0x1
 1744 00b3 03        		.uleb128 0x3
 1745 00b4 0E        		.uleb128 0xe
 1746 00b5 3A        		.uleb128 0x3a
 1747 00b6 0B        		.uleb128 0xb
 1748 00b7 3B        		.uleb128 0x3b
 1749 00b8 0B        		.uleb128 0xb
 1750 00b9 27        		.uleb128 0x27
 1751 00ba 0C        		.uleb128 0xc
 1752 00bb 49        		.uleb128 0x49
 1753 00bc 13        		.uleb128 0x13
 1754 00bd 11        		.uleb128 0x11
 1755 00be 01        		.uleb128 0x1
 1756 00bf 12        		.uleb128 0x12
 1757 00c0 01        		.uleb128 0x1
 1758 00c1 40        		.uleb128 0x40
 1759 00c2 0A        		.uleb128 0xa
 1760 00c3 01        		.uleb128 0x1
 1761 00c4 13        		.uleb128 0x13
 1762 00c5 00        		.byte	0x0
 1763 00c6 00        		.byte	0x0
 1764 00c7 0E        		.uleb128 0xe
 1765 00c8 34        		.uleb128 0x34
 1766 00c9 00        		.byte	0x0
 1767 00ca 03        		.uleb128 0x3
GAS LISTING D:\DOCUME~1\alex\LOCALS~1\Temp/ccoSPUC8.s 			page 32


 1768 00cb 0E        		.uleb128 0xe
 1769 00cc 3A        		.uleb128 0x3a
 1770 00cd 0B        		.uleb128 0xb
 1771 00ce 3B        		.uleb128 0x3b
 1772 00cf 0B        		.uleb128 0xb
 1773 00d0 49        		.uleb128 0x49
 1774 00d1 13        		.uleb128 0x13
 1775 00d2 02        		.uleb128 0x2
 1776 00d3 06        		.uleb128 0x6
 1777 00d4 00        		.byte	0x0
 1778 00d5 00        		.byte	0x0
 1779 00d6 0F        		.uleb128 0xf
 1780 00d7 2E        		.uleb128 0x2e
 1781 00d8 01        		.byte	0x1
 1782 00d9 03        		.uleb128 0x3
 1783 00da 0E        		.uleb128 0xe
 1784 00db 3A        		.uleb128 0x3a
 1785 00dc 0B        		.uleb128 0xb
 1786 00dd 3B        		.uleb128 0x3b
 1787 00de 05        		.uleb128 0x5
 1788 00df 27        		.uleb128 0x27
 1789 00e0 0C        		.uleb128 0xc
 1790 00e1 49        		.uleb128 0x49
 1791 00e2 13        		.uleb128 0x13
 1792 00e3 11        		.uleb128 0x11
 1793 00e4 01        		.uleb128 0x1
 1794 00e5 12        		.uleb128 0x12
 1795 00e6 01        		.uleb128 0x1
 1796 00e7 40        		.uleb128 0x40
 1797 00e8 0A        		.uleb128 0xa
 1798 00e9 01        		.uleb128 0x1
 1799 00ea 13        		.uleb128 0x13
 1800 00eb 00        		.byte	0x0
 1801 00ec 00        		.byte	0x0
 1802 00ed 10        		.uleb128 0x10
 1803 00ee 34        		.uleb128 0x34
 1804 00ef 00        		.byte	0x0
 1805 00f0 03        		.uleb128 0x3
 1806 00f1 08        		.uleb128 0x8
 1807 00f2 3A        		.uleb128 0x3a
 1808 00f3 0B        		.uleb128 0xb
 1809 00f4 3B        		.uleb128 0x3b
 1810 00f5 05        		.uleb128 0x5
 1811 00f6 49        		.uleb128 0x49
 1812 00f7 13        		.uleb128 0x13
 1813 00f8 00        		.byte	0x0
 1814 00f9 00        		.byte	0x0
 1815 00fa 11        		.uleb128 0x11
 1816 00fb 1D        		.uleb128 0x1d
 1817 00fc 01        		.byte	0x1
 1818 00fd 31        		.uleb128 0x31
 1819 00fe 13        		.uleb128 0x13
 1820 00ff 11        		.uleb128 0x11
 1821 0100 01        		.uleb128 0x1
 1822 0101 12        		.uleb128 0x12
 1823 0102 01        		.uleb128 0x1
 1824 0103 58        		.uleb128 0x58
GAS LISTING D:\DOCUME~1\alex\LOCALS~1\Temp/ccoSPUC8.s 			page 33


 1825 0104 0B        		.uleb128 0xb
 1826 0105 59        		.uleb128 0x59
 1827 0106 05        		.uleb128 0x5
 1828 0107 00        		.byte	0x0
 1829 0108 00        		.byte	0x0
 1830 0109 12        		.uleb128 0x12
 1831 010a 05        		.uleb128 0x5
 1832 010b 00        		.byte	0x0
 1833 010c 31        		.uleb128 0x31
 1834 010d 13        		.uleb128 0x13
 1835 010e 02        		.uleb128 0x2
 1836 010f 06        		.uleb128 0x6
 1837 0110 00        		.byte	0x0
 1838 0111 00        		.byte	0x0
 1839 0112 13        		.uleb128 0x13
 1840 0113 2E        		.uleb128 0x2e
 1841 0114 01        		.byte	0x1
 1842 0115 3F        		.uleb128 0x3f
 1843 0116 0C        		.uleb128 0xc
 1844 0117 03        		.uleb128 0x3
 1845 0118 0E        		.uleb128 0xe
 1846 0119 3A        		.uleb128 0x3a
 1847 011a 0B        		.uleb128 0xb
 1848 011b 3B        		.uleb128 0x3b
 1849 011c 05        		.uleb128 0x5
 1850 011d 27        		.uleb128 0x27
 1851 011e 0C        		.uleb128 0xc
 1852 011f 11        		.uleb128 0x11
 1853 0120 01        		.uleb128 0x1
 1854 0121 12        		.uleb128 0x12
 1855 0122 01        		.uleb128 0x1
 1856 0123 40        		.uleb128 0x40
 1857 0124 0A        		.uleb128 0xa
 1858 0125 01        		.uleb128 0x1
 1859 0126 13        		.uleb128 0x13
 1860 0127 00        		.byte	0x0
 1861 0128 00        		.byte	0x0
 1862 0129 14        		.uleb128 0x14
 1863 012a 05        		.uleb128 0x5
 1864 012b 00        		.byte	0x0
 1865 012c 03        		.uleb128 0x3
 1866 012d 08        		.uleb128 0x8
 1867 012e 3A        		.uleb128 0x3a
 1868 012f 0B        		.uleb128 0xb
 1869 0130 3B        		.uleb128 0x3b
 1870 0131 05        		.uleb128 0x5
 1871 0132 49        		.uleb128 0x49
 1872 0133 13        		.uleb128 0x13
 1873 0134 02        		.uleb128 0x2
 1874 0135 0A        		.uleb128 0xa
 1875 0136 00        		.byte	0x0
 1876 0137 00        		.byte	0x0
 1877 0138 15        		.uleb128 0x15
 1878 0139 05        		.uleb128 0x5
 1879 013a 00        		.byte	0x0
 1880 013b 03        		.uleb128 0x3
 1881 013c 08        		.uleb128 0x8
GAS LISTING D:\DOCUME~1\alex\LOCALS~1\Temp/ccoSPUC8.s 			page 34


 1882 013d 3A        		.uleb128 0x3a
 1883 013e 0B        		.uleb128 0xb
 1884 013f 3B        		.uleb128 0x3b
 1885 0140 05        		.uleb128 0x5
 1886 0141 49        		.uleb128 0x49
 1887 0142 13        		.uleb128 0x13
 1888 0143 02        		.uleb128 0x2
 1889 0144 06        		.uleb128 0x6
 1890 0145 00        		.byte	0x0
 1891 0146 00        		.byte	0x0
 1892 0147 16        		.uleb128 0x16
 1893 0148 05        		.uleb128 0x5
 1894 0149 00        		.byte	0x0
 1895 014a 03        		.uleb128 0x3
 1896 014b 0E        		.uleb128 0xe
 1897 014c 3A        		.uleb128 0x3a
 1898 014d 0B        		.uleb128 0xb
 1899 014e 3B        		.uleb128 0x3b
 1900 014f 05        		.uleb128 0x5
 1901 0150 49        		.uleb128 0x49
 1902 0151 13        		.uleb128 0x13
 1903 0152 02        		.uleb128 0x2
 1904 0153 06        		.uleb128 0x6
 1905 0154 00        		.byte	0x0
 1906 0155 00        		.byte	0x0
 1907 0156 17        		.uleb128 0x17
 1908 0157 2E        		.uleb128 0x2e
 1909 0158 00        		.byte	0x0
 1910 0159 3F        		.uleb128 0x3f
 1911 015a 0C        		.uleb128 0xc
 1912 015b 03        		.uleb128 0x3
 1913 015c 0E        		.uleb128 0xe
 1914 015d 3A        		.uleb128 0x3a
 1915 015e 0B        		.uleb128 0xb
 1916 015f 3B        		.uleb128 0x3b
 1917 0160 05        		.uleb128 0x5
 1918 0161 27        		.uleb128 0x27
 1919 0162 0C        		.uleb128 0xc
 1920 0163 49        		.uleb128 0x49
 1921 0164 13        		.uleb128 0x13
 1922 0165 11        		.uleb128 0x11
 1923 0166 01        		.uleb128 0x1
 1924 0167 12        		.uleb128 0x12
 1925 0168 01        		.uleb128 0x1
 1926 0169 40        		.uleb128 0x40
 1927 016a 0A        		.uleb128 0xa
 1928 016b 00        		.byte	0x0
 1929 016c 00        		.byte	0x0
 1930 016d 18        		.uleb128 0x18
 1931 016e 2E        		.uleb128 0x2e
 1932 016f 00        		.byte	0x0
 1933 0170 3F        		.uleb128 0x3f
 1934 0171 0C        		.uleb128 0xc
 1935 0172 03        		.uleb128 0x3
 1936 0173 0E        		.uleb128 0xe
 1937 0174 3A        		.uleb128 0x3a
 1938 0175 0B        		.uleb128 0xb
GAS LISTING D:\DOCUME~1\alex\LOCALS~1\Temp/ccoSPUC8.s 			page 35


 1939 0176 3B        		.uleb128 0x3b
 1940 0177 05        		.uleb128 0x5
 1941 0178 27        		.uleb128 0x27
 1942 0179 0C        		.uleb128 0xc
 1943 017a 11        		.uleb128 0x11
 1944 017b 01        		.uleb128 0x1
 1945 017c 12        		.uleb128 0x12
 1946 017d 01        		.uleb128 0x1
 1947 017e 40        		.uleb128 0x40
 1948 017f 0A        		.uleb128 0xa
 1949 0180 00        		.byte	0x0
 1950 0181 00        		.byte	0x0
 1951 0182 19        		.uleb128 0x19
 1952 0183 2E        		.uleb128 0x2e
 1953 0184 01        		.byte	0x1
 1954 0185 03        		.uleb128 0x3
 1955 0186 0E        		.uleb128 0xe
 1956 0187 3A        		.uleb128 0x3a
 1957 0188 0B        		.uleb128 0xb
 1958 0189 3B        		.uleb128 0x3b
 1959 018a 05        		.uleb128 0x5
 1960 018b 27        		.uleb128 0x27
 1961 018c 0C        		.uleb128 0xc
 1962 018d 20        		.uleb128 0x20
 1963 018e 0B        		.uleb128 0xb
 1964 018f 01        		.uleb128 0x1
 1965 0190 13        		.uleb128 0x13
 1966 0191 00        		.byte	0x0
 1967 0192 00        		.byte	0x0
 1968 0193 1A        		.uleb128 0x1a
 1969 0194 05        		.uleb128 0x5
 1970 0195 00        		.byte	0x0
 1971 0196 03        		.uleb128 0x3
 1972 0197 08        		.uleb128 0x8
 1973 0198 3A        		.uleb128 0x3a
 1974 0199 0B        		.uleb128 0xb
 1975 019a 3B        		.uleb128 0x3b
 1976 019b 05        		.uleb128 0x5
 1977 019c 49        		.uleb128 0x49
 1978 019d 13        		.uleb128 0x13
 1979 019e 00        		.byte	0x0
 1980 019f 00        		.byte	0x0
 1981 01a0 1B        		.uleb128 0x1b
 1982 01a1 34        		.uleb128 0x34
 1983 01a2 00        		.byte	0x0
 1984 01a3 03        		.uleb128 0x3
 1985 01a4 0E        		.uleb128 0xe
 1986 01a5 3A        		.uleb128 0x3a
 1987 01a6 0B        		.uleb128 0xb
 1988 01a7 3B        		.uleb128 0x3b
 1989 01a8 05        		.uleb128 0x5
 1990 01a9 49        		.uleb128 0x49
 1991 01aa 13        		.uleb128 0x13
 1992 01ab 00        		.byte	0x0
 1993 01ac 00        		.byte	0x0
 1994 01ad 1C        		.uleb128 0x1c
 1995 01ae 34        		.uleb128 0x34
GAS LISTING D:\DOCUME~1\alex\LOCALS~1\Temp/ccoSPUC8.s 			page 36


 1996 01af 00        		.byte	0x0
 1997 01b0 03        		.uleb128 0x3
 1998 01b1 08        		.uleb128 0x8
 1999 01b2 3A        		.uleb128 0x3a
 2000 01b3 0B        		.uleb128 0xb
 2001 01b4 3B        		.uleb128 0x3b
 2002 01b5 05        		.uleb128 0x5
 2003 01b6 49        		.uleb128 0x49
 2004 01b7 13        		.uleb128 0x13
 2005 01b8 02        		.uleb128 0x2
 2006 01b9 06        		.uleb128 0x6
 2007 01ba 00        		.byte	0x0
 2008 01bb 00        		.byte	0x0
 2009 01bc 1D        		.uleb128 0x1d
 2010 01bd 05        		.uleb128 0x5
 2011 01be 00        		.byte	0x0
 2012 01bf 31        		.uleb128 0x31
 2013 01c0 13        		.uleb128 0x13
 2014 01c1 00        		.byte	0x0
 2015 01c2 00        		.byte	0x0
 2016 01c3 1E        		.uleb128 0x1e
 2017 01c4 0B        		.uleb128 0xb
 2018 01c5 01        		.byte	0x1
 2019 01c6 11        		.uleb128 0x11
 2020 01c7 01        		.uleb128 0x1
 2021 01c8 12        		.uleb128 0x12
 2022 01c9 01        		.uleb128 0x1
 2023 01ca 00        		.byte	0x0
 2024 01cb 00        		.byte	0x0
 2025 01cc 1F        		.uleb128 0x1f
 2026 01cd 34        		.uleb128 0x34
 2027 01ce 00        		.byte	0x0
 2028 01cf 31        		.uleb128 0x31
 2029 01d0 13        		.uleb128 0x13
 2030 01d1 02        		.uleb128 0x2
 2031 01d2 06        		.uleb128 0x6
 2032 01d3 00        		.byte	0x0
 2033 01d4 00        		.byte	0x0
 2034 01d5 20        		.uleb128 0x20
 2035 01d6 0F        		.uleb128 0xf
 2036 01d7 00        		.byte	0x0
 2037 01d8 0B        		.uleb128 0xb
 2038 01d9 0B        		.uleb128 0xb
 2039 01da 49        		.uleb128 0x49
 2040 01db 13        		.uleb128 0x13
 2041 01dc 00        		.byte	0x0
 2042 01dd 00        		.byte	0x0
 2043 01de 21        		.uleb128 0x21
 2044 01df 26        		.uleb128 0x26
 2045 01e0 00        		.byte	0x0
 2046 01e1 49        		.uleb128 0x49
 2047 01e2 13        		.uleb128 0x13
 2048 01e3 00        		.byte	0x0
 2049 01e4 00        		.byte	0x0
 2050 01e5 22        		.uleb128 0x22
 2051 01e6 34        		.uleb128 0x34
 2052 01e7 00        		.byte	0x0
GAS LISTING D:\DOCUME~1\alex\LOCALS~1\Temp/ccoSPUC8.s 			page 37


 2053 01e8 03        		.uleb128 0x3
 2054 01e9 0E        		.uleb128 0xe
 2055 01ea 3A        		.uleb128 0x3a
 2056 01eb 0B        		.uleb128 0xb
 2057 01ec 3B        		.uleb128 0x3b
 2058 01ed 05        		.uleb128 0x5
 2059 01ee 49        		.uleb128 0x49
 2060 01ef 13        		.uleb128 0x13
 2061 01f0 02        		.uleb128 0x2
 2062 01f1 06        		.uleb128 0x6
 2063 01f2 00        		.byte	0x0
 2064 01f3 00        		.byte	0x0
 2065 01f4 23        		.uleb128 0x23
 2066 01f5 2E        		.uleb128 0x2e
 2067 01f6 01        		.byte	0x1
 2068 01f7 3F        		.uleb128 0x3f
 2069 01f8 0C        		.uleb128 0xc
 2070 01f9 03        		.uleb128 0x3
 2071 01fa 0E        		.uleb128 0xe
 2072 01fb 3A        		.uleb128 0x3a
 2073 01fc 0B        		.uleb128 0xb
 2074 01fd 3B        		.uleb128 0x3b
 2075 01fe 05        		.uleb128 0x5
 2076 01ff 27        		.uleb128 0x27
 2077 0200 0C        		.uleb128 0xc
 2078 0201 11        		.uleb128 0x11
 2079 0202 01        		.uleb128 0x1
 2080 0203 12        		.uleb128 0x12
 2081 0204 01        		.uleb128 0x1
 2082 0205 40        		.uleb128 0x40
 2083 0206 0A        		.uleb128 0xa
 2084 0207 00        		.byte	0x0
 2085 0208 00        		.byte	0x0
 2086 0209 24        		.uleb128 0x24
 2087 020a 1D        		.uleb128 0x1d
 2088 020b 01        		.byte	0x1
 2089 020c 31        		.uleb128 0x31
 2090 020d 13        		.uleb128 0x13
 2091 020e 11        		.uleb128 0x11
 2092 020f 01        		.uleb128 0x1
 2093 0210 12        		.uleb128 0x12
 2094 0211 01        		.uleb128 0x1
 2095 0212 58        		.uleb128 0x58
 2096 0213 0B        		.uleb128 0xb
 2097 0214 59        		.uleb128 0x59
 2098 0215 05        		.uleb128 0x5
 2099 0216 01        		.uleb128 0x1
 2100 0217 13        		.uleb128 0x13
 2101 0218 00        		.byte	0x0
 2102 0219 00        		.byte	0x0
 2103 021a 25        		.uleb128 0x25
 2104 021b 05        		.uleb128 0x5
 2105 021c 00        		.byte	0x0
 2106 021d 31        		.uleb128 0x31
 2107 021e 13        		.uleb128 0x13
 2108 021f 02        		.uleb128 0x2
 2109 0220 0A        		.uleb128 0xa
GAS LISTING D:\DOCUME~1\alex\LOCALS~1\Temp/ccoSPUC8.s 			page 38


 2110 0221 00        		.byte	0x0
 2111 0222 00        		.byte	0x0
 2112 0223 00        		.byte	0x0
 2113               		.section	.debug_pubnames,"",@progbits
 2114 0000 AC00 0000 		.long	0xac
 2115 0004 0200      		.word	0x2
 2116 0006 0000 0000 		.long	.Ldebug_info0
 2117 000a 3B04 0000 		.long	0x43b
 2118 000e 5C01 0000 		.long	0x15c
 2119 0012 6C63 645F 		.string	"lcd_backlight"
 2119      6261 636B 
 2119      6C69 6768 
 2119      7400 
 2120 0020 8401 0000 		.long	0x184
 2121 0024 6C63 645F 		.string	"lcd_command"
 2121      636F 6D6D 
 2121      616E 6400 
 2122 0030 AE01 0000 		.long	0x1ae
 2123 0034 6C63 645F 		.string	"lcd_data"
 2123      6461 7461 
 2123      00
 2124 003d D801 0000 		.long	0x1d8
 2125 0041 6C63 645F 		.string	"lcd_gotoxy"
 2125      676F 746F 
 2125      7879 00
 2126 004c 0E02 0000 		.long	0x20e
 2127 0050 6C63 645F 		.string	"lcd_getxy"
 2127      6765 7478 
 2127      7900 
 2128 005a 2702 0000 		.long	0x227
 2129 005e 6C63 645F 		.string	"lcd_clrscr"
 2129      636C 7273 
 2129      6372 00
 2130 0069 3C02 0000 		.long	0x23c
 2131 006d 6C63 645F 		.string	"lcd_home"
 2131      686F 6D65 
 2131      00
 2132 0076 7802 0000 		.long	0x278
 2133 007a 6C63 645F 		.string	"lcd_putc"
 2133      7075 7463 
 2133      00
 2134 0083 E002 0000 		.long	0x2e0
 2135 0087 6C63 645F 		.string	"lcd_puts"
 2135      7075 7473 
 2135      00
 2136 0090 2103 0000 		.long	0x321
 2137 0094 6C63 645F 		.string	"lcd_puts_p"
 2137      7075 7473 
 2137      5F70 00
 2138 009f 7F03 0000 		.long	0x37f
 2139 00a3 6C63 645F 		.string	"lcd_init"
 2139      696E 6974 
 2139      00
 2140 00ac 0000 0000 		.long	0x0
 2141               		.section	.debug_aranges,"",@progbits
 2142 0000 1C00 0000 		.long	0x1c
 2143 0004 0200      		.word	0x2
GAS LISTING D:\DOCUME~1\alex\LOCALS~1\Temp/ccoSPUC8.s 			page 39


 2144 0006 0000 0000 		.long	.Ldebug_info0
 2145 000a 04        		.byte	0x4
 2146 000b 00        		.byte	0x0
 2147 000c 0000      		.word	0x0
 2148 000e 0000      		.word	0x0
 2149 0010 0000 0000 		.long	.Ltext0
 2150 0014 CC01 0000 		.long	.Letext0-.Ltext0
 2151 0018 0000 0000 		.long	0x0
 2152 001c 0000 0000 		.long	0x0
 2153               		.section	.debug_line
 2154 0000 5A04 0000 		.long	.LELT0-.LSLT0
 2155               	.LSLT0:
 2156 0004 0200      		.word	0x2
 2157 0006 4E00 0000 		.long	.LELTP0-.LASLTP0
 2158               	.LASLTP0:
 2159 000a 01        		.byte	0x1
 2160 000b 01        		.byte	0x1
 2161 000c F6        		.byte	0xf6
 2162 000d F5        		.byte	0xf5
 2163 000e 0A        		.byte	0xa
 2164 000f 00        		.byte	0x0
 2165 0010 01        		.byte	0x1
 2166 0011 01        		.byte	0x1
 2167 0012 01        		.byte	0x1
 2168 0013 01        		.byte	0x1
 2169 0014 00        		.byte	0x0
 2170 0015 00        		.byte	0x0
 2171 0016 00        		.byte	0x0
 2172 0017 01        		.byte	0x1
 2173 0018 653A 2F77 		.ascii	"e:/winavr-20071221rc1/bin/../avr/include"
 2173      696E 6176 
 2173      722D 3230 
 2173      3037 3132 
 2173      3231 7263 
 2174 0040 00        		.byte	0
 2175 0041 00        		.byte	0x0
 2176 0042 6C63 642E 		.string	"lcd.c"
 2176      6300 
 2177 0048 00        		.uleb128 0x0
 2178 0049 00        		.uleb128 0x0
 2179 004a 00        		.uleb128 0x0
 2180 004b 7374 6469 		.string	"stdint.h"
 2180      6E74 2E68 
 2180      00
 2181 0054 01        		.uleb128 0x1
 2182 0055 00        		.uleb128 0x0
 2183 0056 00        		.uleb128 0x0
 2184 0057 00        		.byte	0x0
 2185               	.LELTP0:
 2186 0058 00        		.byte	0x0
 2187 0059 05        		.uleb128 0x5
 2188 005a 02        		.byte	0x2
 2189 005b 0000 0000 		.long	.LM1
 2190 005f 8C        		.byte	0x8c
 2191 0060 00        		.byte	0x0
 2192 0061 05        		.uleb128 0x5
 2193 0062 02        		.byte	0x2
GAS LISTING D:\DOCUME~1\alex\LOCALS~1\Temp/ccoSPUC8.s 			page 40


 2194 0063 0000 0000 		.long	.LM2
 2195 0067 15        		.byte	0x15
 2196 0068 00        		.byte	0x0
 2197 0069 05        		.uleb128 0x5
 2198 006a 02        		.byte	0x2
 2199 006b 0000 0000 		.long	.LM3
 2200 006f 15        		.byte	0x15
 2201 0070 00        		.byte	0x0
 2202 0071 05        		.uleb128 0x5
 2203 0072 02        		.byte	0x2
 2204 0073 0000 0000 		.long	.LM4
 2205 0077 15        		.byte	0x15
 2206 0078 00        		.byte	0x0
 2207 0079 05        		.uleb128 0x5
 2208 007a 02        		.byte	0x2
 2209 007b 0000 0000 		.long	.LM5
 2210 007f 22        		.byte	0x22
 2211 0080 00        		.byte	0x0
 2212 0081 05        		.uleb128 0x5
 2213 0082 02        		.byte	0x2
 2214 0083 0000 0000 		.long	.LM6
 2215 0087 18        		.byte	0x18
 2216 0088 00        		.byte	0x0
 2217 0089 05        		.uleb128 0x5
 2218 008a 02        		.byte	0x2
 2219 008b 0000 0000 		.long	.LM7
 2220 008f 15        		.byte	0x15
 2221 0090 00        		.byte	0x0
 2222 0091 05        		.uleb128 0x5
 2223 0092 02        		.byte	0x2
 2224 0093 0000 0000 		.long	.LM8
 2225 0097 16        		.byte	0x16
 2226 0098 00        		.byte	0x0
 2227 0099 05        		.uleb128 0x5
 2228 009a 02        		.byte	0x2
 2229 009b 0000 0000 		.long	.LM9
 2230 009f 16        		.byte	0x16
 2231 00a0 00        		.byte	0x0
 2232 00a1 05        		.uleb128 0x5
 2233 00a2 02        		.byte	0x2
 2234 00a3 0000 0000 		.long	.LM10
 2235 00a7 2B        		.byte	0x2b
 2236 00a8 00        		.byte	0x0
 2237 00a9 05        		.uleb128 0x5
 2238 00aa 02        		.byte	0x2
 2239 00ab 0000 0000 		.long	.LM11
 2240 00af 15        		.byte	0x15
 2241 00b0 00        		.byte	0x0
 2242 00b1 05        		.uleb128 0x5
 2243 00b2 02        		.byte	0x2
 2244 00b3 0000 0000 		.long	.LM12
 2245 00b7 15        		.byte	0x15
 2246 00b8 00        		.byte	0x0
 2247 00b9 05        		.uleb128 0x5
 2248 00ba 02        		.byte	0x2
 2249 00bb 0000 0000 		.long	.LM13
 2250 00bf 15        		.byte	0x15
GAS LISTING D:\DOCUME~1\alex\LOCALS~1\Temp/ccoSPUC8.s 			page 41


 2251 00c0 00        		.byte	0x0
 2252 00c1 05        		.uleb128 0x5
 2253 00c2 02        		.byte	0x2
 2254 00c3 0000 0000 		.long	.LM14
 2255 00c7 17        		.byte	0x17
 2256 00c8 00        		.byte	0x0
 2257 00c9 05        		.uleb128 0x5
 2258 00ca 02        		.byte	0x2
 2259 00cb 0000 0000 		.long	.LM15
 2260 00cf 15        		.byte	0x15
 2261 00d0 00        		.byte	0x0
 2262 00d1 05        		.uleb128 0x5
 2263 00d2 02        		.byte	0x2
 2264 00d3 0000 0000 		.long	.LM16
 2265 00d7 15        		.byte	0x15
 2266 00d8 00        		.byte	0x0
 2267 00d9 05        		.uleb128 0x5
 2268 00da 02        		.byte	0x2
 2269 00db 0000 0000 		.long	.LM17
 2270 00df 15        		.byte	0x15
 2271 00e0 00        		.byte	0x0
 2272 00e1 05        		.uleb128 0x5
 2273 00e2 02        		.byte	0x2
 2274 00e3 0000 0000 		.long	.LM18
 2275 00e7 15        		.byte	0x15
 2276 00e8 00        		.byte	0x0
 2277 00e9 05        		.uleb128 0x5
 2278 00ea 02        		.byte	0x2
 2279 00eb 0000 0000 		.long	.LM19
 2280 00ef 15        		.byte	0x15
 2281 00f0 00        		.byte	0x0
 2282 00f1 05        		.uleb128 0x5
 2283 00f2 02        		.byte	0x2
 2284 00f3 0000 0000 		.long	.LM20
 2285 00f7 15        		.byte	0x15
 2286 00f8 00        		.byte	0x0
 2287 00f9 05        		.uleb128 0x5
 2288 00fa 02        		.byte	0x2
 2289 00fb 0000 0000 		.long	.LM21
 2290 00ff 15        		.byte	0x15
 2291 0100 00        		.byte	0x0
 2292 0101 05        		.uleb128 0x5
 2293 0102 02        		.byte	0x2
 2294 0103 0000 0000 		.long	.LM22
 2295 0107 15        		.byte	0x15
 2296 0108 00        		.byte	0x0
 2297 0109 05        		.uleb128 0x5
 2298 010a 02        		.byte	0x2
 2299 010b 0000 0000 		.long	.LM23
 2300 010f 17        		.byte	0x17
 2301 0110 00        		.byte	0x0
 2302 0111 05        		.uleb128 0x5
 2303 0112 02        		.byte	0x2
 2304 0113 0000 0000 		.long	.LM24
 2305 0117 15        		.byte	0x15
 2306 0118 00        		.byte	0x0
 2307 0119 05        		.uleb128 0x5
GAS LISTING D:\DOCUME~1\alex\LOCALS~1\Temp/ccoSPUC8.s 			page 42


 2308 011a 02        		.byte	0x2
 2309 011b 0000 0000 		.long	.LM25
 2310 011f 15        		.byte	0x15
 2311 0120 00        		.byte	0x0
 2312 0121 05        		.uleb128 0x5
 2313 0122 02        		.byte	0x2
 2314 0123 0000 0000 		.long	.LM26
 2315 0127 15        		.byte	0x15
 2316 0128 00        		.byte	0x0
 2317 0129 05        		.uleb128 0x5
 2318 012a 02        		.byte	0x2
 2319 012b 0000 0000 		.long	.LM27
 2320 012f 15        		.byte	0x15
 2321 0130 00        		.byte	0x0
 2322 0131 05        		.uleb128 0x5
 2323 0132 02        		.byte	0x2
 2324 0133 0000 0000 		.long	.LM28
 2325 0137 15        		.byte	0x15
 2326 0138 00        		.byte	0x0
 2327 0139 05        		.uleb128 0x5
 2328 013a 02        		.byte	0x2
 2329 013b 0000 0000 		.long	.LM29
 2330 013f 15        		.byte	0x15
 2331 0140 00        		.byte	0x0
 2332 0141 05        		.uleb128 0x5
 2333 0142 02        		.byte	0x2
 2334 0143 0000 0000 		.long	.LM30
 2335 0147 15        		.byte	0x15
 2336 0148 00        		.byte	0x0
 2337 0149 05        		.uleb128 0x5
 2338 014a 02        		.byte	0x2
 2339 014b 0000 0000 		.long	.LM31
 2340 014f 15        		.byte	0x15
 2341 0150 00        		.byte	0x0
 2342 0151 05        		.uleb128 0x5
 2343 0152 02        		.byte	0x2
 2344 0153 0000 0000 		.long	.LM32
 2345 0157 17        		.byte	0x17
 2346 0158 00        		.byte	0x0
 2347 0159 05        		.uleb128 0x5
 2348 015a 02        		.byte	0x2
 2349 015b 0000 0000 		.long	.LM33
 2350 015f 15        		.byte	0x15
 2351 0160 00        		.byte	0x0
 2352 0161 05        		.uleb128 0x5
 2353 0162 02        		.byte	0x2
 2354 0163 0000 0000 		.long	.LM34
 2355 0167 15        		.byte	0x15
 2356 0168 00        		.byte	0x0
 2357 0169 05        		.uleb128 0x5
 2358 016a 02        		.byte	0x2
 2359 016b 0000 0000 		.long	.LM35
 2360 016f 15        		.byte	0x15
 2361 0170 00        		.byte	0x0
 2362 0171 05        		.uleb128 0x5
 2363 0172 02        		.byte	0x2
 2364 0173 0000 0000 		.long	.LM36
GAS LISTING D:\DOCUME~1\alex\LOCALS~1\Temp/ccoSPUC8.s 			page 43


 2365 0177 26        		.byte	0x26
 2366 0178 00        		.byte	0x0
 2367 0179 05        		.uleb128 0x5
 2368 017a 02        		.byte	0x2
 2369 017b 0000 0000 		.long	.LM37
 2370 017f 18        		.byte	0x18
 2371 0180 00        		.byte	0x0
 2372 0181 05        		.uleb128 0x5
 2373 0182 02        		.byte	0x2
 2374 0183 0000 0000 		.long	.LM38
 2375 0187 15        		.byte	0x15
 2376 0188 00        		.byte	0x0
 2377 0189 05        		.uleb128 0x5
 2378 018a 02        		.byte	0x2
 2379 018b 0000 0000 		.long	.LM39
 2380 018f 16        		.byte	0x16
 2381 0190 00        		.byte	0x0
 2382 0191 05        		.uleb128 0x5
 2383 0192 02        		.byte	0x2
 2384 0193 0000 0000 		.long	.LM40
 2385 0197 15        		.byte	0x15
 2386 0198 00        		.byte	0x0
 2387 0199 05        		.uleb128 0x5
 2388 019a 02        		.byte	0x2
 2389 019b 0000 0000 		.long	.LM41
 2390 019f 2A        		.byte	0x2a
 2391 01a0 00        		.byte	0x0
 2392 01a1 05        		.uleb128 0x5
 2393 01a2 02        		.byte	0x2
 2394 01a3 0000 0000 		.long	.LM42
 2395 01a7 15        		.byte	0x15
 2396 01a8 00        		.byte	0x0
 2397 01a9 05        		.uleb128 0x5
 2398 01aa 02        		.byte	0x2
 2399 01ab 0000 0000 		.long	.LM43
 2400 01af 15        		.byte	0x15
 2401 01b0 00        		.byte	0x0
 2402 01b1 05        		.uleb128 0x5
 2403 01b2 02        		.byte	0x2
 2404 01b3 0000 0000 		.long	.LM44
 2405 01b7 15        		.byte	0x15
 2406 01b8 00        		.byte	0x0
 2407 01b9 05        		.uleb128 0x5
 2408 01ba 02        		.byte	0x2
 2409 01bb 0000 0000 		.long	.LM45
 2410 01bf 17        		.byte	0x17
 2411 01c0 00        		.byte	0x0
 2412 01c1 05        		.uleb128 0x5
 2413 01c2 02        		.byte	0x2
 2414 01c3 0000 0000 		.long	.LM46
 2415 01c7 15        		.byte	0x15
 2416 01c8 00        		.byte	0x0
 2417 01c9 05        		.uleb128 0x5
 2418 01ca 02        		.byte	0x2
 2419 01cb 0000 0000 		.long	.LM47
 2420 01cf 16        		.byte	0x16
 2421 01d0 00        		.byte	0x0
GAS LISTING D:\DOCUME~1\alex\LOCALS~1\Temp/ccoSPUC8.s 			page 44


 2422 01d1 05        		.uleb128 0x5
 2423 01d2 02        		.byte	0x2
 2424 01d3 0000 0000 		.long	.LM48
 2425 01d7 15        		.byte	0x15
 2426 01d8 00        		.byte	0x0
 2427 01d9 05        		.uleb128 0x5
 2428 01da 02        		.byte	0x2
 2429 01db 0000 0000 		.long	.LM49
 2430 01df 15        		.byte	0x15
 2431 01e0 00        		.byte	0x0
 2432 01e1 05        		.uleb128 0x5
 2433 01e2 02        		.byte	0x2
 2434 01e3 0000 0000 		.long	.LM50
 2435 01e7 15        		.byte	0x15
 2436 01e8 00        		.byte	0x0
 2437 01e9 05        		.uleb128 0x5
 2438 01ea 02        		.byte	0x2
 2439 01eb 0000 0000 		.long	.LM51
 2440 01ef 15        		.byte	0x15
 2441 01f0 00        		.byte	0x0
 2442 01f1 05        		.uleb128 0x5
 2443 01f2 02        		.byte	0x2
 2444 01f3 0000 0000 		.long	.LM52
 2445 01f7 16        		.byte	0x16
 2446 01f8 00        		.byte	0x0
 2447 01f9 05        		.uleb128 0x5
 2448 01fa 02        		.byte	0x2
 2449 01fb 0000 0000 		.long	.LM53
 2450 01ff 17        		.byte	0x17
 2451 0200 00        		.byte	0x0
 2452 0201 05        		.uleb128 0x5
 2453 0202 02        		.byte	0x2
 2454 0203 0000 0000 		.long	.LM54
 2455 0207 15        		.byte	0x15
 2456 0208 00        		.byte	0x0
 2457 0209 05        		.uleb128 0x5
 2458 020a 02        		.byte	0x2
 2459 020b 0000 0000 		.long	.LM55
 2460 020f 15        		.byte	0x15
 2461 0210 00        		.byte	0x0
 2462 0211 05        		.uleb128 0x5
 2463 0212 02        		.byte	0x2
 2464 0213 0000 0000 		.long	.LM56
 2465 0217 15        		.byte	0x15
 2466 0218 00        		.byte	0x0
 2467 0219 05        		.uleb128 0x5
 2468 021a 02        		.byte	0x2
 2469 021b 0000 0000 		.long	.LM57
 2470 021f 15        		.byte	0x15
 2471 0220 00        		.byte	0x0
 2472 0221 05        		.uleb128 0x5
 2473 0222 02        		.byte	0x2
 2474 0223 0000 0000 		.long	.LM58
 2475 0227 15        		.byte	0x15
 2476 0228 00        		.byte	0x0
 2477 0229 05        		.uleb128 0x5
 2478 022a 02        		.byte	0x2
GAS LISTING D:\DOCUME~1\alex\LOCALS~1\Temp/ccoSPUC8.s 			page 45


 2479 022b 0000 0000 		.long	.LM59
 2480 022f 15        		.byte	0x15
 2481 0230 00        		.byte	0x0
 2482 0231 05        		.uleb128 0x5
 2483 0232 02        		.byte	0x2
 2484 0233 0000 0000 		.long	.LM60
 2485 0237 17        		.byte	0x17
 2486 0238 00        		.byte	0x0
 2487 0239 05        		.uleb128 0x5
 2488 023a 02        		.byte	0x2
 2489 023b 0000 0000 		.long	.LM61
 2490 023f 21        		.byte	0x21
 2491 0240 00        		.byte	0x0
 2492 0241 05        		.uleb128 0x5
 2493 0242 02        		.byte	0x2
 2494 0243 0000 0000 		.long	.LM62
 2495 0247 18        		.byte	0x18
 2496 0248 00        		.byte	0x0
 2497 0249 05        		.uleb128 0x5
 2498 024a 02        		.byte	0x2
 2499 024b 0000 0000 		.long	.LM63
 2500 024f 03        		.byte	0x3
 2501 0250 C17E      		.sleb128 -191
 2502 0252 01        		.byte	0x1
 2503 0253 00        		.byte	0x0
 2504 0254 05        		.uleb128 0x5
 2505 0255 02        		.byte	0x2
 2506 0256 0000 0000 		.long	.LM64
 2507 025a D9        		.byte	0xd9
 2508 025b 00        		.byte	0x0
 2509 025c 05        		.uleb128 0x5
 2510 025d 02        		.byte	0x2
 2511 025e 0000 0000 		.long	.LM65
 2512 0262 16        		.byte	0x16
 2513 0263 00        		.byte	0x0
 2514 0264 05        		.uleb128 0x5
 2515 0265 02        		.byte	0x2
 2516 0266 0000 0000 		.long	.LM66
 2517 026a 50        		.byte	0x50
 2518 026b 00        		.byte	0x0
 2519 026c 05        		.uleb128 0x5
 2520 026d 02        		.byte	0x2
 2521 026e 0000 0000 		.long	.LM67
 2522 0272 15        		.byte	0x15
 2523 0273 00        		.byte	0x0
 2524 0274 05        		.uleb128 0x5
 2525 0275 02        		.byte	0x2
 2526 0276 0000 0000 		.long	.LM68
 2527 027a 15        		.byte	0x15
 2528 027b 00        		.byte	0x0
 2529 027c 05        		.uleb128 0x5
 2530 027d 02        		.byte	0x2
 2531 027e 0000 0000 		.long	.LM69
 2532 0282 16        		.byte	0x16
 2533 0283 00        		.byte	0x0
 2534 0284 05        		.uleb128 0x5
 2535 0285 02        		.byte	0x2
GAS LISTING D:\DOCUME~1\alex\LOCALS~1\Temp/ccoSPUC8.s 			page 46


 2536 0286 0000 0000 		.long	.LM70
 2537 028a 20        		.byte	0x20
 2538 028b 00        		.byte	0x0
 2539 028c 05        		.uleb128 0x5
 2540 028d 02        		.byte	0x2
 2541 028e 0000 0000 		.long	.LM71
 2542 0292 15        		.byte	0x15
 2543 0293 00        		.byte	0x0
 2544 0294 05        		.uleb128 0x5
 2545 0295 02        		.byte	0x2
 2546 0296 0000 0000 		.long	.LM72
 2547 029a 15        		.byte	0x15
 2548 029b 00        		.byte	0x0
 2549 029c 05        		.uleb128 0x5
 2550 029d 02        		.byte	0x2
 2551 029e 0000 0000 		.long	.LM73
 2552 02a2 1E        		.byte	0x1e
 2553 02a3 00        		.byte	0x0
 2554 02a4 05        		.uleb128 0x5
 2555 02a5 02        		.byte	0x2
 2556 02a6 0000 0000 		.long	.LM74
 2557 02aa 15        		.byte	0x15
 2558 02ab 00        		.byte	0x0
 2559 02ac 05        		.uleb128 0x5
 2560 02ad 02        		.byte	0x2
 2561 02ae 0000 0000 		.long	.LM75
 2562 02b2 15        		.byte	0x15
 2563 02b3 00        		.byte	0x0
 2564 02b4 05        		.uleb128 0x5
 2565 02b5 02        		.byte	0x2
 2566 02b6 0000 0000 		.long	.LM76
 2567 02ba 20        		.byte	0x20
 2568 02bb 00        		.byte	0x0
 2569 02bc 05        		.uleb128 0x5
 2570 02bd 02        		.byte	0x2
 2571 02be 0000 0000 		.long	.LM77
 2572 02c2 19        		.byte	0x19
 2573 02c3 00        		.byte	0x0
 2574 02c4 05        		.uleb128 0x5
 2575 02c5 02        		.byte	0x2
 2576 02c6 0000 0000 		.long	.LM78
 2577 02ca 15        		.byte	0x15
 2578 02cb 00        		.byte	0x0
 2579 02cc 05        		.uleb128 0x5
 2580 02cd 02        		.byte	0x2
 2581 02ce 0000 0000 		.long	.LM79
 2582 02d2 16        		.byte	0x16
 2583 02d3 00        		.byte	0x0
 2584 02d4 05        		.uleb128 0x5
 2585 02d5 02        		.byte	0x2
 2586 02d6 0000 0000 		.long	.LM80
 2587 02da 27        		.byte	0x27
 2588 02db 00        		.byte	0x0
 2589 02dc 05        		.uleb128 0x5
 2590 02dd 02        		.byte	0x2
 2591 02de 0000 0000 		.long	.LM81
 2592 02e2 15        		.byte	0x15
GAS LISTING D:\DOCUME~1\alex\LOCALS~1\Temp/ccoSPUC8.s 			page 47


 2593 02e3 00        		.byte	0x0
 2594 02e4 05        		.uleb128 0x5
 2595 02e5 02        		.byte	0x2
 2596 02e6 0000 0000 		.long	.LM82
 2597 02ea 15        		.byte	0x15
 2598 02eb 00        		.byte	0x0
 2599 02ec 05        		.uleb128 0x5
 2600 02ed 02        		.byte	0x2
 2601 02ee 0000 0000 		.long	.LM83
 2602 02f2 1B        		.byte	0x1b
 2603 02f3 00        		.byte	0x0
 2604 02f4 05        		.uleb128 0x5
 2605 02f5 02        		.byte	0x2
 2606 02f6 0000 0000 		.long	.LM84
 2607 02fa 15        		.byte	0x15
 2608 02fb 00        		.byte	0x0
 2609 02fc 05        		.uleb128 0x5
 2610 02fd 02        		.byte	0x2
 2611 02fe 0000 0000 		.long	.LM85
 2612 0302 1C        		.byte	0x1c
 2613 0303 00        		.byte	0x0
 2614 0304 05        		.uleb128 0x5
 2615 0305 02        		.byte	0x2
 2616 0306 0000 0000 		.long	.LM86
 2617 030a 15        		.byte	0x15
 2618 030b 00        		.byte	0x0
 2619 030c 05        		.uleb128 0x5
 2620 030d 02        		.byte	0x2
 2621 030e 0000 0000 		.long	.LM87
 2622 0312 1E        		.byte	0x1e
 2623 0313 00        		.byte	0x0
 2624 0314 05        		.uleb128 0x5
 2625 0315 02        		.byte	0x2
 2626 0316 0000 0000 		.long	.LM88
 2627 031a 18        		.byte	0x18
 2628 031b 00        		.byte	0x0
 2629 031c 05        		.uleb128 0x5
 2630 031d 02        		.byte	0x2
 2631 031e 0000 0000 		.long	.LM89
 2632 0322 15        		.byte	0x15
 2633 0323 00        		.byte	0x0
 2634 0324 05        		.uleb128 0x5
 2635 0325 02        		.byte	0x2
 2636 0326 0000 0000 		.long	.LM90
 2637 032a 03        		.byte	0x3
 2638 032b ED7E      		.sleb128 -147
 2639 032d 01        		.byte	0x1
 2640 032e 00        		.byte	0x0
 2641 032f 05        		.uleb128 0x5
 2642 0330 02        		.byte	0x2
 2643 0331 0000 0000 		.long	.LM91
 2644 0335 2E        		.byte	0x2e
 2645 0336 00        		.byte	0x0
 2646 0337 05        		.uleb128 0x5
 2647 0338 02        		.byte	0x2
 2648 0339 0000 0000 		.long	.LM92
 2649 033d AB        		.byte	0xab
GAS LISTING D:\DOCUME~1\alex\LOCALS~1\Temp/ccoSPUC8.s 			page 48


 2650 033e 00        		.byte	0x0
 2651 033f 05        		.uleb128 0x5
 2652 0340 02        		.byte	0x2
 2653 0341 0000 0000 		.long	.LM93
 2654 0345 21        		.byte	0x21
 2655 0346 00        		.byte	0x0
 2656 0347 05        		.uleb128 0x5
 2657 0348 02        		.byte	0x2
 2658 0349 0000 0000 		.long	.LM94
 2659 034d 18        		.byte	0x18
 2660 034e 00        		.byte	0x0
 2661 034f 05        		.uleb128 0x5
 2662 0350 02        		.byte	0x2
 2663 0351 0000 0000 		.long	.LM95
 2664 0355 13        		.byte	0x13
 2665 0356 00        		.byte	0x0
 2666 0357 05        		.uleb128 0x5
 2667 0358 02        		.byte	0x2
 2668 0359 0000 0000 		.long	.LM96
 2669 035d 22        		.byte	0x22
 2670 035e 00        		.byte	0x0
 2671 035f 05        		.uleb128 0x5
 2672 0360 02        		.byte	0x2
 2673 0361 0000 0000 		.long	.LM97
 2674 0365 18        		.byte	0x18
 2675 0366 00        		.byte	0x0
 2676 0367 05        		.uleb128 0x5
 2677 0368 02        		.byte	0x2
 2678 0369 0000 0000 		.long	.LM98
 2679 036d 13        		.byte	0x13
 2680 036e 00        		.byte	0x0
 2681 036f 05        		.uleb128 0x5
 2682 0370 02        		.byte	0x2
 2683 0371 0000 0000 		.long	.LM99
 2684 0375 24        		.byte	0x24
 2685 0376 00        		.byte	0x0
 2686 0377 05        		.uleb128 0x5
 2687 0378 02        		.byte	0x2
 2688 0379 0000 0000 		.long	.LM100
 2689 037d 2E        		.byte	0x2e
 2690 037e 00        		.byte	0x0
 2691 037f 05        		.uleb128 0x5
 2692 0380 02        		.byte	0x2
 2693 0381 0000 0000 		.long	.LM101
 2694 0385 15        		.byte	0x15
 2695 0386 00        		.byte	0x0
 2696 0387 05        		.uleb128 0x5
 2697 0388 02        		.byte	0x2
 2698 0389 0000 0000 		.long	.LM102
 2699 038d 15        		.byte	0x15
 2700 038e 00        		.byte	0x0
 2701 038f 05        		.uleb128 0x5
 2702 0390 02        		.byte	0x2
 2703 0391 0000 0000 		.long	.LM103
 2704 0395 15        		.byte	0x15
 2705 0396 00        		.byte	0x0
 2706 0397 05        		.uleb128 0x5
GAS LISTING D:\DOCUME~1\alex\LOCALS~1\Temp/ccoSPUC8.s 			page 49


 2707 0398 02        		.byte	0x2
 2708 0399 0000 0000 		.long	.LM104
 2709 039d 15        		.byte	0x15
 2710 039e 00        		.byte	0x0
 2711 039f 05        		.uleb128 0x5
 2712 03a0 02        		.byte	0x2
 2713 03a1 0000 0000 		.long	.LM105
 2714 03a5 15        		.byte	0x15
 2715 03a6 00        		.byte	0x0
 2716 03a7 05        		.uleb128 0x5
 2717 03a8 02        		.byte	0x2
 2718 03a9 0000 0000 		.long	.LM106
 2719 03ad 15        		.byte	0x15
 2720 03ae 00        		.byte	0x0
 2721 03af 05        		.uleb128 0x5
 2722 03b0 02        		.byte	0x2
 2723 03b1 0000 0000 		.long	.LM107
 2724 03b5 03        		.byte	0x3
 2725 03b6 A77C      		.sleb128 -473
 2726 03b8 01        		.byte	0x1
 2727 03b9 00        		.byte	0x0
 2728 03ba 05        		.uleb128 0x5
 2729 03bb 02        		.byte	0x2
 2730 03bc 0000 0000 		.long	.LM108
 2731 03c0 03        		.byte	0x3
 2732 03c1 DE03      		.sleb128 478
 2733 03c3 01        		.byte	0x1
 2734 03c4 00        		.byte	0x0
 2735 03c5 05        		.uleb128 0x5
 2736 03c6 02        		.byte	0x2
 2737 03c7 0000 0000 		.long	.LM109
 2738 03cb 15        		.byte	0x15
 2739 03cc 00        		.byte	0x0
 2740 03cd 05        		.uleb128 0x5
 2741 03ce 02        		.byte	0x2
 2742 03cf 0000 0000 		.long	.LM110
 2743 03d3 15        		.byte	0x15
 2744 03d4 00        		.byte	0x0
 2745 03d5 05        		.uleb128 0x5
 2746 03d6 02        		.byte	0x2
 2747 03d7 0000 0000 		.long	.LM111
 2748 03db 03        		.byte	0x3
 2749 03dc A07C      		.sleb128 -480
 2750 03de 01        		.byte	0x1
 2751 03df 00        		.byte	0x0
 2752 03e0 05        		.uleb128 0x5
 2753 03e1 02        		.byte	0x2
 2754 03e2 0000 0000 		.long	.LM112
 2755 03e6 03        		.byte	0x3
 2756 03e7 E403      		.sleb128 484
 2757 03e9 01        		.byte	0x1
 2758 03ea 00        		.byte	0x0
 2759 03eb 05        		.uleb128 0x5
 2760 03ec 02        		.byte	0x2
 2761 03ed 0000 0000 		.long	.LM113
 2762 03f1 03        		.byte	0x3
 2763 03f2 9C7C      		.sleb128 -484
GAS LISTING D:\DOCUME~1\alex\LOCALS~1\Temp/ccoSPUC8.s 			page 50


 2764 03f4 01        		.byte	0x1
 2765 03f5 00        		.byte	0x0
 2766 03f6 05        		.uleb128 0x5
 2767 03f7 02        		.byte	0x2
 2768 03f8 0000 0000 		.long	.LM114
 2769 03fc 03        		.byte	0x3
 2770 03fd E803      		.sleb128 488
 2771 03ff 01        		.byte	0x1
 2772 0400 00        		.byte	0x0
 2773 0401 05        		.uleb128 0x5
 2774 0402 02        		.byte	0x2
 2775 0403 0000 0000 		.long	.LM115
 2776 0407 03        		.byte	0x3
 2777 0408 987C      		.sleb128 -488
 2778 040a 01        		.byte	0x1
 2779 040b 00        		.byte	0x0
 2780 040c 05        		.uleb128 0x5
 2781 040d 02        		.byte	0x2
 2782 040e 0000 0000 		.long	.LM116
 2783 0412 03        		.byte	0x3
 2784 0413 EC03      		.sleb128 492
 2785 0415 01        		.byte	0x1
 2786 0416 00        		.byte	0x0
 2787 0417 05        		.uleb128 0x5
 2788 0418 02        		.byte	0x2
 2789 0419 0000 0000 		.long	.LM117
 2790 041d 15        		.byte	0x15
 2791 041e 00        		.byte	0x0
 2792 041f 05        		.uleb128 0x5
 2793 0420 02        		.byte	0x2
 2794 0421 0000 0000 		.long	.LM118
 2795 0425 03        		.byte	0x3
 2796 0426 937C      		.sleb128 -493
 2797 0428 01        		.byte	0x1
 2798 0429 00        		.byte	0x0
 2799 042a 05        		.uleb128 0x5
 2800 042b 02        		.byte	0x2
 2801 042c 0000 0000 		.long	.LM119
 2802 0430 03        		.byte	0x3
 2803 0431 8904      		.sleb128 521
 2804 0433 01        		.byte	0x1
 2805 0434 00        		.byte	0x0
 2806 0435 05        		.uleb128 0x5
 2807 0436 02        		.byte	0x2
 2808 0437 0000 0000 		.long	.LM120
 2809 043b 16        		.byte	0x16
 2810 043c 00        		.byte	0x0
 2811 043d 05        		.uleb128 0x5
 2812 043e 02        		.byte	0x2
 2813 043f 0000 0000 		.long	.LM121
 2814 0443 15        		.byte	0x15
 2815 0444 00        		.byte	0x0
 2816 0445 05        		.uleb128 0x5
 2817 0446 02        		.byte	0x2
 2818 0447 0000 0000 		.long	.LM122
 2819 044b 15        		.byte	0x15
 2820 044c 00        		.byte	0x0
GAS LISTING D:\DOCUME~1\alex\LOCALS~1\Temp/ccoSPUC8.s 			page 51


 2821 044d 05        		.uleb128 0x5
 2822 044e 02        		.byte	0x2
 2823 044f 0000 0000 		.long	.LM123
 2824 0453 15        		.byte	0x15
 2825 0454 00        		.byte	0x0
 2826 0455 05        		.uleb128 0x5
 2827 0456 02        		.byte	0x2
 2828 0457 0000 0000 		.long	.Letext0
 2829 045b 00        		.byte	0x0
 2830 045c 01        		.uleb128 0x1
 2831 045d 01        		.byte	0x1
 2832               	.LELT0:
 2833 045e 1900 0000 		.section	.debug_str,"MS",@progbits,1
 2833      0200 1300 
 2833      0000 0101 
 2833      FB0E 0D00 
 2833      0101 0101 
 2834               	.LASF22:
 2835 0000 6164 6472 		.string	"addressCounter"
 2835      6573 7343 
 2835      6F75 6E74 
 2835      6572 00
 2836               	.LASF25:
 2837 000f 6C63 645F 		.string	"lcd_puts"
 2837      7075 7473 
 2837      00
 2838               	.LASF14:
 2839 0018 6C63 645F 		.string	"lcd_command"
 2839      636F 6D6D 
 2839      616E 6400 
 2840               	.LASF17:
 2841 0024 6C63 645F 		.string	"lcd_clrscr"
 2841      636C 7273 
 2841      6372 00
 2842               	.LASF31:
 2843 002f 474E 5520 		.string	"GNU C 4.2.2 (WinAVR 20071221rc1)"
 2843      4320 342E 
 2843      322E 3220 
 2843      2857 696E 
 2843      4156 5220 
 2844               	.LASF35:
 2845 0050 6C63 645F 		.string	"lcd_write"
 2845      7772 6974 
 2845      6500 
 2846               	.LASF33:
 2847 005a 453A 5C61 		.string	"E:\\avr\\serial_lcd2"
 2847      7672 5C73 
 2847      6572 6961 
 2847      6C5F 6C63 
 2847      6432 00
 2848               	.LASF9:
 2849 006d 6461 7461 		.string	"data"
 2849      00
 2850               	.LASF34:
 2851 0072 746F 6767 		.string	"toggle_e"
 2851      6C65 5F65 
 2851      00
GAS LISTING D:\DOCUME~1\alex\LOCALS~1\Temp/ccoSPUC8.s 			page 52


 2852               	.LASF1:
 2853 007b 756E 7369 		.string	"unsigned char"
 2853      676E 6564 
 2853      2063 6861 
 2853      7200 
 2854               	.LASF16:
 2855 0089 6C63 645F 		.string	"lcd_gotoxy"
 2855      676F 746F 
 2855      7879 00
 2856               	.LASF6:
 2857 0094 6C6F 6E67 		.string	"long unsigned int"
 2857      2075 6E73 
 2857      6967 6E65 
 2857      6420 696E 
 2857      7400 
 2858               	.LASF37:
 2859 00a6 6C63 645F 		.string	"lcd_init"
 2859      696E 6974 
 2859      00
 2860               	.LASF13:
 2861 00af 6C63 645F 		.string	"lcd_backlight"
 2861      6261 636B 
 2861      6C69 6768 
 2861      7400 
 2862               	.LASF19:
 2863 00bd 5F64 656C 		.string	"_delayFourCycles"
 2863      6179 466F 
 2863      7572 4379 
 2863      636C 6573 
 2863      00
 2864               	.LASF15:
 2865 00ce 6C63 645F 		.string	"lcd_data"
 2865      6461 7461 
 2865      00
 2866               	.LASF18:
 2867 00d7 6C63 645F 		.string	"lcd_home"
 2867      686F 6D65 
 2867      00
 2868               	.LASF4:
 2869 00e0 756E 7369 		.string	"unsigned int"
 2869      676E 6564 
 2869      2069 6E74 
 2869      00
 2870               	.LASF8:
 2871 00ed 6C6F 6E67 		.string	"long long unsigned int"
 2871      206C 6F6E 
 2871      6720 756E 
 2871      7369 676E 
 2871      6564 2069 
 2872               	.LASF2:
 2873 0104 7569 6E74 		.string	"uint8_t"
 2873      385F 7400 
 2874               	.LASF30:
 2875 010c 6469 7370 		.string	"dispAttr"
 2875      4174 7472 
 2875      00
 2876               	.LASF28:
GAS LISTING D:\DOCUME~1\alex\LOCALS~1\Temp/ccoSPUC8.s 			page 53


 2877 0115 5F5F 6164 		.string	"__addr16"
 2877      6472 3136 
 2877      00
 2878               	.LASF29:
 2879 011e 5F5F 7265 		.string	"__result"
 2879      7375 6C74 
 2879      00
 2880               	.LASF36:
 2881 0127 6C63 645F 		.string	"lcd_getxy"
 2881      6765 7478 
 2881      7900 
 2882               	.LASF7:
 2883 0131 6C6F 6E67 		.string	"long long int"
 2883      206C 6F6E 
 2883      6720 696E 
 2883      7400 
 2884               	.LASF26:
 2885 013f 6C63 645F 		.string	"lcd_puts_p"
 2885      7075 7473 
 2885      5F70 00
 2886               	.LASF21:
 2887 014a 5F5F 636F 		.string	"__count"
 2887      756E 7400 
 2888               	.LASF10:
 2889 0152 6C63 645F 		.string	"lcd_read"
 2889      7265 6164 
 2889      00
 2890               	.LASF27:
 2891 015b 7072 6F67 		.string	"progmem_s"
 2891      6D65 6D5F 
 2891      7300 
 2892               	.LASF3:
 2893 0165 7569 6E74 		.string	"uint16_t"
 2893      3136 5F74 
 2893      00
 2894               	.LASF20:
 2895 016e 6C63 645F 		.string	"lcd_newline"
 2895      6E65 776C 
 2895      696E 6500 
 2896               	.LASF5:
 2897 017a 6C6F 6E67 		.string	"long int"
 2897      2069 6E74 
 2897      00
 2898               	.LASF24:
 2899 0183 6368 6172 		.string	"char"
 2899      00
 2900               	.LASF0:
 2901 0188 7369 676E 		.string	"signed char"
 2901      6564 2063 
 2901      6861 7200 
 2902               	.LASF23:
 2903 0194 6C63 645F 		.string	"lcd_putc"
 2903      7075 7463 
 2903      00
 2904               	.LASF11:
 2905 019d 6C63 645F 		.string	"lcd_waitbusy"
 2905      7761 6974 
GAS LISTING D:\DOCUME~1\alex\LOCALS~1\Temp/ccoSPUC8.s 			page 54


 2905      6275 7379 
 2905      00
 2906               	.LASF32:
 2907 01aa 6C63 642E 		.string	"lcd.c"
 2907      6300 
 2908               	.LASF12:
 2909 01b0 6461 7461 		.string	"dataBits"
 2909      4269 7473 
 2909      00
 2910               	/* File "lcd.c": code  272 = 0x0110 ( 235), prologues  12, epilogues  25 */
GAS LISTING D:\DOCUME~1\alex\LOCALS~1\Temp/ccoSPUC8.s 			page 55


DEFINED SYMBOLS
                            *ABS*:00000000 lcd.c
D:\DOCUME~1\alex\LOCALS~1\Temp/ccoSPUC8.s:2      *ABS*:0000003f __SREG__
D:\DOCUME~1\alex\LOCALS~1\Temp/ccoSPUC8.s:3      *ABS*:0000003e __SP_H__
D:\DOCUME~1\alex\LOCALS~1\Temp/ccoSPUC8.s:4      *ABS*:0000003d __SP_L__
D:\DOCUME~1\alex\LOCALS~1\Temp/ccoSPUC8.s:5      *ABS*:00000000 __tmp_reg__
D:\DOCUME~1\alex\LOCALS~1\Temp/ccoSPUC8.s:6      *ABS*:00000001 __zero_reg__
D:\DOCUME~1\alex\LOCALS~1\Temp/ccoSPUC8.s:18     .text:00000000 toggle_e
D:\DOCUME~1\alex\LOCALS~1\Temp/ccoSPUC8.s:39     .text:00000008 lcd_write
D:\DOCUME~1\alex\LOCALS~1\Temp/ccoSPUC8.s:139    .text:00000064 lcd_read
D:\DOCUME~1\alex\LOCALS~1\Temp/ccoSPUC8.s:237    .text:000000b0 lcd_waitbusy
D:\DOCUME~1\alex\LOCALS~1\Temp/ccoSPUC8.s:274    .text:000000c8 lcd_backlight
D:\DOCUME~1\alex\LOCALS~1\Temp/ccoSPUC8.s:298    .text:000000d4 lcd_command
D:\DOCUME~1\alex\LOCALS~1\Temp/ccoSPUC8.s:322    .text:000000e4 lcd_data
D:\DOCUME~1\alex\LOCALS~1\Temp/ccoSPUC8.s:346    .text:000000f4 lcd_gotoxy
D:\DOCUME~1\alex\LOCALS~1\Temp/ccoSPUC8.s:376    .text:00000102 lcd_getxy
D:\DOCUME~1\alex\LOCALS~1\Temp/ccoSPUC8.s:393    .text:00000108 lcd_clrscr
D:\DOCUME~1\alex\LOCALS~1\Temp/ccoSPUC8.s:409    .text:0000010e lcd_home
D:\DOCUME~1\alex\LOCALS~1\Temp/ccoSPUC8.s:425    .text:00000114 lcd_putc
D:\DOCUME~1\alex\LOCALS~1\Temp/ccoSPUC8.s:475    .text:00000138 lcd_puts
D:\DOCUME~1\alex\LOCALS~1\Temp/ccoSPUC8.s:506    .text:0000014e lcd_puts_p
D:\DOCUME~1\alex\LOCALS~1\Temp/ccoSPUC8.s:545    .text:00000168 lcd_init

UNDEFINED SYMBOLS
__do_copy_data
__do_clear_bss
