GAS LISTING D:\DOCUME~1\alex\LOCALS~1\Temp/ccOINznf.s 			page 1


   1               		.file	"helloled.c"
   2               	__SREG__ = 0x3f
   3               	__SP_H__ = 0x3e
   4               	__SP_L__ = 0x3d
   5               	__tmp_reg__ = 0
   6               	__zero_reg__ = 1
   7               		.global __do_copy_data
   8               		.global __do_clear_bss
   9               		.section	.debug_abbrev,"",@progbits
  10               	.Ldebug_abbrev0:
  11               		.section	.debug_info,"",@progbits
  12               	.Ldebug_info0:
  13               		.section	.debug_line,"",@progbits
  14               	.Ldebug_line0:
  15               		.text
  16               	.Ltext0:
  17               	.global	main
  18               		.type	main, @function
  19               	main:
  20               	.LFB2:
  21               	.LM1:
  22               	/* prologue: frame size=0 */
  23               	/* prologue end (size=0) */
  24               	.LM2:
  25 0000 8FEF      		ldi r24,lo8(-1)
  26 0002 81BB      		out 49-0x20,r24
  27               	.LM3:
  28 0004 17BA      		out 55-0x20,__zero_reg__
  29               	.LM4:
  30 0006 88BB      		out 56-0x20,r24
  31               	.LVL0:
  32               	.L25:
  33               	.LM5:
  34 0008 82BB      		out 50-0x20,r24
  35               	.LVL1:
  36               	.L24:
  37               	.LM6:
  38 000a 26B3      		in r18,54-0x20
  39 000c 2095      		com r18
  40               	.LM7:
  41 000e 20FF      		sbrs r18,0
  42 0010 00C0      		rjmp .L3
  43               	.LVL2:
  44 0012 8FEF      		ldi r24,lo8(-1)
  45 0014 00C0      		rjmp .L5
  46               	.L3:
  47               	.LM8:
  48 0016 21FF      		sbrs r18,1
  49 0018 00C0      		rjmp .L6
  50 001a 81E0      		ldi r24,lo8(1)
  51 001c 00C0      		rjmp .L5
  52               	.L6:
  53               	.LM9:
  54 001e 22FF      		sbrs r18,2
  55 0020 00C0      		rjmp .L8
  56 0022 84E0      		ldi r24,lo8(4)
  57 0024 00C0      		rjmp .L5
GAS LISTING D:\DOCUME~1\alex\LOCALS~1\Temp/ccOINznf.s 			page 2


  58               	.L8:
  59               	.LM10:
  60 0026 23FF      		sbrs r18,3
  61 0028 00C0      		rjmp .L10
  62 002a 88E0      		ldi r24,lo8(8)
  63 002c 00C0      		rjmp .L5
  64               	.L10:
  65               	.LM11:
  66 002e 24FF      		sbrs r18,4
  67 0030 00C0      		rjmp .L12
  68 0032 80E1      		ldi r24,lo8(16)
  69 0034 00C0      		rjmp .L5
  70               	.L12:
  71               	.LM12:
  72 0036 25FF      		sbrs r18,5
  73 0038 00C0      		rjmp .L14
  74 003a 80E2      		ldi r24,lo8(32)
  75 003c 00C0      		rjmp .L5
  76               	.L14:
  77               	.LM13:
  78 003e 26FF      		sbrs r18,6
  79 0040 00C0      		rjmp .L16
  80 0042 80E8      		ldi r24,lo8(-128)
  81 0044 00C0      		rjmp .L5
  82               	.L16:
  83               	.LM14:
  84 0046 822F      		mov r24,r18
  85               	.LVL3:
  86 0048 881F      		rol r24
  87 004a 8827      		clr r24
  88 004c 881F      		rol r24
  89 004e 8295      		swap r24
  90 0050 880F      		lsl r24
  91 0052 880F      		lsl r24
  92 0054 807C      		andi r24,lo8(-64)
  93               	.L5:
  94               	.LM15:
  95 0056 2223      		tst r18
  96 0058 01F0      		breq .L24
  97               	.LM16:
  98 005a 8095      		com r24
  99 005c 00C0      		rjmp .L25
 100               	/* epilogue: frame size=0 */
 101               	/* epilogue: noreturn */
 102               	/* epilogue end (size=0) */
 103               	/* function main size 47 (47) */
 104               	.LFE2:
 105               		.size	main, .-main
 106               		.section	.debug_frame,"",@progbits
 107               	.Lframe0:
 108 0000 0C00 0000 		.long	.LECIE0-.LSCIE0
 109               	.LSCIE0:
 110 0004 FFFF FFFF 		.long	0xffffffff
 111 0008 01        		.byte	0x1
 112 0009 00        		.string	""
 113 000a 01        		.uleb128 0x1
 114 000b 7F        		.sleb128 -1
GAS LISTING D:\DOCUME~1\alex\LOCALS~1\Temp/ccOINznf.s 			page 3


 115 000c 24        		.byte	0x24
 116 000d 0C        		.byte	0xc
 117 000e 20        		.uleb128 0x20
 118 000f 00        		.uleb128 0x0
 119               		.p2align	2
 120               	.LECIE0:
 121               	.LSFDE0:
 122 0010 0C00 0000 		.long	.LEFDE0-.LASFDE0
 123               	.LASFDE0:
 124 0014 0000 0000 		.long	.Lframe0
 125 0018 0000 0000 		.long	.LFB2
 126 001c 5E00 0000 		.long	.LFE2-.LFB2
 127               		.p2align	2
 128               	.LEFDE0:
 129               		.text
 130               	.Letext0:
 131               		.section	.debug_loc,"",@progbits
 132               	.Ldebug_loc0:
 133               	.LLST1:
 134 0000 0800 0000 		.long	.LVL0-.Ltext0
 135 0004 0A00 0000 		.long	.LVL1-.Ltext0
 136 0008 0100      		.word	0x1
 137 000a 68        		.byte	0x68
 138 000b 0A00 0000 		.long	.LVL1-.Ltext0
 139 000f 5E00 0000 		.long	.LFE2-.Ltext0
 140 0013 0100      		.word	0x1
 141 0015 68        		.byte	0x68
 142 0016 0000 0000 		.long	0x0
 143 001a 0000 0000 		.long	0x0
 144               	.LLST2:
 145 001e 0800 0000 		.long	.LVL0-.Ltext0
 146 0022 1200 0000 		.long	.LVL2-.Ltext0
 147 0026 0100      		.word	0x1
 148 0028 62        		.byte	0x62
 149 0029 4800 0000 		.long	.LVL3-.Ltext0
 150 002d 5E00 0000 		.long	.LFE2-.Ltext0
 151 0031 0100      		.word	0x1
 152 0033 62        		.byte	0x62
 153 0034 0000 0000 		.long	0x0
 154 0038 0000 0000 		.long	0x0
 155               		.section	.debug_info
 156 0000 9C00 0000 		.long	0x9c
 157 0004 0200      		.word	0x2
 158 0006 0000 0000 		.long	.Ldebug_abbrev0
 159 000a 04        		.byte	0x4
 160 000b 01        		.uleb128 0x1
 161 000c 0000 0000 		.long	.LASF8
 162 0010 01        		.byte	0x1
 163 0011 0000 0000 		.long	.LASF9
 164 0015 0000 0000 		.long	.LASF10
 165 0019 0000 0000 		.long	.Ltext0
 166 001d 0000 0000 		.long	.Letext0
 167 0021 0000 0000 		.long	.Ldebug_line0
 168 0025 02        		.uleb128 0x2
 169 0026 01        		.byte	0x1
 170 0027 06        		.byte	0x6
 171 0028 0000 0000 		.long	.LASF0
GAS LISTING D:\DOCUME~1\alex\LOCALS~1\Temp/ccOINznf.s 			page 4


 172 002c 03        		.uleb128 0x3
 173 002d 0000 0000 		.long	.LASF11
 174 0031 02        		.byte	0x2
 175 0032 7A        		.byte	0x7a
 176 0033 3700 0000 		.long	0x37
 177 0037 02        		.uleb128 0x2
 178 0038 01        		.byte	0x1
 179 0039 08        		.byte	0x8
 180 003a 0000 0000 		.long	.LASF1
 181 003e 04        		.uleb128 0x4
 182 003f 02        		.byte	0x2
 183 0040 05        		.byte	0x5
 184 0041 696E 7400 		.string	"int"
 185 0045 02        		.uleb128 0x2
 186 0046 02        		.byte	0x2
 187 0047 07        		.byte	0x7
 188 0048 0000 0000 		.long	.LASF2
 189 004c 02        		.uleb128 0x2
 190 004d 04        		.byte	0x4
 191 004e 05        		.byte	0x5
 192 004f 0000 0000 		.long	.LASF3
 193 0053 02        		.uleb128 0x2
 194 0054 04        		.byte	0x4
 195 0055 07        		.byte	0x7
 196 0056 0000 0000 		.long	.LASF4
 197 005a 02        		.uleb128 0x2
 198 005b 08        		.byte	0x8
 199 005c 05        		.byte	0x5
 200 005d 0000 0000 		.long	.LASF5
 201 0061 02        		.uleb128 0x2
 202 0062 08        		.byte	0x8
 203 0063 07        		.byte	0x7
 204 0064 0000 0000 		.long	.LASF6
 205 0068 05        		.uleb128 0x5
 206 0069 01        		.byte	0x1
 207 006a 0000 0000 		.long	.LASF12
 208 006e 01        		.byte	0x1
 209 006f 13        		.byte	0x13
 210 0070 01        		.byte	0x1
 211 0071 3E00 0000 		.long	0x3e
 212 0075 0000 0000 		.long	.LFB2
 213 0079 0000 0000 		.long	.LFE2
 214 007d 02        		.byte	0x2
 215 007e 90        		.byte	0x90
 216 007f 20        		.uleb128 0x20
 217 0080 06        		.uleb128 0x6
 218 0081 6C65 6400 		.string	"led"
 219 0085 01        		.byte	0x1
 220 0086 14        		.byte	0x14
 221 0087 2C00 0000 		.long	0x2c
 222 008b 0000 0000 		.long	.LLST1
 223 008f 07        		.uleb128 0x7
 224 0090 0000 0000 		.long	.LASF7
 225 0094 01        		.byte	0x1
 226 0095 15        		.byte	0x15
 227 0096 2C00 0000 		.long	0x2c
 228 009a 0000 0000 		.long	.LLST2
GAS LISTING D:\DOCUME~1\alex\LOCALS~1\Temp/ccOINznf.s 			page 5


 229 009e 00        		.byte	0x0
 230 009f 00        		.byte	0x0
 231               		.section	.debug_abbrev
 232 0000 01        		.uleb128 0x1
 233 0001 11        		.uleb128 0x11
 234 0002 01        		.byte	0x1
 235 0003 25        		.uleb128 0x25
 236 0004 0E        		.uleb128 0xe
 237 0005 13        		.uleb128 0x13
 238 0006 0B        		.uleb128 0xb
 239 0007 03        		.uleb128 0x3
 240 0008 0E        		.uleb128 0xe
 241 0009 1B        		.uleb128 0x1b
 242 000a 0E        		.uleb128 0xe
 243 000b 11        		.uleb128 0x11
 244 000c 01        		.uleb128 0x1
 245 000d 12        		.uleb128 0x12
 246 000e 01        		.uleb128 0x1
 247 000f 10        		.uleb128 0x10
 248 0010 06        		.uleb128 0x6
 249 0011 00        		.byte	0x0
 250 0012 00        		.byte	0x0
 251 0013 02        		.uleb128 0x2
 252 0014 24        		.uleb128 0x24
 253 0015 00        		.byte	0x0
 254 0016 0B        		.uleb128 0xb
 255 0017 0B        		.uleb128 0xb
 256 0018 3E        		.uleb128 0x3e
 257 0019 0B        		.uleb128 0xb
 258 001a 03        		.uleb128 0x3
 259 001b 0E        		.uleb128 0xe
 260 001c 00        		.byte	0x0
 261 001d 00        		.byte	0x0
 262 001e 03        		.uleb128 0x3
 263 001f 16        		.uleb128 0x16
 264 0020 00        		.byte	0x0
 265 0021 03        		.uleb128 0x3
 266 0022 0E        		.uleb128 0xe
 267 0023 3A        		.uleb128 0x3a
 268 0024 0B        		.uleb128 0xb
 269 0025 3B        		.uleb128 0x3b
 270 0026 0B        		.uleb128 0xb
 271 0027 49        		.uleb128 0x49
 272 0028 13        		.uleb128 0x13
 273 0029 00        		.byte	0x0
 274 002a 00        		.byte	0x0
 275 002b 04        		.uleb128 0x4
 276 002c 24        		.uleb128 0x24
 277 002d 00        		.byte	0x0
 278 002e 0B        		.uleb128 0xb
 279 002f 0B        		.uleb128 0xb
 280 0030 3E        		.uleb128 0x3e
 281 0031 0B        		.uleb128 0xb
 282 0032 03        		.uleb128 0x3
 283 0033 08        		.uleb128 0x8
 284 0034 00        		.byte	0x0
 285 0035 00        		.byte	0x0
GAS LISTING D:\DOCUME~1\alex\LOCALS~1\Temp/ccOINznf.s 			page 6


 286 0036 05        		.uleb128 0x5
 287 0037 2E        		.uleb128 0x2e
 288 0038 01        		.byte	0x1
 289 0039 3F        		.uleb128 0x3f
 290 003a 0C        		.uleb128 0xc
 291 003b 03        		.uleb128 0x3
 292 003c 0E        		.uleb128 0xe
 293 003d 3A        		.uleb128 0x3a
 294 003e 0B        		.uleb128 0xb
 295 003f 3B        		.uleb128 0x3b
 296 0040 0B        		.uleb128 0xb
 297 0041 27        		.uleb128 0x27
 298 0042 0C        		.uleb128 0xc
 299 0043 49        		.uleb128 0x49
 300 0044 13        		.uleb128 0x13
 301 0045 11        		.uleb128 0x11
 302 0046 01        		.uleb128 0x1
 303 0047 12        		.uleb128 0x12
 304 0048 01        		.uleb128 0x1
 305 0049 40        		.uleb128 0x40
 306 004a 0A        		.uleb128 0xa
 307 004b 00        		.byte	0x0
 308 004c 00        		.byte	0x0
 309 004d 06        		.uleb128 0x6
 310 004e 34        		.uleb128 0x34
 311 004f 00        		.byte	0x0
 312 0050 03        		.uleb128 0x3
 313 0051 08        		.uleb128 0x8
 314 0052 3A        		.uleb128 0x3a
 315 0053 0B        		.uleb128 0xb
 316 0054 3B        		.uleb128 0x3b
 317 0055 0B        		.uleb128 0xb
 318 0056 49        		.uleb128 0x49
 319 0057 13        		.uleb128 0x13
 320 0058 02        		.uleb128 0x2
 321 0059 06        		.uleb128 0x6
 322 005a 00        		.byte	0x0
 323 005b 00        		.byte	0x0
 324 005c 07        		.uleb128 0x7
 325 005d 34        		.uleb128 0x34
 326 005e 00        		.byte	0x0
 327 005f 03        		.uleb128 0x3
 328 0060 0E        		.uleb128 0xe
 329 0061 3A        		.uleb128 0x3a
 330 0062 0B        		.uleb128 0xb
 331 0063 3B        		.uleb128 0x3b
 332 0064 0B        		.uleb128 0xb
 333 0065 49        		.uleb128 0x49
 334 0066 13        		.uleb128 0x13
 335 0067 02        		.uleb128 0x2
 336 0068 06        		.uleb128 0x6
 337 0069 00        		.byte	0x0
 338 006a 00        		.byte	0x0
 339 006b 00        		.byte	0x0
 340               		.section	.debug_pubnames,"",@progbits
 341 0000 1700 0000 		.long	0x17
 342 0004 0200      		.word	0x2
GAS LISTING D:\DOCUME~1\alex\LOCALS~1\Temp/ccOINznf.s 			page 7


 343 0006 0000 0000 		.long	.Ldebug_info0
 344 000a A000 0000 		.long	0xa0
 345 000e 6800 0000 		.long	0x68
 346 0012 6D61 696E 		.string	"main"
 346      00
 347 0017 0000 0000 		.long	0x0
 348               		.section	.debug_aranges,"",@progbits
 349 0000 1C00 0000 		.long	0x1c
 350 0004 0200      		.word	0x2
 351 0006 0000 0000 		.long	.Ldebug_info0
 352 000a 04        		.byte	0x4
 353 000b 00        		.byte	0x0
 354 000c 0000      		.word	0x0
 355 000e 0000      		.word	0x0
 356 0010 0000 0000 		.long	.Ltext0
 357 0014 5E00 0000 		.long	.Letext0-.Ltext0
 358 0018 0000 0000 		.long	0x0
 359 001c 0000 0000 		.long	0x0
 360               		.section	.debug_line
 361 0000 E300 0000 		.long	.LELT0-.LSLT0
 362               	.LSLT0:
 363 0004 0200      		.word	0x2
 364 0006 5300 0000 		.long	.LELTP0-.LASLTP0
 365               	.LASLTP0:
 366 000a 01        		.byte	0x1
 367 000b 01        		.byte	0x1
 368 000c F6        		.byte	0xf6
 369 000d F5        		.byte	0xf5
 370 000e 0A        		.byte	0xa
 371 000f 00        		.byte	0x0
 372 0010 01        		.byte	0x1
 373 0011 01        		.byte	0x1
 374 0012 01        		.byte	0x1
 375 0013 01        		.byte	0x1
 376 0014 00        		.byte	0x0
 377 0015 00        		.byte	0x0
 378 0016 00        		.byte	0x0
 379 0017 01        		.byte	0x1
 380 0018 653A 2F77 		.ascii	"e:/winavr-20071221rc1/bin/../avr/include"
 380      696E 6176 
 380      722D 3230 
 380      3037 3132 
 380      3231 7263 
 381 0040 00        		.byte	0
 382 0041 00        		.byte	0x0
 383 0042 6865 6C6C 		.string	"helloled.c"
 383      6F6C 6564 
 383      2E63 00
 384 004d 00        		.uleb128 0x0
 385 004e 00        		.uleb128 0x0
 386 004f 00        		.uleb128 0x0
 387 0050 7374 6469 		.string	"stdint.h"
 387      6E74 2E68 
 387      00
 388 0059 01        		.uleb128 0x1
 389 005a 00        		.uleb128 0x0
 390 005b 00        		.uleb128 0x0
GAS LISTING D:\DOCUME~1\alex\LOCALS~1\Temp/ccOINznf.s 			page 8


 391 005c 00        		.byte	0x0
 392               	.LELTP0:
 393 005d 00        		.byte	0x0
 394 005e 05        		.uleb128 0x5
 395 005f 02        		.byte	0x2
 396 0060 0000 0000 		.long	.LM1
 397 0064 26        		.byte	0x26
 398 0065 00        		.byte	0x0
 399 0066 05        		.uleb128 0x5
 400 0067 02        		.byte	0x2
 401 0068 0000 0000 		.long	.LM2
 402 006c 19        		.byte	0x19
 403 006d 00        		.byte	0x0
 404 006e 05        		.uleb128 0x5
 405 006f 02        		.byte	0x2
 406 0070 0000 0000 		.long	.LM3
 407 0074 15        		.byte	0x15
 408 0075 00        		.byte	0x0
 409 0076 05        		.uleb128 0x5
 410 0077 02        		.byte	0x2
 411 0078 0000 0000 		.long	.LM4
 412 007c 16        		.byte	0x16
 413 007d 00        		.byte	0x0
 414 007e 05        		.uleb128 0x5
 415 007f 02        		.byte	0x2
 416 0080 0000 0000 		.long	.LM5
 417 0084 15        		.byte	0x15
 418 0085 00        		.byte	0x0
 419 0086 05        		.uleb128 0x5
 420 0087 02        		.byte	0x2
 421 0088 0000 0000 		.long	.LM6
 422 008c 17        		.byte	0x17
 423 008d 00        		.byte	0x0
 424 008e 05        		.uleb128 0x5
 425 008f 02        		.byte	0x2
 426 0090 0000 0000 		.long	.LM7
 427 0094 16        		.byte	0x16
 428 0095 00        		.byte	0x0
 429 0096 05        		.uleb128 0x5
 430 0097 02        		.byte	0x2
 431 0098 0000 0000 		.long	.LM8
 432 009c 16        		.byte	0x16
 433 009d 00        		.byte	0x0
 434 009e 05        		.uleb128 0x5
 435 009f 02        		.byte	0x2
 436 00a0 0000 0000 		.long	.LM9
 437 00a4 16        		.byte	0x16
 438 00a5 00        		.byte	0x0
 439 00a6 05        		.uleb128 0x5
 440 00a7 02        		.byte	0x2
 441 00a8 0000 0000 		.long	.LM10
 442 00ac 16        		.byte	0x16
 443 00ad 00        		.byte	0x0
 444 00ae 05        		.uleb128 0x5
 445 00af 02        		.byte	0x2
 446 00b0 0000 0000 		.long	.LM11
 447 00b4 16        		.byte	0x16
GAS LISTING D:\DOCUME~1\alex\LOCALS~1\Temp/ccOINznf.s 			page 9


 448 00b5 00        		.byte	0x0
 449 00b6 05        		.uleb128 0x5
 450 00b7 02        		.byte	0x2
 451 00b8 0000 0000 		.long	.LM12
 452 00bc 16        		.byte	0x16
 453 00bd 00        		.byte	0x0
 454 00be 05        		.uleb128 0x5
 455 00bf 02        		.byte	0x2
 456 00c0 0000 0000 		.long	.LM13
 457 00c4 16        		.byte	0x16
 458 00c5 00        		.byte	0x0
 459 00c6 05        		.uleb128 0x5
 460 00c7 02        		.byte	0x2
 461 00c8 0000 0000 		.long	.LM14
 462 00cc 16        		.byte	0x16
 463 00cd 00        		.byte	0x0
 464 00ce 05        		.uleb128 0x5
 465 00cf 02        		.byte	0x2
 466 00d0 0000 0000 		.long	.LM15
 467 00d4 19        		.byte	0x19
 468 00d5 00        		.byte	0x0
 469 00d6 05        		.uleb128 0x5
 470 00d7 02        		.byte	0x2
 471 00d8 0000 0000 		.long	.LM16
 472 00dc 15        		.byte	0x15
 473 00dd 00        		.byte	0x0
 474 00de 05        		.uleb128 0x5
 475 00df 02        		.byte	0x2
 476 00e0 0000 0000 		.long	.Letext0
 477 00e4 00        		.byte	0x0
 478 00e5 01        		.uleb128 0x1
 479 00e6 01        		.byte	0x1
 480               	.LELT0:
 481 00e7 1900 0000 		.section	.debug_str,"MS",@progbits,1
 481      0200 1300 
 481      0000 0101 
 481      FB0E 0D00 
 481      0101 0101 
 482               	.LASF2:
 483 0000 756E 7369 		.string	"unsigned int"
 483      676E 6564 
 483      2069 6E74 
 483      00
 484               	.LASF11:
 485 000d 7569 6E74 		.string	"uint8_t"
 485      385F 7400 
 486               	.LASF4:
 487 0015 6C6F 6E67 		.string	"long unsigned int"
 487      2075 6E73 
 487      6967 6E65 
 487      6420 696E 
 487      7400 
 488               	.LASF0:
 489 0027 7369 676E 		.string	"signed char"
 489      6564 2063 
 489      6861 7200 
 490               	.LASF8:
GAS LISTING D:\DOCUME~1\alex\LOCALS~1\Temp/ccOINznf.s 			page 10


 491 0033 474E 5520 		.string	"GNU C 4.2.2 (WinAVR 20071221rc1)"
 491      4320 342E 
 491      322E 3220 
 491      2857 696E 
 491      4156 5220 
 492               	.LASF6:
 493 0054 6C6F 6E67 		.string	"long long unsigned int"
 493      206C 6F6E 
 493      6720 756E 
 493      7369 676E 
 493      6564 2069 
 494               	.LASF1:
 495 006b 756E 7369 		.string	"unsigned char"
 495      676E 6564 
 495      2063 6861 
 495      7200 
 496               	.LASF3:
 497 0079 6C6F 6E67 		.string	"long int"
 497      2069 6E74 
 497      00
 498               	.LASF10:
 499 0082 453A 5C61 		.string	"E:\\avr\\led"
 499      7672 5C6C 
 499      6564 00
 500               	.LASF12:
 501 008d 6D61 696E 		.string	"main"
 501      00
 502               	.LASF9:
 503 0092 6865 6C6C 		.string	"helloled.c"
 503      6F6C 6564 
 503      2E63 00
 504               	.LASF7:
 505 009d 6B65 7973 		.string	"keys"
 505      00
 506               	.LASF5:
 507 00a2 6C6F 6E67 		.string	"long long int"
 507      206C 6F6E 
 507      6720 696E 
 507      7400 
 508               	/* File "helloled.c": code   47 = 0x002f (  47), prologues   0, epilogues   0 */
GAS LISTING D:\DOCUME~1\alex\LOCALS~1\Temp/ccOINznf.s 			page 11


DEFINED SYMBOLS
                            *ABS*:00000000 helloled.c
D:\DOCUME~1\alex\LOCALS~1\Temp/ccOINznf.s:2      *ABS*:0000003f __SREG__
D:\DOCUME~1\alex\LOCALS~1\Temp/ccOINznf.s:3      *ABS*:0000003e __SP_H__
D:\DOCUME~1\alex\LOCALS~1\Temp/ccOINznf.s:4      *ABS*:0000003d __SP_L__
D:\DOCUME~1\alex\LOCALS~1\Temp/ccOINznf.s:5      *ABS*:00000000 __tmp_reg__
D:\DOCUME~1\alex\LOCALS~1\Temp/ccOINznf.s:6      *ABS*:00000001 __zero_reg__
D:\DOCUME~1\alex\LOCALS~1\Temp/ccOINznf.s:19     .text:00000000 main

UNDEFINED SYMBOLS
__do_copy_data
__do_clear_bss
