GAS LISTING C:\Users\alex\AppData\Local\Temp/ccNBd47t.s 			page 1


   1               		.file	"lcd.c"
   2               	__SREG__ = 0x3f
   3               	__SP_H__ = 0x3e
   4               	__SP_L__ = 0x3d
   5               	__CCP__  = 0x34
   6               	__tmp_reg__ = 0
   7               	__zero_reg__ = 1
   8               		.section	.debug_abbrev,"",@progbits
   9               	.Ldebug_abbrev0:
  10               		.section	.debug_info,"",@progbits
  11               	.Ldebug_info0:
  12               		.section	.debug_line,"",@progbits
  13               	.Ldebug_line0:
  14               		.text
  15               	.Ltext0:
  16               		.type	toggle_e, @function
  17               	toggle_e:
  18               	.LFB3:
  19               	.LM1:
  20 0000 DF93      		push r29
  21 0002 CF93      		push r28
  22 0004 CDB7      		in r28,__SP_L__
  23 0006 DEB7      		in r29,__SP_H__
  24               	/* prologue: function */
  25               	/* frame size = 0 */
  26               	.LM2:
  27 0008 ABE3      		ldi r26,lo8(59)
  28 000a B0E0      		ldi r27,hi8(59)
  29 000c EBE3      		ldi r30,lo8(59)
  30 000e F0E0      		ldi r31,hi8(59)
  31 0010 8081      		ld r24,Z
  32 0012 8064      		ori r24,lo8(64)
  33 0014 8C93      		st X,r24
  34               	.LM3:
  35               	/* #APP */
  36               	 ;  121 "lcd.c" 1
  37 0016 00C0      		rjmp 1f
  38               	 1:
  39               	 ;  0 "" 2
  40               	.LM4:
  41               	/* #NOAPP */
  42 0018 ABE3      		ldi r26,lo8(59)
  43 001a B0E0      		ldi r27,hi8(59)
  44 001c EBE3      		ldi r30,lo8(59)
  45 001e F0E0      		ldi r31,hi8(59)
  46 0020 8081      		ld r24,Z
  47 0022 8F7B      		andi r24,lo8(-65)
  48 0024 8C93      		st X,r24
  49               	/* epilogue start */
  50               	.LM5:
  51 0026 CF91      		pop r28
  52 0028 DF91      		pop r29
  53 002a 0895      		ret
  54               	.LFE3:
  55               		.size	toggle_e, .-toggle_e
  56               		.type	lcd_write, @function
  57               	lcd_write:
GAS LISTING C:\Users\alex\AppData\Local\Temp/ccNBd47t.s 			page 2


  58               	.LFB4:
  59               	.LM6:
  60 002c DF93      		push r29
  61 002e CF93      		push r28
  62 0030 00D0      		rcall .
  63 0032 0F92      		push __tmp_reg__
  64 0034 CDB7      		in r28,__SP_L__
  65 0036 DEB7      		in r29,__SP_H__
  66               	/* prologue: function */
  67               	/* frame size = 3 */
  68 0038 8A83      		std Y+2,r24
  69 003a 6B83      		std Y+3,r22
  70               	.LM7:
  71 003c 8B81      		ldd r24,Y+3
  72 003e 8823      		tst r24
  73 0040 01F0      		breq .L4
  74               	.LM8:
  75 0042 ABE3      		ldi r26,lo8(59)
  76 0044 B0E0      		ldi r27,hi8(59)
  77 0046 EBE3      		ldi r30,lo8(59)
  78 0048 F0E0      		ldi r31,hi8(59)
  79 004a 8081      		ld r24,Z
  80 004c 8061      		ori r24,lo8(16)
  81 004e 8C93      		st X,r24
  82 0050 00C0      		rjmp .L5
  83               	.L4:
  84               	.LM9:
  85 0052 ABE3      		ldi r26,lo8(59)
  86 0054 B0E0      		ldi r27,hi8(59)
  87 0056 EBE3      		ldi r30,lo8(59)
  88 0058 F0E0      		ldi r31,hi8(59)
  89 005a 8081      		ld r24,Z
  90 005c 8F7E      		andi r24,lo8(-17)
  91 005e 8C93      		st X,r24
  92               	.L5:
  93               	.LM10:
  94 0060 ABE3      		ldi r26,lo8(59)
  95 0062 B0E0      		ldi r27,hi8(59)
  96 0064 EBE3      		ldi r30,lo8(59)
  97 0066 F0E0      		ldi r31,hi8(59)
  98 0068 8081      		ld r24,Z
  99 006a 8F7D      		andi r24,lo8(-33)
 100 006c 8C93      		st X,r24
 101               	.LM11:
 102 006e AAE3      		ldi r26,lo8(58)
 103 0070 B0E0      		ldi r27,hi8(58)
 104 0072 EAE3      		ldi r30,lo8(58)
 105 0074 F0E0      		ldi r31,hi8(58)
 106 0076 8081      		ld r24,Z
 107 0078 8F60      		ori r24,lo8(15)
 108 007a 8C93      		st X,r24
 109               	.LM12:
 110 007c EBE3      		ldi r30,lo8(59)
 111 007e F0E0      		ldi r31,hi8(59)
 112 0080 8081      		ld r24,Z
 113 0082 807F      		andi r24,lo8(-16)
 114 0084 8983      		std Y+1,r24
GAS LISTING C:\Users\alex\AppData\Local\Temp/ccNBd47t.s 			page 3


 115               	.LM13:
 116 0086 EBE3      		ldi r30,lo8(59)
 117 0088 F0E0      		ldi r31,hi8(59)
 118 008a 8A81      		ldd r24,Y+2
 119 008c 982F      		mov r25,r24
 120 008e 9295      		swap r25
 121 0090 9F70      		andi r25,lo8(15)
 122 0092 8981      		ldd r24,Y+1
 123 0094 892B      		or r24,r25
 124 0096 8083      		st Z,r24
 125               	.LM14:
 126 0098 0E94 0000 		call toggle_e
 127               	.LM15:
 128 009c EBE3      		ldi r30,lo8(59)
 129 009e F0E0      		ldi r31,hi8(59)
 130 00a0 8A81      		ldd r24,Y+2
 131 00a2 982F      		mov r25,r24
 132 00a4 9F70      		andi r25,lo8(15)
 133 00a6 8981      		ldd r24,Y+1
 134 00a8 892B      		or r24,r25
 135 00aa 8083      		st Z,r24
 136               	.LM16:
 137 00ac 0E94 0000 		call toggle_e
 138               	.LM17:
 139 00b0 EBE3      		ldi r30,lo8(59)
 140 00b2 F0E0      		ldi r31,hi8(59)
 141 00b4 8981      		ldd r24,Y+1
 142 00b6 8F60      		ori r24,lo8(15)
 143 00b8 8083      		st Z,r24
 144               	/* epilogue start */
 145               	.LM18:
 146 00ba 0F90      		pop __tmp_reg__
 147 00bc 0F90      		pop __tmp_reg__
 148 00be 0F90      		pop __tmp_reg__
 149 00c0 CF91      		pop r28
 150 00c2 DF91      		pop r29
 151 00c4 0895      		ret
 152               	.LFE4:
 153               		.size	lcd_write, .-lcd_write
 154               		.type	lcd_read, @function
 155               	lcd_read:
 156               	.LFB5:
 157               	.LM19:
 158 00c6 DF93      		push r29
 159 00c8 CF93      		push r28
 160 00ca 00D0      		rcall .
 161 00cc CDB7      		in r28,__SP_L__
 162 00ce DEB7      		in r29,__SP_H__
 163               	/* prologue: function */
 164               	/* frame size = 2 */
 165 00d0 8A83      		std Y+2,r24
 166               	.LM20:
 167 00d2 8A81      		ldd r24,Y+2
 168 00d4 8823      		tst r24
 169 00d6 01F0      		breq .L8
 170               	.LM21:
 171 00d8 ABE3      		ldi r26,lo8(59)
GAS LISTING C:\Users\alex\AppData\Local\Temp/ccNBd47t.s 			page 4


 172 00da B0E0      		ldi r27,hi8(59)
 173 00dc EBE3      		ldi r30,lo8(59)
 174 00de F0E0      		ldi r31,hi8(59)
 175 00e0 8081      		ld r24,Z
 176 00e2 8061      		ori r24,lo8(16)
 177 00e4 8C93      		st X,r24
 178 00e6 00C0      		rjmp .L9
 179               	.L8:
 180               	.LM22:
 181 00e8 ABE3      		ldi r26,lo8(59)
 182 00ea B0E0      		ldi r27,hi8(59)
 183 00ec EBE3      		ldi r30,lo8(59)
 184 00ee F0E0      		ldi r31,hi8(59)
 185 00f0 8081      		ld r24,Z
 186 00f2 8F7E      		andi r24,lo8(-17)
 187 00f4 8C93      		st X,r24
 188               	.L9:
 189               	.LM23:
 190 00f6 ABE3      		ldi r26,lo8(59)
 191 00f8 B0E0      		ldi r27,hi8(59)
 192 00fa EBE3      		ldi r30,lo8(59)
 193 00fc F0E0      		ldi r31,hi8(59)
 194 00fe 8081      		ld r24,Z
 195 0100 8062      		ori r24,lo8(32)
 196 0102 8C93      		st X,r24
 197               	.LM24:
 198 0104 AAE3      		ldi r26,lo8(58)
 199 0106 B0E0      		ldi r27,hi8(58)
 200 0108 EAE3      		ldi r30,lo8(58)
 201 010a F0E0      		ldi r31,hi8(58)
 202 010c 8081      		ld r24,Z
 203 010e 807F      		andi r24,lo8(-16)
 204 0110 8C93      		st X,r24
 205               	.LM25:
 206 0112 ABE3      		ldi r26,lo8(59)
 207 0114 B0E0      		ldi r27,hi8(59)
 208 0116 EBE3      		ldi r30,lo8(59)
 209 0118 F0E0      		ldi r31,hi8(59)
 210 011a 8081      		ld r24,Z
 211 011c 8064      		ori r24,lo8(64)
 212 011e 8C93      		st X,r24
 213               	.LM26:
 214               	/* #APP */
 215               	 ;  233 "lcd.c" 1
 216 0120 00C0      		rjmp 1f
 217               	 1:
 218               	 ;  0 "" 2
 219               	.LM27:
 220               	/* #NOAPP */
 221 0122 E9E3      		ldi r30,lo8(57)
 222 0124 F0E0      		ldi r31,hi8(57)
 223 0126 8081      		ld r24,Z
 224 0128 8295      		swap r24
 225 012a 807F      		andi r24,lo8(-16)
 226 012c 8983      		std Y+1,r24
 227               	.LM28:
 228 012e ABE3      		ldi r26,lo8(59)
GAS LISTING C:\Users\alex\AppData\Local\Temp/ccNBd47t.s 			page 5


 229 0130 B0E0      		ldi r27,hi8(59)
 230 0132 EBE3      		ldi r30,lo8(59)
 231 0134 F0E0      		ldi r31,hi8(59)
 232 0136 8081      		ld r24,Z
 233 0138 8F7B      		andi r24,lo8(-65)
 234 013a 8C93      		st X,r24
 235               	.LM29:
 236               	/* #APP */
 237               	 ;  237 "lcd.c" 1
 238 013c 00C0      		rjmp 1f
 239               	 1:
 240               	 ;  0 "" 2
 241               	.LM30:
 242               	/* #NOAPP */
 243 013e ABE3      		ldi r26,lo8(59)
 244 0140 B0E0      		ldi r27,hi8(59)
 245 0142 EBE3      		ldi r30,lo8(59)
 246 0144 F0E0      		ldi r31,hi8(59)
 247 0146 8081      		ld r24,Z
 248 0148 8064      		ori r24,lo8(64)
 249 014a 8C93      		st X,r24
 250               	.LM31:
 251               	/* #APP */
 252               	 ;  240 "lcd.c" 1
 253 014c 00C0      		rjmp 1f
 254               	 1:
 255               	 ;  0 "" 2
 256               	.LM32:
 257               	/* #NOAPP */
 258 014e E9E3      		ldi r30,lo8(57)
 259 0150 F0E0      		ldi r31,hi8(57)
 260 0152 8081      		ld r24,Z
 261 0154 982F      		mov r25,r24
 262 0156 9F70      		andi r25,lo8(15)
 263 0158 8981      		ldd r24,Y+1
 264 015a 892B      		or r24,r25
 265 015c 8983      		std Y+1,r24
 266               	.LM33:
 267 015e ABE3      		ldi r26,lo8(59)
 268 0160 B0E0      		ldi r27,hi8(59)
 269 0162 EBE3      		ldi r30,lo8(59)
 270 0164 F0E0      		ldi r31,hi8(59)
 271 0166 8081      		ld r24,Z
 272 0168 8F7B      		andi r24,lo8(-65)
 273 016a 8C93      		st X,r24
 274               	.LM34:
 275 016c 8981      		ldd r24,Y+1
 276               	/* epilogue start */
 277               	.LM35:
 278 016e 0F90      		pop __tmp_reg__
 279 0170 0F90      		pop __tmp_reg__
 280 0172 CF91      		pop r28
 281 0174 DF91      		pop r29
 282 0176 0895      		ret
 283               	.LFE5:
 284               		.size	lcd_read, .-lcd_read
 285               		.type	lcd_waitbusy, @function
GAS LISTING C:\Users\alex\AppData\Local\Temp/ccNBd47t.s 			page 6


 286               	lcd_waitbusy:
 287               	.LFB6:
 288               	.LM36:
 289 0178 DF93      		push r29
 290 017a CF93      		push r28
 291 017c CDB7      		in r28,__SP_L__
 292 017e DEB7      		in r29,__SP_H__
 293               	/* prologue: function */
 294               	/* frame size = 0 */
 295               	.L12:
 296               	.LM37:
 297 0180 80E0      		ldi r24,lo8(0)
 298 0182 0E94 0000 		call lcd_read
 299 0186 8823      		tst r24
 300 0188 04F0      		brlt .L12
 301               	.LM38:
 302 018a 88E0      		ldi r24,lo8(8)
 303 018c 90E0      		ldi r25,hi8(8)
 304 018e 0E94 0000 		call _delayFourCycles
 305               	.LM39:
 306 0192 80E0      		ldi r24,lo8(0)
 307 0194 0E94 0000 		call lcd_read
 308               	/* epilogue start */
 309               	.LM40:
 310 0198 CF91      		pop r28
 311 019a DF91      		pop r29
 312 019c 0895      		ret
 313               	.LFE6:
 314               		.size	lcd_waitbusy, .-lcd_waitbusy
 315               		.type	_delayFourCycles, @function
 316               	_delayFourCycles:
 317               	.LFB2:
 318               	.LM41:
 319 019e DF93      		push r29
 320 01a0 CF93      		push r28
 321 01a2 00D0      		rcall .
 322 01a4 CDB7      		in r28,__SP_L__
 323 01a6 DEB7      		in r29,__SP_H__
 324               	/* prologue: function */
 325               	/* frame size = 2 */
 326 01a8 9A83      		std Y+2,r25
 327 01aa 8983      		std Y+1,r24
 328               	.LM42:
 329 01ac 8981      		ldd r24,Y+1
 330 01ae 9A81      		ldd r25,Y+2
 331 01b0 0097      		sbiw r24,0
 332 01b2 01F4      		brne .L15
 333               	.LM43:
 334               	/* #APP */
 335               	 ;  98 "lcd.c" 1
 336 01b4 00C0      		rjmp 1f
 337               	 1:
 338               	 ;  0 "" 2
 339               	/* #NOAPP */
 340 01b6 00C0      		rjmp .L17
 341               	.L15:
 342               	.LM44:
GAS LISTING C:\Users\alex\AppData\Local\Temp/ccNBd47t.s 			page 7


 343 01b8 8981      		ldd r24,Y+1
 344 01ba 9A81      		ldd r25,Y+2
 345               	/* #APP */
 346               	 ;  100 "lcd.c" 1
 347 01bc 0197      		1: sbiw r24,1
 348 01be 01F4      		brne 1b
 349               	 ;  0 "" 2
 350               	/* #NOAPP */
 351 01c0 9A83      		std Y+2,r25
 352 01c2 8983      		std Y+1,r24
 353               	.L17:
 354               	/* epilogue start */
 355               	.LM45:
 356 01c4 0F90      		pop __tmp_reg__
 357 01c6 0F90      		pop __tmp_reg__
 358 01c8 CF91      		pop r28
 359 01ca DF91      		pop r29
 360 01cc 0895      		ret
 361               	.LFE2:
 362               		.size	_delayFourCycles, .-_delayFourCycles
 363               	.global	lcd_command
 364               		.type	lcd_command, @function
 365               	lcd_command:
 366               	.LFB8:
 367               	.LM46:
 368 01ce DF93      		push r29
 369 01d0 CF93      		push r28
 370 01d2 0F92      		push __tmp_reg__
 371 01d4 CDB7      		in r28,__SP_L__
 372 01d6 DEB7      		in r29,__SP_H__
 373               	/* prologue: function */
 374               	/* frame size = 1 */
 375 01d8 8983      		std Y+1,r24
 376               	.LM47:
 377 01da 0E94 0000 		call lcd_waitbusy
 378               	.LM48:
 379 01de 8981      		ldd r24,Y+1
 380 01e0 60E0      		ldi r22,lo8(0)
 381 01e2 0E94 0000 		call lcd_write
 382               	/* epilogue start */
 383               	.LM49:
 384 01e6 0F90      		pop __tmp_reg__
 385 01e8 CF91      		pop r28
 386 01ea DF91      		pop r29
 387 01ec 0895      		ret
 388               	.LFE8:
 389               		.size	lcd_command, .-lcd_command
 390               	.global	lcd_data
 391               		.type	lcd_data, @function
 392               	lcd_data:
 393               	.LFB9:
 394               	.LM50:
 395 01ee DF93      		push r29
 396 01f0 CF93      		push r28
 397 01f2 0F92      		push __tmp_reg__
 398 01f4 CDB7      		in r28,__SP_L__
 399 01f6 DEB7      		in r29,__SP_H__
GAS LISTING C:\Users\alex\AppData\Local\Temp/ccNBd47t.s 			page 8


 400               	/* prologue: function */
 401               	/* frame size = 1 */
 402 01f8 8983      		std Y+1,r24
 403               	.LM51:
 404 01fa 0E94 0000 		call lcd_waitbusy
 405               	.LM52:
 406 01fe 8981      		ldd r24,Y+1
 407 0200 61E0      		ldi r22,lo8(1)
 408 0202 0E94 0000 		call lcd_write
 409               	/* epilogue start */
 410               	.LM53:
 411 0206 0F90      		pop __tmp_reg__
 412 0208 CF91      		pop r28
 413 020a DF91      		pop r29
 414 020c 0895      		ret
 415               	.LFE9:
 416               		.size	lcd_data, .-lcd_data
 417               	.global	lcd_gotoxy
 418               		.type	lcd_gotoxy, @function
 419               	lcd_gotoxy:
 420               	.LFB10:
 421               	.LM54:
 422 020e DF93      		push r29
 423 0210 CF93      		push r28
 424 0212 00D0      		rcall .
 425 0214 CDB7      		in r28,__SP_L__
 426 0216 DEB7      		in r29,__SP_H__
 427               	/* prologue: function */
 428               	/* frame size = 2 */
 429 0218 8983      		std Y+1,r24
 430 021a 6A83      		std Y+2,r22
 431               	.LM55:
 432 021c 8A81      		ldd r24,Y+2
 433 021e 8823      		tst r24
 434 0220 01F4      		brne .L23
 435               	.LM56:
 436 0222 8981      		ldd r24,Y+1
 437 0224 8058      		subi r24,lo8(-(-128))
 438 0226 0E94 0000 		call lcd_command
 439 022a 00C0      		rjmp .L27
 440               	.L23:
 441               	.LM57:
 442 022c 8A81      		ldd r24,Y+2
 443 022e 8130      		cpi r24,lo8(1)
 444 0230 01F4      		brne .L25
 445               	.LM58:
 446 0232 8981      		ldd r24,Y+1
 447 0234 8054      		subi r24,lo8(-(-64))
 448 0236 0E94 0000 		call lcd_command
 449 023a 00C0      		rjmp .L27
 450               	.L25:
 451               	.LM59:
 452 023c 8A81      		ldd r24,Y+2
 453 023e 8230      		cpi r24,lo8(2)
 454 0240 01F4      		brne .L26
 455               	.LM60:
 456 0242 8981      		ldd r24,Y+1
GAS LISTING C:\Users\alex\AppData\Local\Temp/ccNBd47t.s 			page 9


 457 0244 8C56      		subi r24,lo8(-(-108))
 458 0246 0E94 0000 		call lcd_command
 459 024a 00C0      		rjmp .L27
 460               	.L26:
 461               	.LM61:
 462 024c 8981      		ldd r24,Y+1
 463 024e 8C52      		subi r24,lo8(-(-44))
 464 0250 0E94 0000 		call lcd_command
 465               	.L27:
 466               	/* epilogue start */
 467               	.LM62:
 468 0254 0F90      		pop __tmp_reg__
 469 0256 0F90      		pop __tmp_reg__
 470 0258 CF91      		pop r28
 471 025a DF91      		pop r29
 472 025c 0895      		ret
 473               	.LFE10:
 474               		.size	lcd_gotoxy, .-lcd_gotoxy
 475               	.global	lcd_getxy
 476               		.type	lcd_getxy, @function
 477               	lcd_getxy:
 478               	.LFB11:
 479               	.LM63:
 480 025e DF93      		push r29
 481 0260 CF93      		push r28
 482 0262 CDB7      		in r28,__SP_L__
 483 0264 DEB7      		in r29,__SP_H__
 484               	/* prologue: function */
 485               	/* frame size = 0 */
 486               	.LM64:
 487 0266 0E94 0000 		call lcd_waitbusy
 488 026a 882F      		mov r24,r24
 489 026c 90E0      		ldi r25,lo8(0)
 490               	/* epilogue start */
 491               	.LM65:
 492 026e CF91      		pop r28
 493 0270 DF91      		pop r29
 494 0272 0895      		ret
 495               	.LFE11:
 496               		.size	lcd_getxy, .-lcd_getxy
 497               	.global	lcd_clrscr
 498               		.type	lcd_clrscr, @function
 499               	lcd_clrscr:
 500               	.LFB12:
 501               	.LM66:
 502 0274 DF93      		push r29
 503 0276 CF93      		push r28
 504 0278 CDB7      		in r28,__SP_L__
 505 027a DEB7      		in r29,__SP_H__
 506               	/* prologue: function */
 507               	/* frame size = 0 */
 508               	.LM67:
 509 027c 81E0      		ldi r24,lo8(1)
 510 027e 0E94 0000 		call lcd_command
 511               	/* epilogue start */
 512               	.LM68:
 513 0282 CF91      		pop r28
GAS LISTING C:\Users\alex\AppData\Local\Temp/ccNBd47t.s 			page 10


 514 0284 DF91      		pop r29
 515 0286 0895      		ret
 516               	.LFE12:
 517               		.size	lcd_clrscr, .-lcd_clrscr
 518               	.global	lcd_home
 519               		.type	lcd_home, @function
 520               	lcd_home:
 521               	.LFB13:
 522               	.LM69:
 523 0288 DF93      		push r29
 524 028a CF93      		push r28
 525 028c CDB7      		in r28,__SP_L__
 526 028e DEB7      		in r29,__SP_H__
 527               	/* prologue: function */
 528               	/* frame size = 0 */
 529               	.LM70:
 530 0290 82E0      		ldi r24,lo8(2)
 531 0292 0E94 0000 		call lcd_command
 532               	/* epilogue start */
 533               	.LM71:
 534 0296 CF91      		pop r28
 535 0298 DF91      		pop r29
 536 029a 0895      		ret
 537               	.LFE13:
 538               		.size	lcd_home, .-lcd_home
 539               	.global	lcd_putc
 540               		.type	lcd_putc, @function
 541               	lcd_putc:
 542               	.LFB14:
 543               	.LM72:
 544 029c DF93      		push r29
 545 029e CF93      		push r28
 546 02a0 00D0      		rcall .
 547 02a2 CDB7      		in r28,__SP_L__
 548 02a4 DEB7      		in r29,__SP_H__
 549               	/* prologue: function */
 550               	/* frame size = 2 */
 551 02a6 8A83      		std Y+2,r24
 552               	.LM73:
 553 02a8 0E94 0000 		call lcd_waitbusy
 554 02ac 8983      		std Y+1,r24
 555               	.LM74:
 556 02ae 8A81      		ldd r24,Y+2
 557 02b0 8A30      		cpi r24,lo8(10)
 558 02b2 01F4      		brne .L35
 559               	.LM75:
 560 02b4 8981      		ldd r24,Y+1
 561 02b6 0E94 0000 		call lcd_newline
 562 02ba 00C0      		rjmp .L37
 563               	.L35:
 564               	.LM76:
 565 02bc 8A81      		ldd r24,Y+2
 566 02be 61E0      		ldi r22,lo8(1)
 567 02c0 0E94 0000 		call lcd_write
 568               	.L37:
 569               	/* epilogue start */
 570               	.LM77:
GAS LISTING C:\Users\alex\AppData\Local\Temp/ccNBd47t.s 			page 11


 571 02c4 0F90      		pop __tmp_reg__
 572 02c6 0F90      		pop __tmp_reg__
 573 02c8 CF91      		pop r28
 574 02ca DF91      		pop r29
 575 02cc 0895      		ret
 576               	.LFE14:
 577               		.size	lcd_putc, .-lcd_putc
 578               		.type	lcd_newline, @function
 579               	lcd_newline:
 580               	.LFB7:
 581               	.LM78:
 582 02ce DF93      		push r29
 583 02d0 CF93      		push r28
 584 02d2 00D0      		rcall .
 585 02d4 CDB7      		in r28,__SP_L__
 586 02d6 DEB7      		in r29,__SP_H__
 587               	/* prologue: function */
 588               	/* frame size = 2 */
 589 02d8 8983      		std Y+1,r24
 590               	.LM79:
 591 02da 8981      		ldd r24,Y+1
 592 02dc 8431      		cpi r24,lo8(20)
 593 02de 00F4      		brsh .L39
 594               	.LM80:
 595 02e0 80E4      		ldi r24,lo8(64)
 596 02e2 8A83      		std Y+2,r24
 597 02e4 00C0      		rjmp .L40
 598               	.L39:
 599               	.LM81:
 600 02e6 8981      		ldd r24,Y+1
 601 02e8 8034      		cpi r24,lo8(64)
 602 02ea 00F0      		brlo .L41
 603 02ec 8981      		ldd r24,Y+1
 604 02ee 8435      		cpi r24,lo8(84)
 605 02f0 00F4      		brsh .L41
 606               	.LM82:
 607 02f2 84E1      		ldi r24,lo8(20)
 608 02f4 8A83      		std Y+2,r24
 609 02f6 00C0      		rjmp .L40
 610               	.L41:
 611               	.LM83:
 612 02f8 8981      		ldd r24,Y+1
 613 02fa 8431      		cpi r24,lo8(20)
 614 02fc 00F0      		brlo .L42
 615 02fe 8981      		ldd r24,Y+1
 616 0300 8034      		cpi r24,lo8(64)
 617 0302 00F4      		brsh .L42
 618               	.LM84:
 619 0304 84E5      		ldi r24,lo8(84)
 620 0306 8A83      		std Y+2,r24
 621 0308 00C0      		rjmp .L40
 622               	.L42:
 623               	.LM85:
 624 030a 1A82      		std Y+2,__zero_reg__
 625               	.L40:
 626               	.LM86:
 627 030c 8A81      		ldd r24,Y+2
GAS LISTING C:\Users\alex\AppData\Local\Temp/ccNBd47t.s 			page 12


 628 030e 8058      		subi r24,lo8(-(-128))
 629 0310 0E94 0000 		call lcd_command
 630               	/* epilogue start */
 631               	.LM87:
 632 0314 0F90      		pop __tmp_reg__
 633 0316 0F90      		pop __tmp_reg__
 634 0318 CF91      		pop r28
 635 031a DF91      		pop r29
 636 031c 0895      		ret
 637               	.LFE7:
 638               		.size	lcd_newline, .-lcd_newline
 639               	.global	lcd_puts
 640               		.type	lcd_puts, @function
 641               	lcd_puts:
 642               	.LFB15:
 643               	.LM88:
 644 031e DF93      		push r29
 645 0320 CF93      		push r28
 646 0322 00D0      		rcall .
 647 0324 00D0      		rcall .
 648 0326 CDB7      		in r28,__SP_L__
 649 0328 DEB7      		in r29,__SP_H__
 650               	/* prologue: function */
 651               	/* frame size = 4 */
 652 032a 9A83      		std Y+2,r25
 653 032c 8983      		std Y+1,r24
 654 032e 00C0      		rjmp .L45
 655               	.L47:
 656               	.LM89:
 657 0330 8B81      		ldd r24,Y+3
 658 0332 0E94 0000 		call lcd_putc
 659               	.L45:
 660               	.LM90:
 661 0336 E981      		ldd r30,Y+1
 662 0338 FA81      		ldd r31,Y+2
 663 033a 8081      		ld r24,Z
 664 033c 8B83      		std Y+3,r24
 665 033e 8B81      		ldd r24,Y+3
 666 0340 8C83      		std Y+4,r24
 667 0342 8C81      		ldd r24,Y+4
 668 0344 8823      		tst r24
 669 0346 01F0      		breq .L46
 670 0348 81E0      		ldi r24,lo8(1)
 671 034a 8C83      		std Y+4,r24
 672               	.L46:
 673 034c 8C81      		ldd r24,Y+4
 674 034e 2981      		ldd r18,Y+1
 675 0350 3A81      		ldd r19,Y+2
 676 0352 2F5F      		subi r18,lo8(-(1))
 677 0354 3F4F      		sbci r19,hi8(-(1))
 678 0356 3A83      		std Y+2,r19
 679 0358 2983      		std Y+1,r18
 680 035a 8823      		tst r24
 681 035c 01F4      		brne .L47
 682               	/* epilogue start */
 683               	.LM91:
 684 035e 0F90      		pop __tmp_reg__
GAS LISTING C:\Users\alex\AppData\Local\Temp/ccNBd47t.s 			page 13


 685 0360 0F90      		pop __tmp_reg__
 686 0362 0F90      		pop __tmp_reg__
 687 0364 0F90      		pop __tmp_reg__
 688 0366 CF91      		pop r28
 689 0368 DF91      		pop r29
 690 036a 0895      		ret
 691               	.LFE15:
 692               		.size	lcd_puts, .-lcd_puts
 693               	.global	lcd_puts_p
 694               		.type	lcd_puts_p, @function
 695               	lcd_puts_p:
 696               	.LFB16:
 697               	.LM92:
 698 036c DF93      		push r29
 699 036e CF93      		push r28
 700 0370 00D0      		rcall .
 701 0372 00D0      		rcall .
 702 0374 00D0      		rcall .
 703 0376 CDB7      		in r28,__SP_L__
 704 0378 DEB7      		in r29,__SP_H__
 705               	/* prologue: function */
 706               	/* frame size = 6 */
 707 037a 9D83      		std Y+5,r25
 708 037c 8C83      		std Y+4,r24
 709 037e 00C0      		rjmp .L50
 710               	.L51:
 711               	.LM93:
 712 0380 8E81      		ldd r24,Y+6
 713 0382 0E94 0000 		call lcd_putc
 714               	.L50:
 715               	.LBB2:
 716               	.LM94:
 717 0386 8C81      		ldd r24,Y+4
 718 0388 9D81      		ldd r25,Y+5
 719 038a 9B83      		std Y+3,r25
 720 038c 8A83      		std Y+2,r24
 721 038e 8C81      		ldd r24,Y+4
 722 0390 9D81      		ldd r25,Y+5
 723 0392 0196      		adiw r24,1
 724 0394 9D83      		std Y+5,r25
 725 0396 8C83      		std Y+4,r24
 726 0398 EA81      		ldd r30,Y+2
 727 039a FB81      		ldd r31,Y+3
 728               	/* #APP */
 729               	 ;  506 "lcd.c" 1
 730 039c 8491      		lpm r24, Z
 731               		
 732               	 ;  0 "" 2
 733               	/* #NOAPP */
 734 039e 8983      		std Y+1,r24
 735 03a0 8981      		ldd r24,Y+1
 736               	.LBE2:
 737 03a2 8E83      		std Y+6,r24
 738 03a4 8E81      		ldd r24,Y+6
 739 03a6 8823      		tst r24
 740 03a8 01F4      		brne .L51
 741               	/* epilogue start */
GAS LISTING C:\Users\alex\AppData\Local\Temp/ccNBd47t.s 			page 14


 742               	.LM95:
 743 03aa 2696      		adiw r28,6
 744 03ac 0FB6      		in __tmp_reg__,__SREG__
 745 03ae F894      		cli
 746 03b0 DEBF      		out __SP_H__,r29
 747 03b2 0FBE      		out __SREG__,__tmp_reg__
 748 03b4 CDBF      		out __SP_L__,r28
 749 03b6 CF91      		pop r28
 750 03b8 DF91      		pop r29
 751 03ba 0895      		ret
 752               	.LFE16:
 753               		.size	lcd_puts_p, .-lcd_puts_p
 754               	.global	lcd_init
 755               		.type	lcd_init, @function
 756               	lcd_init:
 757               	.LFB17:
 758               	.LM96:
 759 03bc DF93      		push r29
 760 03be CF93      		push r28
 761 03c0 0F92      		push __tmp_reg__
 762 03c2 CDB7      		in r28,__SP_L__
 763 03c4 DEB7      		in r29,__SP_H__
 764               	/* prologue: function */
 765               	/* frame size = 1 */
 766 03c6 8983      		std Y+1,r24
 767               	.LM97:
 768 03c8 AAE3      		ldi r26,lo8(58)
 769 03ca B0E0      		ldi r27,hi8(58)
 770 03cc EAE3      		ldi r30,lo8(58)
 771 03ce F0E0      		ldi r31,hi8(58)
 772 03d0 8081      		ld r24,Z
 773 03d2 8F67      		ori r24,lo8(127)
 774 03d4 8C93      		st X,r24
 775               	.LM98:
 776 03d6 80E0      		ldi r24,lo8(-1536)
 777 03d8 9AEF      		ldi r25,hi8(-1536)
 778 03da 0E94 0000 		call _delayFourCycles
 779               	.LM99:
 780 03de ABE3      		ldi r26,lo8(59)
 781 03e0 B0E0      		ldi r27,hi8(59)
 782 03e2 EBE3      		ldi r30,lo8(59)
 783 03e4 F0E0      		ldi r31,hi8(59)
 784 03e6 8081      		ld r24,Z
 785 03e8 8260      		ori r24,lo8(2)
 786 03ea 8C93      		st X,r24
 787               	.LM100:
 788 03ec ABE3      		ldi r26,lo8(59)
 789 03ee B0E0      		ldi r27,hi8(59)
 790 03f0 EBE3      		ldi r30,lo8(59)
 791 03f2 F0E0      		ldi r31,hi8(59)
 792 03f4 8081      		ld r24,Z
 793 03f6 8160      		ori r24,lo8(1)
 794 03f8 8C93      		st X,r24
 795               	.LM101:
 796 03fa 0E94 0000 		call toggle_e
 797               	.LM102:
 798 03fe 80E0      		ldi r24,lo8(19968)
GAS LISTING C:\Users\alex\AppData\Local\Temp/ccNBd47t.s 			page 15


 799 0400 9EE4      		ldi r25,hi8(19968)
 800 0402 0E94 0000 		call _delayFourCycles
 801               	.LM103:
 802 0406 0E94 0000 		call toggle_e
 803               	.LM104:
 804 040a 80E0      		ldi r24,lo8(256)
 805 040c 91E0      		ldi r25,hi8(256)
 806 040e 0E94 0000 		call _delayFourCycles
 807               	.LM105:
 808 0412 0E94 0000 		call toggle_e
 809               	.LM106:
 810 0416 80E0      		ldi r24,lo8(256)
 811 0418 91E0      		ldi r25,hi8(256)
 812 041a 0E94 0000 		call _delayFourCycles
 813               	.LM107:
 814 041e ABE3      		ldi r26,lo8(59)
 815 0420 B0E0      		ldi r27,hi8(59)
 816 0422 EBE3      		ldi r30,lo8(59)
 817 0424 F0E0      		ldi r31,hi8(59)
 818 0426 8081      		ld r24,Z
 819 0428 8E7F      		andi r24,lo8(-2)
 820 042a 8C93      		st X,r24
 821               	.LM108:
 822 042c 0E94 0000 		call toggle_e
 823               	.LM109:
 824 0430 80E0      		ldi r24,lo8(256)
 825 0432 91E0      		ldi r25,hi8(256)
 826 0434 0E94 0000 		call _delayFourCycles
 827               	.LM110:
 828 0438 88E2      		ldi r24,lo8(40)
 829 043a 0E94 0000 		call lcd_command
 830               	.LM111:
 831 043e 88E0      		ldi r24,lo8(8)
 832 0440 0E94 0000 		call lcd_command
 833               	.LM112:
 834 0444 0E94 0000 		call lcd_clrscr
 835               	.LM113:
 836 0448 86E0      		ldi r24,lo8(6)
 837 044a 0E94 0000 		call lcd_command
 838               	.LM114:
 839 044e 8981      		ldd r24,Y+1
 840 0450 0E94 0000 		call lcd_command
 841               	/* epilogue start */
 842               	.LM115:
 843 0454 0F90      		pop __tmp_reg__
 844 0456 CF91      		pop r28
 845 0458 DF91      		pop r29
 846 045a 0895      		ret
 847               	.LFE17:
 848               		.size	lcd_init, .-lcd_init
 849               		.section	.debug_frame,"",@progbits
 850               	.Lframe0:
 851 0000 0C00 0000 		.long	.LECIE0-.LSCIE0
 852               	.LSCIE0:
 853 0004 FFFF FFFF 		.long	0xffffffff
 854 0008 01        		.byte	0x1
 855 0009 00        		.string	""
GAS LISTING C:\Users\alex\AppData\Local\Temp/ccNBd47t.s 			page 16


 856 000a 01        		.uleb128 0x1
 857 000b 7F        		.sleb128 -1
 858 000c 24        		.byte	0x24
 859 000d 0C        		.byte	0xc
 860 000e 20        		.uleb128 0x20
 861 000f 00        		.uleb128 0x0
 862               		.p2align	2
 863               	.LECIE0:
 864               	.LSFDE0:
 865 0010 0C00 0000 		.long	.LEFDE0-.LASFDE0
 866               	.LASFDE0:
 867 0014 0000 0000 		.long	.Lframe0
 868 0018 0000 0000 		.long	.LFB3
 869 001c 2C00 0000 		.long	.LFE3-.LFB3
 870               		.p2align	2
 871               	.LEFDE0:
 872               	.LSFDE2:
 873 0020 0C00 0000 		.long	.LEFDE2-.LASFDE2
 874               	.LASFDE2:
 875 0024 0000 0000 		.long	.Lframe0
 876 0028 0000 0000 		.long	.LFB4
 877 002c 9A00 0000 		.long	.LFE4-.LFB4
 878               		.p2align	2
 879               	.LEFDE2:
 880               	.LSFDE4:
 881 0030 0C00 0000 		.long	.LEFDE4-.LASFDE4
 882               	.LASFDE4:
 883 0034 0000 0000 		.long	.Lframe0
 884 0038 0000 0000 		.long	.LFB5
 885 003c B200 0000 		.long	.LFE5-.LFB5
 886               		.p2align	2
 887               	.LEFDE4:
 888               	.LSFDE6:
 889 0040 0C00 0000 		.long	.LEFDE6-.LASFDE6
 890               	.LASFDE6:
 891 0044 0000 0000 		.long	.Lframe0
 892 0048 0000 0000 		.long	.LFB6
 893 004c 2600 0000 		.long	.LFE6-.LFB6
 894               		.p2align	2
 895               	.LEFDE6:
 896               	.LSFDE8:
 897 0050 0C00 0000 		.long	.LEFDE8-.LASFDE8
 898               	.LASFDE8:
 899 0054 0000 0000 		.long	.Lframe0
 900 0058 0000 0000 		.long	.LFB2
 901 005c 3000 0000 		.long	.LFE2-.LFB2
 902               		.p2align	2
 903               	.LEFDE8:
 904               	.LSFDE10:
 905 0060 0C00 0000 		.long	.LEFDE10-.LASFDE10
 906               	.LASFDE10:
 907 0064 0000 0000 		.long	.Lframe0
 908 0068 0000 0000 		.long	.LFB8
 909 006c 2000 0000 		.long	.LFE8-.LFB8
 910               		.p2align	2
 911               	.LEFDE10:
 912               	.LSFDE12:
GAS LISTING C:\Users\alex\AppData\Local\Temp/ccNBd47t.s 			page 17


 913 0070 0C00 0000 		.long	.LEFDE12-.LASFDE12
 914               	.LASFDE12:
 915 0074 0000 0000 		.long	.Lframe0
 916 0078 0000 0000 		.long	.LFB9
 917 007c 2000 0000 		.long	.LFE9-.LFB9
 918               		.p2align	2
 919               	.LEFDE12:
 920               	.LSFDE14:
 921 0080 0C00 0000 		.long	.LEFDE14-.LASFDE14
 922               	.LASFDE14:
 923 0084 0000 0000 		.long	.Lframe0
 924 0088 0000 0000 		.long	.LFB10
 925 008c 5000 0000 		.long	.LFE10-.LFB10
 926               		.p2align	2
 927               	.LEFDE14:
 928               	.LSFDE16:
 929 0090 0C00 0000 		.long	.LEFDE16-.LASFDE16
 930               	.LASFDE16:
 931 0094 0000 0000 		.long	.Lframe0
 932 0098 0000 0000 		.long	.LFB11
 933 009c 1600 0000 		.long	.LFE11-.LFB11
 934               		.p2align	2
 935               	.LEFDE16:
 936               	.LSFDE18:
 937 00a0 0C00 0000 		.long	.LEFDE18-.LASFDE18
 938               	.LASFDE18:
 939 00a4 0000 0000 		.long	.Lframe0
 940 00a8 0000 0000 		.long	.LFB12
 941 00ac 1400 0000 		.long	.LFE12-.LFB12
 942               		.p2align	2
 943               	.LEFDE18:
 944               	.LSFDE20:
 945 00b0 0C00 0000 		.long	.LEFDE20-.LASFDE20
 946               	.LASFDE20:
 947 00b4 0000 0000 		.long	.Lframe0
 948 00b8 0000 0000 		.long	.LFB13
 949 00bc 1400 0000 		.long	.LFE13-.LFB13
 950               		.p2align	2
 951               	.LEFDE20:
 952               	.LSFDE22:
 953 00c0 0C00 0000 		.long	.LEFDE22-.LASFDE22
 954               	.LASFDE22:
 955 00c4 0000 0000 		.long	.Lframe0
 956 00c8 0000 0000 		.long	.LFB14
 957 00cc 3200 0000 		.long	.LFE14-.LFB14
 958               		.p2align	2
 959               	.LEFDE22:
 960               	.LSFDE24:
 961 00d0 0C00 0000 		.long	.LEFDE24-.LASFDE24
 962               	.LASFDE24:
 963 00d4 0000 0000 		.long	.Lframe0
 964 00d8 0000 0000 		.long	.LFB7
 965 00dc 5000 0000 		.long	.LFE7-.LFB7
 966               		.p2align	2
 967               	.LEFDE24:
 968               	.LSFDE26:
 969 00e0 0C00 0000 		.long	.LEFDE26-.LASFDE26
GAS LISTING C:\Users\alex\AppData\Local\Temp/ccNBd47t.s 			page 18


 970               	.LASFDE26:
 971 00e4 0000 0000 		.long	.Lframe0
 972 00e8 0000 0000 		.long	.LFB15
 973 00ec 4E00 0000 		.long	.LFE15-.LFB15
 974               		.p2align	2
 975               	.LEFDE26:
 976               	.LSFDE28:
 977 00f0 0C00 0000 		.long	.LEFDE28-.LASFDE28
 978               	.LASFDE28:
 979 00f4 0000 0000 		.long	.Lframe0
 980 00f8 0000 0000 		.long	.LFB16
 981 00fc 5000 0000 		.long	.LFE16-.LFB16
 982               		.p2align	2
 983               	.LEFDE28:
 984               	.LSFDE30:
 985 0100 0C00 0000 		.long	.LEFDE30-.LASFDE30
 986               	.LASFDE30:
 987 0104 0000 0000 		.long	.Lframe0
 988 0108 0000 0000 		.long	.LFB17
 989 010c A000 0000 		.long	.LFE17-.LFB17
 990               		.p2align	2
 991               	.LEFDE30:
 992               		.text
 993               	.Letext0:
 994               		.section	.debug_info
 995 0000 4C03 0000 		.long	0x34c
 996 0004 0200      		.word	0x2
 997 0006 0000 0000 		.long	.Ldebug_abbrev0
 998 000a 04        		.byte	0x4
 999 000b 01        		.uleb128 0x1
 1000 000c 0000 0000 		.long	.LASF31
 1001 0010 01        		.byte	0x1
 1002 0011 0000 0000 		.long	.LASF32
 1003 0015 0000 0000 		.long	.LASF33
 1004 0019 0000 0000 		.long	.Ltext0
 1005 001d 0000 0000 		.long	.Letext0
 1006 0021 0000 0000 		.long	.Ldebug_line0
 1007 0025 02        		.uleb128 0x2
 1008 0026 01        		.byte	0x1
 1009 0027 06        		.byte	0x6
 1010 0028 0000 0000 		.long	.LASF0
 1011 002c 03        		.uleb128 0x3
 1012 002d 0000 0000 		.long	.LASF2
 1013 0031 02        		.byte	0x2
 1014 0032 7A        		.byte	0x7a
 1015 0033 3700 0000 		.long	0x37
 1016 0037 02        		.uleb128 0x2
 1017 0038 01        		.byte	0x1
 1018 0039 08        		.byte	0x8
 1019 003a 0000 0000 		.long	.LASF1
 1020 003e 04        		.uleb128 0x4
 1021 003f 02        		.byte	0x2
 1022 0040 05        		.byte	0x5
 1023 0041 696E 7400 		.string	"int"
 1024 0045 03        		.uleb128 0x3
 1025 0046 0000 0000 		.long	.LASF3
 1026 004a 02        		.byte	0x2
GAS LISTING C:\Users\alex\AppData\Local\Temp/ccNBd47t.s 			page 19


 1027 004b 7C        		.byte	0x7c
 1028 004c 5000 0000 		.long	0x50
 1029 0050 02        		.uleb128 0x2
 1030 0051 02        		.byte	0x2
 1031 0052 07        		.byte	0x7
 1032 0053 0000 0000 		.long	.LASF4
 1033 0057 02        		.uleb128 0x2
 1034 0058 04        		.byte	0x4
 1035 0059 05        		.byte	0x5
 1036 005a 0000 0000 		.long	.LASF5
 1037 005e 02        		.uleb128 0x2
 1038 005f 04        		.byte	0x4
 1039 0060 07        		.byte	0x7
 1040 0061 0000 0000 		.long	.LASF6
 1041 0065 02        		.uleb128 0x2
 1042 0066 08        		.byte	0x8
 1043 0067 05        		.byte	0x5
 1044 0068 0000 0000 		.long	.LASF7
 1045 006c 02        		.uleb128 0x2
 1046 006d 08        		.byte	0x8
 1047 006e 07        		.byte	0x7
 1048 006f 0000 0000 		.long	.LASF8
 1049 0073 05        		.uleb128 0x5
 1050 0074 01        		.byte	0x1
 1051 0075 08        		.byte	0x8
 1052 0076 06        		.uleb128 0x6
 1053 0077 0000 0000 		.long	.LASF34
 1054 007b 01        		.byte	0x1
 1055 007c 77        		.byte	0x77
 1056 007d 01        		.byte	0x1
 1057 007e 0000 0000 		.long	.LFB3
 1058 0082 0000 0000 		.long	.LFE3
 1059 0086 02        		.byte	0x2
 1060 0087 90        		.byte	0x90
 1061 0088 20        		.uleb128 0x20
 1062 0089 07        		.uleb128 0x7
 1063 008a 0000 0000 		.long	.LASF13
 1064 008e 01        		.byte	0x1
 1065 008f 88        		.byte	0x88
 1066 0090 01        		.byte	0x1
 1067 0091 0000 0000 		.long	.LFB4
 1068 0095 0000 0000 		.long	.LFE4
 1069 0099 02        		.byte	0x2
 1070 009a 90        		.byte	0x90
 1071 009b 20        		.uleb128 0x20
 1072 009c CA00 0000 		.long	0xca
 1073 00a0 08        		.uleb128 0x8
 1074 00a1 0000 0000 		.long	.LASF9
 1075 00a5 01        		.byte	0x1
 1076 00a6 87        		.byte	0x87
 1077 00a7 2C00 0000 		.long	0x2c
 1078 00ab 02        		.byte	0x2
 1079 00ac 8C        		.byte	0x8c
 1080 00ad 02        		.sleb128 2
 1081 00ae 09        		.uleb128 0x9
 1082 00af 7273 00   		.string	"rs"
 1083 00b2 01        		.byte	0x1
GAS LISTING C:\Users\alex\AppData\Local\Temp/ccNBd47t.s 			page 20


 1084 00b3 87        		.byte	0x87
 1085 00b4 2C00 0000 		.long	0x2c
 1086 00b8 02        		.byte	0x2
 1087 00b9 8C        		.byte	0x8c
 1088 00ba 03        		.sleb128 3
 1089 00bb 0A        		.uleb128 0xa
 1090 00bc 0000 0000 		.long	.LASF10
 1091 00c0 01        		.byte	0x1
 1092 00c1 89        		.byte	0x89
 1093 00c2 3700 0000 		.long	0x37
 1094 00c6 02        		.byte	0x2
 1095 00c7 8C        		.byte	0x8c
 1096 00c8 01        		.sleb128 1
 1097 00c9 00        		.byte	0x0
 1098 00ca 0B        		.uleb128 0xb
 1099 00cb 0000 0000 		.long	.LASF11
 1100 00cf 01        		.byte	0x1
 1101 00d0 D9        		.byte	0xd9
 1102 00d1 01        		.byte	0x1
 1103 00d2 2C00 0000 		.long	0x2c
 1104 00d6 0000 0000 		.long	.LFB5
 1105 00da 0000 0000 		.long	.LFE5
 1106 00de 02        		.byte	0x2
 1107 00df 90        		.byte	0x90
 1108 00e0 20        		.uleb128 0x20
 1109 00e1 0101 0000 		.long	0x101
 1110 00e5 09        		.uleb128 0x9
 1111 00e6 7273 00   		.string	"rs"
 1112 00e9 01        		.byte	0x1
 1113 00ea D8        		.byte	0xd8
 1114 00eb 2C00 0000 		.long	0x2c
 1115 00ef 02        		.byte	0x2
 1116 00f0 8C        		.byte	0x8c
 1117 00f1 02        		.sleb128 2
 1118 00f2 0A        		.uleb128 0xa
 1119 00f3 0000 0000 		.long	.LASF9
 1120 00f7 01        		.byte	0x1
 1121 00f8 DA        		.byte	0xda
 1122 00f9 2C00 0000 		.long	0x2c
 1123 00fd 02        		.byte	0x2
 1124 00fe 8C        		.byte	0x8c
 1125 00ff 01        		.sleb128 1
 1126 0100 00        		.byte	0x0
 1127 0101 0C        		.uleb128 0xc
 1128 0102 0000 0000 		.long	.LASF12
 1129 0106 01        		.byte	0x1
 1130 0107 1F01      		.word	0x11f
 1131 0109 01        		.byte	0x1
 1132 010a 2C00 0000 		.long	0x2c
 1133 010e 0000 0000 		.long	.LFB6
 1134 0112 0000 0000 		.long	.LFE6
 1135 0116 02        		.byte	0x2
 1136 0117 90        		.byte	0x90
 1137 0118 20        		.uleb128 0x20
 1138 0119 2A01 0000 		.long	0x12a
 1139 011d 0D        		.uleb128 0xd
 1140 011e 6300      		.string	"c"
GAS LISTING C:\Users\alex\AppData\Local\Temp/ccNBd47t.s 			page 21


 1141 0120 01        		.byte	0x1
 1142 0121 2001      		.word	0x120
 1143 0123 2C00 0000 		.long	0x2c
 1144 0127 01        		.byte	0x1
 1145 0128 68        		.byte	0x68
 1146 0129 00        		.byte	0x0
 1147 012a 07        		.uleb128 0x7
 1148 012b 0000 0000 		.long	.LASF14
 1149 012f 01        		.byte	0x1
 1150 0130 60        		.byte	0x60
 1151 0131 01        		.byte	0x1
 1152 0132 0000 0000 		.long	.LFB2
 1153 0136 0000 0000 		.long	.LFE2
 1154 013a 02        		.byte	0x2
 1155 013b 90        		.byte	0x90
 1156 013c 20        		.uleb128 0x20
 1157 013d 5001 0000 		.long	0x150
 1158 0141 08        		.uleb128 0x8
 1159 0142 0000 0000 		.long	.LASF15
 1160 0146 01        		.byte	0x1
 1161 0147 5F        		.byte	0x5f
 1162 0148 5000 0000 		.long	0x50
 1163 014c 02        		.byte	0x2
 1164 014d 8C        		.byte	0x8c
 1165 014e 01        		.sleb128 1
 1166 014f 00        		.byte	0x0
 1167 0150 0E        		.uleb128 0xe
 1168 0151 01        		.byte	0x1
 1169 0152 0000 0000 		.long	.LASF16
 1170 0156 01        		.byte	0x1
 1171 0157 6401      		.word	0x164
 1172 0159 01        		.byte	0x1
 1173 015a 0000 0000 		.long	.LFB8
 1174 015e 0000 0000 		.long	.LFE8
 1175 0162 02        		.byte	0x2
 1176 0163 90        		.byte	0x90
 1177 0164 20        		.uleb128 0x20
 1178 0165 7901 0000 		.long	0x179
 1179 0169 0F        		.uleb128 0xf
 1180 016a 636D 6400 		.string	"cmd"
 1181 016e 01        		.byte	0x1
 1182 016f 6301      		.word	0x163
 1183 0171 2C00 0000 		.long	0x2c
 1184 0175 02        		.byte	0x2
 1185 0176 8C        		.byte	0x8c
 1186 0177 01        		.sleb128 1
 1187 0178 00        		.byte	0x0
 1188 0179 0E        		.uleb128 0xe
 1189 017a 01        		.byte	0x1
 1190 017b 0000 0000 		.long	.LASF17
 1191 017f 01        		.byte	0x1
 1192 0180 7001      		.word	0x170
 1193 0182 01        		.byte	0x1
 1194 0183 0000 0000 		.long	.LFB9
 1195 0187 0000 0000 		.long	.LFE9
 1196 018b 02        		.byte	0x2
 1197 018c 90        		.byte	0x90
GAS LISTING C:\Users\alex\AppData\Local\Temp/ccNBd47t.s 			page 22


 1198 018d 20        		.uleb128 0x20
 1199 018e A201 0000 		.long	0x1a2
 1200 0192 10        		.uleb128 0x10
 1201 0193 0000 0000 		.long	.LASF9
 1202 0197 01        		.byte	0x1
 1203 0198 6F01      		.word	0x16f
 1204 019a 2C00 0000 		.long	0x2c
 1205 019e 02        		.byte	0x2
 1206 019f 8C        		.byte	0x8c
 1207 01a0 01        		.sleb128 1
 1208 01a1 00        		.byte	0x0
 1209 01a2 0E        		.uleb128 0xe
 1210 01a3 01        		.byte	0x1
 1211 01a4 0000 0000 		.long	.LASF18
 1212 01a8 01        		.byte	0x1
 1213 01a9 7E01      		.word	0x17e
 1214 01ab 01        		.byte	0x1
 1215 01ac 0000 0000 		.long	.LFB10
 1216 01b0 0000 0000 		.long	.LFE10
 1217 01b4 02        		.byte	0x2
 1218 01b5 90        		.byte	0x90
 1219 01b6 20        		.uleb128 0x20
 1220 01b7 D601 0000 		.long	0x1d6
 1221 01bb 0F        		.uleb128 0xf
 1222 01bc 7800      		.string	"x"
 1223 01be 01        		.byte	0x1
 1224 01bf 7D01      		.word	0x17d
 1225 01c1 2C00 0000 		.long	0x2c
 1226 01c5 02        		.byte	0x2
 1227 01c6 8C        		.byte	0x8c
 1228 01c7 01        		.sleb128 1
 1229 01c8 0F        		.uleb128 0xf
 1230 01c9 7900      		.string	"y"
 1231 01cb 01        		.byte	0x1
 1232 01cc 7D01      		.word	0x17d
 1233 01ce 2C00 0000 		.long	0x2c
 1234 01d2 02        		.byte	0x2
 1235 01d3 8C        		.byte	0x8c
 1236 01d4 02        		.sleb128 2
 1237 01d5 00        		.byte	0x0
 1238 01d6 11        		.uleb128 0x11
 1239 01d7 01        		.byte	0x1
 1240 01d8 0000 0000 		.long	.LASF35
 1241 01dc 01        		.byte	0x1
 1242 01dd 9901      		.word	0x199
 1243 01df 01        		.byte	0x1
 1244 01e0 3E00 0000 		.long	0x3e
 1245 01e4 0000 0000 		.long	.LFB11
 1246 01e8 0000 0000 		.long	.LFE11
 1247 01ec 02        		.byte	0x2
 1248 01ed 90        		.byte	0x90
 1249 01ee 20        		.uleb128 0x20
 1250 01ef 12        		.uleb128 0x12
 1251 01f0 01        		.byte	0x1
 1252 01f1 0000 0000 		.long	.LASF19
 1253 01f5 01        		.byte	0x1
 1254 01f6 A201      		.word	0x1a2
GAS LISTING C:\Users\alex\AppData\Local\Temp/ccNBd47t.s 			page 23


 1255 01f8 01        		.byte	0x1
 1256 01f9 0000 0000 		.long	.LFB12
 1257 01fd 0000 0000 		.long	.LFE12
 1258 0201 02        		.byte	0x2
 1259 0202 90        		.byte	0x90
 1260 0203 20        		.uleb128 0x20
 1261 0204 12        		.uleb128 0x12
 1262 0205 01        		.byte	0x1
 1263 0206 0000 0000 		.long	.LASF20
 1264 020a 01        		.byte	0x1
 1265 020b AB01      		.word	0x1ab
 1266 020d 01        		.byte	0x1
 1267 020e 0000 0000 		.long	.LFB13
 1268 0212 0000 0000 		.long	.LFE13
 1269 0216 02        		.byte	0x2
 1270 0217 90        		.byte	0x90
 1271 0218 20        		.uleb128 0x20
 1272 0219 0E        		.uleb128 0xe
 1273 021a 01        		.byte	0x1
 1274 021b 0000 0000 		.long	.LASF21
 1275 021f 01        		.byte	0x1
 1276 0220 B601      		.word	0x1b6
 1277 0222 01        		.byte	0x1
 1278 0223 0000 0000 		.long	.LFB14
 1279 0227 0000 0000 		.long	.LFE14
 1280 022b 02        		.byte	0x2
 1281 022c 90        		.byte	0x90
 1282 022d 20        		.uleb128 0x20
 1283 022e 4F02 0000 		.long	0x24f
 1284 0232 0F        		.uleb128 0xf
 1285 0233 6300      		.string	"c"
 1286 0235 01        		.byte	0x1
 1287 0236 B501      		.word	0x1b5
 1288 0238 4F02 0000 		.long	0x24f
 1289 023c 02        		.byte	0x2
 1290 023d 8C        		.byte	0x8c
 1291 023e 02        		.sleb128 2
 1292 023f 0D        		.uleb128 0xd
 1293 0240 706F 7300 		.string	"pos"
 1294 0244 01        		.byte	0x1
 1295 0245 B701      		.word	0x1b7
 1296 0247 2C00 0000 		.long	0x2c
 1297 024b 02        		.byte	0x2
 1298 024c 8C        		.byte	0x8c
 1299 024d 01        		.sleb128 1
 1300 024e 00        		.byte	0x0
 1301 024f 02        		.uleb128 0x2
 1302 0250 01        		.byte	0x1
 1303 0251 08        		.byte	0x8
 1304 0252 0000 0000 		.long	.LASF22
 1305 0256 13        		.uleb128 0x13
 1306 0257 0000 0000 		.long	.LASF23
 1307 025b 01        		.byte	0x1
 1308 025c 3301      		.word	0x133
 1309 025e 01        		.byte	0x1
 1310 025f 0000 0000 		.long	.LFB7
 1311 0263 0000 0000 		.long	.LFE7
GAS LISTING C:\Users\alex\AppData\Local\Temp/ccNBd47t.s 			page 24


 1312 0267 02        		.byte	0x2
 1313 0268 90        		.byte	0x90
 1314 0269 20        		.uleb128 0x20
 1315 026a 8D02 0000 		.long	0x28d
 1316 026e 0F        		.uleb128 0xf
 1317 026f 706F 7300 		.string	"pos"
 1318 0273 01        		.byte	0x1
 1319 0274 3201      		.word	0x132
 1320 0276 2C00 0000 		.long	0x2c
 1321 027a 02        		.byte	0x2
 1322 027b 8C        		.byte	0x8c
 1323 027c 01        		.sleb128 1
 1324 027d 14        		.uleb128 0x14
 1325 027e 0000 0000 		.long	.LASF24
 1326 0282 01        		.byte	0x1
 1327 0283 3401      		.word	0x134
 1328 0285 2C00 0000 		.long	0x2c
 1329 0289 02        		.byte	0x2
 1330 028a 8C        		.byte	0x8c
 1331 028b 02        		.sleb128 2
 1332 028c 00        		.byte	0x0
 1333 028d 0E        		.uleb128 0xe
 1334 028e 01        		.byte	0x1
 1335 028f 0000 0000 		.long	.LASF25
 1336 0293 01        		.byte	0x1
 1337 0294 E601      		.word	0x1e6
 1338 0296 01        		.byte	0x1
 1339 0297 0000 0000 		.long	.LFB15
 1340 029b 0000 0000 		.long	.LFE15
 1341 029f 02        		.byte	0x2
 1342 02a0 90        		.byte	0x90
 1343 02a1 20        		.uleb128 0x20
 1344 02a2 C102 0000 		.long	0x2c1
 1345 02a6 0F        		.uleb128 0xf
 1346 02a7 7300      		.string	"s"
 1347 02a9 01        		.byte	0x1
 1348 02aa E401      		.word	0x1e4
 1349 02ac C102 0000 		.long	0x2c1
 1350 02b0 02        		.byte	0x2
 1351 02b1 8C        		.byte	0x8c
 1352 02b2 01        		.sleb128 1
 1353 02b3 0D        		.uleb128 0xd
 1354 02b4 6300      		.string	"c"
 1355 02b6 01        		.byte	0x1
 1356 02b7 E701      		.word	0x1e7
 1357 02b9 4F02 0000 		.long	0x24f
 1358 02bd 02        		.byte	0x2
 1359 02be 8C        		.byte	0x8c
 1360 02bf 03        		.sleb128 3
 1361 02c0 00        		.byte	0x0
 1362 02c1 15        		.uleb128 0x15
 1363 02c2 02        		.byte	0x2
 1364 02c3 C702 0000 		.long	0x2c7
 1365 02c7 16        		.uleb128 0x16
 1366 02c8 4F02 0000 		.long	0x24f
 1367 02cc 0E        		.uleb128 0xe
 1368 02cd 01        		.byte	0x1
GAS LISTING C:\Users\alex\AppData\Local\Temp/ccNBd47t.s 			page 25


 1369 02ce 0000 0000 		.long	.LASF26
 1370 02d2 01        		.byte	0x1
 1371 02d3 F701      		.word	0x1f7
 1372 02d5 01        		.byte	0x1
 1373 02d6 0000 0000 		.long	.LFB16
 1374 02da 0000 0000 		.long	.LFE16
 1375 02de 02        		.byte	0x2
 1376 02df 90        		.byte	0x90
 1377 02e0 20        		.uleb128 0x20
 1378 02e1 2A03 0000 		.long	0x32a
 1379 02e5 10        		.uleb128 0x10
 1380 02e6 0000 0000 		.long	.LASF27
 1381 02ea 01        		.byte	0x1
 1382 02eb F501      		.word	0x1f5
 1383 02ed C102 0000 		.long	0x2c1
 1384 02f1 02        		.byte	0x2
 1385 02f2 8C        		.byte	0x8c
 1386 02f3 04        		.sleb128 4
 1387 02f4 0D        		.uleb128 0xd
 1388 02f5 6300      		.string	"c"
 1389 02f7 01        		.byte	0x1
 1390 02f8 F801      		.word	0x1f8
 1391 02fa 4F02 0000 		.long	0x24f
 1392 02fe 02        		.byte	0x2
 1393 02ff 8C        		.byte	0x8c
 1394 0300 06        		.sleb128 6
 1395 0301 17        		.uleb128 0x17
 1396 0302 0000 0000 		.long	.LBB2
 1397 0306 0000 0000 		.long	.LBE2
 1398 030a 14        		.uleb128 0x14
 1399 030b 0000 0000 		.long	.LASF28
 1400 030f 01        		.byte	0x1
 1401 0310 FA01      		.word	0x1fa
 1402 0312 4500 0000 		.long	0x45
 1403 0316 02        		.byte	0x2
 1404 0317 8C        		.byte	0x8c
 1405 0318 02        		.sleb128 2
 1406 0319 14        		.uleb128 0x14
 1407 031a 0000 0000 		.long	.LASF29
 1408 031e 01        		.byte	0x1
 1409 031f FA01      		.word	0x1fa
 1410 0321 2C00 0000 		.long	0x2c
 1411 0325 02        		.byte	0x2
 1412 0326 8C        		.byte	0x8c
 1413 0327 01        		.sleb128 1
 1414 0328 00        		.byte	0x0
 1415 0329 00        		.byte	0x0
 1416 032a 18        		.uleb128 0x18
 1417 032b 01        		.byte	0x1
 1418 032c 0000 0000 		.long	.LASF36
 1419 0330 01        		.byte	0x1
 1420 0331 0A02      		.word	0x20a
 1421 0333 01        		.byte	0x1
 1422 0334 0000 0000 		.long	.LFB17
 1423 0338 0000 0000 		.long	.LFE17
 1424 033c 02        		.byte	0x2
 1425 033d 90        		.byte	0x90
GAS LISTING C:\Users\alex\AppData\Local\Temp/ccNBd47t.s 			page 26


 1426 033e 20        		.uleb128 0x20
 1427 033f 10        		.uleb128 0x10
 1428 0340 0000 0000 		.long	.LASF30
 1429 0344 01        		.byte	0x1
 1430 0345 0902      		.word	0x209
 1431 0347 2C00 0000 		.long	0x2c
 1432 034b 02        		.byte	0x2
 1433 034c 8C        		.byte	0x8c
 1434 034d 01        		.sleb128 1
 1435 034e 00        		.byte	0x0
 1436 034f 00        		.byte	0x0
 1437               		.section	.debug_abbrev
 1438 0000 01        		.uleb128 0x1
 1439 0001 11        		.uleb128 0x11
 1440 0002 01        		.byte	0x1
 1441 0003 25        		.uleb128 0x25
 1442 0004 0E        		.uleb128 0xe
 1443 0005 13        		.uleb128 0x13
 1444 0006 0B        		.uleb128 0xb
 1445 0007 03        		.uleb128 0x3
 1446 0008 0E        		.uleb128 0xe
 1447 0009 1B        		.uleb128 0x1b
 1448 000a 0E        		.uleb128 0xe
 1449 000b 11        		.uleb128 0x11
 1450 000c 01        		.uleb128 0x1
 1451 000d 12        		.uleb128 0x12
 1452 000e 01        		.uleb128 0x1
 1453 000f 10        		.uleb128 0x10
 1454 0010 06        		.uleb128 0x6
 1455 0011 00        		.byte	0x0
 1456 0012 00        		.byte	0x0
 1457 0013 02        		.uleb128 0x2
 1458 0014 24        		.uleb128 0x24
 1459 0015 00        		.byte	0x0
 1460 0016 0B        		.uleb128 0xb
 1461 0017 0B        		.uleb128 0xb
 1462 0018 3E        		.uleb128 0x3e
 1463 0019 0B        		.uleb128 0xb
 1464 001a 03        		.uleb128 0x3
 1465 001b 0E        		.uleb128 0xe
 1466 001c 00        		.byte	0x0
 1467 001d 00        		.byte	0x0
 1468 001e 03        		.uleb128 0x3
 1469 001f 16        		.uleb128 0x16
 1470 0020 00        		.byte	0x0
 1471 0021 03        		.uleb128 0x3
 1472 0022 0E        		.uleb128 0xe
 1473 0023 3A        		.uleb128 0x3a
 1474 0024 0B        		.uleb128 0xb
 1475 0025 3B        		.uleb128 0x3b
 1476 0026 0B        		.uleb128 0xb
 1477 0027 49        		.uleb128 0x49
 1478 0028 13        		.uleb128 0x13
 1479 0029 00        		.byte	0x0
 1480 002a 00        		.byte	0x0
 1481 002b 04        		.uleb128 0x4
 1482 002c 24        		.uleb128 0x24
GAS LISTING C:\Users\alex\AppData\Local\Temp/ccNBd47t.s 			page 27


 1483 002d 00        		.byte	0x0
 1484 002e 0B        		.uleb128 0xb
 1485 002f 0B        		.uleb128 0xb
 1486 0030 3E        		.uleb128 0x3e
 1487 0031 0B        		.uleb128 0xb
 1488 0032 03        		.uleb128 0x3
 1489 0033 08        		.uleb128 0x8
 1490 0034 00        		.byte	0x0
 1491 0035 00        		.byte	0x0
 1492 0036 05        		.uleb128 0x5
 1493 0037 24        		.uleb128 0x24
 1494 0038 00        		.byte	0x0
 1495 0039 0B        		.uleb128 0xb
 1496 003a 0B        		.uleb128 0xb
 1497 003b 3E        		.uleb128 0x3e
 1498 003c 0B        		.uleb128 0xb
 1499 003d 00        		.byte	0x0
 1500 003e 00        		.byte	0x0
 1501 003f 06        		.uleb128 0x6
 1502 0040 2E        		.uleb128 0x2e
 1503 0041 00        		.byte	0x0
 1504 0042 03        		.uleb128 0x3
 1505 0043 0E        		.uleb128 0xe
 1506 0044 3A        		.uleb128 0x3a
 1507 0045 0B        		.uleb128 0xb
 1508 0046 3B        		.uleb128 0x3b
 1509 0047 0B        		.uleb128 0xb
 1510 0048 27        		.uleb128 0x27
 1511 0049 0C        		.uleb128 0xc
 1512 004a 11        		.uleb128 0x11
 1513 004b 01        		.uleb128 0x1
 1514 004c 12        		.uleb128 0x12
 1515 004d 01        		.uleb128 0x1
 1516 004e 40        		.uleb128 0x40
 1517 004f 0A        		.uleb128 0xa
 1518 0050 00        		.byte	0x0
 1519 0051 00        		.byte	0x0
 1520 0052 07        		.uleb128 0x7
 1521 0053 2E        		.uleb128 0x2e
 1522 0054 01        		.byte	0x1
 1523 0055 03        		.uleb128 0x3
 1524 0056 0E        		.uleb128 0xe
 1525 0057 3A        		.uleb128 0x3a
 1526 0058 0B        		.uleb128 0xb
 1527 0059 3B        		.uleb128 0x3b
 1528 005a 0B        		.uleb128 0xb
 1529 005b 27        		.uleb128 0x27
 1530 005c 0C        		.uleb128 0xc
 1531 005d 11        		.uleb128 0x11
 1532 005e 01        		.uleb128 0x1
 1533 005f 12        		.uleb128 0x12
 1534 0060 01        		.uleb128 0x1
 1535 0061 40        		.uleb128 0x40
 1536 0062 0A        		.uleb128 0xa
 1537 0063 01        		.uleb128 0x1
 1538 0064 13        		.uleb128 0x13
 1539 0065 00        		.byte	0x0
GAS LISTING C:\Users\alex\AppData\Local\Temp/ccNBd47t.s 			page 28


 1540 0066 00        		.byte	0x0
 1541 0067 08        		.uleb128 0x8
 1542 0068 05        		.uleb128 0x5
 1543 0069 00        		.byte	0x0
 1544 006a 03        		.uleb128 0x3
 1545 006b 0E        		.uleb128 0xe
 1546 006c 3A        		.uleb128 0x3a
 1547 006d 0B        		.uleb128 0xb
 1548 006e 3B        		.uleb128 0x3b
 1549 006f 0B        		.uleb128 0xb
 1550 0070 49        		.uleb128 0x49
 1551 0071 13        		.uleb128 0x13
 1552 0072 02        		.uleb128 0x2
 1553 0073 0A        		.uleb128 0xa
 1554 0074 00        		.byte	0x0
 1555 0075 00        		.byte	0x0
 1556 0076 09        		.uleb128 0x9
 1557 0077 05        		.uleb128 0x5
 1558 0078 00        		.byte	0x0
 1559 0079 03        		.uleb128 0x3
 1560 007a 08        		.uleb128 0x8
 1561 007b 3A        		.uleb128 0x3a
 1562 007c 0B        		.uleb128 0xb
 1563 007d 3B        		.uleb128 0x3b
 1564 007e 0B        		.uleb128 0xb
 1565 007f 49        		.uleb128 0x49
 1566 0080 13        		.uleb128 0x13
 1567 0081 02        		.uleb128 0x2
 1568 0082 0A        		.uleb128 0xa
 1569 0083 00        		.byte	0x0
 1570 0084 00        		.byte	0x0
 1571 0085 0A        		.uleb128 0xa
 1572 0086 34        		.uleb128 0x34
 1573 0087 00        		.byte	0x0
 1574 0088 03        		.uleb128 0x3
 1575 0089 0E        		.uleb128 0xe
 1576 008a 3A        		.uleb128 0x3a
 1577 008b 0B        		.uleb128 0xb
 1578 008c 3B        		.uleb128 0x3b
 1579 008d 0B        		.uleb128 0xb
 1580 008e 49        		.uleb128 0x49
 1581 008f 13        		.uleb128 0x13
 1582 0090 02        		.uleb128 0x2
 1583 0091 0A        		.uleb128 0xa
 1584 0092 00        		.byte	0x0
 1585 0093 00        		.byte	0x0
 1586 0094 0B        		.uleb128 0xb
 1587 0095 2E        		.uleb128 0x2e
 1588 0096 01        		.byte	0x1
 1589 0097 03        		.uleb128 0x3
 1590 0098 0E        		.uleb128 0xe
 1591 0099 3A        		.uleb128 0x3a
 1592 009a 0B        		.uleb128 0xb
 1593 009b 3B        		.uleb128 0x3b
 1594 009c 0B        		.uleb128 0xb
 1595 009d 27        		.uleb128 0x27
 1596 009e 0C        		.uleb128 0xc
GAS LISTING C:\Users\alex\AppData\Local\Temp/ccNBd47t.s 			page 29


 1597 009f 49        		.uleb128 0x49
 1598 00a0 13        		.uleb128 0x13
 1599 00a1 11        		.uleb128 0x11
 1600 00a2 01        		.uleb128 0x1
 1601 00a3 12        		.uleb128 0x12
 1602 00a4 01        		.uleb128 0x1
 1603 00a5 40        		.uleb128 0x40
 1604 00a6 0A        		.uleb128 0xa
 1605 00a7 01        		.uleb128 0x1
 1606 00a8 13        		.uleb128 0x13
 1607 00a9 00        		.byte	0x0
 1608 00aa 00        		.byte	0x0
 1609 00ab 0C        		.uleb128 0xc
 1610 00ac 2E        		.uleb128 0x2e
 1611 00ad 01        		.byte	0x1
 1612 00ae 03        		.uleb128 0x3
 1613 00af 0E        		.uleb128 0xe
 1614 00b0 3A        		.uleb128 0x3a
 1615 00b1 0B        		.uleb128 0xb
 1616 00b2 3B        		.uleb128 0x3b
 1617 00b3 05        		.uleb128 0x5
 1618 00b4 27        		.uleb128 0x27
 1619 00b5 0C        		.uleb128 0xc
 1620 00b6 49        		.uleb128 0x49
 1621 00b7 13        		.uleb128 0x13
 1622 00b8 11        		.uleb128 0x11
 1623 00b9 01        		.uleb128 0x1
 1624 00ba 12        		.uleb128 0x12
 1625 00bb 01        		.uleb128 0x1
 1626 00bc 40        		.uleb128 0x40
 1627 00bd 0A        		.uleb128 0xa
 1628 00be 01        		.uleb128 0x1
 1629 00bf 13        		.uleb128 0x13
 1630 00c0 00        		.byte	0x0
 1631 00c1 00        		.byte	0x0
 1632 00c2 0D        		.uleb128 0xd
 1633 00c3 34        		.uleb128 0x34
 1634 00c4 00        		.byte	0x0
 1635 00c5 03        		.uleb128 0x3
 1636 00c6 08        		.uleb128 0x8
 1637 00c7 3A        		.uleb128 0x3a
 1638 00c8 0B        		.uleb128 0xb
 1639 00c9 3B        		.uleb128 0x3b
 1640 00ca 05        		.uleb128 0x5
 1641 00cb 49        		.uleb128 0x49
 1642 00cc 13        		.uleb128 0x13
 1643 00cd 02        		.uleb128 0x2
 1644 00ce 0A        		.uleb128 0xa
 1645 00cf 00        		.byte	0x0
 1646 00d0 00        		.byte	0x0
 1647 00d1 0E        		.uleb128 0xe
 1648 00d2 2E        		.uleb128 0x2e
 1649 00d3 01        		.byte	0x1
 1650 00d4 3F        		.uleb128 0x3f
 1651 00d5 0C        		.uleb128 0xc
 1652 00d6 03        		.uleb128 0x3
 1653 00d7 0E        		.uleb128 0xe
GAS LISTING C:\Users\alex\AppData\Local\Temp/ccNBd47t.s 			page 30


 1654 00d8 3A        		.uleb128 0x3a
 1655 00d9 0B        		.uleb128 0xb
 1656 00da 3B        		.uleb128 0x3b
 1657 00db 05        		.uleb128 0x5
 1658 00dc 27        		.uleb128 0x27
 1659 00dd 0C        		.uleb128 0xc
 1660 00de 11        		.uleb128 0x11
 1661 00df 01        		.uleb128 0x1
 1662 00e0 12        		.uleb128 0x12
 1663 00e1 01        		.uleb128 0x1
 1664 00e2 40        		.uleb128 0x40
 1665 00e3 0A        		.uleb128 0xa
 1666 00e4 01        		.uleb128 0x1
 1667 00e5 13        		.uleb128 0x13
 1668 00e6 00        		.byte	0x0
 1669 00e7 00        		.byte	0x0
 1670 00e8 0F        		.uleb128 0xf
 1671 00e9 05        		.uleb128 0x5
 1672 00ea 00        		.byte	0x0
 1673 00eb 03        		.uleb128 0x3
 1674 00ec 08        		.uleb128 0x8
 1675 00ed 3A        		.uleb128 0x3a
 1676 00ee 0B        		.uleb128 0xb
 1677 00ef 3B        		.uleb128 0x3b
 1678 00f0 05        		.uleb128 0x5
 1679 00f1 49        		.uleb128 0x49
 1680 00f2 13        		.uleb128 0x13
 1681 00f3 02        		.uleb128 0x2
 1682 00f4 0A        		.uleb128 0xa
 1683 00f5 00        		.byte	0x0
 1684 00f6 00        		.byte	0x0
 1685 00f7 10        		.uleb128 0x10
 1686 00f8 05        		.uleb128 0x5
 1687 00f9 00        		.byte	0x0
 1688 00fa 03        		.uleb128 0x3
 1689 00fb 0E        		.uleb128 0xe
 1690 00fc 3A        		.uleb128 0x3a
 1691 00fd 0B        		.uleb128 0xb
 1692 00fe 3B        		.uleb128 0x3b
 1693 00ff 05        		.uleb128 0x5
 1694 0100 49        		.uleb128 0x49
 1695 0101 13        		.uleb128 0x13
 1696 0102 02        		.uleb128 0x2
 1697 0103 0A        		.uleb128 0xa
 1698 0104 00        		.byte	0x0
 1699 0105 00        		.byte	0x0
 1700 0106 11        		.uleb128 0x11
 1701 0107 2E        		.uleb128 0x2e
 1702 0108 00        		.byte	0x0
 1703 0109 3F        		.uleb128 0x3f
 1704 010a 0C        		.uleb128 0xc
 1705 010b 03        		.uleb128 0x3
 1706 010c 0E        		.uleb128 0xe
 1707 010d 3A        		.uleb128 0x3a
 1708 010e 0B        		.uleb128 0xb
 1709 010f 3B        		.uleb128 0x3b
 1710 0110 05        		.uleb128 0x5
GAS LISTING C:\Users\alex\AppData\Local\Temp/ccNBd47t.s 			page 31


 1711 0111 27        		.uleb128 0x27
 1712 0112 0C        		.uleb128 0xc
 1713 0113 49        		.uleb128 0x49
 1714 0114 13        		.uleb128 0x13
 1715 0115 11        		.uleb128 0x11
 1716 0116 01        		.uleb128 0x1
 1717 0117 12        		.uleb128 0x12
 1718 0118 01        		.uleb128 0x1
 1719 0119 40        		.uleb128 0x40
 1720 011a 0A        		.uleb128 0xa
 1721 011b 00        		.byte	0x0
 1722 011c 00        		.byte	0x0
 1723 011d 12        		.uleb128 0x12
 1724 011e 2E        		.uleb128 0x2e
 1725 011f 00        		.byte	0x0
 1726 0120 3F        		.uleb128 0x3f
 1727 0121 0C        		.uleb128 0xc
 1728 0122 03        		.uleb128 0x3
 1729 0123 0E        		.uleb128 0xe
 1730 0124 3A        		.uleb128 0x3a
 1731 0125 0B        		.uleb128 0xb
 1732 0126 3B        		.uleb128 0x3b
 1733 0127 05        		.uleb128 0x5
 1734 0128 27        		.uleb128 0x27
 1735 0129 0C        		.uleb128 0xc
 1736 012a 11        		.uleb128 0x11
 1737 012b 01        		.uleb128 0x1
 1738 012c 12        		.uleb128 0x12
 1739 012d 01        		.uleb128 0x1
 1740 012e 40        		.uleb128 0x40
 1741 012f 0A        		.uleb128 0xa
 1742 0130 00        		.byte	0x0
 1743 0131 00        		.byte	0x0
 1744 0132 13        		.uleb128 0x13
 1745 0133 2E        		.uleb128 0x2e
 1746 0134 01        		.byte	0x1
 1747 0135 03        		.uleb128 0x3
 1748 0136 0E        		.uleb128 0xe
 1749 0137 3A        		.uleb128 0x3a
 1750 0138 0B        		.uleb128 0xb
 1751 0139 3B        		.uleb128 0x3b
 1752 013a 05        		.uleb128 0x5
 1753 013b 27        		.uleb128 0x27
 1754 013c 0C        		.uleb128 0xc
 1755 013d 11        		.uleb128 0x11
 1756 013e 01        		.uleb128 0x1
 1757 013f 12        		.uleb128 0x12
 1758 0140 01        		.uleb128 0x1
 1759 0141 40        		.uleb128 0x40
 1760 0142 0A        		.uleb128 0xa
 1761 0143 01        		.uleb128 0x1
 1762 0144 13        		.uleb128 0x13
 1763 0145 00        		.byte	0x0
 1764 0146 00        		.byte	0x0
 1765 0147 14        		.uleb128 0x14
 1766 0148 34        		.uleb128 0x34
 1767 0149 00        		.byte	0x0
GAS LISTING C:\Users\alex\AppData\Local\Temp/ccNBd47t.s 			page 32


 1768 014a 03        		.uleb128 0x3
 1769 014b 0E        		.uleb128 0xe
 1770 014c 3A        		.uleb128 0x3a
 1771 014d 0B        		.uleb128 0xb
 1772 014e 3B        		.uleb128 0x3b
 1773 014f 05        		.uleb128 0x5
 1774 0150 49        		.uleb128 0x49
 1775 0151 13        		.uleb128 0x13
 1776 0152 02        		.uleb128 0x2
 1777 0153 0A        		.uleb128 0xa
 1778 0154 00        		.byte	0x0
 1779 0155 00        		.byte	0x0
 1780 0156 15        		.uleb128 0x15
 1781 0157 0F        		.uleb128 0xf
 1782 0158 00        		.byte	0x0
 1783 0159 0B        		.uleb128 0xb
 1784 015a 0B        		.uleb128 0xb
 1785 015b 49        		.uleb128 0x49
 1786 015c 13        		.uleb128 0x13
 1787 015d 00        		.byte	0x0
 1788 015e 00        		.byte	0x0
 1789 015f 16        		.uleb128 0x16
 1790 0160 26        		.uleb128 0x26
 1791 0161 00        		.byte	0x0
 1792 0162 49        		.uleb128 0x49
 1793 0163 13        		.uleb128 0x13
 1794 0164 00        		.byte	0x0
 1795 0165 00        		.byte	0x0
 1796 0166 17        		.uleb128 0x17
 1797 0167 0B        		.uleb128 0xb
 1798 0168 01        		.byte	0x1
 1799 0169 11        		.uleb128 0x11
 1800 016a 01        		.uleb128 0x1
 1801 016b 12        		.uleb128 0x12
 1802 016c 01        		.uleb128 0x1
 1803 016d 00        		.byte	0x0
 1804 016e 00        		.byte	0x0
 1805 016f 18        		.uleb128 0x18
 1806 0170 2E        		.uleb128 0x2e
 1807 0171 01        		.byte	0x1
 1808 0172 3F        		.uleb128 0x3f
 1809 0173 0C        		.uleb128 0xc
 1810 0174 03        		.uleb128 0x3
 1811 0175 0E        		.uleb128 0xe
 1812 0176 3A        		.uleb128 0x3a
 1813 0177 0B        		.uleb128 0xb
 1814 0178 3B        		.uleb128 0x3b
 1815 0179 05        		.uleb128 0x5
 1816 017a 27        		.uleb128 0x27
 1817 017b 0C        		.uleb128 0xc
 1818 017c 11        		.uleb128 0x11
 1819 017d 01        		.uleb128 0x1
 1820 017e 12        		.uleb128 0x12
 1821 017f 01        		.uleb128 0x1
 1822 0180 40        		.uleb128 0x40
 1823 0181 0A        		.uleb128 0xa
 1824 0182 00        		.byte	0x0
GAS LISTING C:\Users\alex\AppData\Local\Temp/ccNBd47t.s 			page 33


 1825 0183 00        		.byte	0x0
 1826 0184 00        		.byte	0x0
 1827               		.section	.debug_pubnames,"",@progbits
 1828 0000 9A00 0000 		.long	0x9a
 1829 0004 0200      		.word	0x2
 1830 0006 0000 0000 		.long	.Ldebug_info0
 1831 000a 5003 0000 		.long	0x350
 1832 000e 5001 0000 		.long	0x150
 1833 0012 6C63 645F 		.string	"lcd_command"
 1833      636F 6D6D 
 1833      616E 6400 
 1834 001e 7901 0000 		.long	0x179
 1835 0022 6C63 645F 		.string	"lcd_data"
 1835      6461 7461 
 1835      00
 1836 002b A201 0000 		.long	0x1a2
 1837 002f 6C63 645F 		.string	"lcd_gotoxy"
 1837      676F 746F 
 1837      7879 00
 1838 003a D601 0000 		.long	0x1d6
 1839 003e 6C63 645F 		.string	"lcd_getxy"
 1839      6765 7478 
 1839      7900 
 1840 0048 EF01 0000 		.long	0x1ef
 1841 004c 6C63 645F 		.string	"lcd_clrscr"
 1841      636C 7273 
 1841      6372 00
 1842 0057 0402 0000 		.long	0x204
 1843 005b 6C63 645F 		.string	"lcd_home"
 1843      686F 6D65 
 1843      00
 1844 0064 1902 0000 		.long	0x219
 1845 0068 6C63 645F 		.string	"lcd_putc"
 1845      7075 7463 
 1845      00
 1846 0071 8D02 0000 		.long	0x28d
 1847 0075 6C63 645F 		.string	"lcd_puts"
 1847      7075 7473 
 1847      00
 1848 007e CC02 0000 		.long	0x2cc
 1849 0082 6C63 645F 		.string	"lcd_puts_p"
 1849      7075 7473 
 1849      5F70 00
 1850 008d 2A03 0000 		.long	0x32a
 1851 0091 6C63 645F 		.string	"lcd_init"
 1851      696E 6974 
 1851      00
 1852 009a 0000 0000 		.long	0x0
 1853               		.section	.debug_aranges,"",@progbits
 1854 0000 1C00 0000 		.long	0x1c
 1855 0004 0200      		.word	0x2
 1856 0006 0000 0000 		.long	.Ldebug_info0
 1857 000a 04        		.byte	0x4
 1858 000b 00        		.byte	0x0
 1859 000c 0000      		.word	0x0
 1860 000e 0000      		.word	0x0
 1861 0010 0000 0000 		.long	.Ltext0
GAS LISTING C:\Users\alex\AppData\Local\Temp/ccNBd47t.s 			page 34


 1862 0014 5C04 0000 		.long	.Letext0-.Ltext0
 1863 0018 0000 0000 		.long	0x0
 1864 001c 0000 0000 		.long	0x0
 1865               		.section	.debug_line
 1866 0000 0304 0000 		.long	.LELT0-.LSLT0
 1867               	.LSLT0:
 1868 0004 0200      		.word	0x2
 1869 0006 5200 0000 		.long	.LELTP0-.LASLTP0
 1870               	.LASLTP0:
 1871 000a 01        		.byte	0x1
 1872 000b 01        		.byte	0x1
 1873 000c F6        		.byte	0xf6
 1874 000d F5        		.byte	0xf5
 1875 000e 0A        		.byte	0xa
 1876 000f 00        		.byte	0x0
 1877 0010 01        		.byte	0x1
 1878 0011 01        		.byte	0x1
 1879 0012 01        		.byte	0x1
 1880 0013 01        		.byte	0x1
 1881 0014 00        		.byte	0x0
 1882 0015 00        		.byte	0x0
 1883 0016 00        		.byte	0x0
 1884 0017 01        		.byte	0x1
 1885 0018 633A 2F77 		.ascii	"c:/winavr-20100110/lib/gcc/../../avr/include"
 1885      696E 6176 
 1885      722D 3230 
 1885      3130 3031 
 1885      3130 2F6C 
 1886 0044 00        		.byte	0
 1887 0045 00        		.byte	0x0
 1888 0046 6C63 642E 		.string	"lcd.c"
 1888      6300 
 1889 004c 00        		.uleb128 0x0
 1890 004d 00        		.uleb128 0x0
 1891 004e 00        		.uleb128 0x0
 1892 004f 7374 6469 		.string	"stdint.h"
 1892      6E74 2E68 
 1892      00
 1893 0058 01        		.uleb128 0x1
 1894 0059 00        		.uleb128 0x0
 1895 005a 00        		.uleb128 0x0
 1896 005b 00        		.byte	0x0
 1897               	.LELTP0:
 1898 005c 00        		.byte	0x0
 1899 005d 05        		.uleb128 0x5
 1900 005e 02        		.byte	0x2
 1901 005f 0000 0000 		.long	.LM1
 1902 0063 8A        		.byte	0x8a
 1903 0064 00        		.byte	0x0
 1904 0065 05        		.uleb128 0x5
 1905 0066 02        		.byte	0x2
 1906 0067 0000 0000 		.long	.LM2
 1907 006b 15        		.byte	0x15
 1908 006c 00        		.byte	0x0
 1909 006d 05        		.uleb128 0x5
 1910 006e 02        		.byte	0x2
 1911 006f 0000 0000 		.long	.LM3
GAS LISTING C:\Users\alex\AppData\Local\Temp/ccNBd47t.s 			page 35


 1912 0073 15        		.byte	0x15
 1913 0074 00        		.byte	0x0
 1914 0075 05        		.uleb128 0x5
 1915 0076 02        		.byte	0x2
 1916 0077 0000 0000 		.long	.LM4
 1917 007b 15        		.byte	0x15
 1918 007c 00        		.byte	0x0
 1919 007d 05        		.uleb128 0x5
 1920 007e 02        		.byte	0x2
 1921 007f 0000 0000 		.long	.LM5
 1922 0083 15        		.byte	0x15
 1923 0084 00        		.byte	0x0
 1924 0085 05        		.uleb128 0x5
 1925 0086 02        		.byte	0x2
 1926 0087 0000 0000 		.long	.LM6
 1927 008b 21        		.byte	0x21
 1928 008c 00        		.byte	0x0
 1929 008d 05        		.uleb128 0x5
 1930 008e 02        		.byte	0x2
 1931 008f 0000 0000 		.long	.LM7
 1932 0093 18        		.byte	0x18
 1933 0094 00        		.byte	0x0
 1934 0095 05        		.uleb128 0x5
 1935 0096 02        		.byte	0x2
 1936 0097 0000 0000 		.long	.LM8
 1937 009b 15        		.byte	0x15
 1938 009c 00        		.byte	0x0
 1939 009d 05        		.uleb128 0x5
 1940 009e 02        		.byte	0x2
 1941 009f 0000 0000 		.long	.LM9
 1942 00a3 16        		.byte	0x16
 1943 00a4 00        		.byte	0x0
 1944 00a5 05        		.uleb128 0x5
 1945 00a6 02        		.byte	0x2
 1946 00a7 0000 0000 		.long	.LM10
 1947 00ab 16        		.byte	0x16
 1948 00ac 00        		.byte	0x0
 1949 00ad 05        		.uleb128 0x5
 1950 00ae 02        		.byte	0x2
 1951 00af 0000 0000 		.long	.LM11
 1952 00b3 1A        		.byte	0x1a
 1953 00b4 00        		.byte	0x0
 1954 00b5 05        		.uleb128 0x5
 1955 00b6 02        		.byte	0x2
 1956 00b7 0000 0000 		.long	.LM12
 1957 00bb 17        		.byte	0x17
 1958 00bc 00        		.byte	0x0
 1959 00bd 05        		.uleb128 0x5
 1960 00be 02        		.byte	0x2
 1961 00bf 0000 0000 		.long	.LM13
 1962 00c3 15        		.byte	0x15
 1963 00c4 00        		.byte	0x0
 1964 00c5 05        		.uleb128 0x5
 1965 00c6 02        		.byte	0x2
 1966 00c7 0000 0000 		.long	.LM14
 1967 00cb 15        		.byte	0x15
 1968 00cc 00        		.byte	0x0
GAS LISTING C:\Users\alex\AppData\Local\Temp/ccNBd47t.s 			page 36


 1969 00cd 05        		.uleb128 0x5
 1970 00ce 02        		.byte	0x2
 1971 00cf 0000 0000 		.long	.LM15
 1972 00d3 17        		.byte	0x17
 1973 00d4 00        		.byte	0x0
 1974 00d5 05        		.uleb128 0x5
 1975 00d6 02        		.byte	0x2
 1976 00d7 0000 0000 		.long	.LM16
 1977 00db 15        		.byte	0x15
 1978 00dc 00        		.byte	0x0
 1979 00dd 05        		.uleb128 0x5
 1980 00de 02        		.byte	0x2
 1981 00df 0000 0000 		.long	.LM17
 1982 00e3 17        		.byte	0x17
 1983 00e4 00        		.byte	0x0
 1984 00e5 05        		.uleb128 0x5
 1985 00e6 02        		.byte	0x2
 1986 00e7 0000 0000 		.long	.LM18
 1987 00eb 3A        		.byte	0x3a
 1988 00ec 00        		.byte	0x0
 1989 00ed 05        		.uleb128 0x5
 1990 00ee 02        		.byte	0x2
 1991 00ef 0000 0000 		.long	.LM19
 1992 00f3 24        		.byte	0x24
 1993 00f4 00        		.byte	0x0
 1994 00f5 05        		.uleb128 0x5
 1995 00f6 02        		.byte	0x2
 1996 00f7 0000 0000 		.long	.LM20
 1997 00fb 18        		.byte	0x18
 1998 00fc 00        		.byte	0x0
 1999 00fd 05        		.uleb128 0x5
 2000 00fe 02        		.byte	0x2
 2001 00ff 0000 0000 		.long	.LM21
 2002 0103 15        		.byte	0x15
 2003 0104 00        		.byte	0x0
 2004 0105 05        		.uleb128 0x5
 2005 0106 02        		.byte	0x2
 2006 0107 0000 0000 		.long	.LM22
 2007 010b 16        		.byte	0x16
 2008 010c 00        		.byte	0x0
 2009 010d 05        		.uleb128 0x5
 2010 010e 02        		.byte	0x2
 2011 010f 0000 0000 		.long	.LM23
 2012 0113 15        		.byte	0x15
 2013 0114 00        		.byte	0x0
 2014 0115 05        		.uleb128 0x5
 2015 0116 02        		.byte	0x2
 2016 0117 0000 0000 		.long	.LM24
 2017 011b 19        		.byte	0x19
 2018 011c 00        		.byte	0x0
 2019 011d 05        		.uleb128 0x5
 2020 011e 02        		.byte	0x2
 2021 011f 0000 0000 		.long	.LM25
 2022 0123 16        		.byte	0x16
 2023 0124 00        		.byte	0x0
 2024 0125 05        		.uleb128 0x5
 2025 0126 02        		.byte	0x2
GAS LISTING C:\Users\alex\AppData\Local\Temp/ccNBd47t.s 			page 37


 2026 0127 0000 0000 		.long	.LM26
 2027 012b 15        		.byte	0x15
 2028 012c 00        		.byte	0x0
 2029 012d 05        		.uleb128 0x5
 2030 012e 02        		.byte	0x2
 2031 012f 0000 0000 		.long	.LM27
 2032 0133 15        		.byte	0x15
 2033 0134 00        		.byte	0x0
 2034 0135 05        		.uleb128 0x5
 2035 0136 02        		.byte	0x2
 2036 0137 0000 0000 		.long	.LM28
 2037 013b 15        		.byte	0x15
 2038 013c 00        		.byte	0x0
 2039 013d 05        		.uleb128 0x5
 2040 013e 02        		.byte	0x2
 2041 013f 0000 0000 		.long	.LM29
 2042 0143 16        		.byte	0x16
 2043 0144 00        		.byte	0x0
 2044 0145 05        		.uleb128 0x5
 2045 0146 02        		.byte	0x2
 2046 0147 0000 0000 		.long	.LM30
 2047 014b 16        		.byte	0x16
 2048 014c 00        		.byte	0x0
 2049 014d 05        		.uleb128 0x5
 2050 014e 02        		.byte	0x2
 2051 014f 0000 0000 		.long	.LM31
 2052 0153 15        		.byte	0x15
 2053 0154 00        		.byte	0x0
 2054 0155 05        		.uleb128 0x5
 2055 0156 02        		.byte	0x2
 2056 0157 0000 0000 		.long	.LM32
 2057 015b 15        		.byte	0x15
 2058 015c 00        		.byte	0x0
 2059 015d 05        		.uleb128 0x5
 2060 015e 02        		.byte	0x2
 2061 015f 0000 0000 		.long	.LM33
 2062 0163 15        		.byte	0x15
 2063 0164 00        		.byte	0x0
 2064 0165 05        		.uleb128 0x5
 2065 0166 02        		.byte	0x2
 2066 0167 0000 0000 		.long	.LM34
 2067 016b 33        		.byte	0x33
 2068 016c 00        		.byte	0x0
 2069 016d 05        		.uleb128 0x5
 2070 016e 02        		.byte	0x2
 2071 016f 0000 0000 		.long	.LM35
 2072 0173 15        		.byte	0x15
 2073 0174 00        		.byte	0x0
 2074 0175 05        		.uleb128 0x5
 2075 0176 02        		.byte	0x2
 2076 0177 0000 0000 		.long	.LM36
 2077 017b 21        		.byte	0x21
 2078 017c 00        		.byte	0x0
 2079 017d 05        		.uleb128 0x5
 2080 017e 02        		.byte	0x2
 2081 017f 0000 0000 		.long	.LM37
 2082 0183 18        		.byte	0x18
GAS LISTING C:\Users\alex\AppData\Local\Temp/ccNBd47t.s 			page 38


 2083 0184 00        		.byte	0x0
 2084 0185 05        		.uleb128 0x5
 2085 0186 02        		.byte	0x2
 2086 0187 0000 0000 		.long	.LM38
 2087 018b 17        		.byte	0x17
 2088 018c 00        		.byte	0x0
 2089 018d 05        		.uleb128 0x5
 2090 018e 02        		.byte	0x2
 2091 018f 0000 0000 		.long	.LM39
 2092 0193 17        		.byte	0x17
 2093 0194 00        		.byte	0x0
 2094 0195 05        		.uleb128 0x5
 2095 0196 02        		.byte	0x2
 2096 0197 0000 0000 		.long	.LM40
 2097 019b 16        		.byte	0x16
 2098 019c 00        		.byte	0x0
 2099 019d 05        		.uleb128 0x5
 2100 019e 02        		.byte	0x2
 2101 019f 0000 0000 		.long	.LM41
 2102 01a3 03        		.byte	0x3
 2103 01a4 B57E      		.sleb128 -203
 2104 01a6 01        		.byte	0x1
 2105 01a7 00        		.byte	0x0
 2106 01a8 05        		.uleb128 0x5
 2107 01a9 02        		.byte	0x2
 2108 01aa 0000 0000 		.long	.LM42
 2109 01ae 15        		.byte	0x15
 2110 01af 00        		.byte	0x0
 2111 01b0 05        		.uleb128 0x5
 2112 01b1 02        		.byte	0x2
 2113 01b2 0000 0000 		.long	.LM43
 2114 01b6 15        		.byte	0x15
 2115 01b7 00        		.byte	0x0
 2116 01b8 05        		.uleb128 0x5
 2117 01b9 02        		.byte	0x2
 2118 01ba 0000 0000 		.long	.LM44
 2119 01be 16        		.byte	0x16
 2120 01bf 00        		.byte	0x0
 2121 01c0 05        		.uleb128 0x5
 2122 01c1 02        		.byte	0x2
 2123 01c2 0000 0000 		.long	.LM45
 2124 01c6 1A        		.byte	0x1a
 2125 01c7 00        		.byte	0x0
 2126 01c8 05        		.uleb128 0x5
 2127 01c9 02        		.byte	0x2
 2128 01ca 0000 0000 		.long	.LM46
 2129 01ce 03        		.byte	0x3
 2130 01cf FA01      		.sleb128 250
 2131 01d1 01        		.byte	0x1
 2132 01d2 00        		.byte	0x0
 2133 01d3 05        		.uleb128 0x5
 2134 01d4 02        		.byte	0x2
 2135 01d5 0000 0000 		.long	.LM47
 2136 01d9 15        		.byte	0x15
 2137 01da 00        		.byte	0x0
 2138 01db 05        		.uleb128 0x5
 2139 01dc 02        		.byte	0x2
GAS LISTING C:\Users\alex\AppData\Local\Temp/ccNBd47t.s 			page 39


 2140 01dd 0000 0000 		.long	.LM48
 2141 01e1 15        		.byte	0x15
 2142 01e2 00        		.byte	0x0
 2143 01e3 05        		.uleb128 0x5
 2144 01e4 02        		.byte	0x2
 2145 01e5 0000 0000 		.long	.LM49
 2146 01e9 15        		.byte	0x15
 2147 01ea 00        		.byte	0x0
 2148 01eb 05        		.uleb128 0x5
 2149 01ec 02        		.byte	0x2
 2150 01ed 0000 0000 		.long	.LM50
 2151 01f1 1D        		.byte	0x1d
 2152 01f2 00        		.byte	0x0
 2153 01f3 05        		.uleb128 0x5
 2154 01f4 02        		.byte	0x2
 2155 01f5 0000 0000 		.long	.LM51
 2156 01f9 15        		.byte	0x15
 2157 01fa 00        		.byte	0x0
 2158 01fb 05        		.uleb128 0x5
 2159 01fc 02        		.byte	0x2
 2160 01fd 0000 0000 		.long	.LM52
 2161 0201 15        		.byte	0x15
 2162 0202 00        		.byte	0x0
 2163 0203 05        		.uleb128 0x5
 2164 0204 02        		.byte	0x2
 2165 0205 0000 0000 		.long	.LM53
 2166 0209 15        		.byte	0x15
 2167 020a 00        		.byte	0x0
 2168 020b 05        		.uleb128 0x5
 2169 020c 02        		.byte	0x2
 2170 020d 0000 0000 		.long	.LM54
 2171 0211 1F        		.byte	0x1f
 2172 0212 00        		.byte	0x0
 2173 0213 05        		.uleb128 0x5
 2174 0214 02        		.byte	0x2
 2175 0215 0000 0000 		.long	.LM55
 2176 0219 1F        		.byte	0x1f
 2177 021a 00        		.byte	0x0
 2178 021b 05        		.uleb128 0x5
 2179 021c 02        		.byte	0x2
 2180 021d 0000 0000 		.long	.LM56
 2181 0221 15        		.byte	0x15
 2182 0222 00        		.byte	0x0
 2183 0223 05        		.uleb128 0x5
 2184 0224 02        		.byte	0x2
 2185 0225 0000 0000 		.long	.LM57
 2186 0229 15        		.byte	0x15
 2187 022a 00        		.byte	0x0
 2188 022b 05        		.uleb128 0x5
 2189 022c 02        		.byte	0x2
 2190 022d 0000 0000 		.long	.LM58
 2191 0231 15        		.byte	0x15
 2192 0232 00        		.byte	0x0
 2193 0233 05        		.uleb128 0x5
 2194 0234 02        		.byte	0x2
 2195 0235 0000 0000 		.long	.LM59
 2196 0239 15        		.byte	0x15
GAS LISTING C:\Users\alex\AppData\Local\Temp/ccNBd47t.s 			page 40


 2197 023a 00        		.byte	0x0
 2198 023b 05        		.uleb128 0x5
 2199 023c 02        		.byte	0x2
 2200 023d 0000 0000 		.long	.LM60
 2201 0241 15        		.byte	0x15
 2202 0242 00        		.byte	0x0
 2203 0243 05        		.uleb128 0x5
 2204 0244 02        		.byte	0x2
 2205 0245 0000 0000 		.long	.LM61
 2206 0249 16        		.byte	0x16
 2207 024a 00        		.byte	0x0
 2208 024b 05        		.uleb128 0x5
 2209 024c 02        		.byte	0x2
 2210 024d 0000 0000 		.long	.LM62
 2211 0251 17        		.byte	0x17
 2212 0252 00        		.byte	0x0
 2213 0253 05        		.uleb128 0x5
 2214 0254 02        		.byte	0x2
 2215 0255 0000 0000 		.long	.LM63
 2216 0259 1A        		.byte	0x1a
 2217 025a 00        		.byte	0x0
 2218 025b 05        		.uleb128 0x5
 2219 025c 02        		.byte	0x2
 2220 025d 0000 0000 		.long	.LM64
 2221 0261 15        		.byte	0x15
 2222 0262 00        		.byte	0x0
 2223 0263 05        		.uleb128 0x5
 2224 0264 02        		.byte	0x2
 2225 0265 0000 0000 		.long	.LM65
 2226 0269 15        		.byte	0x15
 2227 026a 00        		.byte	0x0
 2228 026b 05        		.uleb128 0x5
 2229 026c 02        		.byte	0x2
 2230 026d 0000 0000 		.long	.LM66
 2231 0271 1B        		.byte	0x1b
 2232 0272 00        		.byte	0x0
 2233 0273 05        		.uleb128 0x5
 2234 0274 02        		.byte	0x2
 2235 0275 0000 0000 		.long	.LM67
 2236 0279 15        		.byte	0x15
 2237 027a 00        		.byte	0x0
 2238 027b 05        		.uleb128 0x5
 2239 027c 02        		.byte	0x2
 2240 027d 0000 0000 		.long	.LM68
 2241 0281 15        		.byte	0x15
 2242 0282 00        		.byte	0x0
 2243 0283 05        		.uleb128 0x5
 2244 0284 02        		.byte	0x2
 2245 0285 0000 0000 		.long	.LM69
 2246 0289 1B        		.byte	0x1b
 2247 028a 00        		.byte	0x0
 2248 028b 05        		.uleb128 0x5
 2249 028c 02        		.byte	0x2
 2250 028d 0000 0000 		.long	.LM70
 2251 0291 15        		.byte	0x15
 2252 0292 00        		.byte	0x0
 2253 0293 05        		.uleb128 0x5
GAS LISTING C:\Users\alex\AppData\Local\Temp/ccNBd47t.s 			page 41


 2254 0294 02        		.byte	0x2
 2255 0295 0000 0000 		.long	.LM71
 2256 0299 15        		.byte	0x15
 2257 029a 00        		.byte	0x0
 2258 029b 05        		.uleb128 0x5
 2259 029c 02        		.byte	0x2
 2260 029d 0000 0000 		.long	.LM72
 2261 02a1 1D        		.byte	0x1d
 2262 02a2 00        		.byte	0x0
 2263 02a3 05        		.uleb128 0x5
 2264 02a4 02        		.byte	0x2
 2265 02a5 0000 0000 		.long	.LM73
 2266 02a9 18        		.byte	0x18
 2267 02aa 00        		.byte	0x0
 2268 02ab 05        		.uleb128 0x5
 2269 02ac 02        		.byte	0x2
 2270 02ad 0000 0000 		.long	.LM74
 2271 02b1 15        		.byte	0x15
 2272 02b2 00        		.byte	0x0
 2273 02b3 05        		.uleb128 0x5
 2274 02b4 02        		.byte	0x2
 2275 02b5 0000 0000 		.long	.LM75
 2276 02b9 16        		.byte	0x16
 2277 02ba 00        		.byte	0x0
 2278 02bb 05        		.uleb128 0x5
 2279 02bc 02        		.byte	0x2
 2280 02bd 0000 0000 		.long	.LM76
 2281 02c1 30        		.byte	0x30
 2282 02c2 00        		.byte	0x0
 2283 02c3 05        		.uleb128 0x5
 2284 02c4 02        		.byte	0x2
 2285 02c5 0000 0000 		.long	.LM77
 2286 02c9 17        		.byte	0x17
 2287 02ca 00        		.byte	0x0
 2288 02cb 05        		.uleb128 0x5
 2289 02cc 02        		.byte	0x2
 2290 02cd 0000 0000 		.long	.LM78
 2291 02d1 03        		.byte	0x3
 2292 02d2 D77E      		.sleb128 -169
 2293 02d4 01        		.byte	0x1
 2294 02d5 00        		.byte	0x0
 2295 02d6 05        		.uleb128 0x5
 2296 02d7 02        		.byte	0x2
 2297 02d8 0000 0000 		.long	.LM79
 2298 02dc 2C        		.byte	0x2c
 2299 02dd 00        		.byte	0x0
 2300 02de 05        		.uleb128 0x5
 2301 02df 02        		.byte	0x2
 2302 02e0 0000 0000 		.long	.LM80
 2303 02e4 15        		.byte	0x15
 2304 02e5 00        		.byte	0x0
 2305 02e6 05        		.uleb128 0x5
 2306 02e7 02        		.byte	0x2
 2307 02e8 0000 0000 		.long	.LM81
 2308 02ec 15        		.byte	0x15
 2309 02ed 00        		.byte	0x0
 2310 02ee 05        		.uleb128 0x5
GAS LISTING C:\Users\alex\AppData\Local\Temp/ccNBd47t.s 			page 42


 2311 02ef 02        		.byte	0x2
 2312 02f0 0000 0000 		.long	.LM82
 2313 02f4 15        		.byte	0x15
 2314 02f5 00        		.byte	0x0
 2315 02f6 05        		.uleb128 0x5
 2316 02f7 02        		.byte	0x2
 2317 02f8 0000 0000 		.long	.LM83
 2318 02fc 15        		.byte	0x15
 2319 02fd 00        		.byte	0x0
 2320 02fe 05        		.uleb128 0x5
 2321 02ff 02        		.byte	0x2
 2322 0300 0000 0000 		.long	.LM84
 2323 0304 15        		.byte	0x15
 2324 0305 00        		.byte	0x0
 2325 0306 05        		.uleb128 0x5
 2326 0307 02        		.byte	0x2
 2327 0308 0000 0000 		.long	.LM85
 2328 030c 16        		.byte	0x16
 2329 030d 00        		.byte	0x0
 2330 030e 05        		.uleb128 0x5
 2331 030f 02        		.byte	0x2
 2332 0310 0000 0000 		.long	.LM86
 2333 0314 17        		.byte	0x17
 2334 0315 00        		.byte	0x0
 2335 0316 05        		.uleb128 0x5
 2336 0317 02        		.byte	0x2
 2337 0318 0000 0000 		.long	.LM87
 2338 031c 16        		.byte	0x16
 2339 031d 00        		.byte	0x0
 2340 031e 05        		.uleb128 0x5
 2341 031f 02        		.byte	0x2
 2342 0320 0000 0000 		.long	.LM88
 2343 0324 A3        		.byte	0xa3
 2344 0325 00        		.byte	0x0
 2345 0326 05        		.uleb128 0x5
 2346 0327 02        		.byte	0x2
 2347 0328 0000 0000 		.long	.LM89
 2348 032c 18        		.byte	0x18
 2349 032d 00        		.byte	0x0
 2350 032e 05        		.uleb128 0x5
 2351 032f 02        		.byte	0x2
 2352 0330 0000 0000 		.long	.LM90
 2353 0334 13        		.byte	0x13
 2354 0335 00        		.byte	0x0
 2355 0336 05        		.uleb128 0x5
 2356 0337 02        		.byte	0x2
 2357 0338 0000 0000 		.long	.LM91
 2358 033c 18        		.byte	0x18
 2359 033d 00        		.byte	0x0
 2360 033e 05        		.uleb128 0x5
 2361 033f 02        		.byte	0x2
 2362 0340 0000 0000 		.long	.LM92
 2363 0344 1E        		.byte	0x1e
 2364 0345 00        		.byte	0x0
 2365 0346 05        		.uleb128 0x5
 2366 0347 02        		.byte	0x2
 2367 0348 0000 0000 		.long	.LM93
GAS LISTING C:\Users\alex\AppData\Local\Temp/ccNBd47t.s 			page 43


 2368 034c 18        		.byte	0x18
 2369 034d 00        		.byte	0x0
 2370 034e 05        		.uleb128 0x5
 2371 034f 02        		.byte	0x2
 2372 0350 0000 0000 		.long	.LM94
 2373 0354 13        		.byte	0x13
 2374 0355 00        		.byte	0x0
 2375 0356 05        		.uleb128 0x5
 2376 0357 02        		.byte	0x2
 2377 0358 0000 0000 		.long	.LM95
 2378 035c 18        		.byte	0x18
 2379 035d 00        		.byte	0x0
 2380 035e 05        		.uleb128 0x5
 2381 035f 02        		.byte	0x2
 2382 0360 0000 0000 		.long	.LM96
 2383 0364 20        		.byte	0x20
 2384 0365 00        		.byte	0x0
 2385 0366 05        		.uleb128 0x5
 2386 0367 02        		.byte	0x2
 2387 0368 0000 0000 		.long	.LM97
 2388 036c 20        		.byte	0x20
 2389 036d 00        		.byte	0x0
 2390 036e 05        		.uleb128 0x5
 2391 036f 02        		.byte	0x2
 2392 0370 0000 0000 		.long	.LM98
 2393 0374 2A        		.byte	0x2a
 2394 0375 00        		.byte	0x0
 2395 0376 05        		.uleb128 0x5
 2396 0377 02        		.byte	0x2
 2397 0378 0000 0000 		.long	.LM99
 2398 037c 17        		.byte	0x17
 2399 037d 00        		.byte	0x0
 2400 037e 05        		.uleb128 0x5
 2401 037f 02        		.byte	0x2
 2402 0380 0000 0000 		.long	.LM100
 2403 0384 15        		.byte	0x15
 2404 0385 00        		.byte	0x0
 2405 0386 05        		.uleb128 0x5
 2406 0387 02        		.byte	0x2
 2407 0388 0000 0000 		.long	.LM101
 2408 038c 15        		.byte	0x15
 2409 038d 00        		.byte	0x0
 2410 038e 05        		.uleb128 0x5
 2411 038f 02        		.byte	0x2
 2412 0390 0000 0000 		.long	.LM102
 2413 0394 15        		.byte	0x15
 2414 0395 00        		.byte	0x0
 2415 0396 05        		.uleb128 0x5
 2416 0397 02        		.byte	0x2
 2417 0398 0000 0000 		.long	.LM103
 2418 039c 17        		.byte	0x17
 2419 039d 00        		.byte	0x0
 2420 039e 05        		.uleb128 0x5
 2421 039f 02        		.byte	0x2
 2422 03a0 0000 0000 		.long	.LM104
 2423 03a4 15        		.byte	0x15
 2424 03a5 00        		.byte	0x0
GAS LISTING C:\Users\alex\AppData\Local\Temp/ccNBd47t.s 			page 44


 2425 03a6 05        		.uleb128 0x5
 2426 03a7 02        		.byte	0x2
 2427 03a8 0000 0000 		.long	.LM105
 2428 03ac 17        		.byte	0x17
 2429 03ad 00        		.byte	0x0
 2430 03ae 05        		.uleb128 0x5
 2431 03af 02        		.byte	0x2
 2432 03b0 0000 0000 		.long	.LM106
 2433 03b4 15        		.byte	0x15
 2434 03b5 00        		.byte	0x0
 2435 03b6 05        		.uleb128 0x5
 2436 03b7 02        		.byte	0x2
 2437 03b8 0000 0000 		.long	.LM107
 2438 03bc 17        		.byte	0x17
 2439 03bd 00        		.byte	0x0
 2440 03be 05        		.uleb128 0x5
 2441 03bf 02        		.byte	0x2
 2442 03c0 0000 0000 		.long	.LM108
 2443 03c4 15        		.byte	0x15
 2444 03c5 00        		.byte	0x0
 2445 03c6 05        		.uleb128 0x5
 2446 03c7 02        		.byte	0x2
 2447 03c8 0000 0000 		.long	.LM109
 2448 03cc 15        		.byte	0x15
 2449 03cd 00        		.byte	0x0
 2450 03ce 05        		.uleb128 0x5
 2451 03cf 02        		.byte	0x2
 2452 03d0 0000 0000 		.long	.LM110
 2453 03d4 2F        		.byte	0x2f
 2454 03d5 00        		.byte	0x0
 2455 03d6 05        		.uleb128 0x5
 2456 03d7 02        		.byte	0x2
 2457 03d8 0000 0000 		.long	.LM111
 2458 03dc 16        		.byte	0x16
 2459 03dd 00        		.byte	0x0
 2460 03de 05        		.uleb128 0x5
 2461 03df 02        		.byte	0x2
 2462 03e0 0000 0000 		.long	.LM112
 2463 03e4 15        		.byte	0x15
 2464 03e5 00        		.byte	0x0
 2465 03e6 05        		.uleb128 0x5
 2466 03e7 02        		.byte	0x2
 2467 03e8 0000 0000 		.long	.LM113
 2468 03ec 15        		.byte	0x15
 2469 03ed 00        		.byte	0x0
 2470 03ee 05        		.uleb128 0x5
 2471 03ef 02        		.byte	0x2
 2472 03f0 0000 0000 		.long	.LM114
 2473 03f4 15        		.byte	0x15
 2474 03f5 00        		.byte	0x0
 2475 03f6 05        		.uleb128 0x5
 2476 03f7 02        		.byte	0x2
 2477 03f8 0000 0000 		.long	.LM115
 2478 03fc 16        		.byte	0x16
 2479 03fd 00        		.byte	0x0
 2480 03fe 05        		.uleb128 0x5
 2481 03ff 02        		.byte	0x2
GAS LISTING C:\Users\alex\AppData\Local\Temp/ccNBd47t.s 			page 45


 2482 0400 0000 0000 		.long	.Letext0
 2483 0404 00        		.byte	0x0
 2484 0405 01        		.uleb128 0x1
 2485 0406 01        		.byte	0x1
 2486               	.LELT0:
 2487 0407 1600 0000 		.section	.debug_str,"MS",@progbits,1
 2487      0200 1000 
 2487      0000 0101 
 2487      FB0E 0A00 
 2487      0101 0101 
 2488               	.LASF24:
 2489 0000 6164 6472 		.string	"addressCounter"
 2489      6573 7343 
 2489      6F75 6E74 
 2489      6572 00
 2490               	.LASF25:
 2491 000f 6C63 645F 		.string	"lcd_puts"
 2491      7075 7473 
 2491      00
 2492               	.LASF16:
 2493 0018 6C63 645F 		.string	"lcd_command"
 2493      636F 6D6D 
 2493      616E 6400 
 2494               	.LASF19:
 2495 0024 6C63 645F 		.string	"lcd_clrscr"
 2495      636C 7273 
 2495      6372 00
 2496               	.LASF9:
 2497 002f 6461 7461 		.string	"data"
 2497      00
 2498               	.LASF34:
 2499 0034 746F 6767 		.string	"toggle_e"
 2499      6C65 5F65 
 2499      00
 2500               	.LASF1:
 2501 003d 756E 7369 		.string	"unsigned char"
 2501      676E 6564 
 2501      2063 6861 
 2501      7200 
 2502               	.LASF18:
 2503 004b 6C63 645F 		.string	"lcd_gotoxy"
 2503      676F 746F 
 2503      7879 00
 2504               	.LASF6:
 2505 0056 6C6F 6E67 		.string	"long unsigned int"
 2505      2075 6E73 
 2505      6967 6E65 
 2505      6420 696E 
 2505      7400 
 2506               	.LASF36:
 2507 0068 6C63 645F 		.string	"lcd_init"
 2507      696E 6974 
 2507      00
 2508               	.LASF31:
 2509 0071 474E 5520 		.string	"GNU C 4.3.3"
 2509      4320 342E 
 2509      332E 3300 
GAS LISTING C:\Users\alex\AppData\Local\Temp/ccNBd47t.s 			page 46


 2510               	.LASF13:
 2511 007d 6C63 645F 		.string	"lcd_write"
 2511      7772 6974 
 2511      6500 
 2512               	.LASF17:
 2513 0087 6C63 645F 		.string	"lcd_data"
 2513      6461 7461 
 2513      00
 2514               	.LASF33:
 2515 0090 453A 5C61 		.string	"E:\\avr\\lcd0"
 2515      7672 5C6C 
 2515      6364 3000 
 2516               	.LASF20:
 2517 009c 6C63 645F 		.string	"lcd_home"
 2517      686F 6D65 
 2517      00
 2518               	.LASF35:
 2519 00a5 6C63 645F 		.string	"lcd_getxy"
 2519      6765 7478 
 2519      7900 
 2520               	.LASF4:
 2521 00af 756E 7369 		.string	"unsigned int"
 2521      676E 6564 
 2521      2069 6E74 
 2521      00
 2522               	.LASF8:
 2523 00bc 6C6F 6E67 		.string	"long long unsigned int"
 2523      206C 6F6E 
 2523      6720 756E 
 2523      7369 676E 
 2523      6564 2069 
 2524               	.LASF2:
 2525 00d3 7569 6E74 		.string	"uint8_t"
 2525      385F 7400 
 2526               	.LASF30:
 2527 00db 6469 7370 		.string	"dispAttr"
 2527      4174 7472 
 2527      00
 2528               	.LASF28:
 2529 00e4 5F5F 6164 		.string	"__addr16"
 2529      6472 3136 
 2529      00
 2530               	.LASF29:
 2531 00ed 5F5F 7265 		.string	"__result"
 2531      7375 6C74 
 2531      00
 2532               	.LASF14:
 2533 00f6 5F64 656C 		.string	"_delayFourCycles"
 2533      6179 466F 
 2533      7572 4379 
 2533      636C 6573 
 2533      00
 2534               	.LASF7:
 2535 0107 6C6F 6E67 		.string	"long long int"
 2535      206C 6F6E 
 2535      6720 696E 
 2535      7400 
GAS LISTING C:\Users\alex\AppData\Local\Temp/ccNBd47t.s 			page 47


 2536               	.LASF26:
 2537 0115 6C63 645F 		.string	"lcd_puts_p"
 2537      7075 7473 
 2537      5F70 00
 2538               	.LASF15:
 2539 0120 5F5F 636F 		.string	"__count"
 2539      756E 7400 
 2540               	.LASF11:
 2541 0128 6C63 645F 		.string	"lcd_read"
 2541      7265 6164 
 2541      00
 2542               	.LASF27:
 2543 0131 7072 6F67 		.string	"progmem_s"
 2543      6D65 6D5F 
 2543      7300 
 2544               	.LASF3:
 2545 013b 7569 6E74 		.string	"uint16_t"
 2545      3136 5F74 
 2545      00
 2546               	.LASF23:
 2547 0144 6C63 645F 		.string	"lcd_newline"
 2547      6E65 776C 
 2547      696E 6500 
 2548               	.LASF5:
 2549 0150 6C6F 6E67 		.string	"long int"
 2549      2069 6E74 
 2549      00
 2550               	.LASF22:
 2551 0159 6368 6172 		.string	"char"
 2551      00
 2552               	.LASF0:
 2553 015e 7369 676E 		.string	"signed char"
 2553      6564 2063 
 2553      6861 7200 
 2554               	.LASF21:
 2555 016a 6C63 645F 		.string	"lcd_putc"
 2555      7075 7463 
 2555      00
 2556               	.LASF12:
 2557 0173 6C63 645F 		.string	"lcd_waitbusy"
 2557      7761 6974 
 2557      6275 7379 
 2557      00
 2558               	.LASF32:
 2559 0180 6C63 642E 		.string	"lcd.c"
 2559      6300 
 2560               	.LASF10:
 2561 0186 6461 7461 		.string	"dataBits"
 2561      4269 7473 
 2561      00
GAS LISTING C:\Users\alex\AppData\Local\Temp/ccNBd47t.s 			page 48


DEFINED SYMBOLS
                            *ABS*:00000000 lcd.c
C:\Users\alex\AppData\Local\Temp/ccNBd47t.s:2      *ABS*:0000003f __SREG__
C:\Users\alex\AppData\Local\Temp/ccNBd47t.s:3      *ABS*:0000003e __SP_H__
C:\Users\alex\AppData\Local\Temp/ccNBd47t.s:4      *ABS*:0000003d __SP_L__
C:\Users\alex\AppData\Local\Temp/ccNBd47t.s:5      *ABS*:00000034 __CCP__
C:\Users\alex\AppData\Local\Temp/ccNBd47t.s:6      *ABS*:00000000 __tmp_reg__
C:\Users\alex\AppData\Local\Temp/ccNBd47t.s:7      *ABS*:00000001 __zero_reg__
C:\Users\alex\AppData\Local\Temp/ccNBd47t.s:17     .text:00000000 toggle_e
C:\Users\alex\AppData\Local\Temp/ccNBd47t.s:57     .text:0000002c lcd_write
C:\Users\alex\AppData\Local\Temp/ccNBd47t.s:155    .text:000000c6 lcd_read
C:\Users\alex\AppData\Local\Temp/ccNBd47t.s:286    .text:00000178 lcd_waitbusy
C:\Users\alex\AppData\Local\Temp/ccNBd47t.s:316    .text:0000019e _delayFourCycles
C:\Users\alex\AppData\Local\Temp/ccNBd47t.s:365    .text:000001ce lcd_command
C:\Users\alex\AppData\Local\Temp/ccNBd47t.s:392    .text:000001ee lcd_data
C:\Users\alex\AppData\Local\Temp/ccNBd47t.s:419    .text:0000020e lcd_gotoxy
C:\Users\alex\AppData\Local\Temp/ccNBd47t.s:477    .text:0000025e lcd_getxy
C:\Users\alex\AppData\Local\Temp/ccNBd47t.s:499    .text:00000274 lcd_clrscr
C:\Users\alex\AppData\Local\Temp/ccNBd47t.s:520    .text:00000288 lcd_home
C:\Users\alex\AppData\Local\Temp/ccNBd47t.s:541    .text:0000029c lcd_putc
C:\Users\alex\AppData\Local\Temp/ccNBd47t.s:579    .text:000002ce lcd_newline
C:\Users\alex\AppData\Local\Temp/ccNBd47t.s:641    .text:0000031e lcd_puts
C:\Users\alex\AppData\Local\Temp/ccNBd47t.s:695    .text:0000036c lcd_puts_p
C:\Users\alex\AppData\Local\Temp/ccNBd47t.s:756    .text:000003bc lcd_init

NO UNDEFINED SYMBOLS
