GAS LISTING C:\Users\alex\AppData\Local\Temp/ccinlLgc.s 			page 1


   1               		.file	"lcd2.c"
   2               	__SREG__ = 0x3f
   3               	__SP_H__ = 0x3e
   4               	__SP_L__ = 0x3d
   5               	__CCP__  = 0x34
   6               	__tmp_reg__ = 0
   7               	__zero_reg__ = 1
   8               		.section	.debug_abbrev,"",@progbits
   9               	.Ldebug_abbrev0:
  10               		.section	.debug_info,"",@progbits
  11               	.Ldebug_info0:
  12               		.section	.debug_line,"",@progbits
  13               	.Ldebug_line0:
  14               		.text
  15               	.Ltext0:
  16               		.type	lcd_e_toggle, @function
  17               	lcd_e_toggle:
  18               	.LFB3:
  19               	.LM1:
  20 0000 DF93      		push r29
  21 0002 CF93      		push r28
  22 0004 CDB7      		in r28,__SP_L__
  23 0006 DEB7      		in r29,__SP_H__
  24               	/* prologue: function */
  25               	/* frame size = 0 */
  26               	.LM2:
  27 0008 A091 0000 		lds r26,lcd_p_enable
  28 000c B091 0000 		lds r27,(lcd_p_enable)+1
  29 0010 E091 0000 		lds r30,lcd_p_enable
  30 0014 F091 0000 		lds r31,(lcd_p_enable)+1
  31 0018 9081      		ld r25,Z
  32 001a 8091 0000 		lds r24,lcd_b_enable
  33 001e 892B      		or r24,r25
  34 0020 8C93      		st X,r24
  35               	.LM3:
  36               	/* #APP */
  37               	 ;  107 "lcd2.c" 1
  38 0022 00C0      		rjmp 1f
  39               	 1:
  40               	 ;  0 "" 2
  41               	.LM4:
  42               	/* #NOAPP */
  43 0024 A091 0000 		lds r26,lcd_p_enable
  44 0028 B091 0000 		lds r27,(lcd_p_enable)+1
  45 002c E091 0000 		lds r30,lcd_p_enable
  46 0030 F091 0000 		lds r31,(lcd_p_enable)+1
  47 0034 8081      		ld r24,Z
  48 0036 982F      		mov r25,r24
  49 0038 8091 0000 		lds r24,lcd_b_enable
  50 003c 8095      		com r24
  51 003e 8923      		and r24,r25
  52 0040 8C93      		st X,r24
  53               	/* epilogue start */
  54               	.LM5:
  55 0042 CF91      		pop r28
  56 0044 DF91      		pop r29
  57 0046 0895      		ret
GAS LISTING C:\Users\alex\AppData\Local\Temp/ccinlLgc.s 			page 2


  58               	.LFE3:
  59               		.size	lcd_e_toggle, .-lcd_e_toggle
  60               		.type	lcd_write, @function
  61               	lcd_write:
  62               	.LFB4:
  63               	.LM6:
  64 0048 DF93      		push r29
  65 004a CF93      		push r28
  66 004c 00D0      		rcall .
  67 004e CDB7      		in r28,__SP_L__
  68 0050 DEB7      		in r29,__SP_H__
  69               	/* prologue: function */
  70               	/* frame size = 2 */
  71 0052 8983      		std Y+1,r24
  72 0054 6A83      		std Y+2,r22
  73               	.LM7:
  74 0056 8A81      		ldd r24,Y+2
  75 0058 8823      		tst r24
  76 005a 01F0      		breq .L4
  77               	.LM8:
  78 005c A091 0000 		lds r26,lcd_p_rs
  79 0060 B091 0000 		lds r27,(lcd_p_rs)+1
  80 0064 E091 0000 		lds r30,lcd_p_rs
  81 0068 F091 0000 		lds r31,(lcd_p_rs)+1
  82 006c 9081      		ld r25,Z
  83 006e 8091 0000 		lds r24,lcd_b_rs
  84 0072 892B      		or r24,r25
  85 0074 8C93      		st X,r24
  86 0076 00C0      		rjmp .L5
  87               	.L4:
  88               	.LM9:
  89 0078 A091 0000 		lds r26,lcd_p_rs
  90 007c B091 0000 		lds r27,(lcd_p_rs)+1
  91 0080 E091 0000 		lds r30,lcd_p_rs
  92 0084 F091 0000 		lds r31,(lcd_p_rs)+1
  93 0088 8081      		ld r24,Z
  94 008a 982F      		mov r25,r24
  95 008c 8091 0000 		lds r24,lcd_b_rs
  96 0090 8095      		com r24
  97 0092 8923      		and r24,r25
  98 0094 8C93      		st X,r24
  99               	.L5:
 100               	.LM10:
 101 0096 A091 0000 		lds r26,lcd_p_rw
 102 009a B091 0000 		lds r27,(lcd_p_rw)+1
 103 009e E091 0000 		lds r30,lcd_p_rw
 104 00a2 F091 0000 		lds r31,(lcd_p_rw)+1
 105 00a6 8081      		ld r24,Z
 106 00a8 982F      		mov r25,r24
 107 00aa 8091 0000 		lds r24,lcd_b_rw
 108 00ae 8095      		com r24
 109 00b0 8923      		and r24,r25
 110 00b2 8C93      		st X,r24
 111               	.LM11:
 112 00b4 A091 0000 		lds r26,lcd_ddr_db0
 113 00b8 B091 0000 		lds r27,(lcd_ddr_db0)+1
 114 00bc E091 0000 		lds r30,lcd_ddr_db0
GAS LISTING C:\Users\alex\AppData\Local\Temp/ccinlLgc.s 			page 3


 115 00c0 F091 0000 		lds r31,(lcd_ddr_db0)+1
 116 00c4 9081      		ld r25,Z
 117 00c6 8091 0000 		lds r24,lcd_b_db0
 118 00ca 892B      		or r24,r25
 119 00cc 8C93      		st X,r24
 120               	.LM12:
 121 00ce A091 0000 		lds r26,lcd_ddr_db1
 122 00d2 B091 0000 		lds r27,(lcd_ddr_db1)+1
 123 00d6 E091 0000 		lds r30,lcd_ddr_db1
 124 00da F091 0000 		lds r31,(lcd_ddr_db1)+1
 125 00de 9081      		ld r25,Z
 126 00e0 8091 0000 		lds r24,lcd_b_db1
 127 00e4 892B      		or r24,r25
 128 00e6 8C93      		st X,r24
 129               	.LM13:
 130 00e8 A091 0000 		lds r26,lcd_ddr_db2
 131 00ec B091 0000 		lds r27,(lcd_ddr_db2)+1
 132 00f0 E091 0000 		lds r30,lcd_ddr_db2
 133 00f4 F091 0000 		lds r31,(lcd_ddr_db2)+1
 134 00f8 9081      		ld r25,Z
 135 00fa 8091 0000 		lds r24,lcd_b_db2
 136 00fe 892B      		or r24,r25
 137 0100 8C93      		st X,r24
 138               	.LM14:
 139 0102 A091 0000 		lds r26,lcd_ddr_db3
 140 0106 B091 0000 		lds r27,(lcd_ddr_db3)+1
 141 010a E091 0000 		lds r30,lcd_ddr_db3
 142 010e F091 0000 		lds r31,(lcd_ddr_db3)+1
 143 0112 9081      		ld r25,Z
 144 0114 8091 0000 		lds r24,lcd_b_db3
 145 0118 892B      		or r24,r25
 146 011a 8C93      		st X,r24
 147               	.LM15:
 148 011c A091 0000 		lds r26,lcd_p_db0
 149 0120 B091 0000 		lds r27,(lcd_p_db0)+1
 150 0124 E091 0000 		lds r30,lcd_p_db0
 151 0128 F091 0000 		lds r31,(lcd_p_db0)+1
 152 012c 8081      		ld r24,Z
 153 012e 982F      		mov r25,r24
 154 0130 8091 0000 		lds r24,lcd_b_db0
 155 0134 8095      		com r24
 156 0136 8923      		and r24,r25
 157 0138 8C93      		st X,r24
 158               	.LM16:
 159 013a A091 0000 		lds r26,lcd_p_db1
 160 013e B091 0000 		lds r27,(lcd_p_db1)+1
 161 0142 E091 0000 		lds r30,lcd_p_db1
 162 0146 F091 0000 		lds r31,(lcd_p_db1)+1
 163 014a 8081      		ld r24,Z
 164 014c 982F      		mov r25,r24
 165 014e 8091 0000 		lds r24,lcd_b_db1
 166 0152 8095      		com r24
 167 0154 8923      		and r24,r25
 168 0156 8C93      		st X,r24
 169               	.LM17:
 170 0158 A091 0000 		lds r26,lcd_p_db2
 171 015c B091 0000 		lds r27,(lcd_p_db2)+1
GAS LISTING C:\Users\alex\AppData\Local\Temp/ccinlLgc.s 			page 4


 172 0160 E091 0000 		lds r30,lcd_p_db2
 173 0164 F091 0000 		lds r31,(lcd_p_db2)+1
 174 0168 8081      		ld r24,Z
 175 016a 982F      		mov r25,r24
 176 016c 8091 0000 		lds r24,lcd_b_db2
 177 0170 8095      		com r24
 178 0172 8923      		and r24,r25
 179 0174 8C93      		st X,r24
 180               	.LM18:
 181 0176 A091 0000 		lds r26,lcd_p_db3
 182 017a B091 0000 		lds r27,(lcd_p_db3)+1
 183 017e E091 0000 		lds r30,lcd_p_db3
 184 0182 F091 0000 		lds r31,(lcd_p_db3)+1
 185 0186 8081      		ld r24,Z
 186 0188 982F      		mov r25,r24
 187 018a 8091 0000 		lds r24,lcd_b_db3
 188 018e 8095      		com r24
 189 0190 8923      		and r24,r25
 190 0192 8C93      		st X,r24
 191               	.LM19:
 192 0194 8981      		ldd r24,Y+1
 193 0196 8823      		tst r24
 194 0198 04F4      		brge .L6
 195 019a A091 0000 		lds r26,lcd_p_db3
 196 019e B091 0000 		lds r27,(lcd_p_db3)+1
 197 01a2 E091 0000 		lds r30,lcd_p_db3
 198 01a6 F091 0000 		lds r31,(lcd_p_db3)+1
 199 01aa 9081      		ld r25,Z
 200 01ac 8091 0000 		lds r24,lcd_b_db3
 201 01b0 892B      		or r24,r25
 202 01b2 8C93      		st X,r24
 203               	.L6:
 204               	.LM20:
 205 01b4 8981      		ldd r24,Y+1
 206 01b6 882F      		mov r24,r24
 207 01b8 90E0      		ldi r25,lo8(0)
 208 01ba 8074      		andi r24,lo8(64)
 209 01bc 9070      		andi r25,hi8(64)
 210 01be 0097      		sbiw r24,0
 211 01c0 01F0      		breq .L7
 212 01c2 A091 0000 		lds r26,lcd_p_db2
 213 01c6 B091 0000 		lds r27,(lcd_p_db2)+1
 214 01ca E091 0000 		lds r30,lcd_p_db2
 215 01ce F091 0000 		lds r31,(lcd_p_db2)+1
 216 01d2 9081      		ld r25,Z
 217 01d4 8091 0000 		lds r24,lcd_b_db2
 218 01d8 892B      		or r24,r25
 219 01da 8C93      		st X,r24
 220               	.L7:
 221               	.LM21:
 222 01dc 8981      		ldd r24,Y+1
 223 01de 882F      		mov r24,r24
 224 01e0 90E0      		ldi r25,lo8(0)
 225 01e2 8072      		andi r24,lo8(32)
 226 01e4 9070      		andi r25,hi8(32)
 227 01e6 0097      		sbiw r24,0
 228 01e8 01F0      		breq .L8
GAS LISTING C:\Users\alex\AppData\Local\Temp/ccinlLgc.s 			page 5


 229 01ea A091 0000 		lds r26,lcd_p_db1
 230 01ee B091 0000 		lds r27,(lcd_p_db1)+1
 231 01f2 E091 0000 		lds r30,lcd_p_db1
 232 01f6 F091 0000 		lds r31,(lcd_p_db1)+1
 233 01fa 9081      		ld r25,Z
 234 01fc 8091 0000 		lds r24,lcd_b_db1
 235 0200 892B      		or r24,r25
 236 0202 8C93      		st X,r24
 237               	.L8:
 238               	.LM22:
 239 0204 8981      		ldd r24,Y+1
 240 0206 882F      		mov r24,r24
 241 0208 90E0      		ldi r25,lo8(0)
 242 020a 8071      		andi r24,lo8(16)
 243 020c 9070      		andi r25,hi8(16)
 244 020e 0097      		sbiw r24,0
 245 0210 01F0      		breq .L9
 246 0212 A091 0000 		lds r26,lcd_p_db0
 247 0216 B091 0000 		lds r27,(lcd_p_db0)+1
 248 021a E091 0000 		lds r30,lcd_p_db0
 249 021e F091 0000 		lds r31,(lcd_p_db0)+1
 250 0222 9081      		ld r25,Z
 251 0224 8091 0000 		lds r24,lcd_b_db0
 252 0228 892B      		or r24,r25
 253 022a 8C93      		st X,r24
 254               	.L9:
 255               	.LM23:
 256 022c 0E94 0000 		call lcd_e_toggle
 257               	.LM24:
 258 0230 A091 0000 		lds r26,lcd_p_db0
 259 0234 B091 0000 		lds r27,(lcd_p_db0)+1
 260 0238 E091 0000 		lds r30,lcd_p_db0
 261 023c F091 0000 		lds r31,(lcd_p_db0)+1
 262 0240 8081      		ld r24,Z
 263 0242 982F      		mov r25,r24
 264 0244 8091 0000 		lds r24,lcd_b_db0
 265 0248 8095      		com r24
 266 024a 8923      		and r24,r25
 267 024c 8C93      		st X,r24
 268               	.LM25:
 269 024e A091 0000 		lds r26,lcd_p_db1
 270 0252 B091 0000 		lds r27,(lcd_p_db1)+1
 271 0256 E091 0000 		lds r30,lcd_p_db1
 272 025a F091 0000 		lds r31,(lcd_p_db1)+1
 273 025e 8081      		ld r24,Z
 274 0260 982F      		mov r25,r24
 275 0262 8091 0000 		lds r24,lcd_b_db1
 276 0266 8095      		com r24
 277 0268 8923      		and r24,r25
 278 026a 8C93      		st X,r24
 279               	.LM26:
 280 026c A091 0000 		lds r26,lcd_p_db2
 281 0270 B091 0000 		lds r27,(lcd_p_db2)+1
 282 0274 E091 0000 		lds r30,lcd_p_db2
 283 0278 F091 0000 		lds r31,(lcd_p_db2)+1
 284 027c 8081      		ld r24,Z
 285 027e 982F      		mov r25,r24
GAS LISTING C:\Users\alex\AppData\Local\Temp/ccinlLgc.s 			page 6


 286 0280 8091 0000 		lds r24,lcd_b_db2
 287 0284 8095      		com r24
 288 0286 8923      		and r24,r25
 289 0288 8C93      		st X,r24
 290               	.LM27:
 291 028a A091 0000 		lds r26,lcd_p_db3
 292 028e B091 0000 		lds r27,(lcd_p_db3)+1
 293 0292 E091 0000 		lds r30,lcd_p_db3
 294 0296 F091 0000 		lds r31,(lcd_p_db3)+1
 295 029a 8081      		ld r24,Z
 296 029c 982F      		mov r25,r24
 297 029e 8091 0000 		lds r24,lcd_b_db3
 298 02a2 8095      		com r24
 299 02a4 8923      		and r24,r25
 300 02a6 8C93      		st X,r24
 301               	.LM28:
 302 02a8 8981      		ldd r24,Y+1
 303 02aa 882F      		mov r24,r24
 304 02ac 90E0      		ldi r25,lo8(0)
 305 02ae 8870      		andi r24,lo8(8)
 306 02b0 9070      		andi r25,hi8(8)
 307 02b2 0097      		sbiw r24,0
 308 02b4 01F0      		breq .L10
 309 02b6 A091 0000 		lds r26,lcd_p_db3
 310 02ba B091 0000 		lds r27,(lcd_p_db3)+1
 311 02be E091 0000 		lds r30,lcd_p_db3
 312 02c2 F091 0000 		lds r31,(lcd_p_db3)+1
 313 02c6 9081      		ld r25,Z
 314 02c8 8091 0000 		lds r24,lcd_b_db3
 315 02cc 892B      		or r24,r25
 316 02ce 8C93      		st X,r24
 317               	.L10:
 318               	.LM29:
 319 02d0 8981      		ldd r24,Y+1
 320 02d2 882F      		mov r24,r24
 321 02d4 90E0      		ldi r25,lo8(0)
 322 02d6 8470      		andi r24,lo8(4)
 323 02d8 9070      		andi r25,hi8(4)
 324 02da 0097      		sbiw r24,0
 325 02dc 01F0      		breq .L11
 326 02de A091 0000 		lds r26,lcd_p_db2
 327 02e2 B091 0000 		lds r27,(lcd_p_db2)+1
 328 02e6 E091 0000 		lds r30,lcd_p_db2
 329 02ea F091 0000 		lds r31,(lcd_p_db2)+1
 330 02ee 9081      		ld r25,Z
 331 02f0 8091 0000 		lds r24,lcd_b_db2
 332 02f4 892B      		or r24,r25
 333 02f6 8C93      		st X,r24
 334               	.L11:
 335               	.LM30:
 336 02f8 8981      		ldd r24,Y+1
 337 02fa 882F      		mov r24,r24
 338 02fc 90E0      		ldi r25,lo8(0)
 339 02fe 8270      		andi r24,lo8(2)
 340 0300 9070      		andi r25,hi8(2)
 341 0302 0097      		sbiw r24,0
 342 0304 01F0      		breq .L12
GAS LISTING C:\Users\alex\AppData\Local\Temp/ccinlLgc.s 			page 7


 343 0306 A091 0000 		lds r26,lcd_p_db1
 344 030a B091 0000 		lds r27,(lcd_p_db1)+1
 345 030e E091 0000 		lds r30,lcd_p_db1
 346 0312 F091 0000 		lds r31,(lcd_p_db1)+1
 347 0316 9081      		ld r25,Z
 348 0318 8091 0000 		lds r24,lcd_b_db1
 349 031c 892B      		or r24,r25
 350 031e 8C93      		st X,r24
 351               	.L12:
 352               	.LM31:
 353 0320 8981      		ldd r24,Y+1
 354 0322 882F      		mov r24,r24
 355 0324 90E0      		ldi r25,lo8(0)
 356 0326 8170      		andi r24,lo8(1)
 357 0328 9070      		andi r25,hi8(1)
 358 032a 8823      		tst r24
 359 032c 01F0      		breq .L13
 360 032e A091 0000 		lds r26,lcd_p_db0
 361 0332 B091 0000 		lds r27,(lcd_p_db0)+1
 362 0336 E091 0000 		lds r30,lcd_p_db0
 363 033a F091 0000 		lds r31,(lcd_p_db0)+1
 364 033e 9081      		ld r25,Z
 365 0340 8091 0000 		lds r24,lcd_b_db0
 366 0344 892B      		or r24,r25
 367 0346 8C93      		st X,r24
 368               	.L13:
 369               	.LM32:
 370 0348 0E94 0000 		call lcd_e_toggle
 371               	.LM33:
 372 034c A091 0000 		lds r26,lcd_p_db0
 373 0350 B091 0000 		lds r27,(lcd_p_db0)+1
 374 0354 E091 0000 		lds r30,lcd_p_db0
 375 0358 F091 0000 		lds r31,(lcd_p_db0)+1
 376 035c 9081      		ld r25,Z
 377 035e 8091 0000 		lds r24,lcd_b_db0
 378 0362 892B      		or r24,r25
 379 0364 8C93      		st X,r24
 380               	.LM34:
 381 0366 A091 0000 		lds r26,lcd_p_db1
 382 036a B091 0000 		lds r27,(lcd_p_db1)+1
 383 036e E091 0000 		lds r30,lcd_p_db1
 384 0372 F091 0000 		lds r31,(lcd_p_db1)+1
 385 0376 9081      		ld r25,Z
 386 0378 8091 0000 		lds r24,lcd_b_db1
 387 037c 892B      		or r24,r25
 388 037e 8C93      		st X,r24
 389               	.LM35:
 390 0380 A091 0000 		lds r26,lcd_p_db2
 391 0384 B091 0000 		lds r27,(lcd_p_db2)+1
 392 0388 E091 0000 		lds r30,lcd_p_db2
 393 038c F091 0000 		lds r31,(lcd_p_db2)+1
 394 0390 9081      		ld r25,Z
 395 0392 8091 0000 		lds r24,lcd_b_db2
 396 0396 892B      		or r24,r25
 397 0398 8C93      		st X,r24
 398               	.LM36:
 399 039a A091 0000 		lds r26,lcd_p_db3
GAS LISTING C:\Users\alex\AppData\Local\Temp/ccinlLgc.s 			page 8


 400 039e B091 0000 		lds r27,(lcd_p_db3)+1
 401 03a2 E091 0000 		lds r30,lcd_p_db3
 402 03a6 F091 0000 		lds r31,(lcd_p_db3)+1
 403 03aa 9081      		ld r25,Z
 404 03ac 8091 0000 		lds r24,lcd_b_db3
 405 03b0 892B      		or r24,r25
 406 03b2 8C93      		st X,r24
 407               	/* epilogue start */
 408               	.LM37:
 409 03b4 0F90      		pop __tmp_reg__
 410 03b6 0F90      		pop __tmp_reg__
 411 03b8 CF91      		pop r28
 412 03ba DF91      		pop r29
 413 03bc 0895      		ret
 414               	.LFE4:
 415               		.size	lcd_write, .-lcd_write
 416               		.type	lcd_read, @function
 417               	lcd_read:
 418               	.LFB5:
 419               	.LM38:
 420 03be DF93      		push r29
 421 03c0 CF93      		push r28
 422 03c2 00D0      		rcall .
 423 03c4 CDB7      		in r28,__SP_L__
 424 03c6 DEB7      		in r29,__SP_H__
 425               	/* prologue: function */
 426               	/* frame size = 2 */
 427 03c8 8A83      		std Y+2,r24
 428               	.LM39:
 429 03ca 8A81      		ldd r24,Y+2
 430 03cc 8823      		tst r24
 431 03ce 01F0      		breq .L16
 432               	.LM40:
 433 03d0 A091 0000 		lds r26,lcd_p_rs
 434 03d4 B091 0000 		lds r27,(lcd_p_rs)+1
 435 03d8 E091 0000 		lds r30,lcd_p_rs
 436 03dc F091 0000 		lds r31,(lcd_p_rs)+1
 437 03e0 9081      		ld r25,Z
 438 03e2 8091 0000 		lds r24,lcd_b_rs
 439 03e6 892B      		or r24,r25
 440 03e8 8C93      		st X,r24
 441 03ea 00C0      		rjmp .L17
 442               	.L16:
 443               	.LM41:
 444 03ec A091 0000 		lds r26,lcd_p_rs
 445 03f0 B091 0000 		lds r27,(lcd_p_rs)+1
 446 03f4 E091 0000 		lds r30,lcd_p_rs
 447 03f8 F091 0000 		lds r31,(lcd_p_rs)+1
 448 03fc 8081      		ld r24,Z
 449 03fe 982F      		mov r25,r24
 450 0400 8091 0000 		lds r24,lcd_b_rs
 451 0404 8095      		com r24
 452 0406 8923      		and r24,r25
 453 0408 8C93      		st X,r24
 454               	.L17:
 455               	.LM42:
 456 040a A091 0000 		lds r26,lcd_p_rw
GAS LISTING C:\Users\alex\AppData\Local\Temp/ccinlLgc.s 			page 9


 457 040e B091 0000 		lds r27,(lcd_p_rw)+1
 458 0412 E091 0000 		lds r30,lcd_p_rw
 459 0416 F091 0000 		lds r31,(lcd_p_rw)+1
 460 041a 9081      		ld r25,Z
 461 041c 8091 0000 		lds r24,lcd_b_rw
 462 0420 892B      		or r24,r25
 463 0422 8C93      		st X,r24
 464               	.LM43:
 465 0424 A091 0000 		lds r26,lcd_ddr_db0
 466 0428 B091 0000 		lds r27,(lcd_ddr_db0)+1
 467 042c E091 0000 		lds r30,lcd_ddr_db0
 468 0430 F091 0000 		lds r31,(lcd_ddr_db0)+1
 469 0434 8081      		ld r24,Z
 470 0436 982F      		mov r25,r24
 471 0438 8091 0000 		lds r24,lcd_b_db0
 472 043c 8095      		com r24
 473 043e 8923      		and r24,r25
 474 0440 8C93      		st X,r24
 475               	.LM44:
 476 0442 A091 0000 		lds r26,lcd_ddr_db1
 477 0446 B091 0000 		lds r27,(lcd_ddr_db1)+1
 478 044a E091 0000 		lds r30,lcd_ddr_db1
 479 044e F091 0000 		lds r31,(lcd_ddr_db1)+1
 480 0452 8081      		ld r24,Z
 481 0454 982F      		mov r25,r24
 482 0456 8091 0000 		lds r24,lcd_b_db1
 483 045a 8095      		com r24
 484 045c 8923      		and r24,r25
 485 045e 8C93      		st X,r24
 486               	.LM45:
 487 0460 A091 0000 		lds r26,lcd_ddr_db2
 488 0464 B091 0000 		lds r27,(lcd_ddr_db2)+1
 489 0468 E091 0000 		lds r30,lcd_ddr_db2
 490 046c F091 0000 		lds r31,(lcd_ddr_db2)+1
 491 0470 8081      		ld r24,Z
 492 0472 982F      		mov r25,r24
 493 0474 8091 0000 		lds r24,lcd_b_db2
 494 0478 8095      		com r24
 495 047a 8923      		and r24,r25
 496 047c 8C93      		st X,r24
 497               	.LM46:
 498 047e A091 0000 		lds r26,lcd_ddr_db3
 499 0482 B091 0000 		lds r27,(lcd_ddr_db3)+1
 500 0486 E091 0000 		lds r30,lcd_ddr_db3
 501 048a F091 0000 		lds r31,(lcd_ddr_db3)+1
 502 048e 8081      		ld r24,Z
 503 0490 982F      		mov r25,r24
 504 0492 8091 0000 		lds r24,lcd_b_db3
 505 0496 8095      		com r24
 506 0498 8923      		and r24,r25
 507 049a 8C93      		st X,r24
 508               	.LM47:
 509 049c A091 0000 		lds r26,lcd_p_enable
 510 04a0 B091 0000 		lds r27,(lcd_p_enable)+1
 511 04a4 E091 0000 		lds r30,lcd_p_enable
 512 04a8 F091 0000 		lds r31,(lcd_p_enable)+1
 513 04ac 9081      		ld r25,Z
GAS LISTING C:\Users\alex\AppData\Local\Temp/ccinlLgc.s 			page 10


 514 04ae 8091 0000 		lds r24,lcd_b_enable
 515 04b2 892B      		or r24,r25
 516 04b4 8C93      		st X,r24
 517               	.LM48:
 518               	/* #APP */
 519               	 ;  191 "lcd2.c" 1
 520 04b6 00C0      		rjmp 1f
 521               	 1:
 522               	 ;  0 "" 2
 523               	.LM49:
 524               	/* #NOAPP */
 525 04b8 1982      		std Y+1,__zero_reg__
 526               	.LM50:
 527 04ba E091 0000 		lds r30,lcd_p_db0
 528 04be F091 0000 		lds r31,(lcd_p_db0)+1
 529 04c2 9081      		ld r25,Z
 530 04c4 8091 0000 		lds r24,lcd_b_db0
 531 04c8 9823      		and r25,r24
 532 04ca 8091 0000 		lds r24,lcd_b_db0
 533 04ce 8923      		and r24,r25
 534 04d0 8823      		tst r24
 535 04d2 01F0      		breq .L18
 536 04d4 8981      		ldd r24,Y+1
 537 04d6 8061      		ori r24,lo8(16)
 538 04d8 8983      		std Y+1,r24
 539               	.L18:
 540               	.LM51:
 541 04da E091 0000 		lds r30,lcd_p_db1
 542 04de F091 0000 		lds r31,(lcd_p_db1)+1
 543 04e2 9081      		ld r25,Z
 544 04e4 8091 0000 		lds r24,lcd_b_db1
 545 04e8 9823      		and r25,r24
 546 04ea 8091 0000 		lds r24,lcd_b_db0
 547 04ee 8923      		and r24,r25
 548 04f0 8823      		tst r24
 549 04f2 01F0      		breq .L19
 550 04f4 8981      		ldd r24,Y+1
 551 04f6 8062      		ori r24,lo8(32)
 552 04f8 8983      		std Y+1,r24
 553               	.L19:
 554               	.LM52:
 555 04fa E091 0000 		lds r30,lcd_p_db2
 556 04fe F091 0000 		lds r31,(lcd_p_db2)+1
 557 0502 9081      		ld r25,Z
 558 0504 8091 0000 		lds r24,lcd_b_db2
 559 0508 9823      		and r25,r24
 560 050a 8091 0000 		lds r24,lcd_b_db0
 561 050e 8923      		and r24,r25
 562 0510 8823      		tst r24
 563 0512 01F0      		breq .L20
 564 0514 8981      		ldd r24,Y+1
 565 0516 8064      		ori r24,lo8(64)
 566 0518 8983      		std Y+1,r24
 567               	.L20:
 568               	.LM53:
 569 051a E091 0000 		lds r30,lcd_p_db3
 570 051e F091 0000 		lds r31,(lcd_p_db3)+1
GAS LISTING C:\Users\alex\AppData\Local\Temp/ccinlLgc.s 			page 11


 571 0522 9081      		ld r25,Z
 572 0524 8091 0000 		lds r24,lcd_b_db3
 573 0528 9823      		and r25,r24
 574 052a 8091 0000 		lds r24,lcd_b_db0
 575 052e 8923      		and r24,r25
 576 0530 8823      		tst r24
 577 0532 01F0      		breq .L21
 578 0534 8981      		ldd r24,Y+1
 579 0536 8068      		ori r24,lo8(-128)
 580 0538 8983      		std Y+1,r24
 581               	.L21:
 582               	.LM54:
 583 053a A091 0000 		lds r26,lcd_p_enable
 584 053e B091 0000 		lds r27,(lcd_p_enable)+1
 585 0542 E091 0000 		lds r30,lcd_p_enable
 586 0546 F091 0000 		lds r31,(lcd_p_enable)+1
 587 054a 8081      		ld r24,Z
 588 054c 982F      		mov r25,r24
 589 054e 8091 0000 		lds r24,lcd_b_enable
 590 0552 8095      		com r24
 591 0554 8923      		and r24,r25
 592 0556 8C93      		st X,r24
 593               	.LM55:
 594               	/* #APP */
 595               	 ;  199 "lcd2.c" 1
 596 0558 00C0      		rjmp 1f
 597               	 1:
 598               	 ;  0 "" 2
 599               	.LM56:
 600               	/* #NOAPP */
 601 055a A091 0000 		lds r26,lcd_p_enable
 602 055e B091 0000 		lds r27,(lcd_p_enable)+1
 603 0562 E091 0000 		lds r30,lcd_p_enable
 604 0566 F091 0000 		lds r31,(lcd_p_enable)+1
 605 056a 9081      		ld r25,Z
 606 056c 8091 0000 		lds r24,lcd_b_enable
 607 0570 892B      		or r24,r25
 608 0572 8C93      		st X,r24
 609               	.LM57:
 610               	/* #APP */
 611               	 ;  203 "lcd2.c" 1
 612 0574 00C0      		rjmp 1f
 613               	 1:
 614               	 ;  0 "" 2
 615               	.LM58:
 616               	/* #NOAPP */
 617 0576 E091 0000 		lds r30,lcd_p_db0
 618 057a F091 0000 		lds r31,(lcd_p_db0)+1
 619 057e 9081      		ld r25,Z
 620 0580 8091 0000 		lds r24,lcd_b_db0
 621 0584 9823      		and r25,r24
 622 0586 8091 0000 		lds r24,lcd_b_db0
 623 058a 8923      		and r24,r25
 624 058c 8823      		tst r24
 625 058e 01F0      		breq .L22
 626 0590 8981      		ldd r24,Y+1
 627 0592 8160      		ori r24,lo8(1)
GAS LISTING C:\Users\alex\AppData\Local\Temp/ccinlLgc.s 			page 12


 628 0594 8983      		std Y+1,r24
 629               	.L22:
 630               	.LM59:
 631 0596 E091 0000 		lds r30,lcd_p_db1
 632 059a F091 0000 		lds r31,(lcd_p_db1)+1
 633 059e 9081      		ld r25,Z
 634 05a0 8091 0000 		lds r24,lcd_b_db1
 635 05a4 9823      		and r25,r24
 636 05a6 8091 0000 		lds r24,lcd_b_db0
 637 05aa 8923      		and r24,r25
 638 05ac 8823      		tst r24
 639 05ae 01F0      		breq .L23
 640 05b0 8981      		ldd r24,Y+1
 641 05b2 8260      		ori r24,lo8(2)
 642 05b4 8983      		std Y+1,r24
 643               	.L23:
 644               	.LM60:
 645 05b6 E091 0000 		lds r30,lcd_p_db2
 646 05ba F091 0000 		lds r31,(lcd_p_db2)+1
 647 05be 9081      		ld r25,Z
 648 05c0 8091 0000 		lds r24,lcd_b_db2
 649 05c4 9823      		and r25,r24
 650 05c6 8091 0000 		lds r24,lcd_b_db0
 651 05ca 8923      		and r24,r25
 652 05cc 8823      		tst r24
 653 05ce 01F0      		breq .L24
 654 05d0 8981      		ldd r24,Y+1
 655 05d2 8460      		ori r24,lo8(4)
 656 05d4 8983      		std Y+1,r24
 657               	.L24:
 658               	.LM61:
 659 05d6 E091 0000 		lds r30,lcd_p_db3
 660 05da F091 0000 		lds r31,(lcd_p_db3)+1
 661 05de 9081      		ld r25,Z
 662 05e0 8091 0000 		lds r24,lcd_b_db3
 663 05e4 9823      		and r25,r24
 664 05e6 8091 0000 		lds r24,lcd_b_db0
 665 05ea 8923      		and r24,r25
 666 05ec 8823      		tst r24
 667 05ee 01F0      		breq .L25
 668 05f0 8981      		ldd r24,Y+1
 669 05f2 8860      		ori r24,lo8(8)
 670 05f4 8983      		std Y+1,r24
 671               	.L25:
 672               	.LM62:
 673 05f6 A091 0000 		lds r26,lcd_p_enable
 674 05fa B091 0000 		lds r27,(lcd_p_enable)+1
 675 05fe E091 0000 		lds r30,lcd_p_enable
 676 0602 F091 0000 		lds r31,(lcd_p_enable)+1
 677 0606 8081      		ld r24,Z
 678 0608 982F      		mov r25,r24
 679 060a 8091 0000 		lds r24,lcd_b_enable
 680 060e 8095      		com r24
 681 0610 8923      		and r24,r25
 682 0612 8C93      		st X,r24
 683               	.LM63:
 684 0614 8981      		ldd r24,Y+1
GAS LISTING C:\Users\alex\AppData\Local\Temp/ccinlLgc.s 			page 13


 685               	/* epilogue start */
 686               	.LM64:
 687 0616 0F90      		pop __tmp_reg__
 688 0618 0F90      		pop __tmp_reg__
 689 061a CF91      		pop r28
 690 061c DF91      		pop r29
 691 061e 0895      		ret
 692               	.LFE5:
 693               		.size	lcd_read, .-lcd_read
 694               		.type	lcd_waitbusy, @function
 695               	lcd_waitbusy:
 696               	.LFB6:
 697               	.LM65:
 698 0620 DF93      		push r29
 699 0622 CF93      		push r28
 700 0624 CDB7      		in r28,__SP_L__
 701 0626 DEB7      		in r29,__SP_H__
 702               	/* prologue: function */
 703               	/* frame size = 0 */
 704               	.L28:
 705               	.LM66:
 706 0628 80E0      		ldi r24,lo8(0)
 707 062a 0E94 0000 		call lcd_read
 708 062e 8823      		tst r24
 709 0630 04F0      		brlt .L28
 710               	.LM67:
 711 0632 88E0      		ldi r24,lo8(8)
 712 0634 90E0      		ldi r25,hi8(8)
 713 0636 0E94 0000 		call _delayFourCycles
 714               	.LM68:
 715 063a 80E0      		ldi r24,lo8(0)
 716 063c 0E94 0000 		call lcd_read
 717               	/* epilogue start */
 718               	.LM69:
 719 0640 CF91      		pop r28
 720 0642 DF91      		pop r29
 721 0644 0895      		ret
 722               	.LFE6:
 723               		.size	lcd_waitbusy, .-lcd_waitbusy
 724               		.type	_delayFourCycles, @function
 725               	_delayFourCycles:
 726               	.LFB2:
 727               	.LM70:
 728 0646 DF93      		push r29
 729 0648 CF93      		push r28
 730 064a 00D0      		rcall .
 731 064c CDB7      		in r28,__SP_L__
 732 064e DEB7      		in r29,__SP_H__
 733               	/* prologue: function */
 734               	/* frame size = 2 */
 735 0650 9A83      		std Y+2,r25
 736 0652 8983      		std Y+1,r24
 737               	.LM71:
 738 0654 8981      		ldd r24,Y+1
 739 0656 9A81      		ldd r25,Y+2
 740 0658 0097      		sbiw r24,0
 741 065a 01F4      		brne .L31
GAS LISTING C:\Users\alex\AppData\Local\Temp/ccinlLgc.s 			page 14


 742               	.LM72:
 743               	/* #APP */
 744               	 ;  84 "lcd2.c" 1
 745 065c 00C0      		rjmp 1f
 746               	 1:
 747               	 ;  0 "" 2
 748               	/* #NOAPP */
 749 065e 00C0      		rjmp .L33
 750               	.L31:
 751               	.LM73:
 752 0660 8981      		ldd r24,Y+1
 753 0662 9A81      		ldd r25,Y+2
 754               	/* #APP */
 755               	 ;  86 "lcd2.c" 1
 756 0664 0197      		1: sbiw r24,1
 757 0666 01F4      		brne 1b
 758               	 ;  0 "" 2
 759               	/* #NOAPP */
 760 0668 9A83      		std Y+2,r25
 761 066a 8983      		std Y+1,r24
 762               	.L33:
 763               	/* epilogue start */
 764               	.LM74:
 765 066c 0F90      		pop __tmp_reg__
 766 066e 0F90      		pop __tmp_reg__
 767 0670 CF91      		pop r28
 768 0672 DF91      		pop r29
 769 0674 0895      		ret
 770               	.LFE2:
 771               		.size	_delayFourCycles, .-_delayFourCycles
 772               	.global	lcd_backlight_on
 773               		.type	lcd_backlight_on, @function
 774               	lcd_backlight_on:
 775               	.LFB8:
 776               	.LM75:
 777 0676 DF93      		push r29
 778 0678 CF93      		push r28
 779 067a CDB7      		in r28,__SP_L__
 780 067c DEB7      		in r29,__SP_H__
 781               	/* prologue: function */
 782               	/* frame size = 0 */
 783               	.LM76:
 784 067e A091 0000 		lds r26,lcd_p_backlight
 785 0682 B091 0000 		lds r27,(lcd_p_backlight)+1
 786 0686 E091 0000 		lds r30,lcd_p_backlight
 787 068a F091 0000 		lds r31,(lcd_p_backlight)+1
 788 068e 9081      		ld r25,Z
 789 0690 8091 0000 		lds r24,lcd_b_backlight
 790 0694 892B      		or r24,r25
 791 0696 8C93      		st X,r24
 792               	/* epilogue start */
 793               	.LM77:
 794 0698 CF91      		pop r28
 795 069a DF91      		pop r29
 796 069c 0895      		ret
 797               	.LFE8:
 798               		.size	lcd_backlight_on, .-lcd_backlight_on
GAS LISTING C:\Users\alex\AppData\Local\Temp/ccinlLgc.s 			page 15


 799               	.global	lcd_backlight_off
 800               		.type	lcd_backlight_off, @function
 801               	lcd_backlight_off:
 802               	.LFB9:
 803               	.LM78:
 804 069e DF93      		push r29
 805 06a0 CF93      		push r28
 806 06a2 CDB7      		in r28,__SP_L__
 807 06a4 DEB7      		in r29,__SP_H__
 808               	/* prologue: function */
 809               	/* frame size = 0 */
 810               	.LM79:
 811 06a6 A091 0000 		lds r26,lcd_p_backlight
 812 06aa B091 0000 		lds r27,(lcd_p_backlight)+1
 813 06ae E091 0000 		lds r30,lcd_p_backlight
 814 06b2 F091 0000 		lds r31,(lcd_p_backlight)+1
 815 06b6 8081      		ld r24,Z
 816 06b8 982F      		mov r25,r24
 817 06ba 8091 0000 		lds r24,lcd_b_backlight
 818 06be 8095      		com r24
 819 06c0 8923      		and r24,r25
 820 06c2 8C93      		st X,r24
 821               	/* epilogue start */
 822               	.LM80:
 823 06c4 CF91      		pop r28
 824 06c6 DF91      		pop r29
 825 06c8 0895      		ret
 826               	.LFE9:
 827               		.size	lcd_backlight_off, .-lcd_backlight_off
 828               	.global	lcd_command
 829               		.type	lcd_command, @function
 830               	lcd_command:
 831               	.LFB10:
 832               	.LM81:
 833 06ca DF93      		push r29
 834 06cc CF93      		push r28
 835 06ce 0F92      		push __tmp_reg__
 836 06d0 CDB7      		in r28,__SP_L__
 837 06d2 DEB7      		in r29,__SP_H__
 838               	/* prologue: function */
 839               	/* frame size = 1 */
 840 06d4 8983      		std Y+1,r24
 841               	.LM82:
 842 06d6 0E94 0000 		call lcd_waitbusy
 843               	.LM83:
 844 06da 8981      		ldd r24,Y+1
 845 06dc 60E0      		ldi r22,lo8(0)
 846 06de 0E94 0000 		call lcd_write
 847               	/* epilogue start */
 848               	.LM84:
 849 06e2 0F90      		pop __tmp_reg__
 850 06e4 CF91      		pop r28
 851 06e6 DF91      		pop r29
 852 06e8 0895      		ret
 853               	.LFE10:
 854               		.size	lcd_command, .-lcd_command
 855               	.global	lcd_data
GAS LISTING C:\Users\alex\AppData\Local\Temp/ccinlLgc.s 			page 16


 856               		.type	lcd_data, @function
 857               	lcd_data:
 858               	.LFB11:
 859               	.LM85:
 860 06ea DF93      		push r29
 861 06ec CF93      		push r28
 862 06ee 0F92      		push __tmp_reg__
 863 06f0 CDB7      		in r28,__SP_L__
 864 06f2 DEB7      		in r29,__SP_H__
 865               	/* prologue: function */
 866               	/* frame size = 1 */
 867 06f4 8983      		std Y+1,r24
 868               	.LM86:
 869 06f6 0E94 0000 		call lcd_waitbusy
 870               	.LM87:
 871 06fa 8981      		ldd r24,Y+1
 872 06fc 61E0      		ldi r22,lo8(1)
 873 06fe 0E94 0000 		call lcd_write
 874               	/* epilogue start */
 875               	.LM88:
 876 0702 0F90      		pop __tmp_reg__
 877 0704 CF91      		pop r28
 878 0706 DF91      		pop r29
 879 0708 0895      		ret
 880               	.LFE11:
 881               		.size	lcd_data, .-lcd_data
 882               	.global	lcd_gotoxy
 883               		.type	lcd_gotoxy, @function
 884               	lcd_gotoxy:
 885               	.LFB12:
 886               	.LM89:
 887 070a DF93      		push r29
 888 070c CF93      		push r28
 889 070e 00D0      		rcall .
 890 0710 CDB7      		in r28,__SP_L__
 891 0712 DEB7      		in r29,__SP_H__
 892               	/* prologue: function */
 893               	/* frame size = 2 */
 894 0714 8983      		std Y+1,r24
 895 0716 6A83      		std Y+2,r22
 896               	.LM90:
 897 0718 8A81      		ldd r24,Y+2
 898 071a 8823      		tst r24
 899 071c 01F4      		brne .L43
 900               	.LM91:
 901 071e 8981      		ldd r24,Y+1
 902 0720 8058      		subi r24,lo8(-(-128))
 903 0722 0E94 0000 		call lcd_command
 904 0726 00C0      		rjmp .L47
 905               	.L43:
 906               	.LM92:
 907 0728 8A81      		ldd r24,Y+2
 908 072a 8130      		cpi r24,lo8(1)
 909 072c 01F4      		brne .L45
 910               	.LM93:
 911 072e 8981      		ldd r24,Y+1
 912 0730 8054      		subi r24,lo8(-(-64))
GAS LISTING C:\Users\alex\AppData\Local\Temp/ccinlLgc.s 			page 17


 913 0732 0E94 0000 		call lcd_command
 914 0736 00C0      		rjmp .L47
 915               	.L45:
 916               	.LM94:
 917 0738 8A81      		ldd r24,Y+2
 918 073a 8230      		cpi r24,lo8(2)
 919 073c 01F4      		brne .L46
 920               	.LM95:
 921 073e 8981      		ldd r24,Y+1
 922 0740 8C56      		subi r24,lo8(-(-108))
 923 0742 0E94 0000 		call lcd_command
 924 0746 00C0      		rjmp .L47
 925               	.L46:
 926               	.LM96:
 927 0748 8981      		ldd r24,Y+1
 928 074a 8C52      		subi r24,lo8(-(-44))
 929 074c 0E94 0000 		call lcd_command
 930               	.L47:
 931               	/* epilogue start */
 932               	.LM97:
 933 0750 0F90      		pop __tmp_reg__
 934 0752 0F90      		pop __tmp_reg__
 935 0754 CF91      		pop r28
 936 0756 DF91      		pop r29
 937 0758 0895      		ret
 938               	.LFE12:
 939               		.size	lcd_gotoxy, .-lcd_gotoxy
 940               	.global	lcd_getxy
 941               		.type	lcd_getxy, @function
 942               	lcd_getxy:
 943               	.LFB13:
 944               	.LM98:
 945 075a DF93      		push r29
 946 075c CF93      		push r28
 947 075e CDB7      		in r28,__SP_L__
 948 0760 DEB7      		in r29,__SP_H__
 949               	/* prologue: function */
 950               	/* frame size = 0 */
 951               	.LM99:
 952 0762 0E94 0000 		call lcd_waitbusy
 953 0766 882F      		mov r24,r24
 954 0768 90E0      		ldi r25,lo8(0)
 955               	/* epilogue start */
 956               	.LM100:
 957 076a CF91      		pop r28
 958 076c DF91      		pop r29
 959 076e 0895      		ret
 960               	.LFE13:
 961               		.size	lcd_getxy, .-lcd_getxy
 962               	.global	lcd_clrscr
 963               		.type	lcd_clrscr, @function
 964               	lcd_clrscr:
 965               	.LFB14:
 966               	.LM101:
 967 0770 DF93      		push r29
 968 0772 CF93      		push r28
 969 0774 CDB7      		in r28,__SP_L__
GAS LISTING C:\Users\alex\AppData\Local\Temp/ccinlLgc.s 			page 18


 970 0776 DEB7      		in r29,__SP_H__
 971               	/* prologue: function */
 972               	/* frame size = 0 */
 973               	.LM102:
 974 0778 81E0      		ldi r24,lo8(1)
 975 077a 0E94 0000 		call lcd_command
 976               	/* epilogue start */
 977               	.LM103:
 978 077e CF91      		pop r28
 979 0780 DF91      		pop r29
 980 0782 0895      		ret
 981               	.LFE14:
 982               		.size	lcd_clrscr, .-lcd_clrscr
 983               	.global	lcd_home
 984               		.type	lcd_home, @function
 985               	lcd_home:
 986               	.LFB15:
 987               	.LM104:
 988 0784 DF93      		push r29
 989 0786 CF93      		push r28
 990 0788 CDB7      		in r28,__SP_L__
 991 078a DEB7      		in r29,__SP_H__
 992               	/* prologue: function */
 993               	/* frame size = 0 */
 994               	.LM105:
 995 078c 82E0      		ldi r24,lo8(2)
 996 078e 0E94 0000 		call lcd_command
 997               	/* epilogue start */
 998               	.LM106:
 999 0792 CF91      		pop r28
 1000 0794 DF91      		pop r29
 1001 0796 0895      		ret
 1002               	.LFE15:
 1003               		.size	lcd_home, .-lcd_home
 1004               	.global	lcd_putc
 1005               		.type	lcd_putc, @function
 1006               	lcd_putc:
 1007               	.LFB16:
 1008               	.LM107:
 1009 0798 DF93      		push r29
 1010 079a CF93      		push r28
 1011 079c 00D0      		rcall .
 1012 079e CDB7      		in r28,__SP_L__
 1013 07a0 DEB7      		in r29,__SP_H__
 1014               	/* prologue: function */
 1015               	/* frame size = 2 */
 1016 07a2 8A83      		std Y+2,r24
 1017               	.LM108:
 1018 07a4 0E94 0000 		call lcd_waitbusy
 1019 07a8 8983      		std Y+1,r24
 1020               	.LM109:
 1021 07aa 8A81      		ldd r24,Y+2
 1022 07ac 8A30      		cpi r24,lo8(10)
 1023 07ae 01F4      		brne .L55
 1024               	.LM110:
 1025 07b0 8981      		ldd r24,Y+1
 1026 07b2 0E94 0000 		call lcd_newline
GAS LISTING C:\Users\alex\AppData\Local\Temp/ccinlLgc.s 			page 19


 1027 07b6 00C0      		rjmp .L57
 1028               	.L55:
 1029               	.LM111:
 1030 07b8 8A81      		ldd r24,Y+2
 1031 07ba 61E0      		ldi r22,lo8(1)
 1032 07bc 0E94 0000 		call lcd_write
 1033               	.L57:
 1034               	/* epilogue start */
 1035               	.LM112:
 1036 07c0 0F90      		pop __tmp_reg__
 1037 07c2 0F90      		pop __tmp_reg__
 1038 07c4 CF91      		pop r28
 1039 07c6 DF91      		pop r29
 1040 07c8 0895      		ret
 1041               	.LFE16:
 1042               		.size	lcd_putc, .-lcd_putc
 1043               		.type	lcd_newline, @function
 1044               	lcd_newline:
 1045               	.LFB7:
 1046               	.LM113:
 1047 07ca DF93      		push r29
 1048 07cc CF93      		push r28
 1049 07ce 00D0      		rcall .
 1050 07d0 CDB7      		in r28,__SP_L__
 1051 07d2 DEB7      		in r29,__SP_H__
 1052               	/* prologue: function */
 1053               	/* frame size = 2 */
 1054 07d4 8983      		std Y+1,r24
 1055               	.LM114:
 1056 07d6 8981      		ldd r24,Y+1
 1057 07d8 8431      		cpi r24,lo8(20)
 1058 07da 00F4      		brsh .L59
 1059               	.LM115:
 1060 07dc 80E4      		ldi r24,lo8(64)
 1061 07de 8A83      		std Y+2,r24
 1062 07e0 00C0      		rjmp .L60
 1063               	.L59:
 1064               	.LM116:
 1065 07e2 8981      		ldd r24,Y+1
 1066 07e4 8034      		cpi r24,lo8(64)
 1067 07e6 00F0      		brlo .L61
 1068 07e8 8981      		ldd r24,Y+1
 1069 07ea 8435      		cpi r24,lo8(84)
 1070 07ec 00F4      		brsh .L61
 1071               	.LM117:
 1072 07ee 84E1      		ldi r24,lo8(20)
 1073 07f0 8A83      		std Y+2,r24
 1074 07f2 00C0      		rjmp .L60
 1075               	.L61:
 1076               	.LM118:
 1077 07f4 8981      		ldd r24,Y+1
 1078 07f6 8431      		cpi r24,lo8(20)
 1079 07f8 00F0      		brlo .L62
 1080 07fa 8981      		ldd r24,Y+1
 1081 07fc 8034      		cpi r24,lo8(64)
 1082 07fe 00F4      		brsh .L62
 1083               	.LM119:
GAS LISTING C:\Users\alex\AppData\Local\Temp/ccinlLgc.s 			page 20


 1084 0800 84E5      		ldi r24,lo8(84)
 1085 0802 8A83      		std Y+2,r24
 1086 0804 00C0      		rjmp .L60
 1087               	.L62:
 1088               	.LM120:
 1089 0806 1A82      		std Y+2,__zero_reg__
 1090               	.L60:
 1091               	.LM121:
 1092 0808 8A81      		ldd r24,Y+2
 1093 080a 8058      		subi r24,lo8(-(-128))
 1094 080c 0E94 0000 		call lcd_command
 1095               	/* epilogue start */
 1096               	.LM122:
 1097 0810 0F90      		pop __tmp_reg__
 1098 0812 0F90      		pop __tmp_reg__
 1099 0814 CF91      		pop r28
 1100 0816 DF91      		pop r29
 1101 0818 0895      		ret
 1102               	.LFE7:
 1103               		.size	lcd_newline, .-lcd_newline
 1104               	.global	lcd_puts
 1105               		.type	lcd_puts, @function
 1106               	lcd_puts:
 1107               	.LFB17:
 1108               	.LM123:
 1109 081a DF93      		push r29
 1110 081c CF93      		push r28
 1111 081e 00D0      		rcall .
 1112 0820 00D0      		rcall .
 1113 0822 CDB7      		in r28,__SP_L__
 1114 0824 DEB7      		in r29,__SP_H__
 1115               	/* prologue: function */
 1116               	/* frame size = 4 */
 1117 0826 9A83      		std Y+2,r25
 1118 0828 8983      		std Y+1,r24
 1119 082a 00C0      		rjmp .L65
 1120               	.L67:
 1121               	.LM124:
 1122 082c 8B81      		ldd r24,Y+3
 1123 082e 0E94 0000 		call lcd_putc
 1124               	.L65:
 1125               	.LM125:
 1126 0832 E981      		ldd r30,Y+1
 1127 0834 FA81      		ldd r31,Y+2
 1128 0836 8081      		ld r24,Z
 1129 0838 8B83      		std Y+3,r24
 1130 083a 8B81      		ldd r24,Y+3
 1131 083c 8C83      		std Y+4,r24
 1132 083e 8C81      		ldd r24,Y+4
 1133 0840 8823      		tst r24
 1134 0842 01F0      		breq .L66
 1135 0844 81E0      		ldi r24,lo8(1)
 1136 0846 8C83      		std Y+4,r24
 1137               	.L66:
 1138 0848 8C81      		ldd r24,Y+4
 1139 084a 2981      		ldd r18,Y+1
 1140 084c 3A81      		ldd r19,Y+2
GAS LISTING C:\Users\alex\AppData\Local\Temp/ccinlLgc.s 			page 21


 1141 084e 2F5F      		subi r18,lo8(-(1))
 1142 0850 3F4F      		sbci r19,hi8(-(1))
 1143 0852 3A83      		std Y+2,r19
 1144 0854 2983      		std Y+1,r18
 1145 0856 8823      		tst r24
 1146 0858 01F4      		brne .L67
 1147               	/* epilogue start */
 1148               	.LM126:
 1149 085a 0F90      		pop __tmp_reg__
 1150 085c 0F90      		pop __tmp_reg__
 1151 085e 0F90      		pop __tmp_reg__
 1152 0860 0F90      		pop __tmp_reg__
 1153 0862 CF91      		pop r28
 1154 0864 DF91      		pop r29
 1155 0866 0895      		ret
 1156               	.LFE17:
 1157               		.size	lcd_puts, .-lcd_puts
 1158               	.global	lcd_puts_p
 1159               		.type	lcd_puts_p, @function
 1160               	lcd_puts_p:
 1161               	.LFB18:
 1162               	.LM127:
 1163 0868 DF93      		push r29
 1164 086a CF93      		push r28
 1165 086c 00D0      		rcall .
 1166 086e 00D0      		rcall .
 1167 0870 00D0      		rcall .
 1168 0872 CDB7      		in r28,__SP_L__
 1169 0874 DEB7      		in r29,__SP_H__
 1170               	/* prologue: function */
 1171               	/* frame size = 6 */
 1172 0876 9D83      		std Y+5,r25
 1173 0878 8C83      		std Y+4,r24
 1174 087a 00C0      		rjmp .L70
 1175               	.L71:
 1176               	.LM128:
 1177 087c 8E81      		ldd r24,Y+6
 1178 087e 0E94 0000 		call lcd_putc
 1179               	.L70:
 1180               	.LBB2:
 1181               	.LM129:
 1182 0882 8C81      		ldd r24,Y+4
 1183 0884 9D81      		ldd r25,Y+5
 1184 0886 9B83      		std Y+3,r25
 1185 0888 8A83      		std Y+2,r24
 1186 088a 8C81      		ldd r24,Y+4
 1187 088c 9D81      		ldd r25,Y+5
 1188 088e 0196      		adiw r24,1
 1189 0890 9D83      		std Y+5,r25
 1190 0892 8C83      		std Y+4,r24
 1191 0894 EA81      		ldd r30,Y+2
 1192 0896 FB81      		ldd r31,Y+3
 1193               	/* #APP */
 1194               	 ;  459 "lcd2.c" 1
 1195 0898 8491      		lpm r24, Z
 1196               		
 1197               	 ;  0 "" 2
GAS LISTING C:\Users\alex\AppData\Local\Temp/ccinlLgc.s 			page 22


 1198               	/* #NOAPP */
 1199 089a 8983      		std Y+1,r24
 1200 089c 8981      		ldd r24,Y+1
 1201               	.LBE2:
 1202 089e 8E83      		std Y+6,r24
 1203 08a0 8E81      		ldd r24,Y+6
 1204 08a2 8823      		tst r24
 1205 08a4 01F4      		brne .L71
 1206               	/* epilogue start */
 1207               	.LM130:
 1208 08a6 2696      		adiw r28,6
 1209 08a8 0FB6      		in __tmp_reg__,__SREG__
 1210 08aa F894      		cli
 1211 08ac DEBF      		out __SP_H__,r29
 1212 08ae 0FBE      		out __SREG__,__tmp_reg__
 1213 08b0 CDBF      		out __SP_L__,r28
 1214 08b2 CF91      		pop r28
 1215 08b4 DF91      		pop r29
 1216 08b6 0895      		ret
 1217               	.LFE18:
 1218               		.size	lcd_puts_p, .-lcd_puts_p
 1219               	.global	init_lcd
 1220               		.type	init_lcd, @function
 1221               	init_lcd:
 1222               	.LFB19:
 1223               	.LM131:
 1224 08b8 AF92      		push r10
 1225 08ba CF92      		push r12
 1226 08bc EF92      		push r14
 1227 08be 0F93      		push r16
 1228 08c0 DF93      		push r29
 1229 08c2 CF93      		push r28
 1230 08c4 CDB7      		in r28,__SP_L__
 1231 08c6 DEB7      		in r29,__SP_H__
 1232 08c8 2897      		sbiw r28,8
 1233 08ca 0FB6      		in __tmp_reg__,__SREG__
 1234 08cc F894      		cli
 1235 08ce DEBF      		out __SP_H__,r29
 1236 08d0 0FBE      		out __SREG__,__tmp_reg__
 1237 08d2 CDBF      		out __SP_L__,r28
 1238               	/* prologue: function */
 1239               	/* frame size = 8 */
 1240 08d4 8983      		std Y+1,r24
 1241 08d6 6A83      		std Y+2,r22
 1242 08d8 4B83      		std Y+3,r20
 1243 08da 2C83      		std Y+4,r18
 1244 08dc 0D83      		std Y+5,r16
 1245 08de EE82      		std Y+6,r14
 1246 08e0 CF82      		std Y+7,r12
 1247 08e2 A886      		std Y+8,r10
 1248               	.LM132:
 1249 08e4 8981      		ldd r24,Y+1
 1250 08e6 882F      		mov r24,r24
 1251 08e8 90E0      		ldi r25,lo8(0)
 1252 08ea 9C01      		movw r18,r24
 1253 08ec 2F70      		andi r18,lo8(15)
 1254 08ee 3070      		andi r19,hi8(15)
GAS LISTING C:\Users\alex\AppData\Local\Temp/ccinlLgc.s 			page 23


 1255 08f0 81E0      		ldi r24,lo8(1)
 1256 08f2 90E0      		ldi r25,hi8(1)
 1257 08f4 00C0      		rjmp 2f
 1258 08f6 880F      	1:	lsl r24
 1259 08f8 991F      		rol r25
 1260 08fa 2A95      	2:	dec r18
 1261 08fc 02F4      		brpl 1b
 1262 08fe 8093 0000 		sts lcd_b_rs,r24
 1263               	.LM133:
 1264 0902 8A81      		ldd r24,Y+2
 1265 0904 882F      		mov r24,r24
 1266 0906 90E0      		ldi r25,lo8(0)
 1267 0908 9C01      		movw r18,r24
 1268 090a 2F70      		andi r18,lo8(15)
 1269 090c 3070      		andi r19,hi8(15)
 1270 090e 81E0      		ldi r24,lo8(1)
 1271 0910 90E0      		ldi r25,hi8(1)
 1272 0912 00C0      		rjmp 2f
 1273 0914 880F      	1:	lsl r24
 1274 0916 991F      		rol r25
 1275 0918 2A95      	2:	dec r18
 1276 091a 02F4      		brpl 1b
 1277 091c 8093 0000 		sts lcd_b_rw,r24
 1278               	.LM134:
 1279 0920 8B81      		ldd r24,Y+3
 1280 0922 882F      		mov r24,r24
 1281 0924 90E0      		ldi r25,lo8(0)
 1282 0926 9C01      		movw r18,r24
 1283 0928 2F70      		andi r18,lo8(15)
 1284 092a 3070      		andi r19,hi8(15)
 1285 092c 81E0      		ldi r24,lo8(1)
 1286 092e 90E0      		ldi r25,hi8(1)
 1287 0930 00C0      		rjmp 2f
 1288 0932 880F      	1:	lsl r24
 1289 0934 991F      		rol r25
 1290 0936 2A95      	2:	dec r18
 1291 0938 02F4      		brpl 1b
 1292 093a 8093 0000 		sts lcd_b_enable,r24
 1293               	.LM135:
 1294 093e 8C81      		ldd r24,Y+4
 1295 0940 882F      		mov r24,r24
 1296 0942 90E0      		ldi r25,lo8(0)
 1297 0944 9C01      		movw r18,r24
 1298 0946 2F70      		andi r18,lo8(15)
 1299 0948 3070      		andi r19,hi8(15)
 1300 094a 81E0      		ldi r24,lo8(1)
 1301 094c 90E0      		ldi r25,hi8(1)
 1302 094e 00C0      		rjmp 2f
 1303 0950 880F      	1:	lsl r24
 1304 0952 991F      		rol r25
 1305 0954 2A95      	2:	dec r18
 1306 0956 02F4      		brpl 1b
 1307 0958 8093 0000 		sts lcd_b_backlight,r24
 1308               	.LM136:
 1309 095c 8D81      		ldd r24,Y+5
 1310 095e 882F      		mov r24,r24
 1311 0960 90E0      		ldi r25,lo8(0)
GAS LISTING C:\Users\alex\AppData\Local\Temp/ccinlLgc.s 			page 24


 1312 0962 9C01      		movw r18,r24
 1313 0964 2F70      		andi r18,lo8(15)
 1314 0966 3070      		andi r19,hi8(15)
 1315 0968 81E0      		ldi r24,lo8(1)
 1316 096a 90E0      		ldi r25,hi8(1)
 1317 096c 00C0      		rjmp 2f
 1318 096e 880F      	1:	lsl r24
 1319 0970 991F      		rol r25
 1320 0972 2A95      	2:	dec r18
 1321 0974 02F4      		brpl 1b
 1322 0976 8093 0000 		sts lcd_b_db0,r24
 1323               	.LM137:
 1324 097a 8E81      		ldd r24,Y+6
 1325 097c 882F      		mov r24,r24
 1326 097e 90E0      		ldi r25,lo8(0)
 1327 0980 9C01      		movw r18,r24
 1328 0982 2F70      		andi r18,lo8(15)
 1329 0984 3070      		andi r19,hi8(15)
 1330 0986 81E0      		ldi r24,lo8(1)
 1331 0988 90E0      		ldi r25,hi8(1)
 1332 098a 00C0      		rjmp 2f
 1333 098c 880F      	1:	lsl r24
 1334 098e 991F      		rol r25
 1335 0990 2A95      	2:	dec r18
 1336 0992 02F4      		brpl 1b
 1337 0994 8093 0000 		sts lcd_b_db1,r24
 1338               	.LM138:
 1339 0998 8F81      		ldd r24,Y+7
 1340 099a 882F      		mov r24,r24
 1341 099c 90E0      		ldi r25,lo8(0)
 1342 099e 9C01      		movw r18,r24
 1343 09a0 2F70      		andi r18,lo8(15)
 1344 09a2 3070      		andi r19,hi8(15)
 1345 09a4 81E0      		ldi r24,lo8(1)
 1346 09a6 90E0      		ldi r25,hi8(1)
 1347 09a8 00C0      		rjmp 2f
 1348 09aa 880F      	1:	lsl r24
 1349 09ac 991F      		rol r25
 1350 09ae 2A95      	2:	dec r18
 1351 09b0 02F4      		brpl 1b
 1352 09b2 8093 0000 		sts lcd_b_db2,r24
 1353               	.LM139:
 1354 09b6 8885      		ldd r24,Y+8
 1355 09b8 882F      		mov r24,r24
 1356 09ba 90E0      		ldi r25,lo8(0)
 1357 09bc 9C01      		movw r18,r24
 1358 09be 2F70      		andi r18,lo8(15)
 1359 09c0 3070      		andi r19,hi8(15)
 1360 09c2 81E0      		ldi r24,lo8(1)
 1361 09c4 90E0      		ldi r25,hi8(1)
 1362 09c6 022E      		mov r0,r18
 1363 09c8 00C0      		rjmp 2f
 1364 09ca 880F      	1:	lsl r24
 1365 09cc 991F      		rol r25
 1366 09ce 0A94      	2:	dec r0
 1367 09d0 02F4      		brpl 1b
 1368 09d2 8093 0000 		sts lcd_b_db3,r24
GAS LISTING C:\Users\alex\AppData\Local\Temp/ccinlLgc.s 			page 25


 1369               	.LM140:
 1370 09d6 8981      		ldd r24,Y+1
 1371 09d8 807F      		andi r24,lo8(-16)
 1372 09da 8983      		std Y+1,r24
 1373               	.LM141:
 1374 09dc 8981      		ldd r24,Y+1
 1375 09de 8823      		tst r24
 1376 09e0 01F4      		brne .L74
 1377 09e2 8BE3      		ldi r24,lo8(59)
 1378 09e4 90E0      		ldi r25,hi8(59)
 1379 09e6 9093 0000 		sts (lcd_p_rs)+1,r25
 1380 09ea 8093 0000 		sts lcd_p_rs,r24
 1381 09ee AAE3      		ldi r26,lo8(58)
 1382 09f0 B0E0      		ldi r27,hi8(58)
 1383 09f2 EAE3      		ldi r30,lo8(58)
 1384 09f4 F0E0      		ldi r31,hi8(58)
 1385 09f6 9081      		ld r25,Z
 1386 09f8 8091 0000 		lds r24,lcd_b_rs
 1387 09fc 892B      		or r24,r25
 1388 09fe 8C93      		st X,r24
 1389               	.L74:
 1390               	.LM142:
 1391 0a00 8981      		ldd r24,Y+1
 1392 0a02 8031      		cpi r24,lo8(16)
 1393 0a04 01F4      		brne .L75
 1394 0a06 88E3      		ldi r24,lo8(56)
 1395 0a08 90E0      		ldi r25,hi8(56)
 1396 0a0a 9093 0000 		sts (lcd_p_rs)+1,r25
 1397 0a0e 8093 0000 		sts lcd_p_rs,r24
 1398 0a12 A7E3      		ldi r26,lo8(55)
 1399 0a14 B0E0      		ldi r27,hi8(55)
 1400 0a16 E7E3      		ldi r30,lo8(55)
 1401 0a18 F0E0      		ldi r31,hi8(55)
 1402 0a1a 9081      		ld r25,Z
 1403 0a1c 8091 0000 		lds r24,lcd_b_rs
 1404 0a20 892B      		or r24,r25
 1405 0a22 8C93      		st X,r24
 1406               	.L75:
 1407               	.LM143:
 1408 0a24 8981      		ldd r24,Y+1
 1409 0a26 8032      		cpi r24,lo8(32)
 1410 0a28 01F4      		brne .L76
 1411 0a2a 85E3      		ldi r24,lo8(53)
 1412 0a2c 90E0      		ldi r25,hi8(53)
 1413 0a2e 9093 0000 		sts (lcd_p_rs)+1,r25
 1414 0a32 8093 0000 		sts lcd_p_rs,r24
 1415 0a36 A4E3      		ldi r26,lo8(52)
 1416 0a38 B0E0      		ldi r27,hi8(52)
 1417 0a3a E4E3      		ldi r30,lo8(52)
 1418 0a3c F0E0      		ldi r31,hi8(52)
 1419 0a3e 9081      		ld r25,Z
 1420 0a40 8091 0000 		lds r24,lcd_b_rs
 1421 0a44 892B      		or r24,r25
 1422 0a46 8C93      		st X,r24
 1423               	.L76:
 1424               	.LM144:
 1425 0a48 8981      		ldd r24,Y+1
GAS LISTING C:\Users\alex\AppData\Local\Temp/ccinlLgc.s 			page 26


 1426 0a4a 8033      		cpi r24,lo8(48)
 1427 0a4c 01F4      		brne .L77
 1428 0a4e 82E3      		ldi r24,lo8(50)
 1429 0a50 90E0      		ldi r25,hi8(50)
 1430 0a52 9093 0000 		sts (lcd_p_rs)+1,r25
 1431 0a56 8093 0000 		sts lcd_p_rs,r24
 1432 0a5a A1E3      		ldi r26,lo8(49)
 1433 0a5c B0E0      		ldi r27,hi8(49)
 1434 0a5e E1E3      		ldi r30,lo8(49)
 1435 0a60 F0E0      		ldi r31,hi8(49)
 1436 0a62 9081      		ld r25,Z
 1437 0a64 8091 0000 		lds r24,lcd_b_rs
 1438 0a68 892B      		or r24,r25
 1439 0a6a 8C93      		st X,r24
 1440               	.L77:
 1441               	.LM145:
 1442 0a6c 8A81      		ldd r24,Y+2
 1443 0a6e 807F      		andi r24,lo8(-16)
 1444 0a70 8A83      		std Y+2,r24
 1445               	.LM146:
 1446 0a72 8A81      		ldd r24,Y+2
 1447 0a74 8823      		tst r24
 1448 0a76 01F4      		brne .L78
 1449 0a78 8BE3      		ldi r24,lo8(59)
 1450 0a7a 90E0      		ldi r25,hi8(59)
 1451 0a7c 9093 0000 		sts (lcd_p_rw)+1,r25
 1452 0a80 8093 0000 		sts lcd_p_rw,r24
 1453 0a84 AAE3      		ldi r26,lo8(58)
 1454 0a86 B0E0      		ldi r27,hi8(58)
 1455 0a88 EAE3      		ldi r30,lo8(58)
 1456 0a8a F0E0      		ldi r31,hi8(58)
 1457 0a8c 9081      		ld r25,Z
 1458 0a8e 8091 0000 		lds r24,lcd_b_rw
 1459 0a92 892B      		or r24,r25
 1460 0a94 8C93      		st X,r24
 1461               	.L78:
 1462               	.LM147:
 1463 0a96 8A81      		ldd r24,Y+2
 1464 0a98 8031      		cpi r24,lo8(16)
 1465 0a9a 01F4      		brne .L79
 1466 0a9c 88E3      		ldi r24,lo8(56)
 1467 0a9e 90E0      		ldi r25,hi8(56)
 1468 0aa0 9093 0000 		sts (lcd_p_rw)+1,r25
 1469 0aa4 8093 0000 		sts lcd_p_rw,r24
 1470 0aa8 A7E3      		ldi r26,lo8(55)
 1471 0aaa B0E0      		ldi r27,hi8(55)
 1472 0aac E7E3      		ldi r30,lo8(55)
 1473 0aae F0E0      		ldi r31,hi8(55)
 1474 0ab0 9081      		ld r25,Z
 1475 0ab2 8091 0000 		lds r24,lcd_b_rw
 1476 0ab6 892B      		or r24,r25
 1477 0ab8 8C93      		st X,r24
 1478               	.L79:
 1479               	.LM148:
 1480 0aba 8A81      		ldd r24,Y+2
 1481 0abc 8032      		cpi r24,lo8(32)
 1482 0abe 01F4      		brne .L80
GAS LISTING C:\Users\alex\AppData\Local\Temp/ccinlLgc.s 			page 27


 1483 0ac0 85E3      		ldi r24,lo8(53)
 1484 0ac2 90E0      		ldi r25,hi8(53)
 1485 0ac4 9093 0000 		sts (lcd_p_rw)+1,r25
 1486 0ac8 8093 0000 		sts lcd_p_rw,r24
 1487 0acc A4E3      		ldi r26,lo8(52)
 1488 0ace B0E0      		ldi r27,hi8(52)
 1489 0ad0 E4E3      		ldi r30,lo8(52)
 1490 0ad2 F0E0      		ldi r31,hi8(52)
 1491 0ad4 9081      		ld r25,Z
 1492 0ad6 8091 0000 		lds r24,lcd_b_rw
 1493 0ada 892B      		or r24,r25
 1494 0adc 8C93      		st X,r24
 1495               	.L80:
 1496               	.LM149:
 1497 0ade 8A81      		ldd r24,Y+2
 1498 0ae0 8033      		cpi r24,lo8(48)
 1499 0ae2 01F4      		brne .L81
 1500 0ae4 82E3      		ldi r24,lo8(50)
 1501 0ae6 90E0      		ldi r25,hi8(50)
 1502 0ae8 9093 0000 		sts (lcd_p_rw)+1,r25
 1503 0aec 8093 0000 		sts lcd_p_rw,r24
 1504 0af0 A1E3      		ldi r26,lo8(49)
 1505 0af2 B0E0      		ldi r27,hi8(49)
 1506 0af4 E1E3      		ldi r30,lo8(49)
 1507 0af6 F0E0      		ldi r31,hi8(49)
 1508 0af8 9081      		ld r25,Z
 1509 0afa 8091 0000 		lds r24,lcd_b_rw
 1510 0afe 892B      		or r24,r25
 1511 0b00 8C93      		st X,r24
 1512               	.L81:
 1513               	.LM150:
 1514 0b02 8B81      		ldd r24,Y+3
 1515 0b04 807F      		andi r24,lo8(-16)
 1516 0b06 8B83      		std Y+3,r24
 1517               	.LM151:
 1518 0b08 8B81      		ldd r24,Y+3
 1519 0b0a 8823      		tst r24
 1520 0b0c 01F4      		brne .L82
 1521 0b0e 8BE3      		ldi r24,lo8(59)
 1522 0b10 90E0      		ldi r25,hi8(59)
 1523 0b12 9093 0000 		sts (lcd_p_enable)+1,r25
 1524 0b16 8093 0000 		sts lcd_p_enable,r24
 1525 0b1a AAE3      		ldi r26,lo8(58)
 1526 0b1c B0E0      		ldi r27,hi8(58)
 1527 0b1e EAE3      		ldi r30,lo8(58)
 1528 0b20 F0E0      		ldi r31,hi8(58)
 1529 0b22 9081      		ld r25,Z
 1530 0b24 8091 0000 		lds r24,lcd_b_enable
 1531 0b28 892B      		or r24,r25
 1532 0b2a 8C93      		st X,r24
 1533               	.L82:
 1534               	.LM152:
 1535 0b2c 8B81      		ldd r24,Y+3
 1536 0b2e 8031      		cpi r24,lo8(16)
 1537 0b30 01F4      		brne .L83
 1538 0b32 88E3      		ldi r24,lo8(56)
 1539 0b34 90E0      		ldi r25,hi8(56)
GAS LISTING C:\Users\alex\AppData\Local\Temp/ccinlLgc.s 			page 28


 1540 0b36 9093 0000 		sts (lcd_p_enable)+1,r25
 1541 0b3a 8093 0000 		sts lcd_p_enable,r24
 1542 0b3e A7E3      		ldi r26,lo8(55)
 1543 0b40 B0E0      		ldi r27,hi8(55)
 1544 0b42 E7E3      		ldi r30,lo8(55)
 1545 0b44 F0E0      		ldi r31,hi8(55)
 1546 0b46 9081      		ld r25,Z
 1547 0b48 8091 0000 		lds r24,lcd_b_enable
 1548 0b4c 892B      		or r24,r25
 1549 0b4e 8C93      		st X,r24
 1550               	.L83:
 1551               	.LM153:
 1552 0b50 8B81      		ldd r24,Y+3
 1553 0b52 8032      		cpi r24,lo8(32)
 1554 0b54 01F4      		brne .L84
 1555 0b56 85E3      		ldi r24,lo8(53)
 1556 0b58 90E0      		ldi r25,hi8(53)
 1557 0b5a 9093 0000 		sts (lcd_p_enable)+1,r25
 1558 0b5e 8093 0000 		sts lcd_p_enable,r24
 1559 0b62 A4E3      		ldi r26,lo8(52)
 1560 0b64 B0E0      		ldi r27,hi8(52)
 1561 0b66 E4E3      		ldi r30,lo8(52)
 1562 0b68 F0E0      		ldi r31,hi8(52)
 1563 0b6a 9081      		ld r25,Z
 1564 0b6c 8091 0000 		lds r24,lcd_b_enable
 1565 0b70 892B      		or r24,r25
 1566 0b72 8C93      		st X,r24
 1567               	.L84:
 1568               	.LM154:
 1569 0b74 8B81      		ldd r24,Y+3
 1570 0b76 8033      		cpi r24,lo8(48)
 1571 0b78 01F4      		brne .L85
 1572 0b7a 82E3      		ldi r24,lo8(50)
 1573 0b7c 90E0      		ldi r25,hi8(50)
 1574 0b7e 9093 0000 		sts (lcd_p_enable)+1,r25
 1575 0b82 8093 0000 		sts lcd_p_enable,r24
 1576 0b86 A1E3      		ldi r26,lo8(49)
 1577 0b88 B0E0      		ldi r27,hi8(49)
 1578 0b8a E1E3      		ldi r30,lo8(49)
 1579 0b8c F0E0      		ldi r31,hi8(49)
 1580 0b8e 9081      		ld r25,Z
 1581 0b90 8091 0000 		lds r24,lcd_b_enable
 1582 0b94 892B      		or r24,r25
 1583 0b96 8C93      		st X,r24
 1584               	.L85:
 1585               	.LM155:
 1586 0b98 8C81      		ldd r24,Y+4
 1587 0b9a 807F      		andi r24,lo8(-16)
 1588 0b9c 8C83      		std Y+4,r24
 1589               	.LM156:
 1590 0b9e 8C81      		ldd r24,Y+4
 1591 0ba0 8823      		tst r24
 1592 0ba2 01F4      		brne .L86
 1593 0ba4 8BE3      		ldi r24,lo8(59)
 1594 0ba6 90E0      		ldi r25,hi8(59)
 1595 0ba8 9093 0000 		sts (lcd_p_backlight)+1,r25
 1596 0bac 8093 0000 		sts lcd_p_backlight,r24
GAS LISTING C:\Users\alex\AppData\Local\Temp/ccinlLgc.s 			page 29


 1597 0bb0 AAE3      		ldi r26,lo8(58)
 1598 0bb2 B0E0      		ldi r27,hi8(58)
 1599 0bb4 EAE3      		ldi r30,lo8(58)
 1600 0bb6 F0E0      		ldi r31,hi8(58)
 1601 0bb8 9081      		ld r25,Z
 1602 0bba 8091 0000 		lds r24,lcd_b_backlight
 1603 0bbe 892B      		or r24,r25
 1604 0bc0 8C93      		st X,r24
 1605               	.L86:
 1606               	.LM157:
 1607 0bc2 8C81      		ldd r24,Y+4
 1608 0bc4 8031      		cpi r24,lo8(16)
 1609 0bc6 01F4      		brne .L87
 1610 0bc8 88E3      		ldi r24,lo8(56)
 1611 0bca 90E0      		ldi r25,hi8(56)
 1612 0bcc 9093 0000 		sts (lcd_p_backlight)+1,r25
 1613 0bd0 8093 0000 		sts lcd_p_backlight,r24
 1614 0bd4 A7E3      		ldi r26,lo8(55)
 1615 0bd6 B0E0      		ldi r27,hi8(55)
 1616 0bd8 E7E3      		ldi r30,lo8(55)
 1617 0bda F0E0      		ldi r31,hi8(55)
 1618 0bdc 9081      		ld r25,Z
 1619 0bde 8091 0000 		lds r24,lcd_b_backlight
 1620 0be2 892B      		or r24,r25
 1621 0be4 8C93      		st X,r24
 1622               	.L87:
 1623               	.LM158:
 1624 0be6 8C81      		ldd r24,Y+4
 1625 0be8 8032      		cpi r24,lo8(32)
 1626 0bea 01F4      		brne .L88
 1627 0bec 85E3      		ldi r24,lo8(53)
 1628 0bee 90E0      		ldi r25,hi8(53)
 1629 0bf0 9093 0000 		sts (lcd_p_backlight)+1,r25
 1630 0bf4 8093 0000 		sts lcd_p_backlight,r24
 1631 0bf8 A4E3      		ldi r26,lo8(52)
 1632 0bfa B0E0      		ldi r27,hi8(52)
 1633 0bfc E4E3      		ldi r30,lo8(52)
 1634 0bfe F0E0      		ldi r31,hi8(52)
 1635 0c00 9081      		ld r25,Z
 1636 0c02 8091 0000 		lds r24,lcd_b_backlight
 1637 0c06 892B      		or r24,r25
 1638 0c08 8C93      		st X,r24
 1639               	.L88:
 1640               	.LM159:
 1641 0c0a 8C81      		ldd r24,Y+4
 1642 0c0c 8033      		cpi r24,lo8(48)
 1643 0c0e 01F4      		brne .L89
 1644 0c10 82E3      		ldi r24,lo8(50)
 1645 0c12 90E0      		ldi r25,hi8(50)
 1646 0c14 9093 0000 		sts (lcd_p_backlight)+1,r25
 1647 0c18 8093 0000 		sts lcd_p_backlight,r24
 1648 0c1c A1E3      		ldi r26,lo8(49)
 1649 0c1e B0E0      		ldi r27,hi8(49)
 1650 0c20 E1E3      		ldi r30,lo8(49)
 1651 0c22 F0E0      		ldi r31,hi8(49)
 1652 0c24 9081      		ld r25,Z
 1653 0c26 8091 0000 		lds r24,lcd_b_backlight
GAS LISTING C:\Users\alex\AppData\Local\Temp/ccinlLgc.s 			page 30


 1654 0c2a 892B      		or r24,r25
 1655 0c2c 8C93      		st X,r24
 1656               	.L89:
 1657               	.LM160:
 1658 0c2e 8D81      		ldd r24,Y+5
 1659 0c30 807F      		andi r24,lo8(-16)
 1660 0c32 8D83      		std Y+5,r24
 1661               	.LM161:
 1662 0c34 8D81      		ldd r24,Y+5
 1663 0c36 8823      		tst r24
 1664 0c38 01F4      		brne .L90
 1665 0c3a 8BE3      		ldi r24,lo8(59)
 1666 0c3c 90E0      		ldi r25,hi8(59)
 1667 0c3e 9093 0000 		sts (lcd_p_db0)+1,r25
 1668 0c42 8093 0000 		sts lcd_p_db0,r24
 1669 0c46 8AE3      		ldi r24,lo8(58)
 1670 0c48 90E0      		ldi r25,hi8(58)
 1671 0c4a 9093 0000 		sts (lcd_ddr_db0)+1,r25
 1672 0c4e 8093 0000 		sts lcd_ddr_db0,r24
 1673 0c52 AAE3      		ldi r26,lo8(58)
 1674 0c54 B0E0      		ldi r27,hi8(58)
 1675 0c56 EAE3      		ldi r30,lo8(58)
 1676 0c58 F0E0      		ldi r31,hi8(58)
 1677 0c5a 9081      		ld r25,Z
 1678 0c5c 8091 0000 		lds r24,lcd_b_db0
 1679 0c60 892B      		or r24,r25
 1680 0c62 8C93      		st X,r24
 1681               	.L90:
 1682               	.LM162:
 1683 0c64 8D81      		ldd r24,Y+5
 1684 0c66 8031      		cpi r24,lo8(16)
 1685 0c68 01F4      		brne .L91
 1686 0c6a 88E3      		ldi r24,lo8(56)
 1687 0c6c 90E0      		ldi r25,hi8(56)
 1688 0c6e 9093 0000 		sts (lcd_p_db0)+1,r25
 1689 0c72 8093 0000 		sts lcd_p_db0,r24
 1690 0c76 87E3      		ldi r24,lo8(55)
 1691 0c78 90E0      		ldi r25,hi8(55)
 1692 0c7a 9093 0000 		sts (lcd_ddr_db0)+1,r25
 1693 0c7e 8093 0000 		sts lcd_ddr_db0,r24
 1694 0c82 A7E3      		ldi r26,lo8(55)
 1695 0c84 B0E0      		ldi r27,hi8(55)
 1696 0c86 E7E3      		ldi r30,lo8(55)
 1697 0c88 F0E0      		ldi r31,hi8(55)
 1698 0c8a 9081      		ld r25,Z
 1699 0c8c 8091 0000 		lds r24,lcd_b_db0
 1700 0c90 892B      		or r24,r25
 1701 0c92 8C93      		st X,r24
 1702               	.L91:
 1703               	.LM163:
 1704 0c94 8D81      		ldd r24,Y+5
 1705 0c96 8032      		cpi r24,lo8(32)
 1706 0c98 01F4      		brne .L92
 1707 0c9a 85E3      		ldi r24,lo8(53)
 1708 0c9c 90E0      		ldi r25,hi8(53)
 1709 0c9e 9093 0000 		sts (lcd_p_db0)+1,r25
 1710 0ca2 8093 0000 		sts lcd_p_db0,r24
GAS LISTING C:\Users\alex\AppData\Local\Temp/ccinlLgc.s 			page 31


 1711 0ca6 84E3      		ldi r24,lo8(52)
 1712 0ca8 90E0      		ldi r25,hi8(52)
 1713 0caa 9093 0000 		sts (lcd_ddr_db0)+1,r25
 1714 0cae 8093 0000 		sts lcd_ddr_db0,r24
 1715 0cb2 A4E3      		ldi r26,lo8(52)
 1716 0cb4 B0E0      		ldi r27,hi8(52)
 1717 0cb6 E4E3      		ldi r30,lo8(52)
 1718 0cb8 F0E0      		ldi r31,hi8(52)
 1719 0cba 9081      		ld r25,Z
 1720 0cbc 8091 0000 		lds r24,lcd_b_db0
 1721 0cc0 892B      		or r24,r25
 1722 0cc2 8C93      		st X,r24
 1723               	.L92:
 1724               	.LM164:
 1725 0cc4 8D81      		ldd r24,Y+5
 1726 0cc6 8033      		cpi r24,lo8(48)
 1727 0cc8 01F4      		brne .L93
 1728 0cca 82E3      		ldi r24,lo8(50)
 1729 0ccc 90E0      		ldi r25,hi8(50)
 1730 0cce 9093 0000 		sts (lcd_p_db0)+1,r25
 1731 0cd2 8093 0000 		sts lcd_p_db0,r24
 1732 0cd6 81E3      		ldi r24,lo8(49)
 1733 0cd8 90E0      		ldi r25,hi8(49)
 1734 0cda 9093 0000 		sts (lcd_ddr_db0)+1,r25
 1735 0cde 8093 0000 		sts lcd_ddr_db0,r24
 1736 0ce2 A1E3      		ldi r26,lo8(49)
 1737 0ce4 B0E0      		ldi r27,hi8(49)
 1738 0ce6 E1E3      		ldi r30,lo8(49)
 1739 0ce8 F0E0      		ldi r31,hi8(49)
 1740 0cea 9081      		ld r25,Z
 1741 0cec 8091 0000 		lds r24,lcd_b_db0
 1742 0cf0 892B      		or r24,r25
 1743 0cf2 8C93      		st X,r24
 1744               	.L93:
 1745               	.LM165:
 1746 0cf4 8E81      		ldd r24,Y+6
 1747 0cf6 807F      		andi r24,lo8(-16)
 1748 0cf8 8E83      		std Y+6,r24
 1749               	.LM166:
 1750 0cfa 8E81      		ldd r24,Y+6
 1751 0cfc 8823      		tst r24
 1752 0cfe 01F4      		brne .L94
 1753 0d00 8BE3      		ldi r24,lo8(59)
 1754 0d02 90E0      		ldi r25,hi8(59)
 1755 0d04 9093 0000 		sts (lcd_p_db1)+1,r25
 1756 0d08 8093 0000 		sts lcd_p_db1,r24
 1757 0d0c 8AE3      		ldi r24,lo8(58)
 1758 0d0e 90E0      		ldi r25,hi8(58)
 1759 0d10 9093 0000 		sts (lcd_ddr_db0)+1,r25
 1760 0d14 8093 0000 		sts lcd_ddr_db0,r24
 1761 0d18 AAE3      		ldi r26,lo8(58)
 1762 0d1a B0E0      		ldi r27,hi8(58)
 1763 0d1c EAE3      		ldi r30,lo8(58)
 1764 0d1e F0E0      		ldi r31,hi8(58)
 1765 0d20 9081      		ld r25,Z
 1766 0d22 8091 0000 		lds r24,lcd_b_db1
 1767 0d26 892B      		or r24,r25
GAS LISTING C:\Users\alex\AppData\Local\Temp/ccinlLgc.s 			page 32


 1768 0d28 8C93      		st X,r24
 1769               	.L94:
 1770               	.LM167:
 1771 0d2a 8E81      		ldd r24,Y+6
 1772 0d2c 8031      		cpi r24,lo8(16)
 1773 0d2e 01F4      		brne .L95
 1774 0d30 88E3      		ldi r24,lo8(56)
 1775 0d32 90E0      		ldi r25,hi8(56)
 1776 0d34 9093 0000 		sts (lcd_p_db1)+1,r25
 1777 0d38 8093 0000 		sts lcd_p_db1,r24
 1778 0d3c 87E3      		ldi r24,lo8(55)
 1779 0d3e 90E0      		ldi r25,hi8(55)
 1780 0d40 9093 0000 		sts (lcd_ddr_db0)+1,r25
 1781 0d44 8093 0000 		sts lcd_ddr_db0,r24
 1782 0d48 A7E3      		ldi r26,lo8(55)
 1783 0d4a B0E0      		ldi r27,hi8(55)
 1784 0d4c E7E3      		ldi r30,lo8(55)
 1785 0d4e F0E0      		ldi r31,hi8(55)
 1786 0d50 9081      		ld r25,Z
 1787 0d52 8091 0000 		lds r24,lcd_b_db1
 1788 0d56 892B      		or r24,r25
 1789 0d58 8C93      		st X,r24
 1790               	.L95:
 1791               	.LM168:
 1792 0d5a 8E81      		ldd r24,Y+6
 1793 0d5c 8032      		cpi r24,lo8(32)
 1794 0d5e 01F4      		brne .L96
 1795 0d60 85E3      		ldi r24,lo8(53)
 1796 0d62 90E0      		ldi r25,hi8(53)
 1797 0d64 9093 0000 		sts (lcd_p_db1)+1,r25
 1798 0d68 8093 0000 		sts lcd_p_db1,r24
 1799 0d6c 84E3      		ldi r24,lo8(52)
 1800 0d6e 90E0      		ldi r25,hi8(52)
 1801 0d70 9093 0000 		sts (lcd_ddr_db0)+1,r25
 1802 0d74 8093 0000 		sts lcd_ddr_db0,r24
 1803 0d78 A4E3      		ldi r26,lo8(52)
 1804 0d7a B0E0      		ldi r27,hi8(52)
 1805 0d7c E4E3      		ldi r30,lo8(52)
 1806 0d7e F0E0      		ldi r31,hi8(52)
 1807 0d80 9081      		ld r25,Z
 1808 0d82 8091 0000 		lds r24,lcd_b_db1
 1809 0d86 892B      		or r24,r25
 1810 0d88 8C93      		st X,r24
 1811               	.L96:
 1812               	.LM169:
 1813 0d8a 8E81      		ldd r24,Y+6
 1814 0d8c 8033      		cpi r24,lo8(48)
 1815 0d8e 01F4      		brne .L97
 1816 0d90 82E3      		ldi r24,lo8(50)
 1817 0d92 90E0      		ldi r25,hi8(50)
 1818 0d94 9093 0000 		sts (lcd_p_db1)+1,r25
 1819 0d98 8093 0000 		sts lcd_p_db1,r24
 1820 0d9c 81E3      		ldi r24,lo8(49)
 1821 0d9e 90E0      		ldi r25,hi8(49)
 1822 0da0 9093 0000 		sts (lcd_ddr_db0)+1,r25
 1823 0da4 8093 0000 		sts lcd_ddr_db0,r24
 1824 0da8 A1E3      		ldi r26,lo8(49)
GAS LISTING C:\Users\alex\AppData\Local\Temp/ccinlLgc.s 			page 33


 1825 0daa B0E0      		ldi r27,hi8(49)
 1826 0dac E1E3      		ldi r30,lo8(49)
 1827 0dae F0E0      		ldi r31,hi8(49)
 1828 0db0 9081      		ld r25,Z
 1829 0db2 8091 0000 		lds r24,lcd_b_db1
 1830 0db6 892B      		or r24,r25
 1831 0db8 8C93      		st X,r24
 1832               	.L97:
 1833               	.LM170:
 1834 0dba 8F81      		ldd r24,Y+7
 1835 0dbc 807F      		andi r24,lo8(-16)
 1836 0dbe 8F83      		std Y+7,r24
 1837               	.LM171:
 1838 0dc0 8F81      		ldd r24,Y+7
 1839 0dc2 8823      		tst r24
 1840 0dc4 01F4      		brne .L98
 1841 0dc6 8BE3      		ldi r24,lo8(59)
 1842 0dc8 90E0      		ldi r25,hi8(59)
 1843 0dca 9093 0000 		sts (lcd_p_db2)+1,r25
 1844 0dce 8093 0000 		sts lcd_p_db2,r24
 1845 0dd2 8AE3      		ldi r24,lo8(58)
 1846 0dd4 90E0      		ldi r25,hi8(58)
 1847 0dd6 9093 0000 		sts (lcd_ddr_db0)+1,r25
 1848 0dda 8093 0000 		sts lcd_ddr_db0,r24
 1849 0dde AAE3      		ldi r26,lo8(58)
 1850 0de0 B0E0      		ldi r27,hi8(58)
 1851 0de2 EAE3      		ldi r30,lo8(58)
 1852 0de4 F0E0      		ldi r31,hi8(58)
 1853 0de6 9081      		ld r25,Z
 1854 0de8 8091 0000 		lds r24,lcd_b_db2
 1855 0dec 892B      		or r24,r25
 1856 0dee 8C93      		st X,r24
 1857               	.L98:
 1858               	.LM172:
 1859 0df0 8F81      		ldd r24,Y+7
 1860 0df2 8031      		cpi r24,lo8(16)
 1861 0df4 01F4      		brne .L99
 1862 0df6 88E3      		ldi r24,lo8(56)
 1863 0df8 90E0      		ldi r25,hi8(56)
 1864 0dfa 9093 0000 		sts (lcd_p_db2)+1,r25
 1865 0dfe 8093 0000 		sts lcd_p_db2,r24
 1866 0e02 87E3      		ldi r24,lo8(55)
 1867 0e04 90E0      		ldi r25,hi8(55)
 1868 0e06 9093 0000 		sts (lcd_ddr_db0)+1,r25
 1869 0e0a 8093 0000 		sts lcd_ddr_db0,r24
 1870 0e0e A7E3      		ldi r26,lo8(55)
 1871 0e10 B0E0      		ldi r27,hi8(55)
 1872 0e12 E7E3      		ldi r30,lo8(55)
 1873 0e14 F0E0      		ldi r31,hi8(55)
 1874 0e16 9081      		ld r25,Z
 1875 0e18 8091 0000 		lds r24,lcd_b_db2
 1876 0e1c 892B      		or r24,r25
 1877 0e1e 8C93      		st X,r24
 1878               	.L99:
 1879               	.LM173:
 1880 0e20 8F81      		ldd r24,Y+7
 1881 0e22 8032      		cpi r24,lo8(32)
GAS LISTING C:\Users\alex\AppData\Local\Temp/ccinlLgc.s 			page 34


 1882 0e24 01F4      		brne .L100
 1883 0e26 85E3      		ldi r24,lo8(53)
 1884 0e28 90E0      		ldi r25,hi8(53)
 1885 0e2a 9093 0000 		sts (lcd_p_db2)+1,r25
 1886 0e2e 8093 0000 		sts lcd_p_db2,r24
 1887 0e32 84E3      		ldi r24,lo8(52)
 1888 0e34 90E0      		ldi r25,hi8(52)
 1889 0e36 9093 0000 		sts (lcd_ddr_db0)+1,r25
 1890 0e3a 8093 0000 		sts lcd_ddr_db0,r24
 1891 0e3e A4E3      		ldi r26,lo8(52)
 1892 0e40 B0E0      		ldi r27,hi8(52)
 1893 0e42 E4E3      		ldi r30,lo8(52)
 1894 0e44 F0E0      		ldi r31,hi8(52)
 1895 0e46 9081      		ld r25,Z
 1896 0e48 8091 0000 		lds r24,lcd_b_db2
 1897 0e4c 892B      		or r24,r25
 1898 0e4e 8C93      		st X,r24
 1899               	.L100:
 1900               	.LM174:
 1901 0e50 8F81      		ldd r24,Y+7
 1902 0e52 8033      		cpi r24,lo8(48)
 1903 0e54 01F4      		brne .L101
 1904 0e56 82E3      		ldi r24,lo8(50)
 1905 0e58 90E0      		ldi r25,hi8(50)
 1906 0e5a 9093 0000 		sts (lcd_p_db2)+1,r25
 1907 0e5e 8093 0000 		sts lcd_p_db2,r24
 1908 0e62 81E3      		ldi r24,lo8(49)
 1909 0e64 90E0      		ldi r25,hi8(49)
 1910 0e66 9093 0000 		sts (lcd_ddr_db0)+1,r25
 1911 0e6a 8093 0000 		sts lcd_ddr_db0,r24
 1912 0e6e A1E3      		ldi r26,lo8(49)
 1913 0e70 B0E0      		ldi r27,hi8(49)
 1914 0e72 E1E3      		ldi r30,lo8(49)
 1915 0e74 F0E0      		ldi r31,hi8(49)
 1916 0e76 9081      		ld r25,Z
 1917 0e78 8091 0000 		lds r24,lcd_b_db2
 1918 0e7c 892B      		or r24,r25
 1919 0e7e 8C93      		st X,r24
 1920               	.L101:
 1921               	.LM175:
 1922 0e80 8885      		ldd r24,Y+8
 1923 0e82 807F      		andi r24,lo8(-16)
 1924 0e84 8887      		std Y+8,r24
 1925               	.LM176:
 1926 0e86 8885      		ldd r24,Y+8
 1927 0e88 8823      		tst r24
 1928 0e8a 01F4      		brne .L102
 1929 0e8c 8BE3      		ldi r24,lo8(59)
 1930 0e8e 90E0      		ldi r25,hi8(59)
 1931 0e90 9093 0000 		sts (lcd_p_db3)+1,r25
 1932 0e94 8093 0000 		sts lcd_p_db3,r24
 1933 0e98 8AE3      		ldi r24,lo8(58)
 1934 0e9a 90E0      		ldi r25,hi8(58)
 1935 0e9c 9093 0000 		sts (lcd_ddr_db0)+1,r25
 1936 0ea0 8093 0000 		sts lcd_ddr_db0,r24
 1937 0ea4 AAE3      		ldi r26,lo8(58)
 1938 0ea6 B0E0      		ldi r27,hi8(58)
GAS LISTING C:\Users\alex\AppData\Local\Temp/ccinlLgc.s 			page 35


 1939 0ea8 EAE3      		ldi r30,lo8(58)
 1940 0eaa F0E0      		ldi r31,hi8(58)
 1941 0eac 9081      		ld r25,Z
 1942 0eae 8091 0000 		lds r24,lcd_b_db3
 1943 0eb2 892B      		or r24,r25
 1944 0eb4 8C93      		st X,r24
 1945               	.L102:
 1946               	.LM177:
 1947 0eb6 8885      		ldd r24,Y+8
 1948 0eb8 8031      		cpi r24,lo8(16)
 1949 0eba 01F4      		brne .L103
 1950 0ebc 88E3      		ldi r24,lo8(56)
 1951 0ebe 90E0      		ldi r25,hi8(56)
 1952 0ec0 9093 0000 		sts (lcd_p_db3)+1,r25
 1953 0ec4 8093 0000 		sts lcd_p_db3,r24
 1954 0ec8 87E3      		ldi r24,lo8(55)
 1955 0eca 90E0      		ldi r25,hi8(55)
 1956 0ecc 9093 0000 		sts (lcd_ddr_db0)+1,r25
 1957 0ed0 8093 0000 		sts lcd_ddr_db0,r24
 1958 0ed4 A7E3      		ldi r26,lo8(55)
 1959 0ed6 B0E0      		ldi r27,hi8(55)
 1960 0ed8 E7E3      		ldi r30,lo8(55)
 1961 0eda F0E0      		ldi r31,hi8(55)
 1962 0edc 9081      		ld r25,Z
 1963 0ede 8091 0000 		lds r24,lcd_b_db3
 1964 0ee2 892B      		or r24,r25
 1965 0ee4 8C93      		st X,r24
 1966               	.L103:
 1967               	.LM178:
 1968 0ee6 8885      		ldd r24,Y+8
 1969 0ee8 8032      		cpi r24,lo8(32)
 1970 0eea 01F4      		brne .L104
 1971 0eec 85E3      		ldi r24,lo8(53)
 1972 0eee 90E0      		ldi r25,hi8(53)
 1973 0ef0 9093 0000 		sts (lcd_p_db3)+1,r25
 1974 0ef4 8093 0000 		sts lcd_p_db3,r24
 1975 0ef8 84E3      		ldi r24,lo8(52)
 1976 0efa 90E0      		ldi r25,hi8(52)
 1977 0efc 9093 0000 		sts (lcd_ddr_db0)+1,r25
 1978 0f00 8093 0000 		sts lcd_ddr_db0,r24
 1979 0f04 A4E3      		ldi r26,lo8(52)
 1980 0f06 B0E0      		ldi r27,hi8(52)
 1981 0f08 E4E3      		ldi r30,lo8(52)
 1982 0f0a F0E0      		ldi r31,hi8(52)
 1983 0f0c 9081      		ld r25,Z
 1984 0f0e 8091 0000 		lds r24,lcd_b_db3
 1985 0f12 892B      		or r24,r25
 1986 0f14 8C93      		st X,r24
 1987               	.L104:
 1988               	.LM179:
 1989 0f16 8885      		ldd r24,Y+8
 1990 0f18 8033      		cpi r24,lo8(48)
 1991 0f1a 01F4      		brne .L105
 1992 0f1c 82E3      		ldi r24,lo8(50)
 1993 0f1e 90E0      		ldi r25,hi8(50)
 1994 0f20 9093 0000 		sts (lcd_p_db3)+1,r25
 1995 0f24 8093 0000 		sts lcd_p_db3,r24
GAS LISTING C:\Users\alex\AppData\Local\Temp/ccinlLgc.s 			page 36


 1996 0f28 81E3      		ldi r24,lo8(49)
 1997 0f2a 90E0      		ldi r25,hi8(49)
 1998 0f2c 9093 0000 		sts (lcd_ddr_db0)+1,r25
 1999 0f30 8093 0000 		sts lcd_ddr_db0,r24
 2000 0f34 A1E3      		ldi r26,lo8(49)
 2001 0f36 B0E0      		ldi r27,hi8(49)
 2002 0f38 E1E3      		ldi r30,lo8(49)
 2003 0f3a F0E0      		ldi r31,hi8(49)
 2004 0f3c 9081      		ld r25,Z
 2005 0f3e 8091 0000 		lds r24,lcd_b_db3
 2006 0f42 892B      		or r24,r25
 2007 0f44 8C93      		st X,r24
 2008               	.L105:
 2009               	.LM180:
 2010 0f46 A091 0000 		lds r26,lcd_p_db0
 2011 0f4a B091 0000 		lds r27,(lcd_p_db0)+1
 2012 0f4e E091 0000 		lds r30,lcd_p_db0
 2013 0f52 F091 0000 		lds r31,(lcd_p_db0)+1
 2014 0f56 9081      		ld r25,Z
 2015 0f58 8091 0000 		lds r24,lcd_b_db0
 2016 0f5c 892B      		or r24,r25
 2017 0f5e 8C93      		st X,r24
 2018               	.LM181:
 2019 0f60 A091 0000 		lds r26,lcd_p_db1
 2020 0f64 B091 0000 		lds r27,(lcd_p_db1)+1
 2021 0f68 E091 0000 		lds r30,lcd_p_db1
 2022 0f6c F091 0000 		lds r31,(lcd_p_db1)+1
 2023 0f70 9081      		ld r25,Z
 2024 0f72 8091 0000 		lds r24,lcd_b_db1
 2025 0f76 892B      		or r24,r25
 2026 0f78 8C93      		st X,r24
 2027               	.LM182:
 2028 0f7a 0E94 0000 		call lcd_e_toggle
 2029               	.LM183:
 2030 0f7e 80E0      		ldi r24,lo8(19968)
 2031 0f80 9EE4      		ldi r25,hi8(19968)
 2032 0f82 0E94 0000 		call _delayFourCycles
 2033               	.LM184:
 2034 0f86 0E94 0000 		call lcd_e_toggle
 2035               	.LM185:
 2036 0f8a 80E0      		ldi r24,lo8(256)
 2037 0f8c 91E0      		ldi r25,hi8(256)
 2038 0f8e 0E94 0000 		call _delayFourCycles
 2039               	.LM186:
 2040 0f92 0E94 0000 		call lcd_e_toggle
 2041               	.LM187:
 2042 0f96 80E0      		ldi r24,lo8(256)
 2043 0f98 91E0      		ldi r25,hi8(256)
 2044 0f9a 0E94 0000 		call _delayFourCycles
 2045               	.LM188:
 2046 0f9e A091 0000 		lds r26,lcd_p_db0
 2047 0fa2 B091 0000 		lds r27,(lcd_p_db0)+1
 2048 0fa6 E091 0000 		lds r30,lcd_p_db0
 2049 0faa F091 0000 		lds r31,(lcd_p_db0)+1
 2050 0fae 8081      		ld r24,Z
 2051 0fb0 982F      		mov r25,r24
 2052 0fb2 8091 0000 		lds r24,lcd_b_db0
GAS LISTING C:\Users\alex\AppData\Local\Temp/ccinlLgc.s 			page 37


 2053 0fb6 8095      		com r24
 2054 0fb8 8923      		and r24,r25
 2055 0fba 8C93      		st X,r24
 2056               	.LM189:
 2057 0fbc 0E94 0000 		call lcd_e_toggle
 2058               	.LM190:
 2059 0fc0 80E0      		ldi r24,lo8(256)
 2060 0fc2 91E0      		ldi r25,hi8(256)
 2061 0fc4 0E94 0000 		call _delayFourCycles
 2062               	.LM191:
 2063 0fc8 88E2      		ldi r24,lo8(40)
 2064 0fca 0E94 0000 		call lcd_command
 2065               	.LM192:
 2066 0fce 88E0      		ldi r24,lo8(8)
 2067 0fd0 0E94 0000 		call lcd_command
 2068               	.LM193:
 2069 0fd4 0E94 0000 		call lcd_clrscr
 2070               	.LM194:
 2071 0fd8 86E0      		ldi r24,lo8(6)
 2072 0fda 0E94 0000 		call lcd_command
 2073               	.LM195:
 2074 0fde 0E94 0000 		call lcd_backlight_on
 2075               	/* epilogue start */
 2076               	.LM196:
 2077 0fe2 2896      		adiw r28,8
 2078 0fe4 0FB6      		in __tmp_reg__,__SREG__
 2079 0fe6 F894      		cli
 2080 0fe8 DEBF      		out __SP_H__,r29
 2081 0fea 0FBE      		out __SREG__,__tmp_reg__
 2082 0fec CDBF      		out __SP_L__,r28
 2083 0fee CF91      		pop r28
 2084 0ff0 DF91      		pop r29
 2085 0ff2 0F91      		pop r16
 2086 0ff4 EF90      		pop r14
 2087 0ff6 CF90      		pop r12
 2088 0ff8 AF90      		pop r10
 2089 0ffa 0895      		ret
 2090               	.LFE19:
 2091               		.size	init_lcd, .-init_lcd
 2092               		.comm lcd_p_rs,2,1
 2093               		.comm lcd_p_rw,2,1
 2094               		.comm lcd_p_enable,2,1
 2095               		.comm lcd_p_backlight,2,1
 2096               		.comm lcd_p_db0,2,1
 2097               		.comm lcd_p_db1,2,1
 2098               		.comm lcd_p_db2,2,1
 2099               		.comm lcd_p_db3,2,1
 2100               		.comm lcd_ddr_db0,2,1
 2101               		.comm lcd_ddr_db1,2,1
 2102               		.comm lcd_ddr_db2,2,1
 2103               		.comm lcd_ddr_db3,2,1
 2104               		.comm lcd_b_rs,1,1
 2105               		.comm lcd_b_rw,1,1
 2106               		.comm lcd_b_enable,1,1
 2107               		.comm lcd_b_backlight,1,1
 2108               		.comm lcd_b_db0,1,1
 2109               		.comm lcd_b_db1,1,1
GAS LISTING C:\Users\alex\AppData\Local\Temp/ccinlLgc.s 			page 38


 2110               		.comm lcd_b_db2,1,1
 2111               		.comm lcd_b_db3,1,1
 2112               		.section	.debug_frame,"",@progbits
 2113               	.Lframe0:
 2114 0000 0C00 0000 		.long	.LECIE0-.LSCIE0
 2115               	.LSCIE0:
 2116 0004 FFFF FFFF 		.long	0xffffffff
 2117 0008 01        		.byte	0x1
 2118 0009 00        		.string	""
 2119 000a 01        		.uleb128 0x1
 2120 000b 7F        		.sleb128 -1
 2121 000c 24        		.byte	0x24
 2122 000d 0C        		.byte	0xc
 2123 000e 20        		.uleb128 0x20
 2124 000f 00        		.uleb128 0x0
 2125               		.p2align	2
 2126               	.LECIE0:
 2127               	.LSFDE0:
 2128 0010 0C00 0000 		.long	.LEFDE0-.LASFDE0
 2129               	.LASFDE0:
 2130 0014 0000 0000 		.long	.Lframe0
 2131 0018 0000 0000 		.long	.LFB3
 2132 001c 4800 0000 		.long	.LFE3-.LFB3
 2133               		.p2align	2
 2134               	.LEFDE0:
 2135               	.LSFDE2:
 2136 0020 0C00 0000 		.long	.LEFDE2-.LASFDE2
 2137               	.LASFDE2:
 2138 0024 0000 0000 		.long	.Lframe0
 2139 0028 0000 0000 		.long	.LFB4
 2140 002c 7603 0000 		.long	.LFE4-.LFB4
 2141               		.p2align	2
 2142               	.LEFDE2:
 2143               	.LSFDE4:
 2144 0030 0C00 0000 		.long	.LEFDE4-.LASFDE4
 2145               	.LASFDE4:
 2146 0034 0000 0000 		.long	.Lframe0
 2147 0038 0000 0000 		.long	.LFB5
 2148 003c 6202 0000 		.long	.LFE5-.LFB5
 2149               		.p2align	2
 2150               	.LEFDE4:
 2151               	.LSFDE6:
 2152 0040 0C00 0000 		.long	.LEFDE6-.LASFDE6
 2153               	.LASFDE6:
 2154 0044 0000 0000 		.long	.Lframe0
 2155 0048 0000 0000 		.long	.LFB6
 2156 004c 2600 0000 		.long	.LFE6-.LFB6
 2157               		.p2align	2
 2158               	.LEFDE6:
 2159               	.LSFDE8:
 2160 0050 0C00 0000 		.long	.LEFDE8-.LASFDE8
 2161               	.LASFDE8:
 2162 0054 0000 0000 		.long	.Lframe0
 2163 0058 0000 0000 		.long	.LFB2
 2164 005c 3000 0000 		.long	.LFE2-.LFB2
 2165               		.p2align	2
 2166               	.LEFDE8:
GAS LISTING C:\Users\alex\AppData\Local\Temp/ccinlLgc.s 			page 39


 2167               	.LSFDE10:
 2168 0060 0C00 0000 		.long	.LEFDE10-.LASFDE10
 2169               	.LASFDE10:
 2170 0064 0000 0000 		.long	.Lframe0
 2171 0068 0000 0000 		.long	.LFB8
 2172 006c 2800 0000 		.long	.LFE8-.LFB8
 2173               		.p2align	2
 2174               	.LEFDE10:
 2175               	.LSFDE12:
 2176 0070 0C00 0000 		.long	.LEFDE12-.LASFDE12
 2177               	.LASFDE12:
 2178 0074 0000 0000 		.long	.Lframe0
 2179 0078 0000 0000 		.long	.LFB9
 2180 007c 2C00 0000 		.long	.LFE9-.LFB9
 2181               		.p2align	2
 2182               	.LEFDE12:
 2183               	.LSFDE14:
 2184 0080 0C00 0000 		.long	.LEFDE14-.LASFDE14
 2185               	.LASFDE14:
 2186 0084 0000 0000 		.long	.Lframe0
 2187 0088 0000 0000 		.long	.LFB10
 2188 008c 2000 0000 		.long	.LFE10-.LFB10
 2189               		.p2align	2
 2190               	.LEFDE14:
 2191               	.LSFDE16:
 2192 0090 0C00 0000 		.long	.LEFDE16-.LASFDE16
 2193               	.LASFDE16:
 2194 0094 0000 0000 		.long	.Lframe0
 2195 0098 0000 0000 		.long	.LFB11
 2196 009c 2000 0000 		.long	.LFE11-.LFB11
 2197               		.p2align	2
 2198               	.LEFDE16:
 2199               	.LSFDE18:
 2200 00a0 0C00 0000 		.long	.LEFDE18-.LASFDE18
 2201               	.LASFDE18:
 2202 00a4 0000 0000 		.long	.Lframe0
 2203 00a8 0000 0000 		.long	.LFB12
 2204 00ac 5000 0000 		.long	.LFE12-.LFB12
 2205               		.p2align	2
 2206               	.LEFDE18:
 2207               	.LSFDE20:
 2208 00b0 0C00 0000 		.long	.LEFDE20-.LASFDE20
 2209               	.LASFDE20:
 2210 00b4 0000 0000 		.long	.Lframe0
 2211 00b8 0000 0000 		.long	.LFB13
 2212 00bc 1600 0000 		.long	.LFE13-.LFB13
 2213               		.p2align	2
 2214               	.LEFDE20:
 2215               	.LSFDE22:
 2216 00c0 0C00 0000 		.long	.LEFDE22-.LASFDE22
 2217               	.LASFDE22:
 2218 00c4 0000 0000 		.long	.Lframe0
 2219 00c8 0000 0000 		.long	.LFB14
 2220 00cc 1400 0000 		.long	.LFE14-.LFB14
 2221               		.p2align	2
 2222               	.LEFDE22:
 2223               	.LSFDE24:
GAS LISTING C:\Users\alex\AppData\Local\Temp/ccinlLgc.s 			page 40


 2224 00d0 0C00 0000 		.long	.LEFDE24-.LASFDE24
 2225               	.LASFDE24:
 2226 00d4 0000 0000 		.long	.Lframe0
 2227 00d8 0000 0000 		.long	.LFB15
 2228 00dc 1400 0000 		.long	.LFE15-.LFB15
 2229               		.p2align	2
 2230               	.LEFDE24:
 2231               	.LSFDE26:
 2232 00e0 0C00 0000 		.long	.LEFDE26-.LASFDE26
 2233               	.LASFDE26:
 2234 00e4 0000 0000 		.long	.Lframe0
 2235 00e8 0000 0000 		.long	.LFB16
 2236 00ec 3200 0000 		.long	.LFE16-.LFB16
 2237               		.p2align	2
 2238               	.LEFDE26:
 2239               	.LSFDE28:
 2240 00f0 0C00 0000 		.long	.LEFDE28-.LASFDE28
 2241               	.LASFDE28:
 2242 00f4 0000 0000 		.long	.Lframe0
 2243 00f8 0000 0000 		.long	.LFB7
 2244 00fc 5000 0000 		.long	.LFE7-.LFB7
 2245               		.p2align	2
 2246               	.LEFDE28:
 2247               	.LSFDE30:
 2248 0100 0C00 0000 		.long	.LEFDE30-.LASFDE30
 2249               	.LASFDE30:
 2250 0104 0000 0000 		.long	.Lframe0
 2251 0108 0000 0000 		.long	.LFB17
 2252 010c 4E00 0000 		.long	.LFE17-.LFB17
 2253               		.p2align	2
 2254               	.LEFDE30:
 2255               	.LSFDE32:
 2256 0110 0C00 0000 		.long	.LEFDE32-.LASFDE32
 2257               	.LASFDE32:
 2258 0114 0000 0000 		.long	.Lframe0
 2259 0118 0000 0000 		.long	.LFB18
 2260 011c 5000 0000 		.long	.LFE18-.LFB18
 2261               		.p2align	2
 2262               	.LEFDE32:
 2263               	.LSFDE34:
 2264 0120 0C00 0000 		.long	.LEFDE34-.LASFDE34
 2265               	.LASFDE34:
 2266 0124 0000 0000 		.long	.Lframe0
 2267 0128 0000 0000 		.long	.LFB19
 2268 012c 4407 0000 		.long	.LFE19-.LFB19
 2269               		.p2align	2
 2270               	.LEFDE34:
 2271               		.text
 2272               	.Letext0:
 2273               		.section	.debug_info
 2274 0000 4105 0000 		.long	0x541
 2275 0004 0200      		.word	0x2
 2276 0006 0000 0000 		.long	.Ldebug_abbrev0
 2277 000a 04        		.byte	0x4
 2278 000b 01        		.uleb128 0x1
 2279 000c 0000 0000 		.long	.LASF54
 2280 0010 01        		.byte	0x1
GAS LISTING C:\Users\alex\AppData\Local\Temp/ccinlLgc.s 			page 41


 2281 0011 0000 0000 		.long	.LASF55
 2282 0015 0000 0000 		.long	.LASF56
 2283 0019 0000 0000 		.long	.Ltext0
 2284 001d 0000 0000 		.long	.Letext0
 2285 0021 0000 0000 		.long	.Ldebug_line0
 2286 0025 02        		.uleb128 0x2
 2287 0026 01        		.byte	0x1
 2288 0027 06        		.byte	0x6
 2289 0028 0000 0000 		.long	.LASF0
 2290 002c 03        		.uleb128 0x3
 2291 002d 0000 0000 		.long	.LASF2
 2292 0031 02        		.byte	0x2
 2293 0032 7A        		.byte	0x7a
 2294 0033 3700 0000 		.long	0x37
 2295 0037 02        		.uleb128 0x2
 2296 0038 01        		.byte	0x1
 2297 0039 08        		.byte	0x8
 2298 003a 0000 0000 		.long	.LASF1
 2299 003e 04        		.uleb128 0x4
 2300 003f 02        		.byte	0x2
 2301 0040 05        		.byte	0x5
 2302 0041 696E 7400 		.string	"int"
 2303 0045 03        		.uleb128 0x3
 2304 0046 0000 0000 		.long	.LASF3
 2305 004a 02        		.byte	0x2
 2306 004b 7C        		.byte	0x7c
 2307 004c 5000 0000 		.long	0x50
 2308 0050 02        		.uleb128 0x2
 2309 0051 02        		.byte	0x2
 2310 0052 07        		.byte	0x7
 2311 0053 0000 0000 		.long	.LASF4
 2312 0057 02        		.uleb128 0x2
 2313 0058 04        		.byte	0x4
 2314 0059 05        		.byte	0x5
 2315 005a 0000 0000 		.long	.LASF5
 2316 005e 02        		.uleb128 0x2
 2317 005f 04        		.byte	0x4
 2318 0060 07        		.byte	0x7
 2319 0061 0000 0000 		.long	.LASF6
 2320 0065 02        		.uleb128 0x2
 2321 0066 08        		.byte	0x8
 2322 0067 05        		.byte	0x5
 2323 0068 0000 0000 		.long	.LASF7
 2324 006c 02        		.uleb128 0x2
 2325 006d 08        		.byte	0x8
 2326 006e 07        		.byte	0x7
 2327 006f 0000 0000 		.long	.LASF8
 2328 0073 05        		.uleb128 0x5
 2329 0074 01        		.byte	0x1
 2330 0075 08        		.byte	0x8
 2331 0076 06        		.uleb128 0x6
 2332 0077 0000 0000 		.long	.LASF57
 2333 007b 01        		.byte	0x1
 2334 007c 69        		.byte	0x69
 2335 007d 01        		.byte	0x1
 2336 007e 0000 0000 		.long	.LFB3
 2337 0082 0000 0000 		.long	.LFE3
GAS LISTING C:\Users\alex\AppData\Local\Temp/ccinlLgc.s 			page 42


 2338 0086 02        		.byte	0x2
 2339 0087 90        		.byte	0x90
 2340 0088 20        		.uleb128 0x20
 2341 0089 07        		.uleb128 0x7
 2342 008a 0000 0000 		.long	.LASF12
 2343 008e 01        		.byte	0x1
 2344 008f 7A        		.byte	0x7a
 2345 0090 01        		.byte	0x1
 2346 0091 0000 0000 		.long	.LFB4
 2347 0095 0000 0000 		.long	.LFE4
 2348 0099 02        		.byte	0x2
 2349 009a 90        		.byte	0x90
 2350 009b 20        		.uleb128 0x20
 2351 009c BC00 0000 		.long	0xbc
 2352 00a0 08        		.uleb128 0x8
 2353 00a1 0000 0000 		.long	.LASF9
 2354 00a5 01        		.byte	0x1
 2355 00a6 79        		.byte	0x79
 2356 00a7 2C00 0000 		.long	0x2c
 2357 00ab 02        		.byte	0x2
 2358 00ac 8C        		.byte	0x8c
 2359 00ad 01        		.sleb128 1
 2360 00ae 09        		.uleb128 0x9
 2361 00af 7273 00   		.string	"rs"
 2362 00b2 01        		.byte	0x1
 2363 00b3 79        		.byte	0x79
 2364 00b4 2C00 0000 		.long	0x2c
 2365 00b8 02        		.byte	0x2
 2366 00b9 8C        		.byte	0x8c
 2367 00ba 02        		.sleb128 2
 2368 00bb 00        		.byte	0x0
 2369 00bc 0A        		.uleb128 0xa
 2370 00bd 0000 0000 		.long	.LASF10
 2371 00c1 01        		.byte	0x1
 2372 00c2 AE        		.byte	0xae
 2373 00c3 01        		.byte	0x1
 2374 00c4 2C00 0000 		.long	0x2c
 2375 00c8 0000 0000 		.long	.LFB5
 2376 00cc 0000 0000 		.long	.LFE5
 2377 00d0 02        		.byte	0x2
 2378 00d1 90        		.byte	0x90
 2379 00d2 20        		.uleb128 0x20
 2380 00d3 F300 0000 		.long	0xf3
 2381 00d7 09        		.uleb128 0x9
 2382 00d8 7273 00   		.string	"rs"
 2383 00db 01        		.byte	0x1
 2384 00dc AD        		.byte	0xad
 2385 00dd 2C00 0000 		.long	0x2c
 2386 00e1 02        		.byte	0x2
 2387 00e2 8C        		.byte	0x8c
 2388 00e3 02        		.sleb128 2
 2389 00e4 0B        		.uleb128 0xb
 2390 00e5 0000 0000 		.long	.LASF9
 2391 00e9 01        		.byte	0x1
 2392 00ea AF        		.byte	0xaf
 2393 00eb 2C00 0000 		.long	0x2c
 2394 00ef 02        		.byte	0x2
GAS LISTING C:\Users\alex\AppData\Local\Temp/ccinlLgc.s 			page 43


 2395 00f0 8C        		.byte	0x8c
 2396 00f1 01        		.sleb128 1
 2397 00f2 00        		.byte	0x0
 2398 00f3 0A        		.uleb128 0xa
 2399 00f4 0000 0000 		.long	.LASF11
 2400 00f8 01        		.byte	0x1
 2401 00f9 DB        		.byte	0xdb
 2402 00fa 01        		.byte	0x1
 2403 00fb 2C00 0000 		.long	0x2c
 2404 00ff 0000 0000 		.long	.LFB6
 2405 0103 0000 0000 		.long	.LFE6
 2406 0107 02        		.byte	0x2
 2407 0108 90        		.byte	0x90
 2408 0109 20        		.uleb128 0x20
 2409 010a 1A01 0000 		.long	0x11a
 2410 010e 0C        		.uleb128 0xc
 2411 010f 6300      		.string	"c"
 2412 0111 01        		.byte	0x1
 2413 0112 DC        		.byte	0xdc
 2414 0113 2C00 0000 		.long	0x2c
 2415 0117 01        		.byte	0x1
 2416 0118 68        		.byte	0x68
 2417 0119 00        		.byte	0x0
 2418 011a 07        		.uleb128 0x7
 2419 011b 0000 0000 		.long	.LASF13
 2420 011f 01        		.byte	0x1
 2421 0120 52        		.byte	0x52
 2422 0121 01        		.byte	0x1
 2423 0122 0000 0000 		.long	.LFB2
 2424 0126 0000 0000 		.long	.LFE2
 2425 012a 02        		.byte	0x2
 2426 012b 90        		.byte	0x90
 2427 012c 20        		.uleb128 0x20
 2428 012d 4001 0000 		.long	0x140
 2429 0131 08        		.uleb128 0x8
 2430 0132 0000 0000 		.long	.LASF14
 2431 0136 01        		.byte	0x1
 2432 0137 51        		.byte	0x51
 2433 0138 5000 0000 		.long	0x50
 2434 013c 02        		.byte	0x2
 2435 013d 8C        		.byte	0x8c
 2436 013e 01        		.sleb128 1
 2437 013f 00        		.byte	0x0
 2438 0140 0D        		.uleb128 0xd
 2439 0141 01        		.byte	0x1
 2440 0142 0000 0000 		.long	.LASF15
 2441 0146 01        		.byte	0x1
 2442 0147 2401      		.word	0x124
 2443 0149 01        		.byte	0x1
 2444 014a 0000 0000 		.long	.LFB8
 2445 014e 0000 0000 		.long	.LFE8
 2446 0152 02        		.byte	0x2
 2447 0153 90        		.byte	0x90
 2448 0154 20        		.uleb128 0x20
 2449 0155 0D        		.uleb128 0xd
 2450 0156 01        		.byte	0x1
 2451 0157 0000 0000 		.long	.LASF16
GAS LISTING C:\Users\alex\AppData\Local\Temp/ccinlLgc.s 			page 44


 2452 015b 01        		.byte	0x1
 2453 015c 2A01      		.word	0x12a
 2454 015e 01        		.byte	0x1
 2455 015f 0000 0000 		.long	.LFB9
 2456 0163 0000 0000 		.long	.LFE9
 2457 0167 02        		.byte	0x2
 2458 0168 90        		.byte	0x90
 2459 0169 20        		.uleb128 0x20
 2460 016a 0E        		.uleb128 0xe
 2461 016b 01        		.byte	0x1
 2462 016c 0000 0000 		.long	.LASF17
 2463 0170 01        		.byte	0x1
 2464 0171 3501      		.word	0x135
 2465 0173 01        		.byte	0x1
 2466 0174 0000 0000 		.long	.LFB10
 2467 0178 0000 0000 		.long	.LFE10
 2468 017c 02        		.byte	0x2
 2469 017d 90        		.byte	0x90
 2470 017e 20        		.uleb128 0x20
 2471 017f 9301 0000 		.long	0x193
 2472 0183 0F        		.uleb128 0xf
 2473 0184 636D 6400 		.string	"cmd"
 2474 0188 01        		.byte	0x1
 2475 0189 3401      		.word	0x134
 2476 018b 2C00 0000 		.long	0x2c
 2477 018f 02        		.byte	0x2
 2478 0190 8C        		.byte	0x8c
 2479 0191 01        		.sleb128 1
 2480 0192 00        		.byte	0x0
 2481 0193 0E        		.uleb128 0xe
 2482 0194 01        		.byte	0x1
 2483 0195 0000 0000 		.long	.LASF18
 2484 0199 01        		.byte	0x1
 2485 019a 4101      		.word	0x141
 2486 019c 01        		.byte	0x1
 2487 019d 0000 0000 		.long	.LFB11
 2488 01a1 0000 0000 		.long	.LFE11
 2489 01a5 02        		.byte	0x2
 2490 01a6 90        		.byte	0x90
 2491 01a7 20        		.uleb128 0x20
 2492 01a8 BC01 0000 		.long	0x1bc
 2493 01ac 10        		.uleb128 0x10
 2494 01ad 0000 0000 		.long	.LASF9
 2495 01b1 01        		.byte	0x1
 2496 01b2 4001      		.word	0x140
 2497 01b4 2C00 0000 		.long	0x2c
 2498 01b8 02        		.byte	0x2
 2499 01b9 8C        		.byte	0x8c
 2500 01ba 01        		.sleb128 1
 2501 01bb 00        		.byte	0x0
 2502 01bc 0E        		.uleb128 0xe
 2503 01bd 01        		.byte	0x1
 2504 01be 0000 0000 		.long	.LASF19
 2505 01c2 01        		.byte	0x1
 2506 01c3 4F01      		.word	0x14f
 2507 01c5 01        		.byte	0x1
 2508 01c6 0000 0000 		.long	.LFB12
GAS LISTING C:\Users\alex\AppData\Local\Temp/ccinlLgc.s 			page 45


 2509 01ca 0000 0000 		.long	.LFE12
 2510 01ce 02        		.byte	0x2
 2511 01cf 90        		.byte	0x90
 2512 01d0 20        		.uleb128 0x20
 2513 01d1 F001 0000 		.long	0x1f0
 2514 01d5 0F        		.uleb128 0xf
 2515 01d6 7800      		.string	"x"
 2516 01d8 01        		.byte	0x1
 2517 01d9 4E01      		.word	0x14e
 2518 01db 2C00 0000 		.long	0x2c
 2519 01df 02        		.byte	0x2
 2520 01e0 8C        		.byte	0x8c
 2521 01e1 01        		.sleb128 1
 2522 01e2 0F        		.uleb128 0xf
 2523 01e3 7900      		.string	"y"
 2524 01e5 01        		.byte	0x1
 2525 01e6 4E01      		.word	0x14e
 2526 01e8 2C00 0000 		.long	0x2c
 2527 01ec 02        		.byte	0x2
 2528 01ed 8C        		.byte	0x8c
 2529 01ee 02        		.sleb128 2
 2530 01ef 00        		.byte	0x0
 2531 01f0 11        		.uleb128 0x11
 2532 01f1 01        		.byte	0x1
 2533 01f2 0000 0000 		.long	.LASF58
 2534 01f6 01        		.byte	0x1
 2535 01f7 6A01      		.word	0x16a
 2536 01f9 01        		.byte	0x1
 2537 01fa 3E00 0000 		.long	0x3e
 2538 01fe 0000 0000 		.long	.LFB13
 2539 0202 0000 0000 		.long	.LFE13
 2540 0206 02        		.byte	0x2
 2541 0207 90        		.byte	0x90
 2542 0208 20        		.uleb128 0x20
 2543 0209 0D        		.uleb128 0xd
 2544 020a 01        		.byte	0x1
 2545 020b 0000 0000 		.long	.LASF20
 2546 020f 01        		.byte	0x1
 2547 0210 7301      		.word	0x173
 2548 0212 01        		.byte	0x1
 2549 0213 0000 0000 		.long	.LFB14
 2550 0217 0000 0000 		.long	.LFE14
 2551 021b 02        		.byte	0x2
 2552 021c 90        		.byte	0x90
 2553 021d 20        		.uleb128 0x20
 2554 021e 0D        		.uleb128 0xd
 2555 021f 01        		.byte	0x1
 2556 0220 0000 0000 		.long	.LASF21
 2557 0224 01        		.byte	0x1
 2558 0225 7C01      		.word	0x17c
 2559 0227 01        		.byte	0x1
 2560 0228 0000 0000 		.long	.LFB15
 2561 022c 0000 0000 		.long	.LFE15
 2562 0230 02        		.byte	0x2
 2563 0231 90        		.byte	0x90
 2564 0232 20        		.uleb128 0x20
 2565 0233 0E        		.uleb128 0xe
GAS LISTING C:\Users\alex\AppData\Local\Temp/ccinlLgc.s 			page 46


 2566 0234 01        		.byte	0x1
 2567 0235 0000 0000 		.long	.LASF22
 2568 0239 01        		.byte	0x1
 2569 023a 8701      		.word	0x187
 2570 023c 01        		.byte	0x1
 2571 023d 0000 0000 		.long	.LFB16
 2572 0241 0000 0000 		.long	.LFE16
 2573 0245 02        		.byte	0x2
 2574 0246 90        		.byte	0x90
 2575 0247 20        		.uleb128 0x20
 2576 0248 6902 0000 		.long	0x269
 2577 024c 0F        		.uleb128 0xf
 2578 024d 6300      		.string	"c"
 2579 024f 01        		.byte	0x1
 2580 0250 8601      		.word	0x186
 2581 0252 6902 0000 		.long	0x269
 2582 0256 02        		.byte	0x2
 2583 0257 8C        		.byte	0x8c
 2584 0258 02        		.sleb128 2
 2585 0259 12        		.uleb128 0x12
 2586 025a 706F 7300 		.string	"pos"
 2587 025e 01        		.byte	0x1
 2588 025f 8801      		.word	0x188
 2589 0261 2C00 0000 		.long	0x2c
 2590 0265 02        		.byte	0x2
 2591 0266 8C        		.byte	0x8c
 2592 0267 01        		.sleb128 1
 2593 0268 00        		.byte	0x0
 2594 0269 02        		.uleb128 0x2
 2595 026a 01        		.byte	0x1
 2596 026b 08        		.byte	0x8
 2597 026c 0000 0000 		.long	.LASF23
 2598 0270 07        		.uleb128 0x7
 2599 0271 0000 0000 		.long	.LASF24
 2600 0275 01        		.byte	0x1
 2601 0276 EF        		.byte	0xef
 2602 0277 01        		.byte	0x1
 2603 0278 0000 0000 		.long	.LFB7
 2604 027c 0000 0000 		.long	.LFE7
 2605 0280 02        		.byte	0x2
 2606 0281 90        		.byte	0x90
 2607 0282 20        		.uleb128 0x20
 2608 0283 A402 0000 		.long	0x2a4
 2609 0287 09        		.uleb128 0x9
 2610 0288 706F 7300 		.string	"pos"
 2611 028c 01        		.byte	0x1
 2612 028d EE        		.byte	0xee
 2613 028e 2C00 0000 		.long	0x2c
 2614 0292 02        		.byte	0x2
 2615 0293 8C        		.byte	0x8c
 2616 0294 01        		.sleb128 1
 2617 0295 0B        		.uleb128 0xb
 2618 0296 0000 0000 		.long	.LASF25
 2619 029a 01        		.byte	0x1
 2620 029b F0        		.byte	0xf0
 2621 029c 2C00 0000 		.long	0x2c
 2622 02a0 02        		.byte	0x2
GAS LISTING C:\Users\alex\AppData\Local\Temp/ccinlLgc.s 			page 47


 2623 02a1 8C        		.byte	0x8c
 2624 02a2 02        		.sleb128 2
 2625 02a3 00        		.byte	0x0
 2626 02a4 0E        		.uleb128 0xe
 2627 02a5 01        		.byte	0x1
 2628 02a6 0000 0000 		.long	.LASF26
 2629 02aa 01        		.byte	0x1
 2630 02ab B701      		.word	0x1b7
 2631 02ad 01        		.byte	0x1
 2632 02ae 0000 0000 		.long	.LFB17
 2633 02b2 0000 0000 		.long	.LFE17
 2634 02b6 02        		.byte	0x2
 2635 02b7 90        		.byte	0x90
 2636 02b8 20        		.uleb128 0x20
 2637 02b9 D802 0000 		.long	0x2d8
 2638 02bd 0F        		.uleb128 0xf
 2639 02be 7300      		.string	"s"
 2640 02c0 01        		.byte	0x1
 2641 02c1 B501      		.word	0x1b5
 2642 02c3 D802 0000 		.long	0x2d8
 2643 02c7 02        		.byte	0x2
 2644 02c8 8C        		.byte	0x8c
 2645 02c9 01        		.sleb128 1
 2646 02ca 12        		.uleb128 0x12
 2647 02cb 6300      		.string	"c"
 2648 02cd 01        		.byte	0x1
 2649 02ce B801      		.word	0x1b8
 2650 02d0 6902 0000 		.long	0x269
 2651 02d4 02        		.byte	0x2
 2652 02d5 8C        		.byte	0x8c
 2653 02d6 03        		.sleb128 3
 2654 02d7 00        		.byte	0x0
 2655 02d8 13        		.uleb128 0x13
 2656 02d9 02        		.byte	0x2
 2657 02da DE02 0000 		.long	0x2de
 2658 02de 14        		.uleb128 0x14
 2659 02df 6902 0000 		.long	0x269
 2660 02e3 0E        		.uleb128 0xe
 2661 02e4 01        		.byte	0x1
 2662 02e5 0000 0000 		.long	.LASF27
 2663 02e9 01        		.byte	0x1
 2664 02ea C801      		.word	0x1c8
 2665 02ec 01        		.byte	0x1
 2666 02ed 0000 0000 		.long	.LFB18
 2667 02f1 0000 0000 		.long	.LFE18
 2668 02f5 02        		.byte	0x2
 2669 02f6 90        		.byte	0x90
 2670 02f7 20        		.uleb128 0x20
 2671 02f8 4103 0000 		.long	0x341
 2672 02fc 10        		.uleb128 0x10
 2673 02fd 0000 0000 		.long	.LASF28
 2674 0301 01        		.byte	0x1
 2675 0302 C601      		.word	0x1c6
 2676 0304 D802 0000 		.long	0x2d8
 2677 0308 02        		.byte	0x2
 2678 0309 8C        		.byte	0x8c
 2679 030a 04        		.sleb128 4
GAS LISTING C:\Users\alex\AppData\Local\Temp/ccinlLgc.s 			page 48


 2680 030b 12        		.uleb128 0x12
 2681 030c 6300      		.string	"c"
 2682 030e 01        		.byte	0x1
 2683 030f C901      		.word	0x1c9
 2684 0311 6902 0000 		.long	0x269
 2685 0315 02        		.byte	0x2
 2686 0316 8C        		.byte	0x8c
 2687 0317 06        		.sleb128 6
 2688 0318 15        		.uleb128 0x15
 2689 0319 0000 0000 		.long	.LBB2
 2690 031d 0000 0000 		.long	.LBE2
 2691 0321 16        		.uleb128 0x16
 2692 0322 0000 0000 		.long	.LASF29
 2693 0326 01        		.byte	0x1
 2694 0327 CB01      		.word	0x1cb
 2695 0329 4500 0000 		.long	0x45
 2696 032d 02        		.byte	0x2
 2697 032e 8C        		.byte	0x8c
 2698 032f 02        		.sleb128 2
 2699 0330 16        		.uleb128 0x16
 2700 0331 0000 0000 		.long	.LASF30
 2701 0335 01        		.byte	0x1
 2702 0336 CB01      		.word	0x1cb
 2703 0338 2C00 0000 		.long	0x2c
 2704 033c 02        		.byte	0x2
 2705 033d 8C        		.byte	0x8c
 2706 033e 01        		.sleb128 1
 2707 033f 00        		.byte	0x0
 2708 0340 00        		.byte	0x0
 2709 0341 0E        		.uleb128 0xe
 2710 0342 01        		.byte	0x1
 2711 0343 0000 0000 		.long	.LASF31
 2712 0347 01        		.byte	0x1
 2713 0348 DF01      		.word	0x1df
 2714 034a 01        		.byte	0x1
 2715 034b 0000 0000 		.long	.LFB19
 2716 034f 0000 0000 		.long	.LFE19
 2717 0353 02        		.byte	0x2
 2718 0354 90        		.byte	0x90
 2719 0355 20        		.uleb128 0x20
 2720 0356 D103 0000 		.long	0x3d1
 2721 035a 0F        		.uleb128 0xf
 2722 035b 7273 00   		.string	"rs"
 2723 035e 01        		.byte	0x1
 2724 035f DD01      		.word	0x1dd
 2725 0361 2C00 0000 		.long	0x2c
 2726 0365 02        		.byte	0x2
 2727 0366 8C        		.byte	0x8c
 2728 0367 01        		.sleb128 1
 2729 0368 0F        		.uleb128 0xf
 2730 0369 7277 00   		.string	"rw"
 2731 036c 01        		.byte	0x1
 2732 036d DD01      		.word	0x1dd
 2733 036f 2C00 0000 		.long	0x2c
 2734 0373 02        		.byte	0x2
 2735 0374 8C        		.byte	0x8c
 2736 0375 02        		.sleb128 2
GAS LISTING C:\Users\alex\AppData\Local\Temp/ccinlLgc.s 			page 49


 2737 0376 10        		.uleb128 0x10
 2738 0377 0000 0000 		.long	.LASF32
 2739 037b 01        		.byte	0x1
 2740 037c DD01      		.word	0x1dd
 2741 037e 2C00 0000 		.long	0x2c
 2742 0382 02        		.byte	0x2
 2743 0383 8C        		.byte	0x8c
 2744 0384 03        		.sleb128 3
 2745 0385 10        		.uleb128 0x10
 2746 0386 0000 0000 		.long	.LASF33
 2747 038a 01        		.byte	0x1
 2748 038b DD01      		.word	0x1dd
 2749 038d 2C00 0000 		.long	0x2c
 2750 0391 02        		.byte	0x2
 2751 0392 8C        		.byte	0x8c
 2752 0393 04        		.sleb128 4
 2753 0394 0F        		.uleb128 0xf
 2754 0395 6462 3000 		.string	"db0"
 2755 0399 01        		.byte	0x1
 2756 039a DE01      		.word	0x1de
 2757 039c 2C00 0000 		.long	0x2c
 2758 03a0 02        		.byte	0x2
 2759 03a1 8C        		.byte	0x8c
 2760 03a2 05        		.sleb128 5
 2761 03a3 0F        		.uleb128 0xf
 2762 03a4 6462 3100 		.string	"db1"
 2763 03a8 01        		.byte	0x1
 2764 03a9 DE01      		.word	0x1de
 2765 03ab 2C00 0000 		.long	0x2c
 2766 03af 02        		.byte	0x2
 2767 03b0 8C        		.byte	0x8c
 2768 03b1 06        		.sleb128 6
 2769 03b2 0F        		.uleb128 0xf
 2770 03b3 6462 3200 		.string	"db2"
 2771 03b7 01        		.byte	0x1
 2772 03b8 DE01      		.word	0x1de
 2773 03ba 2C00 0000 		.long	0x2c
 2774 03be 02        		.byte	0x2
 2775 03bf 8C        		.byte	0x8c
 2776 03c0 07        		.sleb128 7
 2777 03c1 0F        		.uleb128 0xf
 2778 03c2 6462 3300 		.string	"db3"
 2779 03c6 01        		.byte	0x1
 2780 03c7 DE01      		.word	0x1de
 2781 03c9 2C00 0000 		.long	0x2c
 2782 03cd 02        		.byte	0x2
 2783 03ce 8C        		.byte	0x8c
 2784 03cf 08        		.sleb128 8
 2785 03d0 00        		.byte	0x0
 2786 03d1 17        		.uleb128 0x17
 2787 03d2 0000 0000 		.long	.LASF34
 2788 03d6 01        		.byte	0x1
 2789 03d7 1F        		.byte	0x1f
 2790 03d8 E303 0000 		.long	0x3e3
 2791 03dc 01        		.byte	0x1
 2792 03dd 05        		.byte	0x5
 2793 03de 03        		.byte	0x3
GAS LISTING C:\Users\alex\AppData\Local\Temp/ccinlLgc.s 			page 50


 2794 03df 0000 0000 		.long	lcd_p_rs
 2795 03e3 13        		.uleb128 0x13
 2796 03e4 02        		.byte	0x2
 2797 03e5 E903 0000 		.long	0x3e9
 2798 03e9 18        		.uleb128 0x18
 2799 03ea 2C00 0000 		.long	0x2c
 2800 03ee 17        		.uleb128 0x17
 2801 03ef 0000 0000 		.long	.LASF35
 2802 03f3 01        		.byte	0x1
 2803 03f4 20        		.byte	0x20
 2804 03f5 E303 0000 		.long	0x3e3
 2805 03f9 01        		.byte	0x1
 2806 03fa 05        		.byte	0x5
 2807 03fb 03        		.byte	0x3
 2808 03fc 0000 0000 		.long	lcd_p_rw
 2809 0400 17        		.uleb128 0x17
 2810 0401 0000 0000 		.long	.LASF36
 2811 0405 01        		.byte	0x1
 2812 0406 21        		.byte	0x21
 2813 0407 E303 0000 		.long	0x3e3
 2814 040b 01        		.byte	0x1
 2815 040c 05        		.byte	0x5
 2816 040d 03        		.byte	0x3
 2817 040e 0000 0000 		.long	lcd_p_enable
 2818 0412 17        		.uleb128 0x17
 2819 0413 0000 0000 		.long	.LASF37
 2820 0417 01        		.byte	0x1
 2821 0418 22        		.byte	0x22
 2822 0419 E303 0000 		.long	0x3e3
 2823 041d 01        		.byte	0x1
 2824 041e 05        		.byte	0x5
 2825 041f 03        		.byte	0x3
 2826 0420 0000 0000 		.long	lcd_p_backlight
 2827 0424 17        		.uleb128 0x17
 2828 0425 0000 0000 		.long	.LASF38
 2829 0429 01        		.byte	0x1
 2830 042a 23        		.byte	0x23
 2831 042b E303 0000 		.long	0x3e3
 2832 042f 01        		.byte	0x1
 2833 0430 05        		.byte	0x5
 2834 0431 03        		.byte	0x3
 2835 0432 0000 0000 		.long	lcd_p_db0
 2836 0436 17        		.uleb128 0x17
 2837 0437 0000 0000 		.long	.LASF39
 2838 043b 01        		.byte	0x1
 2839 043c 24        		.byte	0x24
 2840 043d E303 0000 		.long	0x3e3
 2841 0441 01        		.byte	0x1
 2842 0442 05        		.byte	0x5
 2843 0443 03        		.byte	0x3
 2844 0444 0000 0000 		.long	lcd_p_db1
 2845 0448 17        		.uleb128 0x17
 2846 0449 0000 0000 		.long	.LASF40
 2847 044d 01        		.byte	0x1
 2848 044e 25        		.byte	0x25
 2849 044f E303 0000 		.long	0x3e3
 2850 0453 01        		.byte	0x1
GAS LISTING C:\Users\alex\AppData\Local\Temp/ccinlLgc.s 			page 51


 2851 0454 05        		.byte	0x5
 2852 0455 03        		.byte	0x3
 2853 0456 0000 0000 		.long	lcd_p_db2
 2854 045a 17        		.uleb128 0x17
 2855 045b 0000 0000 		.long	.LASF41
 2856 045f 01        		.byte	0x1
 2857 0460 26        		.byte	0x26
 2858 0461 E303 0000 		.long	0x3e3
 2859 0465 01        		.byte	0x1
 2860 0466 05        		.byte	0x5
 2861 0467 03        		.byte	0x3
 2862 0468 0000 0000 		.long	lcd_p_db3
 2863 046c 17        		.uleb128 0x17
 2864 046d 0000 0000 		.long	.LASF42
 2865 0471 01        		.byte	0x1
 2866 0472 27        		.byte	0x27
 2867 0473 E303 0000 		.long	0x3e3
 2868 0477 01        		.byte	0x1
 2869 0478 05        		.byte	0x5
 2870 0479 03        		.byte	0x3
 2871 047a 0000 0000 		.long	lcd_ddr_db0
 2872 047e 17        		.uleb128 0x17
 2873 047f 0000 0000 		.long	.LASF43
 2874 0483 01        		.byte	0x1
 2875 0484 28        		.byte	0x28
 2876 0485 E303 0000 		.long	0x3e3
 2877 0489 01        		.byte	0x1
 2878 048a 05        		.byte	0x5
 2879 048b 03        		.byte	0x3
 2880 048c 0000 0000 		.long	lcd_ddr_db1
 2881 0490 17        		.uleb128 0x17
 2882 0491 0000 0000 		.long	.LASF44
 2883 0495 01        		.byte	0x1
 2884 0496 29        		.byte	0x29
 2885 0497 E303 0000 		.long	0x3e3
 2886 049b 01        		.byte	0x1
 2887 049c 05        		.byte	0x5
 2888 049d 03        		.byte	0x3
 2889 049e 0000 0000 		.long	lcd_ddr_db2
 2890 04a2 17        		.uleb128 0x17
 2891 04a3 0000 0000 		.long	.LASF45
 2892 04a7 01        		.byte	0x1
 2893 04a8 2A        		.byte	0x2a
 2894 04a9 E303 0000 		.long	0x3e3
 2895 04ad 01        		.byte	0x1
 2896 04ae 05        		.byte	0x5
 2897 04af 03        		.byte	0x3
 2898 04b0 0000 0000 		.long	lcd_ddr_db3
 2899 04b4 17        		.uleb128 0x17
 2900 04b5 0000 0000 		.long	.LASF46
 2901 04b9 01        		.byte	0x1
 2902 04ba 2D        		.byte	0x2d
 2903 04bb 2C00 0000 		.long	0x2c
 2904 04bf 01        		.byte	0x1
 2905 04c0 05        		.byte	0x5
 2906 04c1 03        		.byte	0x3
 2907 04c2 0000 0000 		.long	lcd_b_rs
GAS LISTING C:\Users\alex\AppData\Local\Temp/ccinlLgc.s 			page 52


 2908 04c6 17        		.uleb128 0x17
 2909 04c7 0000 0000 		.long	.LASF47
 2910 04cb 01        		.byte	0x1
 2911 04cc 2E        		.byte	0x2e
 2912 04cd 2C00 0000 		.long	0x2c
 2913 04d1 01        		.byte	0x1
 2914 04d2 05        		.byte	0x5
 2915 04d3 03        		.byte	0x3
 2916 04d4 0000 0000 		.long	lcd_b_rw
 2917 04d8 17        		.uleb128 0x17
 2918 04d9 0000 0000 		.long	.LASF48
 2919 04dd 01        		.byte	0x1
 2920 04de 2F        		.byte	0x2f
 2921 04df 2C00 0000 		.long	0x2c
 2922 04e3 01        		.byte	0x1
 2923 04e4 05        		.byte	0x5
 2924 04e5 03        		.byte	0x3
 2925 04e6 0000 0000 		.long	lcd_b_enable
 2926 04ea 17        		.uleb128 0x17
 2927 04eb 0000 0000 		.long	.LASF49
 2928 04ef 01        		.byte	0x1
 2929 04f0 30        		.byte	0x30
 2930 04f1 2C00 0000 		.long	0x2c
 2931 04f5 01        		.byte	0x1
 2932 04f6 05        		.byte	0x5
 2933 04f7 03        		.byte	0x3
 2934 04f8 0000 0000 		.long	lcd_b_backlight
 2935 04fc 17        		.uleb128 0x17
 2936 04fd 0000 0000 		.long	.LASF50
 2937 0501 01        		.byte	0x1
 2938 0502 31        		.byte	0x31
 2939 0503 2C00 0000 		.long	0x2c
 2940 0507 01        		.byte	0x1
 2941 0508 05        		.byte	0x5
 2942 0509 03        		.byte	0x3
 2943 050a 0000 0000 		.long	lcd_b_db0
 2944 050e 17        		.uleb128 0x17
 2945 050f 0000 0000 		.long	.LASF51
 2946 0513 01        		.byte	0x1
 2947 0514 32        		.byte	0x32
 2948 0515 2C00 0000 		.long	0x2c
 2949 0519 01        		.byte	0x1
 2950 051a 05        		.byte	0x5
 2951 051b 03        		.byte	0x3
 2952 051c 0000 0000 		.long	lcd_b_db1
 2953 0520 17        		.uleb128 0x17
 2954 0521 0000 0000 		.long	.LASF52
 2955 0525 01        		.byte	0x1
 2956 0526 33        		.byte	0x33
 2957 0527 2C00 0000 		.long	0x2c
 2958 052b 01        		.byte	0x1
 2959 052c 05        		.byte	0x5
 2960 052d 03        		.byte	0x3
 2961 052e 0000 0000 		.long	lcd_b_db2
 2962 0532 17        		.uleb128 0x17
 2963 0533 0000 0000 		.long	.LASF53
 2964 0537 01        		.byte	0x1
GAS LISTING C:\Users\alex\AppData\Local\Temp/ccinlLgc.s 			page 53


 2965 0538 34        		.byte	0x34
 2966 0539 2C00 0000 		.long	0x2c
 2967 053d 01        		.byte	0x1
 2968 053e 05        		.byte	0x5
 2969 053f 03        		.byte	0x3
 2970 0540 0000 0000 		.long	lcd_b_db3
 2971 0544 00        		.byte	0x0
 2972               		.section	.debug_abbrev
 2973 0000 01        		.uleb128 0x1
 2974 0001 11        		.uleb128 0x11
 2975 0002 01        		.byte	0x1
 2976 0003 25        		.uleb128 0x25
 2977 0004 0E        		.uleb128 0xe
 2978 0005 13        		.uleb128 0x13
 2979 0006 0B        		.uleb128 0xb
 2980 0007 03        		.uleb128 0x3
 2981 0008 0E        		.uleb128 0xe
 2982 0009 1B        		.uleb128 0x1b
 2983 000a 0E        		.uleb128 0xe
 2984 000b 11        		.uleb128 0x11
 2985 000c 01        		.uleb128 0x1
 2986 000d 12        		.uleb128 0x12
 2987 000e 01        		.uleb128 0x1
 2988 000f 10        		.uleb128 0x10
 2989 0010 06        		.uleb128 0x6
 2990 0011 00        		.byte	0x0
 2991 0012 00        		.byte	0x0
 2992 0013 02        		.uleb128 0x2
 2993 0014 24        		.uleb128 0x24
 2994 0015 00        		.byte	0x0
 2995 0016 0B        		.uleb128 0xb
 2996 0017 0B        		.uleb128 0xb
 2997 0018 3E        		.uleb128 0x3e
 2998 0019 0B        		.uleb128 0xb
 2999 001a 03        		.uleb128 0x3
 3000 001b 0E        		.uleb128 0xe
 3001 001c 00        		.byte	0x0
 3002 001d 00        		.byte	0x0
 3003 001e 03        		.uleb128 0x3
 3004 001f 16        		.uleb128 0x16
 3005 0020 00        		.byte	0x0
 3006 0021 03        		.uleb128 0x3
 3007 0022 0E        		.uleb128 0xe
 3008 0023 3A        		.uleb128 0x3a
 3009 0024 0B        		.uleb128 0xb
 3010 0025 3B        		.uleb128 0x3b
 3011 0026 0B        		.uleb128 0xb
 3012 0027 49        		.uleb128 0x49
 3013 0028 13        		.uleb128 0x13
 3014 0029 00        		.byte	0x0
 3015 002a 00        		.byte	0x0
 3016 002b 04        		.uleb128 0x4
 3017 002c 24        		.uleb128 0x24
 3018 002d 00        		.byte	0x0
 3019 002e 0B        		.uleb128 0xb
 3020 002f 0B        		.uleb128 0xb
 3021 0030 3E        		.uleb128 0x3e
GAS LISTING C:\Users\alex\AppData\Local\Temp/ccinlLgc.s 			page 54


 3022 0031 0B        		.uleb128 0xb
 3023 0032 03        		.uleb128 0x3
 3024 0033 08        		.uleb128 0x8
 3025 0034 00        		.byte	0x0
 3026 0035 00        		.byte	0x0
 3027 0036 05        		.uleb128 0x5
 3028 0037 24        		.uleb128 0x24
 3029 0038 00        		.byte	0x0
 3030 0039 0B        		.uleb128 0xb
 3031 003a 0B        		.uleb128 0xb
 3032 003b 3E        		.uleb128 0x3e
 3033 003c 0B        		.uleb128 0xb
 3034 003d 00        		.byte	0x0
 3035 003e 00        		.byte	0x0
 3036 003f 06        		.uleb128 0x6
 3037 0040 2E        		.uleb128 0x2e
 3038 0041 00        		.byte	0x0
 3039 0042 03        		.uleb128 0x3
 3040 0043 0E        		.uleb128 0xe
 3041 0044 3A        		.uleb128 0x3a
 3042 0045 0B        		.uleb128 0xb
 3043 0046 3B        		.uleb128 0x3b
 3044 0047 0B        		.uleb128 0xb
 3045 0048 27        		.uleb128 0x27
 3046 0049 0C        		.uleb128 0xc
 3047 004a 11        		.uleb128 0x11
 3048 004b 01        		.uleb128 0x1
 3049 004c 12        		.uleb128 0x12
 3050 004d 01        		.uleb128 0x1
 3051 004e 40        		.uleb128 0x40
 3052 004f 0A        		.uleb128 0xa
 3053 0050 00        		.byte	0x0
 3054 0051 00        		.byte	0x0
 3055 0052 07        		.uleb128 0x7
 3056 0053 2E        		.uleb128 0x2e
 3057 0054 01        		.byte	0x1
 3058 0055 03        		.uleb128 0x3
 3059 0056 0E        		.uleb128 0xe
 3060 0057 3A        		.uleb128 0x3a
 3061 0058 0B        		.uleb128 0xb
 3062 0059 3B        		.uleb128 0x3b
 3063 005a 0B        		.uleb128 0xb
 3064 005b 27        		.uleb128 0x27
 3065 005c 0C        		.uleb128 0xc
 3066 005d 11        		.uleb128 0x11
 3067 005e 01        		.uleb128 0x1
 3068 005f 12        		.uleb128 0x12
 3069 0060 01        		.uleb128 0x1
 3070 0061 40        		.uleb128 0x40
 3071 0062 0A        		.uleb128 0xa
 3072 0063 01        		.uleb128 0x1
 3073 0064 13        		.uleb128 0x13
 3074 0065 00        		.byte	0x0
 3075 0066 00        		.byte	0x0
 3076 0067 08        		.uleb128 0x8
 3077 0068 05        		.uleb128 0x5
 3078 0069 00        		.byte	0x0
GAS LISTING C:\Users\alex\AppData\Local\Temp/ccinlLgc.s 			page 55


 3079 006a 03        		.uleb128 0x3
 3080 006b 0E        		.uleb128 0xe
 3081 006c 3A        		.uleb128 0x3a
 3082 006d 0B        		.uleb128 0xb
 3083 006e 3B        		.uleb128 0x3b
 3084 006f 0B        		.uleb128 0xb
 3085 0070 49        		.uleb128 0x49
 3086 0071 13        		.uleb128 0x13
 3087 0072 02        		.uleb128 0x2
 3088 0073 0A        		.uleb128 0xa
 3089 0074 00        		.byte	0x0
 3090 0075 00        		.byte	0x0
 3091 0076 09        		.uleb128 0x9
 3092 0077 05        		.uleb128 0x5
 3093 0078 00        		.byte	0x0
 3094 0079 03        		.uleb128 0x3
 3095 007a 08        		.uleb128 0x8
 3096 007b 3A        		.uleb128 0x3a
 3097 007c 0B        		.uleb128 0xb
 3098 007d 3B        		.uleb128 0x3b
 3099 007e 0B        		.uleb128 0xb
 3100 007f 49        		.uleb128 0x49
 3101 0080 13        		.uleb128 0x13
 3102 0081 02        		.uleb128 0x2
 3103 0082 0A        		.uleb128 0xa
 3104 0083 00        		.byte	0x0
 3105 0084 00        		.byte	0x0
 3106 0085 0A        		.uleb128 0xa
 3107 0086 2E        		.uleb128 0x2e
 3108 0087 01        		.byte	0x1
 3109 0088 03        		.uleb128 0x3
 3110 0089 0E        		.uleb128 0xe
 3111 008a 3A        		.uleb128 0x3a
 3112 008b 0B        		.uleb128 0xb
 3113 008c 3B        		.uleb128 0x3b
 3114 008d 0B        		.uleb128 0xb
 3115 008e 27        		.uleb128 0x27
 3116 008f 0C        		.uleb128 0xc
 3117 0090 49        		.uleb128 0x49
 3118 0091 13        		.uleb128 0x13
 3119 0092 11        		.uleb128 0x11
 3120 0093 01        		.uleb128 0x1
 3121 0094 12        		.uleb128 0x12
 3122 0095 01        		.uleb128 0x1
 3123 0096 40        		.uleb128 0x40
 3124 0097 0A        		.uleb128 0xa
 3125 0098 01        		.uleb128 0x1
 3126 0099 13        		.uleb128 0x13
 3127 009a 00        		.byte	0x0
 3128 009b 00        		.byte	0x0
 3129 009c 0B        		.uleb128 0xb
 3130 009d 34        		.uleb128 0x34
 3131 009e 00        		.byte	0x0
 3132 009f 03        		.uleb128 0x3
 3133 00a0 0E        		.uleb128 0xe
 3134 00a1 3A        		.uleb128 0x3a
 3135 00a2 0B        		.uleb128 0xb
GAS LISTING C:\Users\alex\AppData\Local\Temp/ccinlLgc.s 			page 56


 3136 00a3 3B        		.uleb128 0x3b
 3137 00a4 0B        		.uleb128 0xb
 3138 00a5 49        		.uleb128 0x49
 3139 00a6 13        		.uleb128 0x13
 3140 00a7 02        		.uleb128 0x2
 3141 00a8 0A        		.uleb128 0xa
 3142 00a9 00        		.byte	0x0
 3143 00aa 00        		.byte	0x0
 3144 00ab 0C        		.uleb128 0xc
 3145 00ac 34        		.uleb128 0x34
 3146 00ad 00        		.byte	0x0
 3147 00ae 03        		.uleb128 0x3
 3148 00af 08        		.uleb128 0x8
 3149 00b0 3A        		.uleb128 0x3a
 3150 00b1 0B        		.uleb128 0xb
 3151 00b2 3B        		.uleb128 0x3b
 3152 00b3 0B        		.uleb128 0xb
 3153 00b4 49        		.uleb128 0x49
 3154 00b5 13        		.uleb128 0x13
 3155 00b6 02        		.uleb128 0x2
 3156 00b7 0A        		.uleb128 0xa
 3157 00b8 00        		.byte	0x0
 3158 00b9 00        		.byte	0x0
 3159 00ba 0D        		.uleb128 0xd
 3160 00bb 2E        		.uleb128 0x2e
 3161 00bc 00        		.byte	0x0
 3162 00bd 3F        		.uleb128 0x3f
 3163 00be 0C        		.uleb128 0xc
 3164 00bf 03        		.uleb128 0x3
 3165 00c0 0E        		.uleb128 0xe
 3166 00c1 3A        		.uleb128 0x3a
 3167 00c2 0B        		.uleb128 0xb
 3168 00c3 3B        		.uleb128 0x3b
 3169 00c4 05        		.uleb128 0x5
 3170 00c5 27        		.uleb128 0x27
 3171 00c6 0C        		.uleb128 0xc
 3172 00c7 11        		.uleb128 0x11
 3173 00c8 01        		.uleb128 0x1
 3174 00c9 12        		.uleb128 0x12
 3175 00ca 01        		.uleb128 0x1
 3176 00cb 40        		.uleb128 0x40
 3177 00cc 0A        		.uleb128 0xa
 3178 00cd 00        		.byte	0x0
 3179 00ce 00        		.byte	0x0
 3180 00cf 0E        		.uleb128 0xe
 3181 00d0 2E        		.uleb128 0x2e
 3182 00d1 01        		.byte	0x1
 3183 00d2 3F        		.uleb128 0x3f
 3184 00d3 0C        		.uleb128 0xc
 3185 00d4 03        		.uleb128 0x3
 3186 00d5 0E        		.uleb128 0xe
 3187 00d6 3A        		.uleb128 0x3a
 3188 00d7 0B        		.uleb128 0xb
 3189 00d8 3B        		.uleb128 0x3b
 3190 00d9 05        		.uleb128 0x5
 3191 00da 27        		.uleb128 0x27
 3192 00db 0C        		.uleb128 0xc
GAS LISTING C:\Users\alex\AppData\Local\Temp/ccinlLgc.s 			page 57


 3193 00dc 11        		.uleb128 0x11
 3194 00dd 01        		.uleb128 0x1
 3195 00de 12        		.uleb128 0x12
 3196 00df 01        		.uleb128 0x1
 3197 00e0 40        		.uleb128 0x40
 3198 00e1 0A        		.uleb128 0xa
 3199 00e2 01        		.uleb128 0x1
 3200 00e3 13        		.uleb128 0x13
 3201 00e4 00        		.byte	0x0
 3202 00e5 00        		.byte	0x0
 3203 00e6 0F        		.uleb128 0xf
 3204 00e7 05        		.uleb128 0x5
 3205 00e8 00        		.byte	0x0
 3206 00e9 03        		.uleb128 0x3
 3207 00ea 08        		.uleb128 0x8
 3208 00eb 3A        		.uleb128 0x3a
 3209 00ec 0B        		.uleb128 0xb
 3210 00ed 3B        		.uleb128 0x3b
 3211 00ee 05        		.uleb128 0x5
 3212 00ef 49        		.uleb128 0x49
 3213 00f0 13        		.uleb128 0x13
 3214 00f1 02        		.uleb128 0x2
 3215 00f2 0A        		.uleb128 0xa
 3216 00f3 00        		.byte	0x0
 3217 00f4 00        		.byte	0x0
 3218 00f5 10        		.uleb128 0x10
 3219 00f6 05        		.uleb128 0x5
 3220 00f7 00        		.byte	0x0
 3221 00f8 03        		.uleb128 0x3
 3222 00f9 0E        		.uleb128 0xe
 3223 00fa 3A        		.uleb128 0x3a
 3224 00fb 0B        		.uleb128 0xb
 3225 00fc 3B        		.uleb128 0x3b
 3226 00fd 05        		.uleb128 0x5
 3227 00fe 49        		.uleb128 0x49
 3228 00ff 13        		.uleb128 0x13
 3229 0100 02        		.uleb128 0x2
 3230 0101 0A        		.uleb128 0xa
 3231 0102 00        		.byte	0x0
 3232 0103 00        		.byte	0x0
 3233 0104 11        		.uleb128 0x11
 3234 0105 2E        		.uleb128 0x2e
 3235 0106 00        		.byte	0x0
 3236 0107 3F        		.uleb128 0x3f
 3237 0108 0C        		.uleb128 0xc
 3238 0109 03        		.uleb128 0x3
 3239 010a 0E        		.uleb128 0xe
 3240 010b 3A        		.uleb128 0x3a
 3241 010c 0B        		.uleb128 0xb
 3242 010d 3B        		.uleb128 0x3b
 3243 010e 05        		.uleb128 0x5
 3244 010f 27        		.uleb128 0x27
 3245 0110 0C        		.uleb128 0xc
 3246 0111 49        		.uleb128 0x49
 3247 0112 13        		.uleb128 0x13
 3248 0113 11        		.uleb128 0x11
 3249 0114 01        		.uleb128 0x1
GAS LISTING C:\Users\alex\AppData\Local\Temp/ccinlLgc.s 			page 58


 3250 0115 12        		.uleb128 0x12
 3251 0116 01        		.uleb128 0x1
 3252 0117 40        		.uleb128 0x40
 3253 0118 0A        		.uleb128 0xa
 3254 0119 00        		.byte	0x0
 3255 011a 00        		.byte	0x0
 3256 011b 12        		.uleb128 0x12
 3257 011c 34        		.uleb128 0x34
 3258 011d 00        		.byte	0x0
 3259 011e 03        		.uleb128 0x3
 3260 011f 08        		.uleb128 0x8
 3261 0120 3A        		.uleb128 0x3a
 3262 0121 0B        		.uleb128 0xb
 3263 0122 3B        		.uleb128 0x3b
 3264 0123 05        		.uleb128 0x5
 3265 0124 49        		.uleb128 0x49
 3266 0125 13        		.uleb128 0x13
 3267 0126 02        		.uleb128 0x2
 3268 0127 0A        		.uleb128 0xa
 3269 0128 00        		.byte	0x0
 3270 0129 00        		.byte	0x0
 3271 012a 13        		.uleb128 0x13
 3272 012b 0F        		.uleb128 0xf
 3273 012c 00        		.byte	0x0
 3274 012d 0B        		.uleb128 0xb
 3275 012e 0B        		.uleb128 0xb
 3276 012f 49        		.uleb128 0x49
 3277 0130 13        		.uleb128 0x13
 3278 0131 00        		.byte	0x0
 3279 0132 00        		.byte	0x0
 3280 0133 14        		.uleb128 0x14
 3281 0134 26        		.uleb128 0x26
 3282 0135 00        		.byte	0x0
 3283 0136 49        		.uleb128 0x49
 3284 0137 13        		.uleb128 0x13
 3285 0138 00        		.byte	0x0
 3286 0139 00        		.byte	0x0
 3287 013a 15        		.uleb128 0x15
 3288 013b 0B        		.uleb128 0xb
 3289 013c 01        		.byte	0x1
 3290 013d 11        		.uleb128 0x11
 3291 013e 01        		.uleb128 0x1
 3292 013f 12        		.uleb128 0x12
 3293 0140 01        		.uleb128 0x1
 3294 0141 00        		.byte	0x0
 3295 0142 00        		.byte	0x0
 3296 0143 16        		.uleb128 0x16
 3297 0144 34        		.uleb128 0x34
 3298 0145 00        		.byte	0x0
 3299 0146 03        		.uleb128 0x3
 3300 0147 0E        		.uleb128 0xe
 3301 0148 3A        		.uleb128 0x3a
 3302 0149 0B        		.uleb128 0xb
 3303 014a 3B        		.uleb128 0x3b
 3304 014b 05        		.uleb128 0x5
 3305 014c 49        		.uleb128 0x49
 3306 014d 13        		.uleb128 0x13
GAS LISTING C:\Users\alex\AppData\Local\Temp/ccinlLgc.s 			page 59


 3307 014e 02        		.uleb128 0x2
 3308 014f 0A        		.uleb128 0xa
 3309 0150 00        		.byte	0x0
 3310 0151 00        		.byte	0x0
 3311 0152 17        		.uleb128 0x17
 3312 0153 34        		.uleb128 0x34
 3313 0154 00        		.byte	0x0
 3314 0155 03        		.uleb128 0x3
 3315 0156 0E        		.uleb128 0xe
 3316 0157 3A        		.uleb128 0x3a
 3317 0158 0B        		.uleb128 0xb
 3318 0159 3B        		.uleb128 0x3b
 3319 015a 0B        		.uleb128 0xb
 3320 015b 49        		.uleb128 0x49
 3321 015c 13        		.uleb128 0x13
 3322 015d 3F        		.uleb128 0x3f
 3323 015e 0C        		.uleb128 0xc
 3324 015f 02        		.uleb128 0x2
 3325 0160 0A        		.uleb128 0xa
 3326 0161 00        		.byte	0x0
 3327 0162 00        		.byte	0x0
 3328 0163 18        		.uleb128 0x18
 3329 0164 35        		.uleb128 0x35
 3330 0165 00        		.byte	0x0
 3331 0166 49        		.uleb128 0x49
 3332 0167 13        		.uleb128 0x13
 3333 0168 00        		.byte	0x0
 3334 0169 00        		.byte	0x0
 3335 016a 00        		.byte	0x0
 3336               		.section	.debug_pubnames,"",@progbits
 3337 0000 F301 0000 		.long	0x1f3
 3338 0004 0200      		.word	0x2
 3339 0006 0000 0000 		.long	.Ldebug_info0
 3340 000a 4505 0000 		.long	0x545
 3341 000e 4001 0000 		.long	0x140
 3342 0012 6C63 645F 		.string	"lcd_backlight_on"
 3342      6261 636B 
 3342      6C69 6768 
 3342      745F 6F6E 
 3342      00
 3343 0023 5501 0000 		.long	0x155
 3344 0027 6C63 645F 		.string	"lcd_backlight_off"
 3344      6261 636B 
 3344      6C69 6768 
 3344      745F 6F66 
 3344      6600 
 3345 0039 6A01 0000 		.long	0x16a
 3346 003d 6C63 645F 		.string	"lcd_command"
 3346      636F 6D6D 
 3346      616E 6400 
 3347 0049 9301 0000 		.long	0x193
 3348 004d 6C63 645F 		.string	"lcd_data"
 3348      6461 7461 
 3348      00
 3349 0056 BC01 0000 		.long	0x1bc
 3350 005a 6C63 645F 		.string	"lcd_gotoxy"
 3350      676F 746F 
GAS LISTING C:\Users\alex\AppData\Local\Temp/ccinlLgc.s 			page 60


 3350      7879 00
 3351 0065 F001 0000 		.long	0x1f0
 3352 0069 6C63 645F 		.string	"lcd_getxy"
 3352      6765 7478 
 3352      7900 
 3353 0073 0902 0000 		.long	0x209
 3354 0077 6C63 645F 		.string	"lcd_clrscr"
 3354      636C 7273 
 3354      6372 00
 3355 0082 1E02 0000 		.long	0x21e
 3356 0086 6C63 645F 		.string	"lcd_home"
 3356      686F 6D65 
 3356      00
 3357 008f 3302 0000 		.long	0x233
 3358 0093 6C63 645F 		.string	"lcd_putc"
 3358      7075 7463 
 3358      00
 3359 009c A402 0000 		.long	0x2a4
 3360 00a0 6C63 645F 		.string	"lcd_puts"
 3360      7075 7473 
 3360      00
 3361 00a9 E302 0000 		.long	0x2e3
 3362 00ad 6C63 645F 		.string	"lcd_puts_p"
 3362      7075 7473 
 3362      5F70 00
 3363 00b8 4103 0000 		.long	0x341
 3364 00bc 696E 6974 		.string	"init_lcd"
 3364      5F6C 6364 
 3364      00
 3365 00c5 D103 0000 		.long	0x3d1
 3366 00c9 6C63 645F 		.string	"lcd_p_rs"
 3366      705F 7273 
 3366      00
 3367 00d2 EE03 0000 		.long	0x3ee
 3368 00d6 6C63 645F 		.string	"lcd_p_rw"
 3368      705F 7277 
 3368      00
 3369 00df 0004 0000 		.long	0x400
 3370 00e3 6C63 645F 		.string	"lcd_p_enable"
 3370      705F 656E 
 3370      6162 6C65 
 3370      00
 3371 00f0 1204 0000 		.long	0x412
 3372 00f4 6C63 645F 		.string	"lcd_p_backlight"
 3372      705F 6261 
 3372      636B 6C69 
 3372      6768 7400 
 3373 0104 2404 0000 		.long	0x424
 3374 0108 6C63 645F 		.string	"lcd_p_db0"
 3374      705F 6462 
 3374      3000 
 3375 0112 3604 0000 		.long	0x436
 3376 0116 6C63 645F 		.string	"lcd_p_db1"
 3376      705F 6462 
 3376      3100 
 3377 0120 4804 0000 		.long	0x448
 3378 0124 6C63 645F 		.string	"lcd_p_db2"
GAS LISTING C:\Users\alex\AppData\Local\Temp/ccinlLgc.s 			page 61


 3378      705F 6462 
 3378      3200 
 3379 012e 5A04 0000 		.long	0x45a
 3380 0132 6C63 645F 		.string	"lcd_p_db3"
 3380      705F 6462 
 3380      3300 
 3381 013c 6C04 0000 		.long	0x46c
 3382 0140 6C63 645F 		.string	"lcd_ddr_db0"
 3382      6464 725F 
 3382      6462 3000 
 3383 014c 7E04 0000 		.long	0x47e
 3384 0150 6C63 645F 		.string	"lcd_ddr_db1"
 3384      6464 725F 
 3384      6462 3100 
 3385 015c 9004 0000 		.long	0x490
 3386 0160 6C63 645F 		.string	"lcd_ddr_db2"
 3386      6464 725F 
 3386      6462 3200 
 3387 016c A204 0000 		.long	0x4a2
 3388 0170 6C63 645F 		.string	"lcd_ddr_db3"
 3388      6464 725F 
 3388      6462 3300 
 3389 017c B404 0000 		.long	0x4b4
 3390 0180 6C63 645F 		.string	"lcd_b_rs"
 3390      625F 7273 
 3390      00
 3391 0189 C604 0000 		.long	0x4c6
 3392 018d 6C63 645F 		.string	"lcd_b_rw"
 3392      625F 7277 
 3392      00
 3393 0196 D804 0000 		.long	0x4d8
 3394 019a 6C63 645F 		.string	"lcd_b_enable"
 3394      625F 656E 
 3394      6162 6C65 
 3394      00
 3395 01a7 EA04 0000 		.long	0x4ea
 3396 01ab 6C63 645F 		.string	"lcd_b_backlight"
 3396      625F 6261 
 3396      636B 6C69 
 3396      6768 7400 
 3397 01bb FC04 0000 		.long	0x4fc
 3398 01bf 6C63 645F 		.string	"lcd_b_db0"
 3398      625F 6462 
 3398      3000 
 3399 01c9 0E05 0000 		.long	0x50e
 3400 01cd 6C63 645F 		.string	"lcd_b_db1"
 3400      625F 6462 
 3400      3100 
 3401 01d7 2005 0000 		.long	0x520
 3402 01db 6C63 645F 		.string	"lcd_b_db2"
 3402      625F 6462 
 3402      3200 
 3403 01e5 3205 0000 		.long	0x532
 3404 01e9 6C63 645F 		.string	"lcd_b_db3"
 3404      625F 6462 
 3404      3300 
 3405 01f3 0000 0000 		.long	0x0
GAS LISTING C:\Users\alex\AppData\Local\Temp/ccinlLgc.s 			page 62


 3406               		.section	.debug_aranges,"",@progbits
 3407 0000 1C00 0000 		.long	0x1c
 3408 0004 0200      		.word	0x2
 3409 0006 0000 0000 		.long	.Ldebug_info0
 3410 000a 04        		.byte	0x4
 3411 000b 00        		.byte	0x0
 3412 000c 0000      		.word	0x0
 3413 000e 0000      		.word	0x0
 3414 0010 0000 0000 		.long	.Ltext0
 3415 0014 FC0F 0000 		.long	.Letext0-.Ltext0
 3416 0018 0000 0000 		.long	0x0
 3417 001c 0000 0000 		.long	0x0
 3418               		.section	.debug_line
 3419 0000 8906 0000 		.long	.LELT0-.LSLT0
 3420               	.LSLT0:
 3421 0004 0200      		.word	0x2
 3422 0006 5300 0000 		.long	.LELTP0-.LASLTP0
 3423               	.LASLTP0:
 3424 000a 01        		.byte	0x1
 3425 000b 01        		.byte	0x1
 3426 000c F6        		.byte	0xf6
 3427 000d F5        		.byte	0xf5
 3428 000e 0A        		.byte	0xa
 3429 000f 00        		.byte	0x0
 3430 0010 01        		.byte	0x1
 3431 0011 01        		.byte	0x1
 3432 0012 01        		.byte	0x1
 3433 0013 01        		.byte	0x1
 3434 0014 00        		.byte	0x0
 3435 0015 00        		.byte	0x0
 3436 0016 00        		.byte	0x0
 3437 0017 01        		.byte	0x1
 3438 0018 633A 2F77 		.ascii	"c:/winavr-20100110/lib/gcc/../../avr/include"
 3438      696E 6176 
 3438      722D 3230 
 3438      3130 3031 
 3438      3130 2F6C 
 3439 0044 00        		.byte	0
 3440 0045 00        		.byte	0x0
 3441 0046 6C63 6432 		.string	"lcd2.c"
 3441      2E63 00
 3442 004d 00        		.uleb128 0x0
 3443 004e 00        		.uleb128 0x0
 3444 004f 00        		.uleb128 0x0
 3445 0050 7374 6469 		.string	"stdint.h"
 3445      6E74 2E68 
 3445      00
 3446 0059 01        		.uleb128 0x1
 3447 005a 00        		.uleb128 0x0
 3448 005b 00        		.uleb128 0x0
 3449 005c 00        		.byte	0x0
 3450               	.LELTP0:
 3451 005d 00        		.byte	0x0
 3452 005e 05        		.uleb128 0x5
 3453 005f 02        		.byte	0x2
 3454 0060 0000 0000 		.long	.LM1
 3455 0064 7C        		.byte	0x7c
GAS LISTING C:\Users\alex\AppData\Local\Temp/ccinlLgc.s 			page 63


 3456 0065 00        		.byte	0x0
 3457 0066 05        		.uleb128 0x5
 3458 0067 02        		.byte	0x2
 3459 0068 0000 0000 		.long	.LM2
 3460 006c 15        		.byte	0x15
 3461 006d 00        		.byte	0x0
 3462 006e 05        		.uleb128 0x5
 3463 006f 02        		.byte	0x2
 3464 0070 0000 0000 		.long	.LM3
 3465 0074 15        		.byte	0x15
 3466 0075 00        		.byte	0x0
 3467 0076 05        		.uleb128 0x5
 3468 0077 02        		.byte	0x2
 3469 0078 0000 0000 		.long	.LM4
 3470 007c 15        		.byte	0x15
 3471 007d 00        		.byte	0x0
 3472 007e 05        		.uleb128 0x5
 3473 007f 02        		.byte	0x2
 3474 0080 0000 0000 		.long	.LM5
 3475 0084 15        		.byte	0x15
 3476 0085 00        		.byte	0x0
 3477 0086 05        		.uleb128 0x5
 3478 0087 02        		.byte	0x2
 3479 0088 0000 0000 		.long	.LM6
 3480 008c 21        		.byte	0x21
 3481 008d 00        		.byte	0x0
 3482 008e 05        		.uleb128 0x5
 3483 008f 02        		.byte	0x2
 3484 0090 0000 0000 		.long	.LM7
 3485 0094 17        		.byte	0x17
 3486 0095 00        		.byte	0x0
 3487 0096 05        		.uleb128 0x5
 3488 0097 02        		.byte	0x2
 3489 0098 0000 0000 		.long	.LM8
 3490 009c 15        		.byte	0x15
 3491 009d 00        		.byte	0x0
 3492 009e 05        		.uleb128 0x5
 3493 009f 02        		.byte	0x2
 3494 00a0 0000 0000 		.long	.LM9
 3495 00a4 16        		.byte	0x16
 3496 00a5 00        		.byte	0x0
 3497 00a6 05        		.uleb128 0x5
 3498 00a7 02        		.byte	0x2
 3499 00a8 0000 0000 		.long	.LM10
 3500 00ac 16        		.byte	0x16
 3501 00ad 00        		.byte	0x0
 3502 00ae 05        		.uleb128 0x5
 3503 00af 02        		.byte	0x2
 3504 00b0 0000 0000 		.long	.LM11
 3505 00b4 16        		.byte	0x16
 3506 00b5 00        		.byte	0x0
 3507 00b6 05        		.uleb128 0x5
 3508 00b7 02        		.byte	0x2
 3509 00b8 0000 0000 		.long	.LM12
 3510 00bc 15        		.byte	0x15
 3511 00bd 00        		.byte	0x0
 3512 00be 05        		.uleb128 0x5
GAS LISTING C:\Users\alex\AppData\Local\Temp/ccinlLgc.s 			page 64


 3513 00bf 02        		.byte	0x2
 3514 00c0 0000 0000 		.long	.LM13
 3515 00c4 15        		.byte	0x15
 3516 00c5 00        		.byte	0x0
 3517 00c6 05        		.uleb128 0x5
 3518 00c7 02        		.byte	0x2
 3519 00c8 0000 0000 		.long	.LM14
 3520 00cc 15        		.byte	0x15
 3521 00cd 00        		.byte	0x0
 3522 00ce 05        		.uleb128 0x5
 3523 00cf 02        		.byte	0x2
 3524 00d0 0000 0000 		.long	.LM15
 3525 00d4 16        		.byte	0x16
 3526 00d5 00        		.byte	0x0
 3527 00d6 05        		.uleb128 0x5
 3528 00d7 02        		.byte	0x2
 3529 00d8 0000 0000 		.long	.LM16
 3530 00dc 15        		.byte	0x15
 3531 00dd 00        		.byte	0x0
 3532 00de 05        		.uleb128 0x5
 3533 00df 02        		.byte	0x2
 3534 00e0 0000 0000 		.long	.LM17
 3535 00e4 15        		.byte	0x15
 3536 00e5 00        		.byte	0x0
 3537 00e6 05        		.uleb128 0x5
 3538 00e7 02        		.byte	0x2
 3539 00e8 0000 0000 		.long	.LM18
 3540 00ec 15        		.byte	0x15
 3541 00ed 00        		.byte	0x0
 3542 00ee 05        		.uleb128 0x5
 3543 00ef 02        		.byte	0x2
 3544 00f0 0000 0000 		.long	.LM19
 3545 00f4 15        		.byte	0x15
 3546 00f5 00        		.byte	0x0
 3547 00f6 05        		.uleb128 0x5
 3548 00f7 02        		.byte	0x2
 3549 00f8 0000 0000 		.long	.LM20
 3550 00fc 15        		.byte	0x15
 3551 00fd 00        		.byte	0x0
 3552 00fe 05        		.uleb128 0x5
 3553 00ff 02        		.byte	0x2
 3554 0100 0000 0000 		.long	.LM21
 3555 0104 15        		.byte	0x15
 3556 0105 00        		.byte	0x0
 3557 0106 05        		.uleb128 0x5
 3558 0107 02        		.byte	0x2
 3559 0108 0000 0000 		.long	.LM22
 3560 010c 15        		.byte	0x15
 3561 010d 00        		.byte	0x0
 3562 010e 05        		.uleb128 0x5
 3563 010f 02        		.byte	0x2
 3564 0110 0000 0000 		.long	.LM23
 3565 0114 15        		.byte	0x15
 3566 0115 00        		.byte	0x0
 3567 0116 05        		.uleb128 0x5
 3568 0117 02        		.byte	0x2
 3569 0118 0000 0000 		.long	.LM24
GAS LISTING C:\Users\alex\AppData\Local\Temp/ccinlLgc.s 			page 65


 3570 011c 17        		.byte	0x17
 3571 011d 00        		.byte	0x0
 3572 011e 05        		.uleb128 0x5
 3573 011f 02        		.byte	0x2
 3574 0120 0000 0000 		.long	.LM25
 3575 0124 15        		.byte	0x15
 3576 0125 00        		.byte	0x0
 3577 0126 05        		.uleb128 0x5
 3578 0127 02        		.byte	0x2
 3579 0128 0000 0000 		.long	.LM26
 3580 012c 15        		.byte	0x15
 3581 012d 00        		.byte	0x0
 3582 012e 05        		.uleb128 0x5
 3583 012f 02        		.byte	0x2
 3584 0130 0000 0000 		.long	.LM27
 3585 0134 15        		.byte	0x15
 3586 0135 00        		.byte	0x0
 3587 0136 05        		.uleb128 0x5
 3588 0137 02        		.byte	0x2
 3589 0138 0000 0000 		.long	.LM28
 3590 013c 15        		.byte	0x15
 3591 013d 00        		.byte	0x0
 3592 013e 05        		.uleb128 0x5
 3593 013f 02        		.byte	0x2
 3594 0140 0000 0000 		.long	.LM29
 3595 0144 15        		.byte	0x15
 3596 0145 00        		.byte	0x0
 3597 0146 05        		.uleb128 0x5
 3598 0147 02        		.byte	0x2
 3599 0148 0000 0000 		.long	.LM30
 3600 014c 15        		.byte	0x15
 3601 014d 00        		.byte	0x0
 3602 014e 05        		.uleb128 0x5
 3603 014f 02        		.byte	0x2
 3604 0150 0000 0000 		.long	.LM31
 3605 0154 15        		.byte	0x15
 3606 0155 00        		.byte	0x0
 3607 0156 05        		.uleb128 0x5
 3608 0157 02        		.byte	0x2
 3609 0158 0000 0000 		.long	.LM32
 3610 015c 15        		.byte	0x15
 3611 015d 00        		.byte	0x0
 3612 015e 05        		.uleb128 0x5
 3613 015f 02        		.byte	0x2
 3614 0160 0000 0000 		.long	.LM33
 3615 0164 17        		.byte	0x17
 3616 0165 00        		.byte	0x0
 3617 0166 05        		.uleb128 0x5
 3618 0167 02        		.byte	0x2
 3619 0168 0000 0000 		.long	.LM34
 3620 016c 15        		.byte	0x15
 3621 016d 00        		.byte	0x0
 3622 016e 05        		.uleb128 0x5
 3623 016f 02        		.byte	0x2
 3624 0170 0000 0000 		.long	.LM35
 3625 0174 15        		.byte	0x15
 3626 0175 00        		.byte	0x0
GAS LISTING C:\Users\alex\AppData\Local\Temp/ccinlLgc.s 			page 66


 3627 0176 05        		.uleb128 0x5
 3628 0177 02        		.byte	0x2
 3629 0178 0000 0000 		.long	.LM36
 3630 017c 15        		.byte	0x15
 3631 017d 00        		.byte	0x0
 3632 017e 05        		.uleb128 0x5
 3633 017f 02        		.byte	0x2
 3634 0180 0000 0000 		.long	.LM37
 3635 0184 15        		.byte	0x15
 3636 0185 00        		.byte	0x0
 3637 0186 05        		.uleb128 0x5
 3638 0187 02        		.byte	0x2
 3639 0188 0000 0000 		.long	.LM38
 3640 018c 1F        		.byte	0x1f
 3641 018d 00        		.byte	0x0
 3642 018e 05        		.uleb128 0x5
 3643 018f 02        		.byte	0x2
 3644 0190 0000 0000 		.long	.LM39
 3645 0194 17        		.byte	0x17
 3646 0195 00        		.byte	0x0
 3647 0196 05        		.uleb128 0x5
 3648 0197 02        		.byte	0x2
 3649 0198 0000 0000 		.long	.LM40
 3650 019c 15        		.byte	0x15
 3651 019d 00        		.byte	0x0
 3652 019e 05        		.uleb128 0x5
 3653 019f 02        		.byte	0x2
 3654 01a0 0000 0000 		.long	.LM41
 3655 01a4 16        		.byte	0x16
 3656 01a5 00        		.byte	0x0
 3657 01a6 05        		.uleb128 0x5
 3658 01a7 02        		.byte	0x2
 3659 01a8 0000 0000 		.long	.LM42
 3660 01ac 15        		.byte	0x15
 3661 01ad 00        		.byte	0x0
 3662 01ae 05        		.uleb128 0x5
 3663 01af 02        		.byte	0x2
 3664 01b0 0000 0000 		.long	.LM43
 3665 01b4 17        		.byte	0x17
 3666 01b5 00        		.byte	0x0
 3667 01b6 05        		.uleb128 0x5
 3668 01b7 02        		.byte	0x2
 3669 01b8 0000 0000 		.long	.LM44
 3670 01bc 15        		.byte	0x15
 3671 01bd 00        		.byte	0x0
 3672 01be 05        		.uleb128 0x5
 3673 01bf 02        		.byte	0x2
 3674 01c0 0000 0000 		.long	.LM45
 3675 01c4 15        		.byte	0x15
 3676 01c5 00        		.byte	0x0
 3677 01c6 05        		.uleb128 0x5
 3678 01c7 02        		.byte	0x2
 3679 01c8 0000 0000 		.long	.LM46
 3680 01cc 15        		.byte	0x15
 3681 01cd 00        		.byte	0x0
 3682 01ce 05        		.uleb128 0x5
 3683 01cf 02        		.byte	0x2
GAS LISTING C:\Users\alex\AppData\Local\Temp/ccinlLgc.s 			page 67


 3684 01d0 0000 0000 		.long	.LM47
 3685 01d4 17        		.byte	0x17
 3686 01d5 00        		.byte	0x0
 3687 01d6 05        		.uleb128 0x5
 3688 01d7 02        		.byte	0x2
 3689 01d8 0000 0000 		.long	.LM48
 3690 01dc 15        		.byte	0x15
 3691 01dd 00        		.byte	0x0
 3692 01de 05        		.uleb128 0x5
 3693 01df 02        		.byte	0x2
 3694 01e0 0000 0000 		.long	.LM49
 3695 01e4 15        		.byte	0x15
 3696 01e5 00        		.byte	0x0
 3697 01e6 05        		.uleb128 0x5
 3698 01e7 02        		.byte	0x2
 3699 01e8 0000 0000 		.long	.LM50
 3700 01ec 15        		.byte	0x15
 3701 01ed 00        		.byte	0x0
 3702 01ee 05        		.uleb128 0x5
 3703 01ef 02        		.byte	0x2
 3704 01f0 0000 0000 		.long	.LM51
 3705 01f4 15        		.byte	0x15
 3706 01f5 00        		.byte	0x0
 3707 01f6 05        		.uleb128 0x5
 3708 01f7 02        		.byte	0x2
 3709 01f8 0000 0000 		.long	.LM52
 3710 01fc 15        		.byte	0x15
 3711 01fd 00        		.byte	0x0
 3712 01fe 05        		.uleb128 0x5
 3713 01ff 02        		.byte	0x2
 3714 0200 0000 0000 		.long	.LM53
 3715 0204 15        		.byte	0x15
 3716 0205 00        		.byte	0x0
 3717 0206 05        		.uleb128 0x5
 3718 0207 02        		.byte	0x2
 3719 0208 0000 0000 		.long	.LM54
 3720 020c 16        		.byte	0x16
 3721 020d 00        		.byte	0x0
 3722 020e 05        		.uleb128 0x5
 3723 020f 02        		.byte	0x2
 3724 0210 0000 0000 		.long	.LM55
 3725 0214 15        		.byte	0x15
 3726 0215 00        		.byte	0x0
 3727 0216 05        		.uleb128 0x5
 3728 0217 02        		.byte	0x2
 3729 0218 0000 0000 		.long	.LM56
 3730 021c 17        		.byte	0x17
 3731 021d 00        		.byte	0x0
 3732 021e 05        		.uleb128 0x5
 3733 021f 02        		.byte	0x2
 3734 0220 0000 0000 		.long	.LM57
 3735 0224 15        		.byte	0x15
 3736 0225 00        		.byte	0x0
 3737 0226 05        		.uleb128 0x5
 3738 0227 02        		.byte	0x2
 3739 0228 0000 0000 		.long	.LM58
 3740 022c 15        		.byte	0x15
GAS LISTING C:\Users\alex\AppData\Local\Temp/ccinlLgc.s 			page 68


 3741 022d 00        		.byte	0x0
 3742 022e 05        		.uleb128 0x5
 3743 022f 02        		.byte	0x2
 3744 0230 0000 0000 		.long	.LM59
 3745 0234 15        		.byte	0x15
 3746 0235 00        		.byte	0x0
 3747 0236 05        		.uleb128 0x5
 3748 0237 02        		.byte	0x2
 3749 0238 0000 0000 		.long	.LM60
 3750 023c 15        		.byte	0x15
 3751 023d 00        		.byte	0x0
 3752 023e 05        		.uleb128 0x5
 3753 023f 02        		.byte	0x2
 3754 0240 0000 0000 		.long	.LM61
 3755 0244 15        		.byte	0x15
 3756 0245 00        		.byte	0x0
 3757 0246 05        		.uleb128 0x5
 3758 0247 02        		.byte	0x2
 3759 0248 0000 0000 		.long	.LM62
 3760 024c 15        		.byte	0x15
 3761 024d 00        		.byte	0x0
 3762 024e 05        		.uleb128 0x5
 3763 024f 02        		.byte	0x2
 3764 0250 0000 0000 		.long	.LM63
 3765 0254 16        		.byte	0x16
 3766 0255 00        		.byte	0x0
 3767 0256 05        		.uleb128 0x5
 3768 0257 02        		.byte	0x2
 3769 0258 0000 0000 		.long	.LM64
 3770 025c 15        		.byte	0x15
 3771 025d 00        		.byte	0x0
 3772 025e 05        		.uleb128 0x5
 3773 025f 02        		.byte	0x2
 3774 0260 0000 0000 		.long	.LM65
 3775 0264 1C        		.byte	0x1c
 3776 0265 00        		.byte	0x0
 3777 0266 05        		.uleb128 0x5
 3778 0267 02        		.byte	0x2
 3779 0268 0000 0000 		.long	.LM66
 3780 026c 18        		.byte	0x18
 3781 026d 00        		.byte	0x0
 3782 026e 05        		.uleb128 0x5
 3783 026f 02        		.byte	0x2
 3784 0270 0000 0000 		.long	.LM67
 3785 0274 17        		.byte	0x17
 3786 0275 00        		.byte	0x0
 3787 0276 05        		.uleb128 0x5
 3788 0277 02        		.byte	0x2
 3789 0278 0000 0000 		.long	.LM68
 3790 027c 17        		.byte	0x17
 3791 027d 00        		.byte	0x0
 3792 027e 05        		.uleb128 0x5
 3793 027f 02        		.byte	0x2
 3794 0280 0000 0000 		.long	.LM69
 3795 0284 16        		.byte	0x16
 3796 0285 00        		.byte	0x0
 3797 0286 05        		.uleb128 0x5
GAS LISTING C:\Users\alex\AppData\Local\Temp/ccinlLgc.s 			page 69


 3798 0287 02        		.byte	0x2
 3799 0288 0000 0000 		.long	.LM70
 3800 028c 03        		.byte	0x3
 3801 028d EB7E      		.sleb128 -149
 3802 028f 01        		.byte	0x1
 3803 0290 00        		.byte	0x0
 3804 0291 05        		.uleb128 0x5
 3805 0292 02        		.byte	0x2
 3806 0293 0000 0000 		.long	.LM71
 3807 0297 15        		.byte	0x15
 3808 0298 00        		.byte	0x0
 3809 0299 05        		.uleb128 0x5
 3810 029a 02        		.byte	0x2
 3811 029b 0000 0000 		.long	.LM72
 3812 029f 15        		.byte	0x15
 3813 02a0 00        		.byte	0x0
 3814 02a1 05        		.uleb128 0x5
 3815 02a2 02        		.byte	0x2
 3816 02a3 0000 0000 		.long	.LM73
 3817 02a7 16        		.byte	0x16
 3818 02a8 00        		.byte	0x0
 3819 02a9 05        		.uleb128 0x5
 3820 02aa 02        		.byte	0x2
 3821 02ab 0000 0000 		.long	.LM74
 3822 02af 1A        		.byte	0x1a
 3823 02b0 00        		.byte	0x0
 3824 02b1 05        		.uleb128 0x5
 3825 02b2 02        		.byte	0x2
 3826 02b3 0000 0000 		.long	.LM75
 3827 02b7 DC        		.byte	0xdc
 3828 02b8 00        		.byte	0x0
 3829 02b9 05        		.uleb128 0x5
 3830 02ba 02        		.byte	0x2
 3831 02bb 0000 0000 		.long	.LM76
 3832 02bf 15        		.byte	0x15
 3833 02c0 00        		.byte	0x0
 3834 02c1 05        		.uleb128 0x5
 3835 02c2 02        		.byte	0x2
 3836 02c3 0000 0000 		.long	.LM77
 3837 02c7 15        		.byte	0x15
 3838 02c8 00        		.byte	0x0
 3839 02c9 05        		.uleb128 0x5
 3840 02ca 02        		.byte	0x2
 3841 02cb 0000 0000 		.long	.LM78
 3842 02cf 18        		.byte	0x18
 3843 02d0 00        		.byte	0x0
 3844 02d1 05        		.uleb128 0x5
 3845 02d2 02        		.byte	0x2
 3846 02d3 0000 0000 		.long	.LM79
 3847 02d7 15        		.byte	0x15
 3848 02d8 00        		.byte	0x0
 3849 02d9 05        		.uleb128 0x5
 3850 02da 02        		.byte	0x2
 3851 02db 0000 0000 		.long	.LM80
 3852 02df 15        		.byte	0x15
 3853 02e0 00        		.byte	0x0
 3854 02e1 05        		.uleb128 0x5
GAS LISTING C:\Users\alex\AppData\Local\Temp/ccinlLgc.s 			page 70


 3855 02e2 02        		.byte	0x2
 3856 02e3 0000 0000 		.long	.LM81
 3857 02e7 1D        		.byte	0x1d
 3858 02e8 00        		.byte	0x0
 3859 02e9 05        		.uleb128 0x5
 3860 02ea 02        		.byte	0x2
 3861 02eb 0000 0000 		.long	.LM82
 3862 02ef 15        		.byte	0x15
 3863 02f0 00        		.byte	0x0
 3864 02f1 05        		.uleb128 0x5
 3865 02f2 02        		.byte	0x2
 3866 02f3 0000 0000 		.long	.LM83
 3867 02f7 15        		.byte	0x15
 3868 02f8 00        		.byte	0x0
 3869 02f9 05        		.uleb128 0x5
 3870 02fa 02        		.byte	0x2
 3871 02fb 0000 0000 		.long	.LM84
 3872 02ff 15        		.byte	0x15
 3873 0300 00        		.byte	0x0
 3874 0301 05        		.uleb128 0x5
 3875 0302 02        		.byte	0x2
 3876 0303 0000 0000 		.long	.LM85
 3877 0307 1D        		.byte	0x1d
 3878 0308 00        		.byte	0x0
 3879 0309 05        		.uleb128 0x5
 3880 030a 02        		.byte	0x2
 3881 030b 0000 0000 		.long	.LM86
 3882 030f 15        		.byte	0x15
 3883 0310 00        		.byte	0x0
 3884 0311 05        		.uleb128 0x5
 3885 0312 02        		.byte	0x2
 3886 0313 0000 0000 		.long	.LM87
 3887 0317 15        		.byte	0x15
 3888 0318 00        		.byte	0x0
 3889 0319 05        		.uleb128 0x5
 3890 031a 02        		.byte	0x2
 3891 031b 0000 0000 		.long	.LM88
 3892 031f 15        		.byte	0x15
 3893 0320 00        		.byte	0x0
 3894 0321 05        		.uleb128 0x5
 3895 0322 02        		.byte	0x2
 3896 0323 0000 0000 		.long	.LM89
 3897 0327 1F        		.byte	0x1f
 3898 0328 00        		.byte	0x0
 3899 0329 05        		.uleb128 0x5
 3900 032a 02        		.byte	0x2
 3901 032b 0000 0000 		.long	.LM90
 3902 032f 1F        		.byte	0x1f
 3903 0330 00        		.byte	0x0
 3904 0331 05        		.uleb128 0x5
 3905 0332 02        		.byte	0x2
 3906 0333 0000 0000 		.long	.LM91
 3907 0337 15        		.byte	0x15
 3908 0338 00        		.byte	0x0
 3909 0339 05        		.uleb128 0x5
 3910 033a 02        		.byte	0x2
 3911 033b 0000 0000 		.long	.LM92
GAS LISTING C:\Users\alex\AppData\Local\Temp/ccinlLgc.s 			page 71


 3912 033f 15        		.byte	0x15
 3913 0340 00        		.byte	0x0
 3914 0341 05        		.uleb128 0x5
 3915 0342 02        		.byte	0x2
 3916 0343 0000 0000 		.long	.LM93
 3917 0347 15        		.byte	0x15
 3918 0348 00        		.byte	0x0
 3919 0349 05        		.uleb128 0x5
 3920 034a 02        		.byte	0x2
 3921 034b 0000 0000 		.long	.LM94
 3922 034f 15        		.byte	0x15
 3923 0350 00        		.byte	0x0
 3924 0351 05        		.uleb128 0x5
 3925 0352 02        		.byte	0x2
 3926 0353 0000 0000 		.long	.LM95
 3927 0357 15        		.byte	0x15
 3928 0358 00        		.byte	0x0
 3929 0359 05        		.uleb128 0x5
 3930 035a 02        		.byte	0x2
 3931 035b 0000 0000 		.long	.LM96
 3932 035f 16        		.byte	0x16
 3933 0360 00        		.byte	0x0
 3934 0361 05        		.uleb128 0x5
 3935 0362 02        		.byte	0x2
 3936 0363 0000 0000 		.long	.LM97
 3937 0367 17        		.byte	0x17
 3938 0368 00        		.byte	0x0
 3939 0369 05        		.uleb128 0x5
 3940 036a 02        		.byte	0x2
 3941 036b 0000 0000 		.long	.LM98
 3942 036f 1A        		.byte	0x1a
 3943 0370 00        		.byte	0x0
 3944 0371 05        		.uleb128 0x5
 3945 0372 02        		.byte	0x2
 3946 0373 0000 0000 		.long	.LM99
 3947 0377 15        		.byte	0x15
 3948 0378 00        		.byte	0x0
 3949 0379 05        		.uleb128 0x5
 3950 037a 02        		.byte	0x2
 3951 037b 0000 0000 		.long	.LM100
 3952 037f 15        		.byte	0x15
 3953 0380 00        		.byte	0x0
 3954 0381 05        		.uleb128 0x5
 3955 0382 02        		.byte	0x2
 3956 0383 0000 0000 		.long	.LM101
 3957 0387 1B        		.byte	0x1b
 3958 0388 00        		.byte	0x0
 3959 0389 05        		.uleb128 0x5
 3960 038a 02        		.byte	0x2
 3961 038b 0000 0000 		.long	.LM102
 3962 038f 15        		.byte	0x15
 3963 0390 00        		.byte	0x0
 3964 0391 05        		.uleb128 0x5
 3965 0392 02        		.byte	0x2
 3966 0393 0000 0000 		.long	.LM103
 3967 0397 15        		.byte	0x15
 3968 0398 00        		.byte	0x0
GAS LISTING C:\Users\alex\AppData\Local\Temp/ccinlLgc.s 			page 72


 3969 0399 05        		.uleb128 0x5
 3970 039a 02        		.byte	0x2
 3971 039b 0000 0000 		.long	.LM104
 3972 039f 1B        		.byte	0x1b
 3973 03a0 00        		.byte	0x0
 3974 03a1 05        		.uleb128 0x5
 3975 03a2 02        		.byte	0x2
 3976 03a3 0000 0000 		.long	.LM105
 3977 03a7 15        		.byte	0x15
 3978 03a8 00        		.byte	0x0
 3979 03a9 05        		.uleb128 0x5
 3980 03aa 02        		.byte	0x2
 3981 03ab 0000 0000 		.long	.LM106
 3982 03af 15        		.byte	0x15
 3983 03b0 00        		.byte	0x0
 3984 03b1 05        		.uleb128 0x5
 3985 03b2 02        		.byte	0x2
 3986 03b3 0000 0000 		.long	.LM107
 3987 03b7 1D        		.byte	0x1d
 3988 03b8 00        		.byte	0x0
 3989 03b9 05        		.uleb128 0x5
 3990 03ba 02        		.byte	0x2
 3991 03bb 0000 0000 		.long	.LM108
 3992 03bf 18        		.byte	0x18
 3993 03c0 00        		.byte	0x0
 3994 03c1 05        		.uleb128 0x5
 3995 03c2 02        		.byte	0x2
 3996 03c3 0000 0000 		.long	.LM109
 3997 03c7 15        		.byte	0x15
 3998 03c8 00        		.byte	0x0
 3999 03c9 05        		.uleb128 0x5
 4000 03ca 02        		.byte	0x2
 4001 03cb 0000 0000 		.long	.LM110
 4002 03cf 16        		.byte	0x16
 4003 03d0 00        		.byte	0x0
 4004 03d1 05        		.uleb128 0x5
 4005 03d2 02        		.byte	0x2
 4006 03d3 0000 0000 		.long	.LM111
 4007 03d7 30        		.byte	0x30
 4008 03d8 00        		.byte	0x0
 4009 03d9 05        		.uleb128 0x5
 4010 03da 02        		.byte	0x2
 4011 03db 0000 0000 		.long	.LM112
 4012 03df 17        		.byte	0x17
 4013 03e0 00        		.byte	0x0
 4014 03e1 05        		.uleb128 0x5
 4015 03e2 02        		.byte	0x2
 4016 03e3 0000 0000 		.long	.LM113
 4017 03e7 03        		.byte	0x3
 4018 03e8 C27E      		.sleb128 -190
 4019 03ea 01        		.byte	0x1
 4020 03eb 00        		.byte	0x0
 4021 03ec 05        		.uleb128 0x5
 4022 03ed 02        		.byte	0x2
 4023 03ee 0000 0000 		.long	.LM114
 4024 03f2 2B        		.byte	0x2b
 4025 03f3 00        		.byte	0x0
GAS LISTING C:\Users\alex\AppData\Local\Temp/ccinlLgc.s 			page 73


 4026 03f4 05        		.uleb128 0x5
 4027 03f5 02        		.byte	0x2
 4028 03f6 0000 0000 		.long	.LM115
 4029 03fa 15        		.byte	0x15
 4030 03fb 00        		.byte	0x0
 4031 03fc 05        		.uleb128 0x5
 4032 03fd 02        		.byte	0x2
 4033 03fe 0000 0000 		.long	.LM116
 4034 0402 15        		.byte	0x15
 4035 0403 00        		.byte	0x0
 4036 0404 05        		.uleb128 0x5
 4037 0405 02        		.byte	0x2
 4038 0406 0000 0000 		.long	.LM117
 4039 040a 15        		.byte	0x15
 4040 040b 00        		.byte	0x0
 4041 040c 05        		.uleb128 0x5
 4042 040d 02        		.byte	0x2
 4043 040e 0000 0000 		.long	.LM118
 4044 0412 15        		.byte	0x15
 4045 0413 00        		.byte	0x0
 4046 0414 05        		.uleb128 0x5
 4047 0415 02        		.byte	0x2
 4048 0416 0000 0000 		.long	.LM119
 4049 041a 15        		.byte	0x15
 4050 041b 00        		.byte	0x0
 4051 041c 05        		.uleb128 0x5
 4052 041d 02        		.byte	0x2
 4053 041e 0000 0000 		.long	.LM120
 4054 0422 16        		.byte	0x16
 4055 0423 00        		.byte	0x0
 4056 0424 05        		.uleb128 0x5
 4057 0425 02        		.byte	0x2
 4058 0426 0000 0000 		.long	.LM121
 4059 042a 17        		.byte	0x17
 4060 042b 00        		.byte	0x0
 4061 042c 05        		.uleb128 0x5
 4062 042d 02        		.byte	0x2
 4063 042e 0000 0000 		.long	.LM122
 4064 0432 16        		.byte	0x16
 4065 0433 00        		.byte	0x0
 4066 0434 05        		.uleb128 0x5
 4067 0435 02        		.byte	0x2
 4068 0436 0000 0000 		.long	.LM123
 4069 043a B9        		.byte	0xb9
 4070 043b 00        		.byte	0x0
 4071 043c 05        		.uleb128 0x5
 4072 043d 02        		.byte	0x2
 4073 043e 0000 0000 		.long	.LM124
 4074 0442 18        		.byte	0x18
 4075 0443 00        		.byte	0x0
 4076 0444 05        		.uleb128 0x5
 4077 0445 02        		.byte	0x2
 4078 0446 0000 0000 		.long	.LM125
 4079 044a 13        		.byte	0x13
 4080 044b 00        		.byte	0x0
 4081 044c 05        		.uleb128 0x5
 4082 044d 02        		.byte	0x2
GAS LISTING C:\Users\alex\AppData\Local\Temp/ccinlLgc.s 			page 74


 4083 044e 0000 0000 		.long	.LM126
 4084 0452 18        		.byte	0x18
 4085 0453 00        		.byte	0x0
 4086 0454 05        		.uleb128 0x5
 4087 0455 02        		.byte	0x2
 4088 0456 0000 0000 		.long	.LM127
 4089 045a 1E        		.byte	0x1e
 4090 045b 00        		.byte	0x0
 4091 045c 05        		.uleb128 0x5
 4092 045d 02        		.byte	0x2
 4093 045e 0000 0000 		.long	.LM128
 4094 0462 18        		.byte	0x18
 4095 0463 00        		.byte	0x0
 4096 0464 05        		.uleb128 0x5
 4097 0465 02        		.byte	0x2
 4098 0466 0000 0000 		.long	.LM129
 4099 046a 13        		.byte	0x13
 4100 046b 00        		.byte	0x0
 4101 046c 05        		.uleb128 0x5
 4102 046d 02        		.byte	0x2
 4103 046e 0000 0000 		.long	.LM130
 4104 0472 18        		.byte	0x18
 4105 0473 00        		.byte	0x0
 4106 0474 05        		.uleb128 0x5
 4107 0475 02        		.byte	0x2
 4108 0476 0000 0000 		.long	.LM131
 4109 047a 24        		.byte	0x24
 4110 047b 00        		.byte	0x0
 4111 047c 05        		.uleb128 0x5
 4112 047d 02        		.byte	0x2
 4113 047e 0000 0000 		.long	.LM132
 4114 0482 16        		.byte	0x16
 4115 0483 00        		.byte	0x0
 4116 0484 05        		.uleb128 0x5
 4117 0485 02        		.byte	0x2
 4118 0486 0000 0000 		.long	.LM133
 4119 048a 15        		.byte	0x15
 4120 048b 00        		.byte	0x0
 4121 048c 05        		.uleb128 0x5
 4122 048d 02        		.byte	0x2
 4123 048e 0000 0000 		.long	.LM134
 4124 0492 15        		.byte	0x15
 4125 0493 00        		.byte	0x0
 4126 0494 05        		.uleb128 0x5
 4127 0495 02        		.byte	0x2
 4128 0496 0000 0000 		.long	.LM135
 4129 049a 15        		.byte	0x15
 4130 049b 00        		.byte	0x0
 4131 049c 05        		.uleb128 0x5
 4132 049d 02        		.byte	0x2
 4133 049e 0000 0000 		.long	.LM136
 4134 04a2 15        		.byte	0x15
 4135 04a3 00        		.byte	0x0
 4136 04a4 05        		.uleb128 0x5
 4137 04a5 02        		.byte	0x2
 4138 04a6 0000 0000 		.long	.LM137
 4139 04aa 15        		.byte	0x15
GAS LISTING C:\Users\alex\AppData\Local\Temp/ccinlLgc.s 			page 75


 4140 04ab 00        		.byte	0x0
 4141 04ac 05        		.uleb128 0x5
 4142 04ad 02        		.byte	0x2
 4143 04ae 0000 0000 		.long	.LM138
 4144 04b2 15        		.byte	0x15
 4145 04b3 00        		.byte	0x0
 4146 04b4 05        		.uleb128 0x5
 4147 04b5 02        		.byte	0x2
 4148 04b6 0000 0000 		.long	.LM139
 4149 04ba 15        		.byte	0x15
 4150 04bb 00        		.byte	0x0
 4151 04bc 05        		.uleb128 0x5
 4152 04bd 02        		.byte	0x2
 4153 04be 0000 0000 		.long	.LM140
 4154 04c2 16        		.byte	0x16
 4155 04c3 00        		.byte	0x0
 4156 04c4 05        		.uleb128 0x5
 4157 04c5 02        		.byte	0x2
 4158 04c6 0000 0000 		.long	.LM141
 4159 04ca 15        		.byte	0x15
 4160 04cb 00        		.byte	0x0
 4161 04cc 05        		.uleb128 0x5
 4162 04cd 02        		.byte	0x2
 4163 04ce 0000 0000 		.long	.LM142
 4164 04d2 15        		.byte	0x15
 4165 04d3 00        		.byte	0x0
 4166 04d4 05        		.uleb128 0x5
 4167 04d5 02        		.byte	0x2
 4168 04d6 0000 0000 		.long	.LM143
 4169 04da 15        		.byte	0x15
 4170 04db 00        		.byte	0x0
 4171 04dc 05        		.uleb128 0x5
 4172 04dd 02        		.byte	0x2
 4173 04de 0000 0000 		.long	.LM144
 4174 04e2 15        		.byte	0x15
 4175 04e3 00        		.byte	0x0
 4176 04e4 05        		.uleb128 0x5
 4177 04e5 02        		.byte	0x2
 4178 04e6 0000 0000 		.long	.LM145
 4179 04ea 16        		.byte	0x16
 4180 04eb 00        		.byte	0x0
 4181 04ec 05        		.uleb128 0x5
 4182 04ed 02        		.byte	0x2
 4183 04ee 0000 0000 		.long	.LM146
 4184 04f2 15        		.byte	0x15
 4185 04f3 00        		.byte	0x0
 4186 04f4 05        		.uleb128 0x5
 4187 04f5 02        		.byte	0x2
 4188 04f6 0000 0000 		.long	.LM147
 4189 04fa 15        		.byte	0x15
 4190 04fb 00        		.byte	0x0
 4191 04fc 05        		.uleb128 0x5
 4192 04fd 02        		.byte	0x2
 4193 04fe 0000 0000 		.long	.LM148
 4194 0502 15        		.byte	0x15
 4195 0503 00        		.byte	0x0
 4196 0504 05        		.uleb128 0x5
GAS LISTING C:\Users\alex\AppData\Local\Temp/ccinlLgc.s 			page 76


 4197 0505 02        		.byte	0x2
 4198 0506 0000 0000 		.long	.LM149
 4199 050a 15        		.byte	0x15
 4200 050b 00        		.byte	0x0
 4201 050c 05        		.uleb128 0x5
 4202 050d 02        		.byte	0x2
 4203 050e 0000 0000 		.long	.LM150
 4204 0512 16        		.byte	0x16
 4205 0513 00        		.byte	0x0
 4206 0514 05        		.uleb128 0x5
 4207 0515 02        		.byte	0x2
 4208 0516 0000 0000 		.long	.LM151
 4209 051a 15        		.byte	0x15
 4210 051b 00        		.byte	0x0
 4211 051c 05        		.uleb128 0x5
 4212 051d 02        		.byte	0x2
 4213 051e 0000 0000 		.long	.LM152
 4214 0522 15        		.byte	0x15
 4215 0523 00        		.byte	0x0
 4216 0524 05        		.uleb128 0x5
 4217 0525 02        		.byte	0x2
 4218 0526 0000 0000 		.long	.LM153
 4219 052a 15        		.byte	0x15
 4220 052b 00        		.byte	0x0
 4221 052c 05        		.uleb128 0x5
 4222 052d 02        		.byte	0x2
 4223 052e 0000 0000 		.long	.LM154
 4224 0532 15        		.byte	0x15
 4225 0533 00        		.byte	0x0
 4226 0534 05        		.uleb128 0x5
 4227 0535 02        		.byte	0x2
 4228 0536 0000 0000 		.long	.LM155
 4229 053a 16        		.byte	0x16
 4230 053b 00        		.byte	0x0
 4231 053c 05        		.uleb128 0x5
 4232 053d 02        		.byte	0x2
 4233 053e 0000 0000 		.long	.LM156
 4234 0542 15        		.byte	0x15
 4235 0543 00        		.byte	0x0
 4236 0544 05        		.uleb128 0x5
 4237 0545 02        		.byte	0x2
 4238 0546 0000 0000 		.long	.LM157
 4239 054a 15        		.byte	0x15
 4240 054b 00        		.byte	0x0
 4241 054c 05        		.uleb128 0x5
 4242 054d 02        		.byte	0x2
 4243 054e 0000 0000 		.long	.LM158
 4244 0552 15        		.byte	0x15
 4245 0553 00        		.byte	0x0
 4246 0554 05        		.uleb128 0x5
 4247 0555 02        		.byte	0x2
 4248 0556 0000 0000 		.long	.LM159
 4249 055a 15        		.byte	0x15
 4250 055b 00        		.byte	0x0
 4251 055c 05        		.uleb128 0x5
 4252 055d 02        		.byte	0x2
 4253 055e 0000 0000 		.long	.LM160
GAS LISTING C:\Users\alex\AppData\Local\Temp/ccinlLgc.s 			page 77


 4254 0562 16        		.byte	0x16
 4255 0563 00        		.byte	0x0
 4256 0564 05        		.uleb128 0x5
 4257 0565 02        		.byte	0x2
 4258 0566 0000 0000 		.long	.LM161
 4259 056a 15        		.byte	0x15
 4260 056b 00        		.byte	0x0
 4261 056c 05        		.uleb128 0x5
 4262 056d 02        		.byte	0x2
 4263 056e 0000 0000 		.long	.LM162
 4264 0572 15        		.byte	0x15
 4265 0573 00        		.byte	0x0
 4266 0574 05        		.uleb128 0x5
 4267 0575 02        		.byte	0x2
 4268 0576 0000 0000 		.long	.LM163
 4269 057a 15        		.byte	0x15
 4270 057b 00        		.byte	0x0
 4271 057c 05        		.uleb128 0x5
 4272 057d 02        		.byte	0x2
 4273 057e 0000 0000 		.long	.LM164
 4274 0582 15        		.byte	0x15
 4275 0583 00        		.byte	0x0
 4276 0584 05        		.uleb128 0x5
 4277 0585 02        		.byte	0x2
 4278 0586 0000 0000 		.long	.LM165
 4279 058a 16        		.byte	0x16
 4280 058b 00        		.byte	0x0
 4281 058c 05        		.uleb128 0x5
 4282 058d 02        		.byte	0x2
 4283 058e 0000 0000 		.long	.LM166
 4284 0592 15        		.byte	0x15
 4285 0593 00        		.byte	0x0
 4286 0594 05        		.uleb128 0x5
 4287 0595 02        		.byte	0x2
 4288 0596 0000 0000 		.long	.LM167
 4289 059a 15        		.byte	0x15
 4290 059b 00        		.byte	0x0
 4291 059c 05        		.uleb128 0x5
 4292 059d 02        		.byte	0x2
 4293 059e 0000 0000 		.long	.LM168
 4294 05a2 15        		.byte	0x15
 4295 05a3 00        		.byte	0x0
 4296 05a4 05        		.uleb128 0x5
 4297 05a5 02        		.byte	0x2
 4298 05a6 0000 0000 		.long	.LM169
 4299 05aa 15        		.byte	0x15
 4300 05ab 00        		.byte	0x0
 4301 05ac 05        		.uleb128 0x5
 4302 05ad 02        		.byte	0x2
 4303 05ae 0000 0000 		.long	.LM170
 4304 05b2 16        		.byte	0x16
 4305 05b3 00        		.byte	0x0
 4306 05b4 05        		.uleb128 0x5
 4307 05b5 02        		.byte	0x2
 4308 05b6 0000 0000 		.long	.LM171
 4309 05ba 15        		.byte	0x15
 4310 05bb 00        		.byte	0x0
GAS LISTING C:\Users\alex\AppData\Local\Temp/ccinlLgc.s 			page 78


 4311 05bc 05        		.uleb128 0x5
 4312 05bd 02        		.byte	0x2
 4313 05be 0000 0000 		.long	.LM172
 4314 05c2 15        		.byte	0x15
 4315 05c3 00        		.byte	0x0
 4316 05c4 05        		.uleb128 0x5
 4317 05c5 02        		.byte	0x2
 4318 05c6 0000 0000 		.long	.LM173
 4319 05ca 15        		.byte	0x15
 4320 05cb 00        		.byte	0x0
 4321 05cc 05        		.uleb128 0x5
 4322 05cd 02        		.byte	0x2
 4323 05ce 0000 0000 		.long	.LM174
 4324 05d2 15        		.byte	0x15
 4325 05d3 00        		.byte	0x0
 4326 05d4 05        		.uleb128 0x5
 4327 05d5 02        		.byte	0x2
 4328 05d6 0000 0000 		.long	.LM175
 4329 05da 16        		.byte	0x16
 4330 05db 00        		.byte	0x0
 4331 05dc 05        		.uleb128 0x5
 4332 05dd 02        		.byte	0x2
 4333 05de 0000 0000 		.long	.LM176
 4334 05e2 15        		.byte	0x15
 4335 05e3 00        		.byte	0x0
 4336 05e4 05        		.uleb128 0x5
 4337 05e5 02        		.byte	0x2
 4338 05e6 0000 0000 		.long	.LM177
 4339 05ea 15        		.byte	0x15
 4340 05eb 00        		.byte	0x0
 4341 05ec 05        		.uleb128 0x5
 4342 05ed 02        		.byte	0x2
 4343 05ee 0000 0000 		.long	.LM178
 4344 05f2 15        		.byte	0x15
 4345 05f3 00        		.byte	0x0
 4346 05f4 05        		.uleb128 0x5
 4347 05f5 02        		.byte	0x2
 4348 05f6 0000 0000 		.long	.LM179
 4349 05fa 15        		.byte	0x15
 4350 05fb 00        		.byte	0x0
 4351 05fc 05        		.uleb128 0x5
 4352 05fd 02        		.byte	0x2
 4353 05fe 0000 0000 		.long	.LM180
 4354 0602 19        		.byte	0x19
 4355 0603 00        		.byte	0x0
 4356 0604 05        		.uleb128 0x5
 4357 0605 02        		.byte	0x2
 4358 0606 0000 0000 		.long	.LM181
 4359 060a 15        		.byte	0x15
 4360 060b 00        		.byte	0x0
 4361 060c 05        		.uleb128 0x5
 4362 060d 02        		.byte	0x2
 4363 060e 0000 0000 		.long	.LM182
 4364 0612 16        		.byte	0x16
 4365 0613 00        		.byte	0x0
 4366 0614 05        		.uleb128 0x5
 4367 0615 02        		.byte	0x2
GAS LISTING C:\Users\alex\AppData\Local\Temp/ccinlLgc.s 			page 79


 4368 0616 0000 0000 		.long	.LM183
 4369 061a 15        		.byte	0x15
 4370 061b 00        		.byte	0x0
 4371 061c 05        		.uleb128 0x5
 4372 061d 02        		.byte	0x2
 4373 061e 0000 0000 		.long	.LM184
 4374 0622 17        		.byte	0x17
 4375 0623 00        		.byte	0x0
 4376 0624 05        		.uleb128 0x5
 4377 0625 02        		.byte	0x2
 4378 0626 0000 0000 		.long	.LM185
 4379 062a 15        		.byte	0x15
 4380 062b 00        		.byte	0x0
 4381 062c 05        		.uleb128 0x5
 4382 062d 02        		.byte	0x2
 4383 062e 0000 0000 		.long	.LM186
 4384 0632 17        		.byte	0x17
 4385 0633 00        		.byte	0x0
 4386 0634 05        		.uleb128 0x5
 4387 0635 02        		.byte	0x2
 4388 0636 0000 0000 		.long	.LM187
 4389 063a 15        		.byte	0x15
 4390 063b 00        		.byte	0x0
 4391 063c 05        		.uleb128 0x5
 4392 063d 02        		.byte	0x2
 4393 063e 0000 0000 		.long	.LM188
 4394 0642 17        		.byte	0x17
 4395 0643 00        		.byte	0x0
 4396 0644 05        		.uleb128 0x5
 4397 0645 02        		.byte	0x2
 4398 0646 0000 0000 		.long	.LM189
 4399 064a 16        		.byte	0x16
 4400 064b 00        		.byte	0x0
 4401 064c 05        		.uleb128 0x5
 4402 064d 02        		.byte	0x2
 4403 064e 0000 0000 		.long	.LM190
 4404 0652 15        		.byte	0x15
 4405 0653 00        		.byte	0x0
 4406 0654 05        		.uleb128 0x5
 4407 0655 02        		.byte	0x2
 4408 0656 0000 0000 		.long	.LM191
 4409 065a 17        		.byte	0x17
 4410 065b 00        		.byte	0x0
 4411 065c 05        		.uleb128 0x5
 4412 065d 02        		.byte	0x2
 4413 065e 0000 0000 		.long	.LM192
 4414 0662 15        		.byte	0x15
 4415 0663 00        		.byte	0x0
 4416 0664 05        		.uleb128 0x5
 4417 0665 02        		.byte	0x2
 4418 0666 0000 0000 		.long	.LM193
 4419 066a 15        		.byte	0x15
 4420 066b 00        		.byte	0x0
 4421 066c 05        		.uleb128 0x5
 4422 066d 02        		.byte	0x2
 4423 066e 0000 0000 		.long	.LM194
 4424 0672 15        		.byte	0x15
GAS LISTING C:\Users\alex\AppData\Local\Temp/ccinlLgc.s 			page 80


 4425 0673 00        		.byte	0x0
 4426 0674 05        		.uleb128 0x5
 4427 0675 02        		.byte	0x2
 4428 0676 0000 0000 		.long	.LM195
 4429 067a 15        		.byte	0x15
 4430 067b 00        		.byte	0x0
 4431 067c 05        		.uleb128 0x5
 4432 067d 02        		.byte	0x2
 4433 067e 0000 0000 		.long	.LM196
 4434 0682 15        		.byte	0x15
 4435 0683 00        		.byte	0x0
 4436 0684 05        		.uleb128 0x5
 4437 0685 02        		.byte	0x2
 4438 0686 0000 0000 		.long	.Letext0
 4439 068a 00        		.byte	0x0
 4440 068b 01        		.uleb128 0x1
 4441 068c 01        		.byte	0x1
 4442               	.LELT0:
 4443 068d 1600 0000 		.section	.debug_str,"MS",@progbits,1
 4443      0200 1000 
 4443      0000 0101 
 4443      FB0E 0A00 
 4443      0101 0101 
 4444               	.LASF54:
 4445 0000 474E 5520 		.string	"GNU C 4.3.3"
 4445      4320 342E 
 4445      332E 3300 
 4446               	.LASF24:
 4447 000c 6C63 645F 		.string	"lcd_newline"
 4447      6E65 776C 
 4447      696E 6500 
 4448               	.LASF32:
 4449 0018 656E 6162 		.string	"enable"
 4449      6C65 00
 4450               	.LASF26:
 4451 001f 6C63 645F 		.string	"lcd_puts"
 4451      7075 7473 
 4451      00
 4452               	.LASF34:
 4453 0028 6C63 645F 		.string	"lcd_p_rs"
 4453      705F 7273 
 4453      00
 4454               	.LASF19:
 4455 0031 6C63 645F 		.string	"lcd_gotoxy"
 4455      676F 746F 
 4455      7879 00
 4456               	.LASF35:
 4457 003c 6C63 645F 		.string	"lcd_p_rw"
 4457      705F 7277 
 4457      00
 4458               	.LASF56:
 4459 0045 453A 5C61 		.string	"E:\\avr\\lcd"
 4459      7672 5C6C 
 4459      6364 00
 4460               	.LASF48:
 4461 0050 6C63 645F 		.string	"lcd_b_enable"
 4461      625F 656E 
GAS LISTING C:\Users\alex\AppData\Local\Temp/ccinlLgc.s 			page 81


 4461      6162 6C65 
 4461      00
 4462               	.LASF14:
 4463 005d 5F5F 636F 		.string	"__count"
 4463      756E 7400 
 4464               	.LASF27:
 4465 0065 6C63 645F 		.string	"lcd_puts_p"
 4465      7075 7473 
 4465      5F70 00
 4466               	.LASF2:
 4467 0070 7569 6E74 		.string	"uint8_t"
 4467      385F 7400 
 4468               	.LASF49:
 4469 0078 6C63 645F 		.string	"lcd_b_backlight"
 4469      625F 6261 
 4469      636B 6C69 
 4469      6768 7400 
 4470               	.LASF10:
 4471 0088 6C63 645F 		.string	"lcd_read"
 4471      7265 6164 
 4471      00
 4472               	.LASF29:
 4473 0091 5F5F 6164 		.string	"__addr16"
 4473      6472 3136 
 4473      00
 4474               	.LASF7:
 4475 009a 6C6F 6E67 		.string	"long long int"
 4475      206C 6F6E 
 4475      6720 696E 
 4475      7400 
 4476               	.LASF44:
 4477 00a8 6C63 645F 		.string	"lcd_ddr_db2"
 4477      6464 725F 
 4477      6462 3200 
 4478               	.LASF5:
 4479 00b4 6C6F 6E67 		.string	"long int"
 4479      2069 6E74 
 4479      00
 4480               	.LASF57:
 4481 00bd 6C63 645F 		.string	"lcd_e_toggle"
 4481      655F 746F 
 4481      6767 6C65 
 4481      00
 4482               	.LASF20:
 4483 00ca 6C63 645F 		.string	"lcd_clrscr"
 4483      636C 7273 
 4483      6372 00
 4484               	.LASF18:
 4485 00d5 6C63 645F 		.string	"lcd_data"
 4485      6461 7461 
 4485      00
 4486               	.LASF53:
 4487 00de 6C63 645F 		.string	"lcd_b_db3"
 4487      625F 6462 
 4487      3300 
 4488               	.LASF46:
 4489 00e8 6C63 645F 		.string	"lcd_b_rs"
GAS LISTING C:\Users\alex\AppData\Local\Temp/ccinlLgc.s 			page 82


 4489      625F 7273 
 4489      00
 4490               	.LASF28:
 4491 00f1 7072 6F67 		.string	"progmem_s"
 4491      6D65 6D5F 
 4491      7300 
 4492               	.LASF47:
 4493 00fb 6C63 645F 		.string	"lcd_b_rw"
 4493      625F 7277 
 4493      00
 4494               	.LASF1:
 4495 0104 756E 7369 		.string	"unsigned char"
 4495      676E 6564 
 4495      2063 6861 
 4495      7200 
 4496               	.LASF58:
 4497 0112 6C63 645F 		.string	"lcd_getxy"
 4497      6765 7478 
 4497      7900 
 4498               	.LASF15:
 4499 011c 6C63 645F 		.string	"lcd_backlight_on"
 4499      6261 636B 
 4499      6C69 6768 
 4499      745F 6F6E 
 4499      00
 4500               	.LASF0:
 4501 012d 7369 676E 		.string	"signed char"
 4501      6564 2063 
 4501      6861 7200 
 4502               	.LASF11:
 4503 0139 6C63 645F 		.string	"lcd_waitbusy"
 4503      7761 6974 
 4503      6275 7379 
 4503      00
 4504               	.LASF8:
 4505 0146 6C6F 6E67 		.string	"long long unsigned int"
 4505      206C 6F6E 
 4505      6720 756E 
 4505      7369 676E 
 4505      6564 2069 
 4506               	.LASF4:
 4507 015d 756E 7369 		.string	"unsigned int"
 4507      676E 6564 
 4507      2069 6E74 
 4507      00
 4508               	.LASF3:
 4509 016a 7569 6E74 		.string	"uint16_t"
 4509      3136 5F74 
 4509      00
 4510               	.LASF16:
 4511 0173 6C63 645F 		.string	"lcd_backlight_off"
 4511      6261 636B 
 4511      6C69 6768 
 4511      745F 6F66 
 4511      6600 
 4512               	.LASF55:
 4513 0185 6C63 6432 		.string	"lcd2.c"
GAS LISTING C:\Users\alex\AppData\Local\Temp/ccinlLgc.s 			page 83


 4513      2E63 00
 4514               	.LASF12:
 4515 018c 6C63 645F 		.string	"lcd_write"
 4515      7772 6974 
 4515      6500 
 4516               	.LASF23:
 4517 0196 6368 6172 		.string	"char"
 4517      00
 4518               	.LASF42:
 4519 019b 6C63 645F 		.string	"lcd_ddr_db0"
 4519      6464 725F 
 4519      6462 3000 
 4520               	.LASF43:
 4521 01a7 6C63 645F 		.string	"lcd_ddr_db1"
 4521      6464 725F 
 4521      6462 3100 
 4522               	.LASF17:
 4523 01b3 6C63 645F 		.string	"lcd_command"
 4523      636F 6D6D 
 4523      616E 6400 
 4524               	.LASF45:
 4525 01bf 6C63 645F 		.string	"lcd_ddr_db3"
 4525      6464 725F 
 4525      6462 3300 
 4526               	.LASF30:
 4527 01cb 5F5F 7265 		.string	"__result"
 4527      7375 6C74 
 4527      00
 4528               	.LASF9:
 4529 01d4 6461 7461 		.string	"data"
 4529      00
 4530               	.LASF13:
 4531 01d9 5F64 656C 		.string	"_delayFourCycles"
 4531      6179 466F 
 4531      7572 4379 
 4531      636C 6573 
 4531      00
 4532               	.LASF21:
 4533 01ea 6C63 645F 		.string	"lcd_home"
 4533      686F 6D65 
 4533      00
 4534               	.LASF6:
 4535 01f3 6C6F 6E67 		.string	"long unsigned int"
 4535      2075 6E73 
 4535      6967 6E65 
 4535      6420 696E 
 4535      7400 
 4536               	.LASF38:
 4537 0205 6C63 645F 		.string	"lcd_p_db0"
 4537      705F 6462 
 4537      3000 
 4538               	.LASF39:
 4539 020f 6C63 645F 		.string	"lcd_p_db1"
 4539      705F 6462 
 4539      3100 
 4540               	.LASF40:
 4541 0219 6C63 645F 		.string	"lcd_p_db2"
GAS LISTING C:\Users\alex\AppData\Local\Temp/ccinlLgc.s 			page 84


 4541      705F 6462 
 4541      3200 
 4542               	.LASF41:
 4543 0223 6C63 645F 		.string	"lcd_p_db3"
 4543      705F 6462 
 4543      3300 
 4544               	.LASF33:
 4545 022d 6261 636B 		.string	"backlight"
 4545      6C69 6768 
 4545      7400 
 4546               	.LASF31:
 4547 0237 696E 6974 		.string	"init_lcd"
 4547      5F6C 6364 
 4547      00
 4548               	.LASF36:
 4549 0240 6C63 645F 		.string	"lcd_p_enable"
 4549      705F 656E 
 4549      6162 6C65 
 4549      00
 4550               	.LASF50:
 4551 024d 6C63 645F 		.string	"lcd_b_db0"
 4551      625F 6462 
 4551      3000 
 4552               	.LASF51:
 4553 0257 6C63 645F 		.string	"lcd_b_db1"
 4553      625F 6462 
 4553      3100 
 4554               	.LASF52:
 4555 0261 6C63 645F 		.string	"lcd_b_db2"
 4555      625F 6462 
 4555      3200 
 4556               	.LASF37:
 4557 026b 6C63 645F 		.string	"lcd_p_backlight"
 4557      705F 6261 
 4557      636B 6C69 
 4557      6768 7400 
 4558               	.LASF25:
 4559 027b 6164 6472 		.string	"addressCounter"
 4559      6573 7343 
 4559      6F75 6E74 
 4559      6572 00
 4560               	.LASF22:
 4561 028a 6C63 645F 		.string	"lcd_putc"
 4561      7075 7463 
 4561      00
 4562               	.global __do_clear_bss
GAS LISTING C:\Users\alex\AppData\Local\Temp/ccinlLgc.s 			page 85


DEFINED SYMBOLS
                            *ABS*:00000000 lcd2.c
C:\Users\alex\AppData\Local\Temp/ccinlLgc.s:2      *ABS*:0000003f __SREG__
C:\Users\alex\AppData\Local\Temp/ccinlLgc.s:3      *ABS*:0000003e __SP_H__
C:\Users\alex\AppData\Local\Temp/ccinlLgc.s:4      *ABS*:0000003d __SP_L__
C:\Users\alex\AppData\Local\Temp/ccinlLgc.s:5      *ABS*:00000034 __CCP__
C:\Users\alex\AppData\Local\Temp/ccinlLgc.s:6      *ABS*:00000000 __tmp_reg__
C:\Users\alex\AppData\Local\Temp/ccinlLgc.s:7      *ABS*:00000001 __zero_reg__
C:\Users\alex\AppData\Local\Temp/ccinlLgc.s:17     .text:00000000 lcd_e_toggle
                            *COM*:00000002 lcd_p_enable
                            *COM*:00000001 lcd_b_enable
C:\Users\alex\AppData\Local\Temp/ccinlLgc.s:61     .text:00000048 lcd_write
                            *COM*:00000002 lcd_p_rs
                            *COM*:00000001 lcd_b_rs
                            *COM*:00000002 lcd_p_rw
                            *COM*:00000001 lcd_b_rw
                            *COM*:00000002 lcd_ddr_db0
                            *COM*:00000001 lcd_b_db0
                            *COM*:00000002 lcd_ddr_db1
                            *COM*:00000001 lcd_b_db1
                            *COM*:00000002 lcd_ddr_db2
                            *COM*:00000001 lcd_b_db2
                            *COM*:00000002 lcd_ddr_db3
                            *COM*:00000001 lcd_b_db3
                            *COM*:00000002 lcd_p_db0
                            *COM*:00000002 lcd_p_db1
                            *COM*:00000002 lcd_p_db2
                            *COM*:00000002 lcd_p_db3
C:\Users\alex\AppData\Local\Temp/ccinlLgc.s:417    .text:000003be lcd_read
C:\Users\alex\AppData\Local\Temp/ccinlLgc.s:695    .text:00000620 lcd_waitbusy
C:\Users\alex\AppData\Local\Temp/ccinlLgc.s:725    .text:00000646 _delayFourCycles
C:\Users\alex\AppData\Local\Temp/ccinlLgc.s:774    .text:00000676 lcd_backlight_on
                            *COM*:00000002 lcd_p_backlight
                            *COM*:00000001 lcd_b_backlight
C:\Users\alex\AppData\Local\Temp/ccinlLgc.s:801    .text:0000069e lcd_backlight_off
C:\Users\alex\AppData\Local\Temp/ccinlLgc.s:830    .text:000006ca lcd_command
C:\Users\alex\AppData\Local\Temp/ccinlLgc.s:857    .text:000006ea lcd_data
C:\Users\alex\AppData\Local\Temp/ccinlLgc.s:884    .text:0000070a lcd_gotoxy
C:\Users\alex\AppData\Local\Temp/ccinlLgc.s:942    .text:0000075a lcd_getxy
C:\Users\alex\AppData\Local\Temp/ccinlLgc.s:964    .text:00000770 lcd_clrscr
C:\Users\alex\AppData\Local\Temp/ccinlLgc.s:985    .text:00000784 lcd_home
C:\Users\alex\AppData\Local\Temp/ccinlLgc.s:1006   .text:00000798 lcd_putc
C:\Users\alex\AppData\Local\Temp/ccinlLgc.s:1044   .text:000007ca lcd_newline
C:\Users\alex\AppData\Local\Temp/ccinlLgc.s:1106   .text:0000081a lcd_puts
C:\Users\alex\AppData\Local\Temp/ccinlLgc.s:1160   .text:00000868 lcd_puts_p
C:\Users\alex\AppData\Local\Temp/ccinlLgc.s:1221   .text:000008b8 init_lcd

UNDEFINED SYMBOLS
__do_clear_bss
