GAS LISTING C:\Users\alex\AppData\Local\Temp/cc4KuKvO.s 			page 1


   1               		.file	"delay.c"
   2               	__SREG__ = 0x3f
   3               	__SP_H__ = 0x3e
   4               	__SP_L__ = 0x3d
   5               	__CCP__  = 0x34
   6               	__tmp_reg__ = 0
   7               	__zero_reg__ = 1
   8               		.section	.debug_abbrev,"",@progbits
   9               	.Ldebug_abbrev0:
  10               		.section	.debug_info,"",@progbits
  11               	.Ldebug_info0:
  12               		.section	.debug_line,"",@progbits
  13               	.Ldebug_line0:
  14               		.text
  15               	.Ltext0:
  16               	.global	udelay
  17               		.type	udelay, @function
  18               	udelay:
  19               	.LFB3:
  20               	.LM1:
  21 0000 DF93      		push r29
  22 0002 CF93      		push r28
  23 0004 00D0      		rcall .
  24 0006 CDB7      		in r28,__SP_L__
  25 0008 DEB7      		in r29,__SP_H__
  26               	/* prologue: function */
  27               	/* frame size = 2 */
  28 000a 9A83      		std Y+2,r25
  29 000c 8983      		std Y+1,r24
  30               	.LM2:
  31 000e 8981      		ldd r24,Y+1
  32 0010 9A81      		ldd r25,Y+2
  33 0012 CC01      		movw r24,r24
  34 0014 A0E0      		ldi r26,lo8(0)
  35 0016 B0E0      		ldi r27,hi8(0)
  36 0018 20EA      		ldi r18,lo8(4000)
  37 001a 3FE0      		ldi r19,hi8(4000)
  38 001c 40E0      		ldi r20,hlo8(4000)
  39 001e 50E0      		ldi r21,hhi8(4000)
  40 0020 BC01      		movw r22,r24
  41 0022 CD01      		movw r24,r26
  42 0024 0E94 0000 		call __mulsi3
  43 0028 DC01      		movw r26,r24
  44 002a CB01      		movw r24,r22
  45 002c 28EE      		ldi r18,lo8(1000)
  46 002e 33E0      		ldi r19,hi8(1000)
  47 0030 40E0      		ldi r20,hlo8(1000)
  48 0032 50E0      		ldi r21,hhi8(1000)
  49 0034 BC01      		movw r22,r24
  50 0036 CD01      		movw r24,r26
  51 0038 0E94 0000 		call __divmodsi4
  52 003c DA01      		movw r26,r20
  53 003e C901      		movw r24,r18
  54 0040 0E94 0000 		call _delayFourCycles
  55               	/* epilogue start */
  56               	.LM3:
  57 0044 0F90      		pop __tmp_reg__
GAS LISTING C:\Users\alex\AppData\Local\Temp/cc4KuKvO.s 			page 2


  58 0046 0F90      		pop __tmp_reg__
  59 0048 CF91      		pop r28
  60 004a DF91      		pop r29
  61 004c 0895      		ret
  62               	.LFE3:
  63               		.size	udelay, .-udelay
  64               		.type	_delayFourCycles, @function
  65               	_delayFourCycles:
  66               	.LFB2:
  67               	.LM4:
  68 004e DF93      		push r29
  69 0050 CF93      		push r28
  70 0052 00D0      		rcall .
  71 0054 CDB7      		in r28,__SP_L__
  72 0056 DEB7      		in r29,__SP_H__
  73               	/* prologue: function */
  74               	/* frame size = 2 */
  75 0058 9A83      		std Y+2,r25
  76 005a 8983      		std Y+1,r24
  77               	.LM5:
  78 005c 8981      		ldd r24,Y+1
  79 005e 9A81      		ldd r25,Y+2
  80 0060 0097      		sbiw r24,0
  81 0062 01F4      		brne .L4
  82               	.LM6:
  83               	/* #APP */
  84               	 ;  11 "delay.c" 1
  85 0064 00C0      		rjmp 1f
  86               	 1:
  87               	 ;  0 "" 2
  88               	/* #NOAPP */
  89 0066 00C0      		rjmp .L6
  90               	.L4:
  91               	.LM7:
  92 0068 8981      		ldd r24,Y+1
  93 006a 9A81      		ldd r25,Y+2
  94               	/* #APP */
  95               	 ;  13 "delay.c" 1
  96 006c 0197      		1: sbiw r24,1
  97 006e 01F4      		brne 1b
  98               	 ;  0 "" 2
  99               	/* #NOAPP */
 100 0070 9A83      		std Y+2,r25
 101 0072 8983      		std Y+1,r24
 102               	.L6:
 103               	/* epilogue start */
 104               	.LM8:
 105 0074 0F90      		pop __tmp_reg__
 106 0076 0F90      		pop __tmp_reg__
 107 0078 CF91      		pop r28
 108 007a DF91      		pop r29
 109 007c 0895      		ret
 110               	.LFE2:
 111               		.size	_delayFourCycles, .-_delayFourCycles
 112               	.global	delay
 113               		.type	delay, @function
 114               	delay:
GAS LISTING C:\Users\alex\AppData\Local\Temp/cc4KuKvO.s 			page 3


 115               	.LFB4:
 116               	.LM9:
 117 007e DF93      		push r29
 118 0080 CF93      		push r28
 119 0082 00D0      		rcall .
 120 0084 00D0      		rcall .
 121 0086 CDB7      		in r28,__SP_L__
 122 0088 DEB7      		in r29,__SP_H__
 123               	/* prologue: function */
 124               	/* frame size = 4 */
 125 008a 9C83      		std Y+4,r25
 126 008c 8B83      		std Y+3,r24
 127               	.LM10:
 128 008e 1A82      		std Y+2,__zero_reg__
 129 0090 1982      		std Y+1,__zero_reg__
 130 0092 00C0      		rjmp .L8
 131               	.L9:
 132               	.LM11:
 133 0094 88EE      		ldi r24,lo8(1000)
 134 0096 93E0      		ldi r25,hi8(1000)
 135 0098 0E94 0000 		call udelay
 136               	.LM12:
 137 009c 8981      		ldd r24,Y+1
 138 009e 9A81      		ldd r25,Y+2
 139 00a0 0196      		adiw r24,1
 140 00a2 9A83      		std Y+2,r25
 141 00a4 8983      		std Y+1,r24
 142               	.L8:
 143 00a6 2981      		ldd r18,Y+1
 144 00a8 3A81      		ldd r19,Y+2
 145 00aa 8B81      		ldd r24,Y+3
 146 00ac 9C81      		ldd r25,Y+4
 147 00ae 2817      		cp r18,r24
 148 00b0 3907      		cpc r19,r25
 149 00b2 00F0      		brlo .L9
 150               	/* epilogue start */
 151               	.LM13:
 152 00b4 0F90      		pop __tmp_reg__
 153 00b6 0F90      		pop __tmp_reg__
 154 00b8 0F90      		pop __tmp_reg__
 155 00ba 0F90      		pop __tmp_reg__
 156 00bc CF91      		pop r28
 157 00be DF91      		pop r29
 158 00c0 0895      		ret
 159               	.LFE4:
 160               		.size	delay, .-delay
 161               	.global	sleep
 162               		.type	sleep, @function
 163               	sleep:
 164               	.LFB5:
 165               	.LM14:
 166 00c2 DF93      		push r29
 167 00c4 CF93      		push r28
 168 00c6 00D0      		rcall .
 169 00c8 00D0      		rcall .
 170 00ca CDB7      		in r28,__SP_L__
 171 00cc DEB7      		in r29,__SP_H__
GAS LISTING C:\Users\alex\AppData\Local\Temp/cc4KuKvO.s 			page 4


 172               	/* prologue: function */
 173               	/* frame size = 4 */
 174 00ce 9C83      		std Y+4,r25
 175 00d0 8B83      		std Y+3,r24
 176               	.LM15:
 177 00d2 1A82      		std Y+2,__zero_reg__
 178 00d4 1982      		std Y+1,__zero_reg__
 179 00d6 00C0      		rjmp .L12
 180               	.L13:
 181               	.LM16:
 182 00d8 88EE      		ldi r24,lo8(1000)
 183 00da 93E0      		ldi r25,hi8(1000)
 184 00dc 0E94 0000 		call delay
 185               	.LM17:
 186 00e0 8981      		ldd r24,Y+1
 187 00e2 9A81      		ldd r25,Y+2
 188 00e4 0196      		adiw r24,1
 189 00e6 9A83      		std Y+2,r25
 190 00e8 8983      		std Y+1,r24
 191               	.L12:
 192 00ea 2981      		ldd r18,Y+1
 193 00ec 3A81      		ldd r19,Y+2
 194 00ee 8B81      		ldd r24,Y+3
 195 00f0 9C81      		ldd r25,Y+4
 196 00f2 2817      		cp r18,r24
 197 00f4 3907      		cpc r19,r25
 198 00f6 00F0      		brlo .L13
 199               	/* epilogue start */
 200               	.LM18:
 201 00f8 0F90      		pop __tmp_reg__
 202 00fa 0F90      		pop __tmp_reg__
 203 00fc 0F90      		pop __tmp_reg__
 204 00fe 0F90      		pop __tmp_reg__
 205 0100 CF91      		pop r28
 206 0102 DF91      		pop r29
 207 0104 0895      		ret
 208               	.LFE5:
 209               		.size	sleep, .-sleep
 210               		.section	.debug_frame,"",@progbits
 211               	.Lframe0:
 212 0000 0C00 0000 		.long	.LECIE0-.LSCIE0
 213               	.LSCIE0:
 214 0004 FFFF FFFF 		.long	0xffffffff
 215 0008 01        		.byte	0x1
 216 0009 00        		.string	""
 217 000a 01        		.uleb128 0x1
 218 000b 7F        		.sleb128 -1
 219 000c 24        		.byte	0x24
 220 000d 0C        		.byte	0xc
 221 000e 20        		.uleb128 0x20
 222 000f 00        		.uleb128 0x0
 223               		.p2align	2
 224               	.LECIE0:
 225               	.LSFDE0:
 226 0010 0C00 0000 		.long	.LEFDE0-.LASFDE0
 227               	.LASFDE0:
 228 0014 0000 0000 		.long	.Lframe0
GAS LISTING C:\Users\alex\AppData\Local\Temp/cc4KuKvO.s 			page 5


 229 0018 0000 0000 		.long	.LFB3
 230 001c 4E00 0000 		.long	.LFE3-.LFB3
 231               		.p2align	2
 232               	.LEFDE0:
 233               	.LSFDE2:
 234 0020 0C00 0000 		.long	.LEFDE2-.LASFDE2
 235               	.LASFDE2:
 236 0024 0000 0000 		.long	.Lframe0
 237 0028 0000 0000 		.long	.LFB2
 238 002c 3000 0000 		.long	.LFE2-.LFB2
 239               		.p2align	2
 240               	.LEFDE2:
 241               	.LSFDE4:
 242 0030 0C00 0000 		.long	.LEFDE4-.LASFDE4
 243               	.LASFDE4:
 244 0034 0000 0000 		.long	.Lframe0
 245 0038 0000 0000 		.long	.LFB4
 246 003c 4400 0000 		.long	.LFE4-.LFB4
 247               		.p2align	2
 248               	.LEFDE4:
 249               	.LSFDE6:
 250 0040 0C00 0000 		.long	.LEFDE6-.LASFDE6
 251               	.LASFDE6:
 252 0044 0000 0000 		.long	.Lframe0
 253 0048 0000 0000 		.long	.LFB5
 254 004c 4400 0000 		.long	.LFE5-.LFB5
 255               		.p2align	2
 256               	.LEFDE6:
 257               		.text
 258               	.Letext0:
 259               		.section	.debug_info
 260 0000 0501 0000 		.long	0x105
 261 0004 0200      		.word	0x2
 262 0006 0000 0000 		.long	.Ldebug_abbrev0
 263 000a 04        		.byte	0x4
 264 000b 01        		.uleb128 0x1
 265 000c 0000 0000 		.long	.LASF10
 266 0010 01        		.byte	0x1
 267 0011 0000 0000 		.long	.LASF11
 268 0015 0000 0000 		.long	.LASF12
 269 0019 0000 0000 		.long	.Ltext0
 270 001d 0000 0000 		.long	.Letext0
 271 0021 0000 0000 		.long	.Ldebug_line0
 272 0025 02        		.uleb128 0x2
 273 0026 01        		.byte	0x1
 274 0027 06        		.byte	0x6
 275 0028 0000 0000 		.long	.LASF0
 276 002c 02        		.uleb128 0x2
 277 002d 01        		.byte	0x1
 278 002e 08        		.byte	0x8
 279 002f 0000 0000 		.long	.LASF1
 280 0033 03        		.uleb128 0x3
 281 0034 02        		.byte	0x2
 282 0035 05        		.byte	0x5
 283 0036 696E 7400 		.string	"int"
 284 003a 02        		.uleb128 0x2
 285 003b 02        		.byte	0x2
GAS LISTING C:\Users\alex\AppData\Local\Temp/cc4KuKvO.s 			page 6


 286 003c 07        		.byte	0x7
 287 003d 0000 0000 		.long	.LASF2
 288 0041 02        		.uleb128 0x2
 289 0042 04        		.byte	0x4
 290 0043 05        		.byte	0x5
 291 0044 0000 0000 		.long	.LASF3
 292 0048 02        		.uleb128 0x2
 293 0049 04        		.byte	0x4
 294 004a 07        		.byte	0x7
 295 004b 0000 0000 		.long	.LASF4
 296 004f 02        		.uleb128 0x2
 297 0050 08        		.byte	0x8
 298 0051 05        		.byte	0x5
 299 0052 0000 0000 		.long	.LASF5
 300 0056 02        		.uleb128 0x2
 301 0057 08        		.byte	0x8
 302 0058 07        		.byte	0x7
 303 0059 0000 0000 		.long	.LASF6
 304 005d 04        		.uleb128 0x4
 305 005e 01        		.byte	0x1
 306 005f 0000 0000 		.long	.LASF8
 307 0063 01        		.byte	0x1
 308 0064 17        		.byte	0x17
 309 0065 01        		.byte	0x1
 310 0066 0000 0000 		.long	.LFB3
 311 006a 0000 0000 		.long	.LFE3
 312 006e 02        		.byte	0x2
 313 006f 90        		.byte	0x90
 314 0070 20        		.uleb128 0x20
 315 0071 8300 0000 		.long	0x83
 316 0075 05        		.uleb128 0x5
 317 0076 7573 00   		.string	"us"
 318 0079 01        		.byte	0x1
 319 007a 16        		.byte	0x16
 320 007b 3A00 0000 		.long	0x3a
 321 007f 02        		.byte	0x2
 322 0080 8C        		.byte	0x8c
 323 0081 01        		.sleb128 1
 324 0082 00        		.byte	0x0
 325 0083 06        		.uleb128 0x6
 326 0084 0000 0000 		.long	.LASF13
 327 0088 01        		.byte	0x1
 328 0089 09        		.byte	0x9
 329 008a 01        		.byte	0x1
 330 008b 0000 0000 		.long	.LFB2
 331 008f 0000 0000 		.long	.LFE2
 332 0093 02        		.byte	0x2
 333 0094 90        		.byte	0x90
 334 0095 20        		.uleb128 0x20
 335 0096 A900 0000 		.long	0xa9
 336 009a 07        		.uleb128 0x7
 337 009b 0000 0000 		.long	.LASF7
 338 009f 01        		.byte	0x1
 339 00a0 08        		.byte	0x8
 340 00a1 3A00 0000 		.long	0x3a
 341 00a5 02        		.byte	0x2
 342 00a6 8C        		.byte	0x8c
GAS LISTING C:\Users\alex\AppData\Local\Temp/cc4KuKvO.s 			page 7


 343 00a7 01        		.sleb128 1
 344 00a8 00        		.byte	0x0
 345 00a9 04        		.uleb128 0x4
 346 00aa 01        		.byte	0x1
 347 00ab 0000 0000 		.long	.LASF9
 348 00af 01        		.byte	0x1
 349 00b0 1F        		.byte	0x1f
 350 00b1 01        		.byte	0x1
 351 00b2 0000 0000 		.long	.LFB4
 352 00b6 0000 0000 		.long	.LFE4
 353 00ba 02        		.byte	0x2
 354 00bb 90        		.byte	0x90
 355 00bc 20        		.uleb128 0x20
 356 00bd DB00 0000 		.long	0xdb
 357 00c1 05        		.uleb128 0x5
 358 00c2 6D73 00   		.string	"ms"
 359 00c5 01        		.byte	0x1
 360 00c6 1D        		.byte	0x1d
 361 00c7 3A00 0000 		.long	0x3a
 362 00cb 02        		.byte	0x2
 363 00cc 8C        		.byte	0x8c
 364 00cd 03        		.sleb128 3
 365 00ce 08        		.uleb128 0x8
 366 00cf 6900      		.string	"i"
 367 00d1 01        		.byte	0x1
 368 00d2 20        		.byte	0x20
 369 00d3 3300 0000 		.long	0x33
 370 00d7 02        		.byte	0x2
 371 00d8 8C        		.byte	0x8c
 372 00d9 01        		.sleb128 1
 373 00da 00        		.byte	0x0
 374 00db 09        		.uleb128 0x9
 375 00dc 01        		.byte	0x1
 376 00dd 0000 0000 		.long	.LASF14
 377 00e1 01        		.byte	0x1
 378 00e2 29        		.byte	0x29
 379 00e3 01        		.byte	0x1
 380 00e4 0000 0000 		.long	.LFB5
 381 00e8 0000 0000 		.long	.LFE5
 382 00ec 02        		.byte	0x2
 383 00ed 90        		.byte	0x90
 384 00ee 20        		.uleb128 0x20
 385 00ef 05        		.uleb128 0x5
 386 00f0 7300      		.string	"s"
 387 00f2 01        		.byte	0x1
 388 00f3 27        		.byte	0x27
 389 00f4 3A00 0000 		.long	0x3a
 390 00f8 02        		.byte	0x2
 391 00f9 8C        		.byte	0x8c
 392 00fa 03        		.sleb128 3
 393 00fb 08        		.uleb128 0x8
 394 00fc 6900      		.string	"i"
 395 00fe 01        		.byte	0x1
 396 00ff 2A        		.byte	0x2a
 397 0100 3300 0000 		.long	0x33
 398 0104 02        		.byte	0x2
 399 0105 8C        		.byte	0x8c
GAS LISTING C:\Users\alex\AppData\Local\Temp/cc4KuKvO.s 			page 8


 400 0106 01        		.sleb128 1
 401 0107 00        		.byte	0x0
 402 0108 00        		.byte	0x0
 403               		.section	.debug_abbrev
 404 0000 01        		.uleb128 0x1
 405 0001 11        		.uleb128 0x11
 406 0002 01        		.byte	0x1
 407 0003 25        		.uleb128 0x25
 408 0004 0E        		.uleb128 0xe
 409 0005 13        		.uleb128 0x13
 410 0006 0B        		.uleb128 0xb
 411 0007 03        		.uleb128 0x3
 412 0008 0E        		.uleb128 0xe
 413 0009 1B        		.uleb128 0x1b
 414 000a 0E        		.uleb128 0xe
 415 000b 11        		.uleb128 0x11
 416 000c 01        		.uleb128 0x1
 417 000d 12        		.uleb128 0x12
 418 000e 01        		.uleb128 0x1
 419 000f 10        		.uleb128 0x10
 420 0010 06        		.uleb128 0x6
 421 0011 00        		.byte	0x0
 422 0012 00        		.byte	0x0
 423 0013 02        		.uleb128 0x2
 424 0014 24        		.uleb128 0x24
 425 0015 00        		.byte	0x0
 426 0016 0B        		.uleb128 0xb
 427 0017 0B        		.uleb128 0xb
 428 0018 3E        		.uleb128 0x3e
 429 0019 0B        		.uleb128 0xb
 430 001a 03        		.uleb128 0x3
 431 001b 0E        		.uleb128 0xe
 432 001c 00        		.byte	0x0
 433 001d 00        		.byte	0x0
 434 001e 03        		.uleb128 0x3
 435 001f 24        		.uleb128 0x24
 436 0020 00        		.byte	0x0
 437 0021 0B        		.uleb128 0xb
 438 0022 0B        		.uleb128 0xb
 439 0023 3E        		.uleb128 0x3e
 440 0024 0B        		.uleb128 0xb
 441 0025 03        		.uleb128 0x3
 442 0026 08        		.uleb128 0x8
 443 0027 00        		.byte	0x0
 444 0028 00        		.byte	0x0
 445 0029 04        		.uleb128 0x4
 446 002a 2E        		.uleb128 0x2e
 447 002b 01        		.byte	0x1
 448 002c 3F        		.uleb128 0x3f
 449 002d 0C        		.uleb128 0xc
 450 002e 03        		.uleb128 0x3
 451 002f 0E        		.uleb128 0xe
 452 0030 3A        		.uleb128 0x3a
 453 0031 0B        		.uleb128 0xb
 454 0032 3B        		.uleb128 0x3b
 455 0033 0B        		.uleb128 0xb
 456 0034 27        		.uleb128 0x27
GAS LISTING C:\Users\alex\AppData\Local\Temp/cc4KuKvO.s 			page 9


 457 0035 0C        		.uleb128 0xc
 458 0036 11        		.uleb128 0x11
 459 0037 01        		.uleb128 0x1
 460 0038 12        		.uleb128 0x12
 461 0039 01        		.uleb128 0x1
 462 003a 40        		.uleb128 0x40
 463 003b 0A        		.uleb128 0xa
 464 003c 01        		.uleb128 0x1
 465 003d 13        		.uleb128 0x13
 466 003e 00        		.byte	0x0
 467 003f 00        		.byte	0x0
 468 0040 05        		.uleb128 0x5
 469 0041 05        		.uleb128 0x5
 470 0042 00        		.byte	0x0
 471 0043 03        		.uleb128 0x3
 472 0044 08        		.uleb128 0x8
 473 0045 3A        		.uleb128 0x3a
 474 0046 0B        		.uleb128 0xb
 475 0047 3B        		.uleb128 0x3b
 476 0048 0B        		.uleb128 0xb
 477 0049 49        		.uleb128 0x49
 478 004a 13        		.uleb128 0x13
 479 004b 02        		.uleb128 0x2
 480 004c 0A        		.uleb128 0xa
 481 004d 00        		.byte	0x0
 482 004e 00        		.byte	0x0
 483 004f 06        		.uleb128 0x6
 484 0050 2E        		.uleb128 0x2e
 485 0051 01        		.byte	0x1
 486 0052 03        		.uleb128 0x3
 487 0053 0E        		.uleb128 0xe
 488 0054 3A        		.uleb128 0x3a
 489 0055 0B        		.uleb128 0xb
 490 0056 3B        		.uleb128 0x3b
 491 0057 0B        		.uleb128 0xb
 492 0058 27        		.uleb128 0x27
 493 0059 0C        		.uleb128 0xc
 494 005a 11        		.uleb128 0x11
 495 005b 01        		.uleb128 0x1
 496 005c 12        		.uleb128 0x12
 497 005d 01        		.uleb128 0x1
 498 005e 40        		.uleb128 0x40
 499 005f 0A        		.uleb128 0xa
 500 0060 01        		.uleb128 0x1
 501 0061 13        		.uleb128 0x13
 502 0062 00        		.byte	0x0
 503 0063 00        		.byte	0x0
 504 0064 07        		.uleb128 0x7
 505 0065 05        		.uleb128 0x5
 506 0066 00        		.byte	0x0
 507 0067 03        		.uleb128 0x3
 508 0068 0E        		.uleb128 0xe
 509 0069 3A        		.uleb128 0x3a
 510 006a 0B        		.uleb128 0xb
 511 006b 3B        		.uleb128 0x3b
 512 006c 0B        		.uleb128 0xb
 513 006d 49        		.uleb128 0x49
GAS LISTING C:\Users\alex\AppData\Local\Temp/cc4KuKvO.s 			page 10


 514 006e 13        		.uleb128 0x13
 515 006f 02        		.uleb128 0x2
 516 0070 0A        		.uleb128 0xa
 517 0071 00        		.byte	0x0
 518 0072 00        		.byte	0x0
 519 0073 08        		.uleb128 0x8
 520 0074 34        		.uleb128 0x34
 521 0075 00        		.byte	0x0
 522 0076 03        		.uleb128 0x3
 523 0077 08        		.uleb128 0x8
 524 0078 3A        		.uleb128 0x3a
 525 0079 0B        		.uleb128 0xb
 526 007a 3B        		.uleb128 0x3b
 527 007b 0B        		.uleb128 0xb
 528 007c 49        		.uleb128 0x49
 529 007d 13        		.uleb128 0x13
 530 007e 02        		.uleb128 0x2
 531 007f 0A        		.uleb128 0xa
 532 0080 00        		.byte	0x0
 533 0081 00        		.byte	0x0
 534 0082 09        		.uleb128 0x9
 535 0083 2E        		.uleb128 0x2e
 536 0084 01        		.byte	0x1
 537 0085 3F        		.uleb128 0x3f
 538 0086 0C        		.uleb128 0xc
 539 0087 03        		.uleb128 0x3
 540 0088 0E        		.uleb128 0xe
 541 0089 3A        		.uleb128 0x3a
 542 008a 0B        		.uleb128 0xb
 543 008b 3B        		.uleb128 0x3b
 544 008c 0B        		.uleb128 0xb
 545 008d 27        		.uleb128 0x27
 546 008e 0C        		.uleb128 0xc
 547 008f 11        		.uleb128 0x11
 548 0090 01        		.uleb128 0x1
 549 0091 12        		.uleb128 0x12
 550 0092 01        		.uleb128 0x1
 551 0093 40        		.uleb128 0x40
 552 0094 0A        		.uleb128 0xa
 553 0095 00        		.byte	0x0
 554 0096 00        		.byte	0x0
 555 0097 00        		.byte	0x0
 556               		.section	.debug_pubnames,"",@progbits
 557 0000 2D00 0000 		.long	0x2d
 558 0004 0200      		.word	0x2
 559 0006 0000 0000 		.long	.Ldebug_info0
 560 000a 0901 0000 		.long	0x109
 561 000e 5D00 0000 		.long	0x5d
 562 0012 7564 656C 		.string	"udelay"
 562      6179 00
 563 0019 A900 0000 		.long	0xa9
 564 001d 6465 6C61 		.string	"delay"
 564      7900 
 565 0023 DB00 0000 		.long	0xdb
 566 0027 736C 6565 		.string	"sleep"
 566      7000 
 567 002d 0000 0000 		.long	0x0
GAS LISTING C:\Users\alex\AppData\Local\Temp/cc4KuKvO.s 			page 11


 568               		.section	.debug_aranges,"",@progbits
 569 0000 1C00 0000 		.long	0x1c
 570 0004 0200      		.word	0x2
 571 0006 0000 0000 		.long	.Ldebug_info0
 572 000a 04        		.byte	0x4
 573 000b 00        		.byte	0x0
 574 000c 0000      		.word	0x0
 575 000e 0000      		.word	0x0
 576 0010 0000 0000 		.long	.Ltext0
 577 0014 0601 0000 		.long	.Letext0-.Ltext0
 578 0018 0000 0000 		.long	0x0
 579 001c 0000 0000 		.long	0x0
 580               		.section	.debug_line
 581 0000 BD00 0000 		.long	.LELT0-.LSLT0
 582               	.LSLT0:
 583 0004 0200      		.word	0x2
 584 0006 1B00 0000 		.long	.LELTP0-.LASLTP0
 585               	.LASLTP0:
 586 000a 01        		.byte	0x1
 587 000b 01        		.byte	0x1
 588 000c F6        		.byte	0xf6
 589 000d F5        		.byte	0xf5
 590 000e 0A        		.byte	0xa
 591 000f 00        		.byte	0x0
 592 0010 01        		.byte	0x1
 593 0011 01        		.byte	0x1
 594 0012 01        		.byte	0x1
 595 0013 01        		.byte	0x1
 596 0014 00        		.byte	0x0
 597 0015 00        		.byte	0x0
 598 0016 00        		.byte	0x0
 599 0017 01        		.byte	0x1
 600 0018 00        		.byte	0x0
 601 0019 6465 6C61 		.string	"delay.c"
 601      792E 6300 
 602 0021 00        		.uleb128 0x0
 603 0022 00        		.uleb128 0x0
 604 0023 00        		.uleb128 0x0
 605 0024 00        		.byte	0x0
 606               	.LELTP0:
 607 0025 00        		.byte	0x0
 608 0026 05        		.uleb128 0x5
 609 0027 02        		.byte	0x2
 610 0028 0000 0000 		.long	.LM1
 611 002c 2A        		.byte	0x2a
 612 002d 00        		.byte	0x0
 613 002e 05        		.uleb128 0x5
 614 002f 02        		.byte	0x2
 615 0030 0000 0000 		.long	.LM2
 616 0034 16        		.byte	0x16
 617 0035 00        		.byte	0x0
 618 0036 05        		.uleb128 0x5
 619 0037 02        		.byte	0x2
 620 0038 0000 0000 		.long	.LM3
 621 003c 15        		.byte	0x15
 622 003d 00        		.byte	0x0
 623 003e 05        		.uleb128 0x5
GAS LISTING C:\Users\alex\AppData\Local\Temp/cc4KuKvO.s 			page 12


 624 003f 02        		.byte	0x2
 625 0040 0000 0000 		.long	.LM4
 626 0044 03        		.byte	0x3
 627 0045 6F        		.sleb128 -17
 628 0046 01        		.byte	0x1
 629 0047 00        		.byte	0x0
 630 0048 05        		.uleb128 0x5
 631 0049 02        		.byte	0x2
 632 004a 0000 0000 		.long	.LM5
 633 004e 15        		.byte	0x15
 634 004f 00        		.byte	0x0
 635 0050 05        		.uleb128 0x5
 636 0051 02        		.byte	0x2
 637 0052 0000 0000 		.long	.LM6
 638 0056 15        		.byte	0x15
 639 0057 00        		.byte	0x0
 640 0058 05        		.uleb128 0x5
 641 0059 02        		.byte	0x2
 642 005a 0000 0000 		.long	.LM7
 643 005e 16        		.byte	0x16
 644 005f 00        		.byte	0x0
 645 0060 05        		.uleb128 0x5
 646 0061 02        		.byte	0x2
 647 0062 0000 0000 		.long	.LM8
 648 0066 1A        		.byte	0x1a
 649 0067 00        		.byte	0x0
 650 0068 05        		.uleb128 0x5
 651 0069 02        		.byte	0x2
 652 006a 0000 0000 		.long	.LM9
 653 006e 20        		.byte	0x20
 654 006f 00        		.byte	0x0
 655 0070 05        		.uleb128 0x5
 656 0071 02        		.byte	0x2
 657 0072 0000 0000 		.long	.LM10
 658 0076 17        		.byte	0x17
 659 0077 00        		.byte	0x0
 660 0078 05        		.uleb128 0x5
 661 0079 02        		.byte	0x2
 662 007a 0000 0000 		.long	.LM11
 663 007e 15        		.byte	0x15
 664 007f 00        		.byte	0x0
 665 0080 05        		.uleb128 0x5
 666 0081 02        		.byte	0x2
 667 0082 0000 0000 		.long	.LM12
 668 0086 13        		.byte	0x13
 669 0087 00        		.byte	0x0
 670 0088 05        		.uleb128 0x5
 671 0089 02        		.byte	0x2
 672 008a 0000 0000 		.long	.LM13
 673 008e 16        		.byte	0x16
 674 008f 00        		.byte	0x0
 675 0090 05        		.uleb128 0x5
 676 0091 02        		.byte	0x2
 677 0092 0000 0000 		.long	.LM14
 678 0096 19        		.byte	0x19
 679 0097 00        		.byte	0x0
 680 0098 05        		.uleb128 0x5
GAS LISTING C:\Users\alex\AppData\Local\Temp/cc4KuKvO.s 			page 13


 681 0099 02        		.byte	0x2
 682 009a 0000 0000 		.long	.LM15
 683 009e 17        		.byte	0x17
 684 009f 00        		.byte	0x0
 685 00a0 05        		.uleb128 0x5
 686 00a1 02        		.byte	0x2
 687 00a2 0000 0000 		.long	.LM16
 688 00a6 15        		.byte	0x15
 689 00a7 00        		.byte	0x0
 690 00a8 05        		.uleb128 0x5
 691 00a9 02        		.byte	0x2
 692 00aa 0000 0000 		.long	.LM17
 693 00ae 13        		.byte	0x13
 694 00af 00        		.byte	0x0
 695 00b0 05        		.uleb128 0x5
 696 00b1 02        		.byte	0x2
 697 00b2 0000 0000 		.long	.LM18
 698 00b6 16        		.byte	0x16
 699 00b7 00        		.byte	0x0
 700 00b8 05        		.uleb128 0x5
 701 00b9 02        		.byte	0x2
 702 00ba 0000 0000 		.long	.Letext0
 703 00be 00        		.byte	0x0
 704 00bf 01        		.uleb128 0x1
 705 00c0 01        		.byte	0x1
 706               	.LELT0:
 707 00c1 1600 0000 		.section	.debug_str,"MS",@progbits,1
 707      0200 1000 
 707      0000 0101 
 707      FB0E 0A00 
 707      0101 0101 
 708               	.LASF9:
 709 0000 6465 6C61 		.string	"delay"
 709      7900 
 710               	.LASF1:
 711 0006 756E 7369 		.string	"unsigned char"
 711      676E 6564 
 711      2063 6861 
 711      7200 
 712               	.LASF4:
 713 0014 6C6F 6E67 		.string	"long unsigned int"
 713      2075 6E73 
 713      6967 6E65 
 713      6420 696E 
 713      7400 
 714               	.LASF10:
 715 0026 474E 5520 		.string	"GNU C 4.3.3"
 715      4320 342E 
 715      332E 3300 
 716               	.LASF13:
 717 0032 5F64 656C 		.string	"_delayFourCycles"
 717      6179 466F 
 717      7572 4379 
 717      636C 6573 
 717      00
 718               	.LASF8:
 719 0043 7564 656C 		.string	"udelay"
GAS LISTING C:\Users\alex\AppData\Local\Temp/cc4KuKvO.s 			page 14


 719      6179 00
 720               	.LASF2:
 721 004a 756E 7369 		.string	"unsigned int"
 721      676E 6564 
 721      2069 6E74 
 721      00
 722               	.LASF6:
 723 0057 6C6F 6E67 		.string	"long long unsigned int"
 723      206C 6F6E 
 723      6720 756E 
 723      7369 676E 
 723      6564 2069 
 724               	.LASF5:
 725 006e 6C6F 6E67 		.string	"long long int"
 725      206C 6F6E 
 725      6720 696E 
 725      7400 
 726               	.LASF7:
 727 007c 5F5F 636F 		.string	"__count"
 727      756E 7400 
 728               	.LASF12:
 729 0084 453A 5C61 		.string	"E:\\avr\\lib"
 729      7672 5C6C 
 729      6962 00
 730               	.LASF11:
 731 008f 6465 6C61 		.string	"delay.c"
 731      792E 6300 
 732               	.LASF3:
 733 0097 6C6F 6E67 		.string	"long int"
 733      2069 6E74 
 733      00
 734               	.LASF0:
 735 00a0 7369 676E 		.string	"signed char"
 735      6564 2063 
 735      6861 7200 
 736               	.LASF14:
 737 00ac 736C 6565 		.string	"sleep"
 737      7000 
GAS LISTING C:\Users\alex\AppData\Local\Temp/cc4KuKvO.s 			page 15


DEFINED SYMBOLS
                            *ABS*:00000000 delay.c
C:\Users\alex\AppData\Local\Temp/cc4KuKvO.s:2      *ABS*:0000003f __SREG__
C:\Users\alex\AppData\Local\Temp/cc4KuKvO.s:3      *ABS*:0000003e __SP_H__
C:\Users\alex\AppData\Local\Temp/cc4KuKvO.s:4      *ABS*:0000003d __SP_L__
C:\Users\alex\AppData\Local\Temp/cc4KuKvO.s:5      *ABS*:00000034 __CCP__
C:\Users\alex\AppData\Local\Temp/cc4KuKvO.s:6      *ABS*:00000000 __tmp_reg__
C:\Users\alex\AppData\Local\Temp/cc4KuKvO.s:7      *ABS*:00000001 __zero_reg__
C:\Users\alex\AppData\Local\Temp/cc4KuKvO.s:18     .text:00000000 udelay
C:\Users\alex\AppData\Local\Temp/cc4KuKvO.s:65     .text:0000004e _delayFourCycles
C:\Users\alex\AppData\Local\Temp/cc4KuKvO.s:114    .text:0000007e delay
C:\Users\alex\AppData\Local\Temp/cc4KuKvO.s:163    .text:000000c2 sleep

UNDEFINED SYMBOLS
__mulsi3
__divmodsi4
