GAS LISTING C:\Users\alex\AppData\Local\Temp/cc0CmVZN.s 			page 1


   1               		.file	"mcp4922.c"
   2               	__SREG__ = 0x3f
   3               	__SP_H__ = 0x3e
   4               	__SP_L__ = 0x3d
   5               	__CCP__  = 0x34
   6               	__tmp_reg__ = 0
   7               	__zero_reg__ = 1
   8               		.section	.debug_abbrev,"",@progbits
   9               	.Ldebug_abbrev0:
  10               		.section	.debug_info,"",@progbits
  11               	.Ldebug_info0:
  12               		.section	.debug_line,"",@progbits
  13               	.Ldebug_line0:
  14               		.text
  15               	.Ltext0:
  16               	.global	init_mcp4922
  17               		.type	init_mcp4922, @function
  18               	init_mcp4922:
  19               	.LFB2:
  20               	.LM1:
  21 0000 0F93      		push r16
  22 0002 DF93      		push r29
  23 0004 CF93      		push r28
  24 0006 CDB7      		in r28,__SP_L__
  25 0008 DEB7      		in r29,__SP_H__
  26 000a 2997      		sbiw r28,9
  27 000c 0FB6      		in __tmp_reg__,__SREG__
  28 000e F894      		cli
  29 0010 DEBF      		out __SP_H__,r29
  30 0012 0FBE      		out __SREG__,__tmp_reg__
  31 0014 CDBF      		out __SP_L__,r28
  32               	/* prologue: function */
  33               	/* frame size = 9 */
  34 0016 8D83      		std Y+5,r24
  35 0018 6E83      		std Y+6,r22
  36 001a 4F83      		std Y+7,r20
  37 001c 2887      		std Y+8,r18
  38 001e 0987      		std Y+9,r16
  39               	.LM2:
  40 0020 8F81      		ldd r24,Y+7
  41 0022 882F      		mov r24,r24
  42 0024 90E0      		ldi r25,lo8(0)
  43 0026 9C01      		movw r18,r24
  44 0028 2F70      		andi r18,lo8(15)
  45 002a 3070      		andi r19,hi8(15)
  46 002c 81E0      		ldi r24,lo8(1)
  47 002e 90E0      		ldi r25,hi8(1)
  48 0030 00C0      		rjmp 2f
  49 0032 880F      	1:	lsl r24
  50 0034 991F      		rol r25
  51 0036 2A95      	2:	dec r18
  52 0038 02F4      		brpl 1b
  53 003a 8C83      		std Y+4,r24
  54               	.LM3:
  55 003c 8D81      		ldd r24,Y+5
  56 003e 882F      		mov r24,r24
  57 0040 90E0      		ldi r25,lo8(0)
GAS LISTING C:\Users\alex\AppData\Local\Temp/cc0CmVZN.s 			page 2


  58 0042 FC01      		movw r30,r24
  59 0044 E050      		subi r30,lo8(-(mcp4922_b_clk))
  60 0046 F040      		sbci r31,hi8(-(mcp4922_b_clk))
  61 0048 8C81      		ldd r24,Y+4
  62 004a 8083      		st Z,r24
  63               	.LM4:
  64 004c 8885      		ldd r24,Y+8
  65 004e 882F      		mov r24,r24
  66 0050 90E0      		ldi r25,lo8(0)
  67 0052 9C01      		movw r18,r24
  68 0054 2F70      		andi r18,lo8(15)
  69 0056 3070      		andi r19,hi8(15)
  70 0058 81E0      		ldi r24,lo8(1)
  71 005a 90E0      		ldi r25,hi8(1)
  72 005c 00C0      		rjmp 2f
  73 005e 880F      	1:	lsl r24
  74 0060 991F      		rol r25
  75 0062 2A95      	2:	dec r18
  76 0064 02F4      		brpl 1b
  77 0066 8A83      		std Y+2,r24
  78               	.LM5:
  79 0068 8D81      		ldd r24,Y+5
  80 006a 882F      		mov r24,r24
  81 006c 90E0      		ldi r25,lo8(0)
  82 006e FC01      		movw r30,r24
  83 0070 E050      		subi r30,lo8(-(mcp4922_b_data))
  84 0072 F040      		sbci r31,hi8(-(mcp4922_b_data))
  85 0074 8A81      		ldd r24,Y+2
  86 0076 8083      		st Z,r24
  87               	.LM6:
  88 0078 8E81      		ldd r24,Y+6
  89 007a 882F      		mov r24,r24
  90 007c 90E0      		ldi r25,lo8(0)
  91 007e 9C01      		movw r18,r24
  92 0080 2F70      		andi r18,lo8(15)
  93 0082 3070      		andi r19,hi8(15)
  94 0084 81E0      		ldi r24,lo8(1)
  95 0086 90E0      		ldi r25,hi8(1)
  96 0088 00C0      		rjmp 2f
  97 008a 880F      	1:	lsl r24
  98 008c 991F      		rol r25
  99 008e 2A95      	2:	dec r18
 100 0090 02F4      		brpl 1b
 101 0092 8B83      		std Y+3,r24
 102               	.LM7:
 103 0094 8D81      		ldd r24,Y+5
 104 0096 882F      		mov r24,r24
 105 0098 90E0      		ldi r25,lo8(0)
 106 009a FC01      		movw r30,r24
 107 009c E050      		subi r30,lo8(-(mcp4922_b_cs))
 108 009e F040      		sbci r31,hi8(-(mcp4922_b_cs))
 109 00a0 8B81      		ldd r24,Y+3
 110 00a2 8083      		st Z,r24
 111               	.LM8:
 112 00a4 8985      		ldd r24,Y+9
 113 00a6 882F      		mov r24,r24
 114 00a8 90E0      		ldi r25,lo8(0)
GAS LISTING C:\Users\alex\AppData\Local\Temp/cc0CmVZN.s 			page 3


 115 00aa 9C01      		movw r18,r24
 116 00ac 2F70      		andi r18,lo8(15)
 117 00ae 3070      		andi r19,hi8(15)
 118 00b0 81E0      		ldi r24,lo8(1)
 119 00b2 90E0      		ldi r25,hi8(1)
 120 00b4 022E      		mov r0,r18
 121 00b6 00C0      		rjmp 2f
 122 00b8 880F      	1:	lsl r24
 123 00ba 991F      		rol r25
 124 00bc 0A94      	2:	dec r0
 125 00be 02F4      		brpl 1b
 126 00c0 8983      		std Y+1,r24
 127               	.LM9:
 128 00c2 8D81      		ldd r24,Y+5
 129 00c4 882F      		mov r24,r24
 130 00c6 90E0      		ldi r25,lo8(0)
 131 00c8 FC01      		movw r30,r24
 132 00ca E050      		subi r30,lo8(-(mcp4922_b_ldac))
 133 00cc F040      		sbci r31,hi8(-(mcp4922_b_ldac))
 134 00ce 8981      		ldd r24,Y+1
 135 00d0 8083      		st Z,r24
 136               	.LM10:
 137 00d2 8F81      		ldd r24,Y+7
 138 00d4 807F      		andi r24,lo8(-16)
 139 00d6 8F83      		std Y+7,r24
 140               	.LM11:
 141 00d8 8F81      		ldd r24,Y+7
 142 00da 8823      		tst r24
 143 00dc 01F4      		brne .L2
 144 00de 8D81      		ldd r24,Y+5
 145 00e0 882F      		mov r24,r24
 146 00e2 90E0      		ldi r25,lo8(0)
 147 00e4 880F      		lsl r24
 148 00e6 991F      		rol r25
 149 00e8 FC01      		movw r30,r24
 150 00ea E050      		subi r30,lo8(-(mcp4922_p_clk))
 151 00ec F040      		sbci r31,hi8(-(mcp4922_p_clk))
 152 00ee 8BE3      		ldi r24,lo8(59)
 153 00f0 90E0      		ldi r25,hi8(59)
 154 00f2 9183      		std Z+1,r25
 155 00f4 8083      		st Z,r24
 156 00f6 AAE3      		ldi r26,lo8(58)
 157 00f8 B0E0      		ldi r27,hi8(58)
 158 00fa EAE3      		ldi r30,lo8(58)
 159 00fc F0E0      		ldi r31,hi8(58)
 160 00fe 9081      		ld r25,Z
 161 0100 8C81      		ldd r24,Y+4
 162 0102 892B      		or r24,r25
 163 0104 8C93      		st X,r24
 164               	.L2:
 165               	.LM12:
 166 0106 8F81      		ldd r24,Y+7
 167 0108 8031      		cpi r24,lo8(16)
 168 010a 01F4      		brne .L3
 169 010c 8D81      		ldd r24,Y+5
 170 010e 882F      		mov r24,r24
 171 0110 90E0      		ldi r25,lo8(0)
GAS LISTING C:\Users\alex\AppData\Local\Temp/cc0CmVZN.s 			page 4


 172 0112 880F      		lsl r24
 173 0114 991F      		rol r25
 174 0116 FC01      		movw r30,r24
 175 0118 E050      		subi r30,lo8(-(mcp4922_p_clk))
 176 011a F040      		sbci r31,hi8(-(mcp4922_p_clk))
 177 011c 88E3      		ldi r24,lo8(56)
 178 011e 90E0      		ldi r25,hi8(56)
 179 0120 9183      		std Z+1,r25
 180 0122 8083      		st Z,r24
 181 0124 A7E3      		ldi r26,lo8(55)
 182 0126 B0E0      		ldi r27,hi8(55)
 183 0128 E7E3      		ldi r30,lo8(55)
 184 012a F0E0      		ldi r31,hi8(55)
 185 012c 9081      		ld r25,Z
 186 012e 8C81      		ldd r24,Y+4
 187 0130 892B      		or r24,r25
 188 0132 8C93      		st X,r24
 189               	.L3:
 190               	.LM13:
 191 0134 8F81      		ldd r24,Y+7
 192 0136 8032      		cpi r24,lo8(32)
 193 0138 01F4      		brne .L4
 194 013a 8D81      		ldd r24,Y+5
 195 013c 882F      		mov r24,r24
 196 013e 90E0      		ldi r25,lo8(0)
 197 0140 880F      		lsl r24
 198 0142 991F      		rol r25
 199 0144 FC01      		movw r30,r24
 200 0146 E050      		subi r30,lo8(-(mcp4922_p_clk))
 201 0148 F040      		sbci r31,hi8(-(mcp4922_p_clk))
 202 014a 85E3      		ldi r24,lo8(53)
 203 014c 90E0      		ldi r25,hi8(53)
 204 014e 9183      		std Z+1,r25
 205 0150 8083      		st Z,r24
 206 0152 A4E3      		ldi r26,lo8(52)
 207 0154 B0E0      		ldi r27,hi8(52)
 208 0156 E4E3      		ldi r30,lo8(52)
 209 0158 F0E0      		ldi r31,hi8(52)
 210 015a 9081      		ld r25,Z
 211 015c 8C81      		ldd r24,Y+4
 212 015e 892B      		or r24,r25
 213 0160 8C93      		st X,r24
 214               	.L4:
 215               	.LM14:
 216 0162 8F81      		ldd r24,Y+7
 217 0164 8033      		cpi r24,lo8(48)
 218 0166 01F4      		brne .L5
 219 0168 8D81      		ldd r24,Y+5
 220 016a 882F      		mov r24,r24
 221 016c 90E0      		ldi r25,lo8(0)
 222 016e 880F      		lsl r24
 223 0170 991F      		rol r25
 224 0172 FC01      		movw r30,r24
 225 0174 E050      		subi r30,lo8(-(mcp4922_p_clk))
 226 0176 F040      		sbci r31,hi8(-(mcp4922_p_clk))
 227 0178 82E3      		ldi r24,lo8(50)
 228 017a 90E0      		ldi r25,hi8(50)
GAS LISTING C:\Users\alex\AppData\Local\Temp/cc0CmVZN.s 			page 5


 229 017c 9183      		std Z+1,r25
 230 017e 8083      		st Z,r24
 231 0180 A1E3      		ldi r26,lo8(49)
 232 0182 B0E0      		ldi r27,hi8(49)
 233 0184 E1E3      		ldi r30,lo8(49)
 234 0186 F0E0      		ldi r31,hi8(49)
 235 0188 9081      		ld r25,Z
 236 018a 8C81      		ldd r24,Y+4
 237 018c 892B      		or r24,r25
 238 018e 8C93      		st X,r24
 239               	.L5:
 240               	.LM15:
 241 0190 8885      		ldd r24,Y+8
 242 0192 807F      		andi r24,lo8(-16)
 243 0194 8887      		std Y+8,r24
 244               	.LM16:
 245 0196 8885      		ldd r24,Y+8
 246 0198 8823      		tst r24
 247 019a 01F4      		brne .L6
 248 019c 8D81      		ldd r24,Y+5
 249 019e 882F      		mov r24,r24
 250 01a0 90E0      		ldi r25,lo8(0)
 251 01a2 880F      		lsl r24
 252 01a4 991F      		rol r25
 253 01a6 FC01      		movw r30,r24
 254 01a8 E050      		subi r30,lo8(-(mcp4922_p_data))
 255 01aa F040      		sbci r31,hi8(-(mcp4922_p_data))
 256 01ac 8BE3      		ldi r24,lo8(59)
 257 01ae 90E0      		ldi r25,hi8(59)
 258 01b0 9183      		std Z+1,r25
 259 01b2 8083      		st Z,r24
 260 01b4 AAE3      		ldi r26,lo8(58)
 261 01b6 B0E0      		ldi r27,hi8(58)
 262 01b8 EAE3      		ldi r30,lo8(58)
 263 01ba F0E0      		ldi r31,hi8(58)
 264 01bc 9081      		ld r25,Z
 265 01be 8A81      		ldd r24,Y+2
 266 01c0 892B      		or r24,r25
 267 01c2 8C93      		st X,r24
 268               	.L6:
 269               	.LM17:
 270 01c4 8885      		ldd r24,Y+8
 271 01c6 8031      		cpi r24,lo8(16)
 272 01c8 01F4      		brne .L7
 273 01ca 8D81      		ldd r24,Y+5
 274 01cc 882F      		mov r24,r24
 275 01ce 90E0      		ldi r25,lo8(0)
 276 01d0 880F      		lsl r24
 277 01d2 991F      		rol r25
 278 01d4 FC01      		movw r30,r24
 279 01d6 E050      		subi r30,lo8(-(mcp4922_p_data))
 280 01d8 F040      		sbci r31,hi8(-(mcp4922_p_data))
 281 01da 88E3      		ldi r24,lo8(56)
 282 01dc 90E0      		ldi r25,hi8(56)
 283 01de 9183      		std Z+1,r25
 284 01e0 8083      		st Z,r24
 285 01e2 A7E3      		ldi r26,lo8(55)
GAS LISTING C:\Users\alex\AppData\Local\Temp/cc0CmVZN.s 			page 6


 286 01e4 B0E0      		ldi r27,hi8(55)
 287 01e6 E7E3      		ldi r30,lo8(55)
 288 01e8 F0E0      		ldi r31,hi8(55)
 289 01ea 9081      		ld r25,Z
 290 01ec 8A81      		ldd r24,Y+2
 291 01ee 892B      		or r24,r25
 292 01f0 8C93      		st X,r24
 293               	.L7:
 294               	.LM18:
 295 01f2 8885      		ldd r24,Y+8
 296 01f4 8032      		cpi r24,lo8(32)
 297 01f6 01F4      		brne .L8
 298 01f8 8D81      		ldd r24,Y+5
 299 01fa 882F      		mov r24,r24
 300 01fc 90E0      		ldi r25,lo8(0)
 301 01fe 880F      		lsl r24
 302 0200 991F      		rol r25
 303 0202 FC01      		movw r30,r24
 304 0204 E050      		subi r30,lo8(-(mcp4922_p_data))
 305 0206 F040      		sbci r31,hi8(-(mcp4922_p_data))
 306 0208 85E3      		ldi r24,lo8(53)
 307 020a 90E0      		ldi r25,hi8(53)
 308 020c 9183      		std Z+1,r25
 309 020e 8083      		st Z,r24
 310 0210 A4E3      		ldi r26,lo8(52)
 311 0212 B0E0      		ldi r27,hi8(52)
 312 0214 E4E3      		ldi r30,lo8(52)
 313 0216 F0E0      		ldi r31,hi8(52)
 314 0218 9081      		ld r25,Z
 315 021a 8A81      		ldd r24,Y+2
 316 021c 892B      		or r24,r25
 317 021e 8C93      		st X,r24
 318               	.L8:
 319               	.LM19:
 320 0220 8885      		ldd r24,Y+8
 321 0222 8033      		cpi r24,lo8(48)
 322 0224 01F4      		brne .L9
 323 0226 8D81      		ldd r24,Y+5
 324 0228 882F      		mov r24,r24
 325 022a 90E0      		ldi r25,lo8(0)
 326 022c 880F      		lsl r24
 327 022e 991F      		rol r25
 328 0230 FC01      		movw r30,r24
 329 0232 E050      		subi r30,lo8(-(mcp4922_p_data))
 330 0234 F040      		sbci r31,hi8(-(mcp4922_p_data))
 331 0236 82E3      		ldi r24,lo8(50)
 332 0238 90E0      		ldi r25,hi8(50)
 333 023a 9183      		std Z+1,r25
 334 023c 8083      		st Z,r24
 335 023e A1E3      		ldi r26,lo8(49)
 336 0240 B0E0      		ldi r27,hi8(49)
 337 0242 E1E3      		ldi r30,lo8(49)
 338 0244 F0E0      		ldi r31,hi8(49)
 339 0246 9081      		ld r25,Z
 340 0248 8A81      		ldd r24,Y+2
 341 024a 892B      		or r24,r25
 342 024c 8C93      		st X,r24
GAS LISTING C:\Users\alex\AppData\Local\Temp/cc0CmVZN.s 			page 7


 343               	.L9:
 344               	.LM20:
 345 024e 8E81      		ldd r24,Y+6
 346 0250 807F      		andi r24,lo8(-16)
 347 0252 8E83      		std Y+6,r24
 348               	.LM21:
 349 0254 8E81      		ldd r24,Y+6
 350 0256 8823      		tst r24
 351 0258 01F4      		brne .L10
 352 025a 8D81      		ldd r24,Y+5
 353 025c 882F      		mov r24,r24
 354 025e 90E0      		ldi r25,lo8(0)
 355 0260 880F      		lsl r24
 356 0262 991F      		rol r25
 357 0264 FC01      		movw r30,r24
 358 0266 E050      		subi r30,lo8(-(mcp4922_p_cs))
 359 0268 F040      		sbci r31,hi8(-(mcp4922_p_cs))
 360 026a 8BE3      		ldi r24,lo8(59)
 361 026c 90E0      		ldi r25,hi8(59)
 362 026e 9183      		std Z+1,r25
 363 0270 8083      		st Z,r24
 364 0272 AAE3      		ldi r26,lo8(58)
 365 0274 B0E0      		ldi r27,hi8(58)
 366 0276 EAE3      		ldi r30,lo8(58)
 367 0278 F0E0      		ldi r31,hi8(58)
 368 027a 9081      		ld r25,Z
 369 027c 8B81      		ldd r24,Y+3
 370 027e 892B      		or r24,r25
 371 0280 8C93      		st X,r24
 372               	.L10:
 373               	.LM22:
 374 0282 8E81      		ldd r24,Y+6
 375 0284 8031      		cpi r24,lo8(16)
 376 0286 01F4      		brne .L11
 377 0288 8D81      		ldd r24,Y+5
 378 028a 882F      		mov r24,r24
 379 028c 90E0      		ldi r25,lo8(0)
 380 028e 880F      		lsl r24
 381 0290 991F      		rol r25
 382 0292 FC01      		movw r30,r24
 383 0294 E050      		subi r30,lo8(-(mcp4922_p_cs))
 384 0296 F040      		sbci r31,hi8(-(mcp4922_p_cs))
 385 0298 88E3      		ldi r24,lo8(56)
 386 029a 90E0      		ldi r25,hi8(56)
 387 029c 9183      		std Z+1,r25
 388 029e 8083      		st Z,r24
 389 02a0 A7E3      		ldi r26,lo8(55)
 390 02a2 B0E0      		ldi r27,hi8(55)
 391 02a4 E7E3      		ldi r30,lo8(55)
 392 02a6 F0E0      		ldi r31,hi8(55)
 393 02a8 9081      		ld r25,Z
 394 02aa 8B81      		ldd r24,Y+3
 395 02ac 892B      		or r24,r25
 396 02ae 8C93      		st X,r24
 397               	.L11:
 398               	.LM23:
 399 02b0 8E81      		ldd r24,Y+6
GAS LISTING C:\Users\alex\AppData\Local\Temp/cc0CmVZN.s 			page 8


 400 02b2 8032      		cpi r24,lo8(32)
 401 02b4 01F4      		brne .L12
 402 02b6 8D81      		ldd r24,Y+5
 403 02b8 882F      		mov r24,r24
 404 02ba 90E0      		ldi r25,lo8(0)
 405 02bc 880F      		lsl r24
 406 02be 991F      		rol r25
 407 02c0 FC01      		movw r30,r24
 408 02c2 E050      		subi r30,lo8(-(mcp4922_p_cs))
 409 02c4 F040      		sbci r31,hi8(-(mcp4922_p_cs))
 410 02c6 85E3      		ldi r24,lo8(53)
 411 02c8 90E0      		ldi r25,hi8(53)
 412 02ca 9183      		std Z+1,r25
 413 02cc 8083      		st Z,r24
 414 02ce A4E3      		ldi r26,lo8(52)
 415 02d0 B0E0      		ldi r27,hi8(52)
 416 02d2 E4E3      		ldi r30,lo8(52)
 417 02d4 F0E0      		ldi r31,hi8(52)
 418 02d6 9081      		ld r25,Z
 419 02d8 8B81      		ldd r24,Y+3
 420 02da 892B      		or r24,r25
 421 02dc 8C93      		st X,r24
 422               	.L12:
 423               	.LM24:
 424 02de 8E81      		ldd r24,Y+6
 425 02e0 8033      		cpi r24,lo8(48)
 426 02e2 01F4      		brne .L13
 427 02e4 8D81      		ldd r24,Y+5
 428 02e6 882F      		mov r24,r24
 429 02e8 90E0      		ldi r25,lo8(0)
 430 02ea 880F      		lsl r24
 431 02ec 991F      		rol r25
 432 02ee FC01      		movw r30,r24
 433 02f0 E050      		subi r30,lo8(-(mcp4922_p_cs))
 434 02f2 F040      		sbci r31,hi8(-(mcp4922_p_cs))
 435 02f4 82E3      		ldi r24,lo8(50)
 436 02f6 90E0      		ldi r25,hi8(50)
 437 02f8 9183      		std Z+1,r25
 438 02fa 8083      		st Z,r24
 439 02fc A1E3      		ldi r26,lo8(49)
 440 02fe B0E0      		ldi r27,hi8(49)
 441 0300 E1E3      		ldi r30,lo8(49)
 442 0302 F0E0      		ldi r31,hi8(49)
 443 0304 9081      		ld r25,Z
 444 0306 8B81      		ldd r24,Y+3
 445 0308 892B      		or r24,r25
 446 030a 8C93      		st X,r24
 447               	.L13:
 448               	.LM25:
 449 030c 8985      		ldd r24,Y+9
 450 030e 807F      		andi r24,lo8(-16)
 451 0310 8987      		std Y+9,r24
 452               	.LM26:
 453 0312 8985      		ldd r24,Y+9
 454 0314 8823      		tst r24
 455 0316 01F4      		brne .L14
 456 0318 8D81      		ldd r24,Y+5
GAS LISTING C:\Users\alex\AppData\Local\Temp/cc0CmVZN.s 			page 9


 457 031a 882F      		mov r24,r24
 458 031c 90E0      		ldi r25,lo8(0)
 459 031e 880F      		lsl r24
 460 0320 991F      		rol r25
 461 0322 FC01      		movw r30,r24
 462 0324 E050      		subi r30,lo8(-(mcp4922_p_ldac))
 463 0326 F040      		sbci r31,hi8(-(mcp4922_p_ldac))
 464 0328 8BE3      		ldi r24,lo8(59)
 465 032a 90E0      		ldi r25,hi8(59)
 466 032c 9183      		std Z+1,r25
 467 032e 8083      		st Z,r24
 468 0330 AAE3      		ldi r26,lo8(58)
 469 0332 B0E0      		ldi r27,hi8(58)
 470 0334 EAE3      		ldi r30,lo8(58)
 471 0336 F0E0      		ldi r31,hi8(58)
 472 0338 9081      		ld r25,Z
 473 033a 8981      		ldd r24,Y+1
 474 033c 892B      		or r24,r25
 475 033e 8C93      		st X,r24
 476               	.L14:
 477               	.LM27:
 478 0340 8985      		ldd r24,Y+9
 479 0342 8031      		cpi r24,lo8(16)
 480 0344 01F4      		brne .L15
 481 0346 8D81      		ldd r24,Y+5
 482 0348 882F      		mov r24,r24
 483 034a 90E0      		ldi r25,lo8(0)
 484 034c 880F      		lsl r24
 485 034e 991F      		rol r25
 486 0350 FC01      		movw r30,r24
 487 0352 E050      		subi r30,lo8(-(mcp4922_p_ldac))
 488 0354 F040      		sbci r31,hi8(-(mcp4922_p_ldac))
 489 0356 88E3      		ldi r24,lo8(56)
 490 0358 90E0      		ldi r25,hi8(56)
 491 035a 9183      		std Z+1,r25
 492 035c 8083      		st Z,r24
 493 035e A7E3      		ldi r26,lo8(55)
 494 0360 B0E0      		ldi r27,hi8(55)
 495 0362 E7E3      		ldi r30,lo8(55)
 496 0364 F0E0      		ldi r31,hi8(55)
 497 0366 9081      		ld r25,Z
 498 0368 8981      		ldd r24,Y+1
 499 036a 892B      		or r24,r25
 500 036c 8C93      		st X,r24
 501               	.L15:
 502               	.LM28:
 503 036e 8985      		ldd r24,Y+9
 504 0370 8032      		cpi r24,lo8(32)
 505 0372 01F4      		brne .L16
 506 0374 8D81      		ldd r24,Y+5
 507 0376 882F      		mov r24,r24
 508 0378 90E0      		ldi r25,lo8(0)
 509 037a 880F      		lsl r24
 510 037c 991F      		rol r25
 511 037e FC01      		movw r30,r24
 512 0380 E050      		subi r30,lo8(-(mcp4922_p_ldac))
 513 0382 F040      		sbci r31,hi8(-(mcp4922_p_ldac))
GAS LISTING C:\Users\alex\AppData\Local\Temp/cc0CmVZN.s 			page 10


 514 0384 85E3      		ldi r24,lo8(53)
 515 0386 90E0      		ldi r25,hi8(53)
 516 0388 9183      		std Z+1,r25
 517 038a 8083      		st Z,r24
 518 038c A4E3      		ldi r26,lo8(52)
 519 038e B0E0      		ldi r27,hi8(52)
 520 0390 E4E3      		ldi r30,lo8(52)
 521 0392 F0E0      		ldi r31,hi8(52)
 522 0394 9081      		ld r25,Z
 523 0396 8981      		ldd r24,Y+1
 524 0398 892B      		or r24,r25
 525 039a 8C93      		st X,r24
 526               	.L16:
 527               	.LM29:
 528 039c 8985      		ldd r24,Y+9
 529 039e 8033      		cpi r24,lo8(48)
 530 03a0 01F4      		brne .L17
 531 03a2 8D81      		ldd r24,Y+5
 532 03a4 882F      		mov r24,r24
 533 03a6 90E0      		ldi r25,lo8(0)
 534 03a8 880F      		lsl r24
 535 03aa 991F      		rol r25
 536 03ac FC01      		movw r30,r24
 537 03ae E050      		subi r30,lo8(-(mcp4922_p_ldac))
 538 03b0 F040      		sbci r31,hi8(-(mcp4922_p_ldac))
 539 03b2 82E3      		ldi r24,lo8(50)
 540 03b4 90E0      		ldi r25,hi8(50)
 541 03b6 9183      		std Z+1,r25
 542 03b8 8083      		st Z,r24
 543 03ba A1E3      		ldi r26,lo8(49)
 544 03bc B0E0      		ldi r27,hi8(49)
 545 03be E1E3      		ldi r30,lo8(49)
 546 03c0 F0E0      		ldi r31,hi8(49)
 547 03c2 9081      		ld r25,Z
 548 03c4 8981      		ldd r24,Y+1
 549 03c6 892B      		or r24,r25
 550 03c8 8C93      		st X,r24
 551               	.L17:
 552               	.LM30:
 553 03ca 8D81      		ldd r24,Y+5
 554 03cc 882F      		mov r24,r24
 555 03ce 90E0      		ldi r25,lo8(0)
 556 03d0 880F      		lsl r24
 557 03d2 991F      		rol r25
 558 03d4 FC01      		movw r30,r24
 559 03d6 E050      		subi r30,lo8(-(mcp4922_p_cs))
 560 03d8 F040      		sbci r31,hi8(-(mcp4922_p_cs))
 561 03da A081      		ld r26,Z
 562 03dc B181      		ldd r27,Z+1
 563 03de 8D81      		ldd r24,Y+5
 564 03e0 882F      		mov r24,r24
 565 03e2 90E0      		ldi r25,lo8(0)
 566 03e4 880F      		lsl r24
 567 03e6 991F      		rol r25
 568 03e8 FC01      		movw r30,r24
 569 03ea E050      		subi r30,lo8(-(mcp4922_p_cs))
 570 03ec F040      		sbci r31,hi8(-(mcp4922_p_cs))
GAS LISTING C:\Users\alex\AppData\Local\Temp/cc0CmVZN.s 			page 11


 571 03ee 0190      		ld __tmp_reg__,Z+
 572 03f0 F081      		ld r31,Z
 573 03f2 E02D      		mov r30,__tmp_reg__
 574 03f4 2081      		ld r18,Z
 575 03f6 8D81      		ldd r24,Y+5
 576 03f8 882F      		mov r24,r24
 577 03fa 90E0      		ldi r25,lo8(0)
 578 03fc FC01      		movw r30,r24
 579 03fe E050      		subi r30,lo8(-(mcp4922_b_cs))
 580 0400 F040      		sbci r31,hi8(-(mcp4922_b_cs))
 581 0402 8081      		ld r24,Z
 582 0404 822B      		or r24,r18
 583 0406 8C93      		st X,r24
 584               	.LM31:
 585 0408 8D81      		ldd r24,Y+5
 586 040a 882F      		mov r24,r24
 587 040c 90E0      		ldi r25,lo8(0)
 588 040e 880F      		lsl r24
 589 0410 991F      		rol r25
 590 0412 FC01      		movw r30,r24
 591 0414 E050      		subi r30,lo8(-(mcp4922_p_clk))
 592 0416 F040      		sbci r31,hi8(-(mcp4922_p_clk))
 593 0418 A081      		ld r26,Z
 594 041a B181      		ldd r27,Z+1
 595 041c 8D81      		ldd r24,Y+5
 596 041e 882F      		mov r24,r24
 597 0420 90E0      		ldi r25,lo8(0)
 598 0422 880F      		lsl r24
 599 0424 991F      		rol r25
 600 0426 FC01      		movw r30,r24
 601 0428 E050      		subi r30,lo8(-(mcp4922_p_clk))
 602 042a F040      		sbci r31,hi8(-(mcp4922_p_clk))
 603 042c 0190      		ld __tmp_reg__,Z+
 604 042e F081      		ld r31,Z
 605 0430 E02D      		mov r30,__tmp_reg__
 606 0432 8081      		ld r24,Z
 607 0434 282F      		mov r18,r24
 608 0436 8D81      		ldd r24,Y+5
 609 0438 882F      		mov r24,r24
 610 043a 90E0      		ldi r25,lo8(0)
 611 043c FC01      		movw r30,r24
 612 043e E050      		subi r30,lo8(-(mcp4922_b_clk))
 613 0440 F040      		sbci r31,hi8(-(mcp4922_b_clk))
 614 0442 8081      		ld r24,Z
 615 0444 8095      		com r24
 616 0446 8223      		and r24,r18
 617 0448 8C93      		st X,r24
 618               	.LM32:
 619 044a 8D81      		ldd r24,Y+5
 620 044c 882F      		mov r24,r24
 621 044e 90E0      		ldi r25,lo8(0)
 622 0450 880F      		lsl r24
 623 0452 991F      		rol r25
 624 0454 FC01      		movw r30,r24
 625 0456 E050      		subi r30,lo8(-(mcp4922_p_ldac))
 626 0458 F040      		sbci r31,hi8(-(mcp4922_p_ldac))
 627 045a A081      		ld r26,Z
GAS LISTING C:\Users\alex\AppData\Local\Temp/cc0CmVZN.s 			page 12


 628 045c B181      		ldd r27,Z+1
 629 045e 8D81      		ldd r24,Y+5
 630 0460 882F      		mov r24,r24
 631 0462 90E0      		ldi r25,lo8(0)
 632 0464 880F      		lsl r24
 633 0466 991F      		rol r25
 634 0468 FC01      		movw r30,r24
 635 046a E050      		subi r30,lo8(-(mcp4922_p_ldac))
 636 046c F040      		sbci r31,hi8(-(mcp4922_p_ldac))
 637 046e 0190      		ld __tmp_reg__,Z+
 638 0470 F081      		ld r31,Z
 639 0472 E02D      		mov r30,__tmp_reg__
 640 0474 2081      		ld r18,Z
 641 0476 8D81      		ldd r24,Y+5
 642 0478 882F      		mov r24,r24
 643 047a 90E0      		ldi r25,lo8(0)
 644 047c FC01      		movw r30,r24
 645 047e E050      		subi r30,lo8(-(mcp4922_b_ldac))
 646 0480 F040      		sbci r31,hi8(-(mcp4922_b_ldac))
 647 0482 8081      		ld r24,Z
 648 0484 822B      		or r24,r18
 649 0486 8C93      		st X,r24
 650               	/* epilogue start */
 651               	.LM33:
 652 0488 2996      		adiw r28,9
 653 048a 0FB6      		in __tmp_reg__,__SREG__
 654 048c F894      		cli
 655 048e DEBF      		out __SP_H__,r29
 656 0490 0FBE      		out __SREG__,__tmp_reg__
 657 0492 CDBF      		out __SP_L__,r28
 658 0494 CF91      		pop r28
 659 0496 DF91      		pop r29
 660 0498 0F91      		pop r16
 661 049a 0895      		ret
 662               	.LFE2:
 663               		.size	init_mcp4922, .-init_mcp4922
 664               	.global	init_mcp4922_spi
 665               		.type	init_mcp4922_spi, @function
 666               	init_mcp4922_spi:
 667               	.LFB3:
 668               	.LM34:
 669 049c DF93      		push r29
 670 049e CF93      		push r28
 671 04a0 00D0      		rcall .
 672 04a2 00D0      		rcall .
 673 04a4 0F92      		push __tmp_reg__
 674 04a6 CDB7      		in r28,__SP_L__
 675 04a8 DEB7      		in r29,__SP_H__
 676               	/* prologue: function */
 677               	/* frame size = 5 */
 678 04aa 8B83      		std Y+3,r24
 679 04ac 6C83      		std Y+4,r22
 680 04ae 4D83      		std Y+5,r20
 681               	.LM35:
 682 04b0 8C81      		ldd r24,Y+4
 683 04b2 882F      		mov r24,r24
 684 04b4 90E0      		ldi r25,lo8(0)
GAS LISTING C:\Users\alex\AppData\Local\Temp/cc0CmVZN.s 			page 13


 685 04b6 9C01      		movw r18,r24
 686 04b8 2F70      		andi r18,lo8(15)
 687 04ba 3070      		andi r19,hi8(15)
 688 04bc 81E0      		ldi r24,lo8(1)
 689 04be 90E0      		ldi r25,hi8(1)
 690 04c0 00C0      		rjmp 2f
 691 04c2 880F      	1:	lsl r24
 692 04c4 991F      		rol r25
 693 04c6 2A95      	2:	dec r18
 694 04c8 02F4      		brpl 1b
 695 04ca 8A83      		std Y+2,r24
 696               	.LM36:
 697 04cc 8D81      		ldd r24,Y+5
 698 04ce 882F      		mov r24,r24
 699 04d0 90E0      		ldi r25,lo8(0)
 700 04d2 9C01      		movw r18,r24
 701 04d4 2F70      		andi r18,lo8(15)
 702 04d6 3070      		andi r19,hi8(15)
 703 04d8 81E0      		ldi r24,lo8(1)
 704 04da 90E0      		ldi r25,hi8(1)
 705 04dc 022E      		mov r0,r18
 706 04de 00C0      		rjmp 2f
 707 04e0 880F      	1:	lsl r24
 708 04e2 991F      		rol r25
 709 04e4 0A94      	2:	dec r0
 710 04e6 02F4      		brpl 1b
 711 04e8 8983      		std Y+1,r24
 712               	.LM37:
 713 04ea 8B81      		ldd r24,Y+3
 714 04ec 882F      		mov r24,r24
 715 04ee 90E0      		ldi r25,lo8(0)
 716 04f0 FC01      		movw r30,r24
 717 04f2 E050      		subi r30,lo8(-(mcp4922_b_cs))
 718 04f4 F040      		sbci r31,hi8(-(mcp4922_b_cs))
 719 04f6 8A81      		ldd r24,Y+2
 720 04f8 8083      		st Z,r24
 721               	.LM38:
 722 04fa 8B81      		ldd r24,Y+3
 723 04fc 882F      		mov r24,r24
 724 04fe 90E0      		ldi r25,lo8(0)
 725 0500 FC01      		movw r30,r24
 726 0502 E050      		subi r30,lo8(-(mcp4922_b_ldac))
 727 0504 F040      		sbci r31,hi8(-(mcp4922_b_ldac))
 728 0506 8981      		ldd r24,Y+1
 729 0508 8083      		st Z,r24
 730               	.LM39:
 731 050a 8C81      		ldd r24,Y+4
 732 050c 807F      		andi r24,lo8(-16)
 733 050e 8C83      		std Y+4,r24
 734               	.LM40:
 735 0510 8C81      		ldd r24,Y+4
 736 0512 8823      		tst r24
 737 0514 01F4      		brne .L20
 738 0516 8B81      		ldd r24,Y+3
 739 0518 882F      		mov r24,r24
 740 051a 90E0      		ldi r25,lo8(0)
 741 051c 880F      		lsl r24
GAS LISTING C:\Users\alex\AppData\Local\Temp/cc0CmVZN.s 			page 14


 742 051e 991F      		rol r25
 743 0520 FC01      		movw r30,r24
 744 0522 E050      		subi r30,lo8(-(mcp4922_p_cs))
 745 0524 F040      		sbci r31,hi8(-(mcp4922_p_cs))
 746 0526 8BE3      		ldi r24,lo8(59)
 747 0528 90E0      		ldi r25,hi8(59)
 748 052a 9183      		std Z+1,r25
 749 052c 8083      		st Z,r24
 750 052e AAE3      		ldi r26,lo8(58)
 751 0530 B0E0      		ldi r27,hi8(58)
 752 0532 EAE3      		ldi r30,lo8(58)
 753 0534 F0E0      		ldi r31,hi8(58)
 754 0536 9081      		ld r25,Z
 755 0538 8A81      		ldd r24,Y+2
 756 053a 892B      		or r24,r25
 757 053c 8C93      		st X,r24
 758               	.L20:
 759               	.LM41:
 760 053e 8C81      		ldd r24,Y+4
 761 0540 8031      		cpi r24,lo8(16)
 762 0542 01F4      		brne .L21
 763 0544 8B81      		ldd r24,Y+3
 764 0546 882F      		mov r24,r24
 765 0548 90E0      		ldi r25,lo8(0)
 766 054a 880F      		lsl r24
 767 054c 991F      		rol r25
 768 054e FC01      		movw r30,r24
 769 0550 E050      		subi r30,lo8(-(mcp4922_p_cs))
 770 0552 F040      		sbci r31,hi8(-(mcp4922_p_cs))
 771 0554 88E3      		ldi r24,lo8(56)
 772 0556 90E0      		ldi r25,hi8(56)
 773 0558 9183      		std Z+1,r25
 774 055a 8083      		st Z,r24
 775 055c A7E3      		ldi r26,lo8(55)
 776 055e B0E0      		ldi r27,hi8(55)
 777 0560 E7E3      		ldi r30,lo8(55)
 778 0562 F0E0      		ldi r31,hi8(55)
 779 0564 9081      		ld r25,Z
 780 0566 8A81      		ldd r24,Y+2
 781 0568 892B      		or r24,r25
 782 056a 8C93      		st X,r24
 783               	.L21:
 784               	.LM42:
 785 056c 8C81      		ldd r24,Y+4
 786 056e 8032      		cpi r24,lo8(32)
 787 0570 01F4      		brne .L22
 788 0572 8B81      		ldd r24,Y+3
 789 0574 882F      		mov r24,r24
 790 0576 90E0      		ldi r25,lo8(0)
 791 0578 880F      		lsl r24
 792 057a 991F      		rol r25
 793 057c FC01      		movw r30,r24
 794 057e E050      		subi r30,lo8(-(mcp4922_p_cs))
 795 0580 F040      		sbci r31,hi8(-(mcp4922_p_cs))
 796 0582 85E3      		ldi r24,lo8(53)
 797 0584 90E0      		ldi r25,hi8(53)
 798 0586 9183      		std Z+1,r25
GAS LISTING C:\Users\alex\AppData\Local\Temp/cc0CmVZN.s 			page 15


 799 0588 8083      		st Z,r24
 800 058a A4E3      		ldi r26,lo8(52)
 801 058c B0E0      		ldi r27,hi8(52)
 802 058e E4E3      		ldi r30,lo8(52)
 803 0590 F0E0      		ldi r31,hi8(52)
 804 0592 9081      		ld r25,Z
 805 0594 8A81      		ldd r24,Y+2
 806 0596 892B      		or r24,r25
 807 0598 8C93      		st X,r24
 808               	.L22:
 809               	.LM43:
 810 059a 8C81      		ldd r24,Y+4
 811 059c 8033      		cpi r24,lo8(48)
 812 059e 01F4      		brne .L23
 813 05a0 8B81      		ldd r24,Y+3
 814 05a2 882F      		mov r24,r24
 815 05a4 90E0      		ldi r25,lo8(0)
 816 05a6 880F      		lsl r24
 817 05a8 991F      		rol r25
 818 05aa FC01      		movw r30,r24
 819 05ac E050      		subi r30,lo8(-(mcp4922_p_cs))
 820 05ae F040      		sbci r31,hi8(-(mcp4922_p_cs))
 821 05b0 82E3      		ldi r24,lo8(50)
 822 05b2 90E0      		ldi r25,hi8(50)
 823 05b4 9183      		std Z+1,r25
 824 05b6 8083      		st Z,r24
 825 05b8 A1E3      		ldi r26,lo8(49)
 826 05ba B0E0      		ldi r27,hi8(49)
 827 05bc E1E3      		ldi r30,lo8(49)
 828 05be F0E0      		ldi r31,hi8(49)
 829 05c0 9081      		ld r25,Z
 830 05c2 8A81      		ldd r24,Y+2
 831 05c4 892B      		or r24,r25
 832 05c6 8C93      		st X,r24
 833               	.L23:
 834               	.LM44:
 835 05c8 8D81      		ldd r24,Y+5
 836 05ca 807F      		andi r24,lo8(-16)
 837 05cc 8D83      		std Y+5,r24
 838               	.LM45:
 839 05ce 8D81      		ldd r24,Y+5
 840 05d0 8823      		tst r24
 841 05d2 01F4      		brne .L24
 842 05d4 8B81      		ldd r24,Y+3
 843 05d6 882F      		mov r24,r24
 844 05d8 90E0      		ldi r25,lo8(0)
 845 05da 880F      		lsl r24
 846 05dc 991F      		rol r25
 847 05de FC01      		movw r30,r24
 848 05e0 E050      		subi r30,lo8(-(mcp4922_p_ldac))
 849 05e2 F040      		sbci r31,hi8(-(mcp4922_p_ldac))
 850 05e4 8BE3      		ldi r24,lo8(59)
 851 05e6 90E0      		ldi r25,hi8(59)
 852 05e8 9183      		std Z+1,r25
 853 05ea 8083      		st Z,r24
 854 05ec AAE3      		ldi r26,lo8(58)
 855 05ee B0E0      		ldi r27,hi8(58)
GAS LISTING C:\Users\alex\AppData\Local\Temp/cc0CmVZN.s 			page 16


 856 05f0 EAE3      		ldi r30,lo8(58)
 857 05f2 F0E0      		ldi r31,hi8(58)
 858 05f4 9081      		ld r25,Z
 859 05f6 8981      		ldd r24,Y+1
 860 05f8 892B      		or r24,r25
 861 05fa 8C93      		st X,r24
 862               	.L24:
 863               	.LM46:
 864 05fc 8D81      		ldd r24,Y+5
 865 05fe 8031      		cpi r24,lo8(16)
 866 0600 01F4      		brne .L25
 867 0602 8B81      		ldd r24,Y+3
 868 0604 882F      		mov r24,r24
 869 0606 90E0      		ldi r25,lo8(0)
 870 0608 880F      		lsl r24
 871 060a 991F      		rol r25
 872 060c FC01      		movw r30,r24
 873 060e E050      		subi r30,lo8(-(mcp4922_p_ldac))
 874 0610 F040      		sbci r31,hi8(-(mcp4922_p_ldac))
 875 0612 88E3      		ldi r24,lo8(56)
 876 0614 90E0      		ldi r25,hi8(56)
 877 0616 9183      		std Z+1,r25
 878 0618 8083      		st Z,r24
 879 061a A7E3      		ldi r26,lo8(55)
 880 061c B0E0      		ldi r27,hi8(55)
 881 061e E7E3      		ldi r30,lo8(55)
 882 0620 F0E0      		ldi r31,hi8(55)
 883 0622 9081      		ld r25,Z
 884 0624 8981      		ldd r24,Y+1
 885 0626 892B      		or r24,r25
 886 0628 8C93      		st X,r24
 887               	.L25:
 888               	.LM47:
 889 062a 8D81      		ldd r24,Y+5
 890 062c 8032      		cpi r24,lo8(32)
 891 062e 01F4      		brne .L26
 892 0630 8B81      		ldd r24,Y+3
 893 0632 882F      		mov r24,r24
 894 0634 90E0      		ldi r25,lo8(0)
 895 0636 880F      		lsl r24
 896 0638 991F      		rol r25
 897 063a FC01      		movw r30,r24
 898 063c E050      		subi r30,lo8(-(mcp4922_p_ldac))
 899 063e F040      		sbci r31,hi8(-(mcp4922_p_ldac))
 900 0640 85E3      		ldi r24,lo8(53)
 901 0642 90E0      		ldi r25,hi8(53)
 902 0644 9183      		std Z+1,r25
 903 0646 8083      		st Z,r24
 904 0648 A4E3      		ldi r26,lo8(52)
 905 064a B0E0      		ldi r27,hi8(52)
 906 064c E4E3      		ldi r30,lo8(52)
 907 064e F0E0      		ldi r31,hi8(52)
 908 0650 9081      		ld r25,Z
 909 0652 8981      		ldd r24,Y+1
 910 0654 892B      		or r24,r25
 911 0656 8C93      		st X,r24
 912               	.L26:
GAS LISTING C:\Users\alex\AppData\Local\Temp/cc0CmVZN.s 			page 17


 913               	.LM48:
 914 0658 8D81      		ldd r24,Y+5
 915 065a 8033      		cpi r24,lo8(48)
 916 065c 01F4      		brne .L27
 917 065e 8B81      		ldd r24,Y+3
 918 0660 882F      		mov r24,r24
 919 0662 90E0      		ldi r25,lo8(0)
 920 0664 880F      		lsl r24
 921 0666 991F      		rol r25
 922 0668 FC01      		movw r30,r24
 923 066a E050      		subi r30,lo8(-(mcp4922_p_ldac))
 924 066c F040      		sbci r31,hi8(-(mcp4922_p_ldac))
 925 066e 82E3      		ldi r24,lo8(50)
 926 0670 90E0      		ldi r25,hi8(50)
 927 0672 9183      		std Z+1,r25
 928 0674 8083      		st Z,r24
 929 0676 A1E3      		ldi r26,lo8(49)
 930 0678 B0E0      		ldi r27,hi8(49)
 931 067a E1E3      		ldi r30,lo8(49)
 932 067c F0E0      		ldi r31,hi8(49)
 933 067e 9081      		ld r25,Z
 934 0680 8981      		ldd r24,Y+1
 935 0682 892B      		or r24,r25
 936 0684 8C93      		st X,r24
 937               	.L27:
 938               	.LM49:
 939 0686 EDE2      		ldi r30,lo8(45)
 940 0688 F0E0      		ldi r31,hi8(45)
 941 068a 80E5      		ldi r24,lo8(80)
 942 068c 8083      		st Z,r24
 943               	.LM50:
 944 068e EEE2      		ldi r30,lo8(46)
 945 0690 F0E0      		ldi r31,hi8(46)
 946 0692 81E0      		ldi r24,lo8(1)
 947 0694 8083      		st Z,r24
 948               	.LM51:
 949 0696 8B81      		ldd r24,Y+3
 950 0698 882F      		mov r24,r24
 951 069a 90E0      		ldi r25,lo8(0)
 952 069c 880F      		lsl r24
 953 069e 991F      		rol r25
 954 06a0 FC01      		movw r30,r24
 955 06a2 E050      		subi r30,lo8(-(mcp4922_p_cs))
 956 06a4 F040      		sbci r31,hi8(-(mcp4922_p_cs))
 957 06a6 A081      		ld r26,Z
 958 06a8 B181      		ldd r27,Z+1
 959 06aa 8B81      		ldd r24,Y+3
 960 06ac 882F      		mov r24,r24
 961 06ae 90E0      		ldi r25,lo8(0)
 962 06b0 880F      		lsl r24
 963 06b2 991F      		rol r25
 964 06b4 FC01      		movw r30,r24
 965 06b6 E050      		subi r30,lo8(-(mcp4922_p_cs))
 966 06b8 F040      		sbci r31,hi8(-(mcp4922_p_cs))
 967 06ba 0190      		ld __tmp_reg__,Z+
 968 06bc F081      		ld r31,Z
 969 06be E02D      		mov r30,__tmp_reg__
GAS LISTING C:\Users\alex\AppData\Local\Temp/cc0CmVZN.s 			page 18


 970 06c0 2081      		ld r18,Z
 971 06c2 8B81      		ldd r24,Y+3
 972 06c4 882F      		mov r24,r24
 973 06c6 90E0      		ldi r25,lo8(0)
 974 06c8 FC01      		movw r30,r24
 975 06ca E050      		subi r30,lo8(-(mcp4922_b_cs))
 976 06cc F040      		sbci r31,hi8(-(mcp4922_b_cs))
 977 06ce 8081      		ld r24,Z
 978 06d0 822B      		or r24,r18
 979 06d2 8C93      		st X,r24
 980               	.LM52:
 981 06d4 8B81      		ldd r24,Y+3
 982 06d6 882F      		mov r24,r24
 983 06d8 90E0      		ldi r25,lo8(0)
 984 06da 880F      		lsl r24
 985 06dc 991F      		rol r25
 986 06de FC01      		movw r30,r24
 987 06e0 E050      		subi r30,lo8(-(mcp4922_p_ldac))
 988 06e2 F040      		sbci r31,hi8(-(mcp4922_p_ldac))
 989 06e4 A081      		ld r26,Z
 990 06e6 B181      		ldd r27,Z+1
 991 06e8 8B81      		ldd r24,Y+3
 992 06ea 882F      		mov r24,r24
 993 06ec 90E0      		ldi r25,lo8(0)
 994 06ee 880F      		lsl r24
 995 06f0 991F      		rol r25
 996 06f2 FC01      		movw r30,r24
 997 06f4 E050      		subi r30,lo8(-(mcp4922_p_ldac))
 998 06f6 F040      		sbci r31,hi8(-(mcp4922_p_ldac))
 999 06f8 0190      		ld __tmp_reg__,Z+
 1000 06fa F081      		ld r31,Z
 1001 06fc E02D      		mov r30,__tmp_reg__
 1002 06fe 2081      		ld r18,Z
 1003 0700 8B81      		ldd r24,Y+3
 1004 0702 882F      		mov r24,r24
 1005 0704 90E0      		ldi r25,lo8(0)
 1006 0706 FC01      		movw r30,r24
 1007 0708 E050      		subi r30,lo8(-(mcp4922_b_ldac))
 1008 070a F040      		sbci r31,hi8(-(mcp4922_b_ldac))
 1009 070c 8081      		ld r24,Z
 1010 070e 822B      		or r24,r18
 1011 0710 8C93      		st X,r24
 1012               	/* epilogue start */
 1013               	.LM53:
 1014 0712 0F90      		pop __tmp_reg__
 1015 0714 0F90      		pop __tmp_reg__
 1016 0716 0F90      		pop __tmp_reg__
 1017 0718 0F90      		pop __tmp_reg__
 1018 071a 0F90      		pop __tmp_reg__
 1019 071c CF91      		pop r28
 1020 071e DF91      		pop r29
 1021 0720 0895      		ret
 1022               	.LFE3:
 1023               		.size	init_mcp4922_spi, .-init_mcp4922_spi
 1024               	.global	mcp4922_putw
 1025               		.type	mcp4922_putw, @function
 1026               	mcp4922_putw:
GAS LISTING C:\Users\alex\AppData\Local\Temp/cc0CmVZN.s 			page 19


 1027               	.LFB4:
 1028               	.LM54:
 1029 0722 DF93      		push r29
 1030 0724 CF93      		push r28
 1031 0726 CDB7      		in r28,__SP_L__
 1032 0728 DEB7      		in r29,__SP_H__
 1033 072a 6197      		sbiw r28,17
 1034 072c 0FB6      		in __tmp_reg__,__SREG__
 1035 072e F894      		cli
 1036 0730 DEBF      		out __SP_H__,r29
 1037 0732 0FBE      		out __SREG__,__tmp_reg__
 1038 0734 CDBF      		out __SP_L__,r28
 1039               	/* prologue: function */
 1040               	/* frame size = 17 */
 1041 0736 8E87      		std Y+14,r24
 1042 0738 788B      		std Y+16,r23
 1043 073a 6F87      		std Y+15,r22
 1044 073c 498B      		std Y+17,r20
 1045               	.LM55:
 1046 073e 8F85      		ldd r24,Y+15
 1047 0740 9889      		ldd r25,Y+16
 1048 0742 8070      		andi r24,lo8(-4096)
 1049 0744 907F      		andi r25,hi8(-4096)
 1050 0746 0097      		sbiw r24,0
 1051 0748 01F4      		brne .L30
 1052               	.LM56:
 1053 074a 8F85      		ldd r24,Y+15
 1054 074c 9889      		ldd r25,Y+16
 1055 074e 9067      		ori r25,hi8(28672)
 1056 0750 988B      		std Y+16,r25
 1057 0752 8F87      		std Y+15,r24
 1058               	.LM57:
 1059 0754 8989      		ldd r24,Y+17
 1060 0756 8823      		tst r24
 1061 0758 01F4      		brne .L30
 1062 075a 8F85      		ldd r24,Y+15
 1063 075c 9889      		ldd r25,Y+16
 1064 075e 9068      		ori r25,hi8(-32768)
 1065 0760 988B      		std Y+16,r25
 1066 0762 8F87      		std Y+15,r24
 1067               	.L30:
 1068               	.LM58:
 1069 0764 8E85      		ldd r24,Y+14
 1070 0766 882F      		mov r24,r24
 1071 0768 90E0      		ldi r25,lo8(0)
 1072 076a 880F      		lsl r24
 1073 076c 991F      		rol r25
 1074 076e FC01      		movw r30,r24
 1075 0770 E050      		subi r30,lo8(-(mcp4922_p_clk))
 1076 0772 F040      		sbci r31,hi8(-(mcp4922_p_clk))
 1077 0774 8081      		ld r24,Z
 1078 0776 9181      		ldd r25,Z+1
 1079 0778 9D87      		std Y+13,r25
 1080 077a 8C87      		std Y+12,r24
 1081               	.LM59:
 1082 077c 8E85      		ldd r24,Y+14
 1083 077e 882F      		mov r24,r24
GAS LISTING C:\Users\alex\AppData\Local\Temp/cc0CmVZN.s 			page 20


 1084 0780 90E0      		ldi r25,lo8(0)
 1085 0782 880F      		lsl r24
 1086 0784 991F      		rol r25
 1087 0786 FC01      		movw r30,r24
 1088 0788 E050      		subi r30,lo8(-(mcp4922_p_data))
 1089 078a F040      		sbci r31,hi8(-(mcp4922_p_data))
 1090 078c 8081      		ld r24,Z
 1091 078e 9181      		ldd r25,Z+1
 1092 0790 9987      		std Y+9,r25
 1093 0792 8887      		std Y+8,r24
 1094               	.LM60:
 1095 0794 8E85      		ldd r24,Y+14
 1096 0796 882F      		mov r24,r24
 1097 0798 90E0      		ldi r25,lo8(0)
 1098 079a 880F      		lsl r24
 1099 079c 991F      		rol r25
 1100 079e FC01      		movw r30,r24
 1101 07a0 E050      		subi r30,lo8(-(mcp4922_p_cs))
 1102 07a2 F040      		sbci r31,hi8(-(mcp4922_p_cs))
 1103 07a4 8081      		ld r24,Z
 1104 07a6 9181      		ldd r25,Z+1
 1105 07a8 9B87      		std Y+11,r25
 1106 07aa 8A87      		std Y+10,r24
 1107               	.LM61:
 1108 07ac 8E85      		ldd r24,Y+14
 1109 07ae 882F      		mov r24,r24
 1110 07b0 90E0      		ldi r25,lo8(0)
 1111 07b2 880F      		lsl r24
 1112 07b4 991F      		rol r25
 1113 07b6 FC01      		movw r30,r24
 1114 07b8 E050      		subi r30,lo8(-(mcp4922_p_ldac))
 1115 07ba F040      		sbci r31,hi8(-(mcp4922_p_ldac))
 1116 07bc 8081      		ld r24,Z
 1117 07be 9181      		ldd r25,Z+1
 1118 07c0 9F83      		std Y+7,r25
 1119 07c2 8E83      		std Y+6,r24
 1120               	.LM62:
 1121 07c4 8E85      		ldd r24,Y+14
 1122 07c6 882F      		mov r24,r24
 1123 07c8 90E0      		ldi r25,lo8(0)
 1124 07ca FC01      		movw r30,r24
 1125 07cc E050      		subi r30,lo8(-(mcp4922_b_clk))
 1126 07ce F040      		sbci r31,hi8(-(mcp4922_b_clk))
 1127 07d0 8081      		ld r24,Z
 1128 07d2 8D83      		std Y+5,r24
 1129               	.LM63:
 1130 07d4 8E85      		ldd r24,Y+14
 1131 07d6 882F      		mov r24,r24
 1132 07d8 90E0      		ldi r25,lo8(0)
 1133 07da FC01      		movw r30,r24
 1134 07dc E050      		subi r30,lo8(-(mcp4922_b_data))
 1135 07de F040      		sbci r31,hi8(-(mcp4922_b_data))
 1136 07e0 8081      		ld r24,Z
 1137 07e2 8B83      		std Y+3,r24
 1138               	.LM64:
 1139 07e4 8E85      		ldd r24,Y+14
 1140 07e6 882F      		mov r24,r24
GAS LISTING C:\Users\alex\AppData\Local\Temp/cc0CmVZN.s 			page 21


 1141 07e8 90E0      		ldi r25,lo8(0)
 1142 07ea FC01      		movw r30,r24
 1143 07ec E050      		subi r30,lo8(-(mcp4922_b_cs))
 1144 07ee F040      		sbci r31,hi8(-(mcp4922_b_cs))
 1145 07f0 8081      		ld r24,Z
 1146 07f2 8C83      		std Y+4,r24
 1147               	.LM65:
 1148 07f4 8E85      		ldd r24,Y+14
 1149 07f6 882F      		mov r24,r24
 1150 07f8 90E0      		ldi r25,lo8(0)
 1151 07fa FC01      		movw r30,r24
 1152 07fc E050      		subi r30,lo8(-(mcp4922_b_ldac))
 1153 07fe F040      		sbci r31,hi8(-(mcp4922_b_ldac))
 1154 0800 8081      		ld r24,Z
 1155 0802 8A83      		std Y+2,r24
 1156               	.LM66:
 1157 0804 EA85      		ldd r30,Y+10
 1158 0806 FB85      		ldd r31,Y+11
 1159 0808 8081      		ld r24,Z
 1160 080a 982F      		mov r25,r24
 1161 080c 8C81      		ldd r24,Y+4
 1162 080e 8095      		com r24
 1163 0810 8923      		and r24,r25
 1164 0812 EA85      		ldd r30,Y+10
 1165 0814 FB85      		ldd r31,Y+11
 1166 0816 8083      		st Z,r24
 1167               	.LM67:
 1168 0818 E885      		ldd r30,Y+8
 1169 081a F985      		ldd r31,Y+9
 1170 081c 8081      		ld r24,Z
 1171 081e 982F      		mov r25,r24
 1172 0820 8B81      		ldd r24,Y+3
 1173 0822 8095      		com r24
 1174 0824 8923      		and r24,r25
 1175 0826 E885      		ldd r30,Y+8
 1176 0828 F985      		ldd r31,Y+9
 1177 082a 8083      		st Z,r24
 1178               	.LM68:
 1179 082c 1982      		std Y+1,__zero_reg__
 1180 082e 00C0      		rjmp .L31
 1181               	.L34:
 1182               	.LM69:
 1183 0830 EC85      		ldd r30,Y+12
 1184 0832 FD85      		ldd r31,Y+13
 1185 0834 8081      		ld r24,Z
 1186 0836 982F      		mov r25,r24
 1187 0838 8D81      		ldd r24,Y+5
 1188 083a 8095      		com r24
 1189 083c 8923      		and r24,r25
 1190 083e EC85      		ldd r30,Y+12
 1191 0840 FD85      		ldd r31,Y+13
 1192 0842 8083      		st Z,r24
 1193               	.LM70:
 1194 0844 8F85      		ldd r24,Y+15
 1195 0846 9889      		ldd r25,Y+16
 1196 0848 9923      		tst r25
 1197 084a 04F4      		brge .L32
GAS LISTING C:\Users\alex\AppData\Local\Temp/cc0CmVZN.s 			page 22


 1198               	.LM71:
 1199 084c E885      		ldd r30,Y+8
 1200 084e F985      		ldd r31,Y+9
 1201 0850 9081      		ld r25,Z
 1202 0852 8B81      		ldd r24,Y+3
 1203 0854 892B      		or r24,r25
 1204 0856 E885      		ldd r30,Y+8
 1205 0858 F985      		ldd r31,Y+9
 1206 085a 8083      		st Z,r24
 1207 085c 00C0      		rjmp .L33
 1208               	.L32:
 1209               	.LM72:
 1210 085e E885      		ldd r30,Y+8
 1211 0860 F985      		ldd r31,Y+9
 1212 0862 8081      		ld r24,Z
 1213 0864 982F      		mov r25,r24
 1214 0866 8B81      		ldd r24,Y+3
 1215 0868 8095      		com r24
 1216 086a 8923      		and r24,r25
 1217 086c E885      		ldd r30,Y+8
 1218 086e F985      		ldd r31,Y+9
 1219 0870 8083      		st Z,r24
 1220               	.L33:
 1221               	.LM73:
 1222 0872 EC85      		ldd r30,Y+12
 1223 0874 FD85      		ldd r31,Y+13
 1224 0876 9081      		ld r25,Z
 1225 0878 8D81      		ldd r24,Y+5
 1226 087a 892B      		or r24,r25
 1227 087c EC85      		ldd r30,Y+12
 1228 087e FD85      		ldd r31,Y+13
 1229 0880 8083      		st Z,r24
 1230               	.LM74:
 1231 0882 8F85      		ldd r24,Y+15
 1232 0884 9889      		ldd r25,Y+16
 1233 0886 880F      		lsl r24
 1234 0888 991F      		rol r25
 1235 088a 988B      		std Y+16,r25
 1236 088c 8F87      		std Y+15,r24
 1237               	.LM75:
 1238 088e 8981      		ldd r24,Y+1
 1239 0890 8F5F      		subi r24,lo8(-(1))
 1240 0892 8983      		std Y+1,r24
 1241               	.L31:
 1242 0894 8981      		ldd r24,Y+1
 1243 0896 8031      		cpi r24,lo8(16)
 1244 0898 00F0      		brlo .L34
 1245               	.LM76:
 1246 089a EC85      		ldd r30,Y+12
 1247 089c FD85      		ldd r31,Y+13
 1248 089e 8081      		ld r24,Z
 1249 08a0 982F      		mov r25,r24
 1250 08a2 8D81      		ldd r24,Y+5
 1251 08a4 8095      		com r24
 1252 08a6 8923      		and r24,r25
 1253 08a8 EC85      		ldd r30,Y+12
 1254 08aa FD85      		ldd r31,Y+13
GAS LISTING C:\Users\alex\AppData\Local\Temp/cc0CmVZN.s 			page 23


 1255 08ac 8083      		st Z,r24
 1256               	.LM77:
 1257 08ae EA85      		ldd r30,Y+10
 1258 08b0 FB85      		ldd r31,Y+11
 1259 08b2 9081      		ld r25,Z
 1260 08b4 8C81      		ldd r24,Y+4
 1261 08b6 892B      		or r24,r25
 1262 08b8 EA85      		ldd r30,Y+10
 1263 08ba FB85      		ldd r31,Y+11
 1264 08bc 8083      		st Z,r24
 1265               	.LM78:
 1266 08be EE81      		ldd r30,Y+6
 1267 08c0 FF81      		ldd r31,Y+7
 1268 08c2 8081      		ld r24,Z
 1269 08c4 982F      		mov r25,r24
 1270 08c6 8A81      		ldd r24,Y+2
 1271 08c8 8095      		com r24
 1272 08ca 8923      		and r24,r25
 1273 08cc EE81      		ldd r30,Y+6
 1274 08ce FF81      		ldd r31,Y+7
 1275 08d0 8083      		st Z,r24
 1276               	.LM79:
 1277 08d2 82E0      		ldi r24,lo8(2)
 1278 08d4 90E0      		ldi r25,hi8(2)
 1279 08d6 0E94 0000 		call udelay
 1280               	.LM80:
 1281 08da EE81      		ldd r30,Y+6
 1282 08dc FF81      		ldd r31,Y+7
 1283 08de 9081      		ld r25,Z
 1284 08e0 8A81      		ldd r24,Y+2
 1285 08e2 892B      		or r24,r25
 1286 08e4 EE81      		ldd r30,Y+6
 1287 08e6 FF81      		ldd r31,Y+7
 1288 08e8 8083      		st Z,r24
 1289               	/* epilogue start */
 1290               	.LM81:
 1291 08ea 6196      		adiw r28,17
 1292 08ec 0FB6      		in __tmp_reg__,__SREG__
 1293 08ee F894      		cli
 1294 08f0 DEBF      		out __SP_H__,r29
 1295 08f2 0FBE      		out __SREG__,__tmp_reg__
 1296 08f4 CDBF      		out __SP_L__,r28
 1297 08f6 CF91      		pop r28
 1298 08f8 DF91      		pop r29
 1299 08fa 0895      		ret
 1300               	.LFE4:
 1301               		.size	mcp4922_putw, .-mcp4922_putw
 1302               	.global	mcp4922_spiw
 1303               		.type	mcp4922_spiw, @function
 1304               	mcp4922_spiw:
 1305               	.LFB5:
 1306               	.LM82:
 1307 08fc DF93      		push r29
 1308 08fe CF93      		push r28
 1309 0900 CDB7      		in r28,__SP_L__
 1310 0902 DEB7      		in r29,__SP_H__
 1311 0904 2A97      		sbiw r28,10
GAS LISTING C:\Users\alex\AppData\Local\Temp/cc0CmVZN.s 			page 24


 1312 0906 0FB6      		in __tmp_reg__,__SREG__
 1313 0908 F894      		cli
 1314 090a DEBF      		out __SP_H__,r29
 1315 090c 0FBE      		out __SREG__,__tmp_reg__
 1316 090e CDBF      		out __SP_L__,r28
 1317               	/* prologue: function */
 1318               	/* frame size = 10 */
 1319 0910 8F83      		std Y+7,r24
 1320 0912 7987      		std Y+9,r23
 1321 0914 6887      		std Y+8,r22
 1322 0916 4A87      		std Y+10,r20
 1323               	.LM83:
 1324 0918 8885      		ldd r24,Y+8
 1325 091a 9985      		ldd r25,Y+9
 1326 091c 8070      		andi r24,lo8(-4096)
 1327 091e 907F      		andi r25,hi8(-4096)
 1328 0920 0097      		sbiw r24,0
 1329 0922 01F4      		brne .L37
 1330               	.LM84:
 1331 0924 8885      		ldd r24,Y+8
 1332 0926 9985      		ldd r25,Y+9
 1333 0928 9067      		ori r25,hi8(28672)
 1334 092a 9987      		std Y+9,r25
 1335 092c 8887      		std Y+8,r24
 1336               	.LM85:
 1337 092e 8A85      		ldd r24,Y+10
 1338 0930 8823      		tst r24
 1339 0932 01F4      		brne .L37
 1340 0934 8885      		ldd r24,Y+8
 1341 0936 9985      		ldd r25,Y+9
 1342 0938 9068      		ori r25,hi8(-32768)
 1343 093a 9987      		std Y+9,r25
 1344 093c 8887      		std Y+8,r24
 1345               	.L37:
 1346               	.LM86:
 1347 093e 8F81      		ldd r24,Y+7
 1348 0940 882F      		mov r24,r24
 1349 0942 90E0      		ldi r25,lo8(0)
 1350 0944 880F      		lsl r24
 1351 0946 991F      		rol r25
 1352 0948 FC01      		movw r30,r24
 1353 094a E050      		subi r30,lo8(-(mcp4922_p_cs))
 1354 094c F040      		sbci r31,hi8(-(mcp4922_p_cs))
 1355 094e 8081      		ld r24,Z
 1356 0950 9181      		ldd r25,Z+1
 1357 0952 9E83      		std Y+6,r25
 1358 0954 8D83      		std Y+5,r24
 1359               	.LM87:
 1360 0956 8F81      		ldd r24,Y+7
 1361 0958 882F      		mov r24,r24
 1362 095a 90E0      		ldi r25,lo8(0)
 1363 095c 880F      		lsl r24
 1364 095e 991F      		rol r25
 1365 0960 FC01      		movw r30,r24
 1366 0962 E050      		subi r30,lo8(-(mcp4922_p_ldac))
 1367 0964 F040      		sbci r31,hi8(-(mcp4922_p_ldac))
 1368 0966 8081      		ld r24,Z
GAS LISTING C:\Users\alex\AppData\Local\Temp/cc0CmVZN.s 			page 25


 1369 0968 9181      		ldd r25,Z+1
 1370 096a 9C83      		std Y+4,r25
 1371 096c 8B83      		std Y+3,r24
 1372               	.LM88:
 1373 096e 8F81      		ldd r24,Y+7
 1374 0970 882F      		mov r24,r24
 1375 0972 90E0      		ldi r25,lo8(0)
 1376 0974 FC01      		movw r30,r24
 1377 0976 E050      		subi r30,lo8(-(mcp4922_b_cs))
 1378 0978 F040      		sbci r31,hi8(-(mcp4922_b_cs))
 1379 097a 8081      		ld r24,Z
 1380 097c 8A83      		std Y+2,r24
 1381               	.LM89:
 1382 097e 8F81      		ldd r24,Y+7
 1383 0980 882F      		mov r24,r24
 1384 0982 90E0      		ldi r25,lo8(0)
 1385 0984 FC01      		movw r30,r24
 1386 0986 E050      		subi r30,lo8(-(mcp4922_b_ldac))
 1387 0988 F040      		sbci r31,hi8(-(mcp4922_b_ldac))
 1388 098a 8081      		ld r24,Z
 1389 098c 8983      		std Y+1,r24
 1390               	.LM90:
 1391 098e ED81      		ldd r30,Y+5
 1392 0990 FE81      		ldd r31,Y+6
 1393 0992 8081      		ld r24,Z
 1394 0994 982F      		mov r25,r24
 1395 0996 8A81      		ldd r24,Y+2
 1396 0998 8095      		com r24
 1397 099a 8923      		and r24,r25
 1398 099c ED81      		ldd r30,Y+5
 1399 099e FE81      		ldd r31,Y+6
 1400 09a0 8083      		st Z,r24
 1401               	.LM91:
 1402 09a2 EFE2      		ldi r30,lo8(47)
 1403 09a4 F0E0      		ldi r31,hi8(47)
 1404 09a6 8885      		ldd r24,Y+8
 1405 09a8 9985      		ldd r25,Y+9
 1406 09aa 892F      		mov r24,r25
 1407 09ac 990F      		lsl r25
 1408 09ae 990B      		sbc r25,r25
 1409 09b0 8083      		st Z,r24
 1410               	.L38:
 1411               	.LM92:
 1412 09b2 EEE2      		ldi r30,lo8(46)
 1413 09b4 F0E0      		ldi r31,hi8(46)
 1414 09b6 8081      		ld r24,Z
 1415 09b8 8823      		tst r24
 1416 09ba 04F4      		brge .L38
 1417               	.LM93:
 1418 09bc EFE2      		ldi r30,lo8(47)
 1419 09be F0E0      		ldi r31,hi8(47)
 1420 09c0 8885      		ldd r24,Y+8
 1421 09c2 8083      		st Z,r24
 1422               	.L39:
 1423               	.LM94:
 1424 09c4 EEE2      		ldi r30,lo8(46)
 1425 09c6 F0E0      		ldi r31,hi8(46)
GAS LISTING C:\Users\alex\AppData\Local\Temp/cc0CmVZN.s 			page 26


 1426 09c8 8081      		ld r24,Z
 1427 09ca 8823      		tst r24
 1428 09cc 04F4      		brge .L39
 1429               	.LM95:
 1430 09ce ED81      		ldd r30,Y+5
 1431 09d0 FE81      		ldd r31,Y+6
 1432 09d2 9081      		ld r25,Z
 1433 09d4 8A81      		ldd r24,Y+2
 1434 09d6 892B      		or r24,r25
 1435 09d8 ED81      		ldd r30,Y+5
 1436 09da FE81      		ldd r31,Y+6
 1437 09dc 8083      		st Z,r24
 1438               	.LM96:
 1439 09de EB81      		ldd r30,Y+3
 1440 09e0 FC81      		ldd r31,Y+4
 1441 09e2 8081      		ld r24,Z
 1442 09e4 982F      		mov r25,r24
 1443 09e6 8981      		ldd r24,Y+1
 1444 09e8 8095      		com r24
 1445 09ea 8923      		and r24,r25
 1446 09ec EB81      		ldd r30,Y+3
 1447 09ee FC81      		ldd r31,Y+4
 1448 09f0 8083      		st Z,r24
 1449               	.LM97:
 1450 09f2 82E0      		ldi r24,lo8(2)
 1451 09f4 90E0      		ldi r25,hi8(2)
 1452 09f6 0E94 0000 		call udelay
 1453               	.LM98:
 1454 09fa EB81      		ldd r30,Y+3
 1455 09fc FC81      		ldd r31,Y+4
 1456 09fe 9081      		ld r25,Z
 1457 0a00 8981      		ldd r24,Y+1
 1458 0a02 892B      		or r24,r25
 1459 0a04 EB81      		ldd r30,Y+3
 1460 0a06 FC81      		ldd r31,Y+4
 1461 0a08 8083      		st Z,r24
 1462               	/* epilogue start */
 1463               	.LM99:
 1464 0a0a 2A96      		adiw r28,10
 1465 0a0c 0FB6      		in __tmp_reg__,__SREG__
 1466 0a0e F894      		cli
 1467 0a10 DEBF      		out __SP_H__,r29
 1468 0a12 0FBE      		out __SREG__,__tmp_reg__
 1469 0a14 CDBF      		out __SP_L__,r28
 1470 0a16 CF91      		pop r28
 1471 0a18 DF91      		pop r29
 1472 0a1a 0895      		ret
 1473               	.LFE5:
 1474               		.size	mcp4922_spiw, .-mcp4922_spiw
 1475               		.comm mcp4922_p_cs,8,1
 1476               		.comm mcp4922_p_data,8,1
 1477               		.comm mcp4922_p_clk,8,1
 1478               		.comm mcp4922_p_ldac,8,1
 1479               		.comm mcp4922_b_cs,4,1
 1480               		.comm mcp4922_b_data,4,1
 1481               		.comm mcp4922_b_clk,4,1
 1482               		.comm mcp4922_b_ldac,4,1
GAS LISTING C:\Users\alex\AppData\Local\Temp/cc0CmVZN.s 			page 27


 1483               		.section	.debug_frame,"",@progbits
 1484               	.Lframe0:
 1485 0000 0C00 0000 		.long	.LECIE0-.LSCIE0
 1486               	.LSCIE0:
 1487 0004 FFFF FFFF 		.long	0xffffffff
 1488 0008 01        		.byte	0x1
 1489 0009 00        		.string	""
 1490 000a 01        		.uleb128 0x1
 1491 000b 7F        		.sleb128 -1
 1492 000c 24        		.byte	0x24
 1493 000d 0C        		.byte	0xc
 1494 000e 20        		.uleb128 0x20
 1495 000f 00        		.uleb128 0x0
 1496               		.p2align	2
 1497               	.LECIE0:
 1498               	.LSFDE0:
 1499 0010 0C00 0000 		.long	.LEFDE0-.LASFDE0
 1500               	.LASFDE0:
 1501 0014 0000 0000 		.long	.Lframe0
 1502 0018 0000 0000 		.long	.LFB2
 1503 001c 9C04 0000 		.long	.LFE2-.LFB2
 1504               		.p2align	2
 1505               	.LEFDE0:
 1506               	.LSFDE2:
 1507 0020 0C00 0000 		.long	.LEFDE2-.LASFDE2
 1508               	.LASFDE2:
 1509 0024 0000 0000 		.long	.Lframe0
 1510 0028 0000 0000 		.long	.LFB3
 1511 002c 8602 0000 		.long	.LFE3-.LFB3
 1512               		.p2align	2
 1513               	.LEFDE2:
 1514               	.LSFDE4:
 1515 0030 0C00 0000 		.long	.LEFDE4-.LASFDE4
 1516               	.LASFDE4:
 1517 0034 0000 0000 		.long	.Lframe0
 1518 0038 0000 0000 		.long	.LFB4
 1519 003c DA01 0000 		.long	.LFE4-.LFB4
 1520               		.p2align	2
 1521               	.LEFDE4:
 1522               	.LSFDE6:
 1523 0040 0C00 0000 		.long	.LEFDE6-.LASFDE6
 1524               	.LASFDE6:
 1525 0044 0000 0000 		.long	.Lframe0
 1526 0048 0000 0000 		.long	.LFB5
 1527 004c 2001 0000 		.long	.LFE5-.LFB5
 1528               		.p2align	2
 1529               	.LEFDE6:
 1530               		.text
 1531               	.Letext0:
 1532               		.section	.debug_info
 1533 0000 5F03 0000 		.long	0x35f
 1534 0004 0200      		.word	0x2
 1535 0006 0000 0000 		.long	.Ldebug_abbrev0
 1536 000a 04        		.byte	0x4
 1537 000b 01        		.uleb128 0x1
 1538 000c 0000 0000 		.long	.LASF31
 1539 0010 01        		.byte	0x1
GAS LISTING C:\Users\alex\AppData\Local\Temp/cc0CmVZN.s 			page 28


 1540 0011 0000 0000 		.long	.LASF32
 1541 0015 0000 0000 		.long	.LASF33
 1542 0019 0000 0000 		.long	.Ltext0
 1543 001d 0000 0000 		.long	.Letext0
 1544 0021 0000 0000 		.long	.Ldebug_line0
 1545 0025 02        		.uleb128 0x2
 1546 0026 01        		.byte	0x1
 1547 0027 06        		.byte	0x6
 1548 0028 0000 0000 		.long	.LASF0
 1549 002c 03        		.uleb128 0x3
 1550 002d 0000 0000 		.long	.LASF2
 1551 0031 02        		.byte	0x2
 1552 0032 7A        		.byte	0x7a
 1553 0033 3700 0000 		.long	0x37
 1554 0037 02        		.uleb128 0x2
 1555 0038 01        		.byte	0x1
 1556 0039 08        		.byte	0x8
 1557 003a 0000 0000 		.long	.LASF1
 1558 003e 03        		.uleb128 0x3
 1559 003f 0000 0000 		.long	.LASF3
 1560 0043 02        		.byte	0x2
 1561 0044 7B        		.byte	0x7b
 1562 0045 4900 0000 		.long	0x49
 1563 0049 04        		.uleb128 0x4
 1564 004a 02        		.byte	0x2
 1565 004b 05        		.byte	0x5
 1566 004c 696E 7400 		.string	"int"
 1567 0050 02        		.uleb128 0x2
 1568 0051 02        		.byte	0x2
 1569 0052 07        		.byte	0x7
 1570 0053 0000 0000 		.long	.LASF4
 1571 0057 02        		.uleb128 0x2
 1572 0058 04        		.byte	0x4
 1573 0059 05        		.byte	0x5
 1574 005a 0000 0000 		.long	.LASF5
 1575 005e 02        		.uleb128 0x2
 1576 005f 04        		.byte	0x4
 1577 0060 07        		.byte	0x7
 1578 0061 0000 0000 		.long	.LASF6
 1579 0065 02        		.uleb128 0x2
 1580 0066 08        		.byte	0x8
 1581 0067 05        		.byte	0x5
 1582 0068 0000 0000 		.long	.LASF7
 1583 006c 02        		.uleb128 0x2
 1584 006d 08        		.byte	0x8
 1585 006e 07        		.byte	0x7
 1586 006f 0000 0000 		.long	.LASF8
 1587 0073 05        		.uleb128 0x5
 1588 0074 01        		.byte	0x1
 1589 0075 08        		.byte	0x8
 1590 0076 06        		.uleb128 0x6
 1591 0077 01        		.byte	0x1
 1592 0078 0000 0000 		.long	.LASF15
 1593 007c 01        		.byte	0x1
 1594 007d 1F        		.byte	0x1f
 1595 007e 01        		.byte	0x1
 1596 007f 0000 0000 		.long	.LFB2
GAS LISTING C:\Users\alex\AppData\Local\Temp/cc0CmVZN.s 			page 29


 1597 0083 0000 0000 		.long	.LFE2
 1598 0087 02        		.byte	0x2
 1599 0088 90        		.byte	0x90
 1600 0089 20        		.uleb128 0x20
 1601 008a 0C01 0000 		.long	0x10c
 1602 008e 07        		.uleb128 0x7
 1603 008f 0000 0000 		.long	.LASF9
 1604 0093 01        		.byte	0x1
 1605 0094 1D        		.byte	0x1d
 1606 0095 2C00 0000 		.long	0x2c
 1607 0099 02        		.byte	0x2
 1608 009a 8C        		.byte	0x8c
 1609 009b 05        		.sleb128 5
 1610 009c 08        		.uleb128 0x8
 1611 009d 6373 00   		.string	"cs"
 1612 00a0 01        		.byte	0x1
 1613 00a1 1D        		.byte	0x1d
 1614 00a2 2C00 0000 		.long	0x2c
 1615 00a6 02        		.byte	0x2
 1616 00a7 8C        		.byte	0x8c
 1617 00a8 06        		.sleb128 6
 1618 00a9 08        		.uleb128 0x8
 1619 00aa 636C 6B00 		.string	"clk"
 1620 00ae 01        		.byte	0x1
 1621 00af 1D        		.byte	0x1d
 1622 00b0 2C00 0000 		.long	0x2c
 1623 00b4 02        		.byte	0x2
 1624 00b5 8C        		.byte	0x8c
 1625 00b6 07        		.sleb128 7
 1626 00b7 07        		.uleb128 0x7
 1627 00b8 0000 0000 		.long	.LASF10
 1628 00bc 01        		.byte	0x1
 1629 00bd 1D        		.byte	0x1d
 1630 00be 2C00 0000 		.long	0x2c
 1631 00c2 02        		.byte	0x2
 1632 00c3 8C        		.byte	0x8c
 1633 00c4 08        		.sleb128 8
 1634 00c5 07        		.uleb128 0x7
 1635 00c6 0000 0000 		.long	.LASF11
 1636 00ca 01        		.byte	0x1
 1637 00cb 1D        		.byte	0x1d
 1638 00cc 2C00 0000 		.long	0x2c
 1639 00d0 02        		.byte	0x2
 1640 00d1 8C        		.byte	0x8c
 1641 00d2 09        		.sleb128 9
 1642 00d3 09        		.uleb128 0x9
 1643 00d4 0000 0000 		.long	.LASF12
 1644 00d8 01        		.byte	0x1
 1645 00d9 20        		.byte	0x20
 1646 00da 2C00 0000 		.long	0x2c
 1647 00de 02        		.byte	0x2
 1648 00df 8C        		.byte	0x8c
 1649 00e0 04        		.sleb128 4
 1650 00e1 0A        		.uleb128 0xa
 1651 00e2 6263 7300 		.string	"bcs"
 1652 00e6 01        		.byte	0x1
 1653 00e7 20        		.byte	0x20
GAS LISTING C:\Users\alex\AppData\Local\Temp/cc0CmVZN.s 			page 30


 1654 00e8 2C00 0000 		.long	0x2c
 1655 00ec 02        		.byte	0x2
 1656 00ed 8C        		.byte	0x8c
 1657 00ee 03        		.sleb128 3
 1658 00ef 09        		.uleb128 0x9
 1659 00f0 0000 0000 		.long	.LASF13
 1660 00f4 01        		.byte	0x1
 1661 00f5 20        		.byte	0x20
 1662 00f6 2C00 0000 		.long	0x2c
 1663 00fa 02        		.byte	0x2
 1664 00fb 8C        		.byte	0x8c
 1665 00fc 02        		.sleb128 2
 1666 00fd 09        		.uleb128 0x9
 1667 00fe 0000 0000 		.long	.LASF14
 1668 0102 01        		.byte	0x1
 1669 0103 20        		.byte	0x20
 1670 0104 2C00 0000 		.long	0x2c
 1671 0108 02        		.byte	0x2
 1672 0109 8C        		.byte	0x8c
 1673 010a 01        		.sleb128 1
 1674 010b 00        		.byte	0x0
 1675 010c 06        		.uleb128 0x6
 1676 010d 01        		.byte	0x1
 1677 010e 0000 0000 		.long	.LASF16
 1678 0112 01        		.byte	0x1
 1679 0113 4F        		.byte	0x4f
 1680 0114 01        		.byte	0x1
 1681 0115 0000 0000 		.long	.LFB3
 1682 0119 0000 0000 		.long	.LFE3
 1683 011d 02        		.byte	0x2
 1684 011e 90        		.byte	0x90
 1685 011f 20        		.uleb128 0x20
 1686 0120 6A01 0000 		.long	0x16a
 1687 0124 07        		.uleb128 0x7
 1688 0125 0000 0000 		.long	.LASF9
 1689 0129 01        		.byte	0x1
 1690 012a 4D        		.byte	0x4d
 1691 012b 2C00 0000 		.long	0x2c
 1692 012f 02        		.byte	0x2
 1693 0130 8C        		.byte	0x8c
 1694 0131 03        		.sleb128 3
 1695 0132 08        		.uleb128 0x8
 1696 0133 6373 00   		.string	"cs"
 1697 0136 01        		.byte	0x1
 1698 0137 4D        		.byte	0x4d
 1699 0138 2C00 0000 		.long	0x2c
 1700 013c 02        		.byte	0x2
 1701 013d 8C        		.byte	0x8c
 1702 013e 04        		.sleb128 4
 1703 013f 07        		.uleb128 0x7
 1704 0140 0000 0000 		.long	.LASF11
 1705 0144 01        		.byte	0x1
 1706 0145 4D        		.byte	0x4d
 1707 0146 2C00 0000 		.long	0x2c
 1708 014a 02        		.byte	0x2
 1709 014b 8C        		.byte	0x8c
 1710 014c 05        		.sleb128 5
GAS LISTING C:\Users\alex\AppData\Local\Temp/cc0CmVZN.s 			page 31


 1711 014d 0A        		.uleb128 0xa
 1712 014e 6263 7300 		.string	"bcs"
 1713 0152 01        		.byte	0x1
 1714 0153 50        		.byte	0x50
 1715 0154 2C00 0000 		.long	0x2c
 1716 0158 02        		.byte	0x2
 1717 0159 8C        		.byte	0x8c
 1718 015a 02        		.sleb128 2
 1719 015b 09        		.uleb128 0x9
 1720 015c 0000 0000 		.long	.LASF14
 1721 0160 01        		.byte	0x1
 1722 0161 50        		.byte	0x50
 1723 0162 2C00 0000 		.long	0x2c
 1724 0166 02        		.byte	0x2
 1725 0167 8C        		.byte	0x8c
 1726 0168 01        		.sleb128 1
 1727 0169 00        		.byte	0x0
 1728 016a 06        		.uleb128 0x6
 1729 016b 01        		.byte	0x1
 1730 016c 0000 0000 		.long	.LASF17
 1731 0170 01        		.byte	0x1
 1732 0171 70        		.byte	0x70
 1733 0172 01        		.byte	0x1
 1734 0173 0000 0000 		.long	.LFB4
 1735 0177 0000 0000 		.long	.LFE4
 1736 017b 02        		.byte	0x2
 1737 017c 90        		.byte	0x90
 1738 017d 20        		.uleb128 0x20
 1739 017e 2902 0000 		.long	0x229
 1740 0182 07        		.uleb128 0x7
 1741 0183 0000 0000 		.long	.LASF9
 1742 0187 01        		.byte	0x1
 1743 0188 6D        		.byte	0x6d
 1744 0189 2C00 0000 		.long	0x2c
 1745 018d 02        		.byte	0x2
 1746 018e 8C        		.byte	0x8c
 1747 018f 0E        		.sleb128 14
 1748 0190 07        		.uleb128 0x7
 1749 0191 0000 0000 		.long	.LASF18
 1750 0195 01        		.byte	0x1
 1751 0196 6D        		.byte	0x6d
 1752 0197 3E00 0000 		.long	0x3e
 1753 019b 02        		.byte	0x2
 1754 019c 8C        		.byte	0x8c
 1755 019d 0F        		.sleb128 15
 1756 019e 08        		.uleb128 0x8
 1757 019f 6461 6300 		.string	"dac"
 1758 01a3 01        		.byte	0x1
 1759 01a4 6D        		.byte	0x6d
 1760 01a5 2C00 0000 		.long	0x2c
 1761 01a9 02        		.byte	0x2
 1762 01aa 8C        		.byte	0x8c
 1763 01ab 11        		.sleb128 17
 1764 01ac 09        		.uleb128 0x9
 1765 01ad 0000 0000 		.long	.LASF19
 1766 01b1 01        		.byte	0x1
 1767 01b2 71        		.byte	0x71
GAS LISTING C:\Users\alex\AppData\Local\Temp/cc0CmVZN.s 			page 32


 1768 01b3 2902 0000 		.long	0x229
 1769 01b7 02        		.byte	0x2
 1770 01b8 8C        		.byte	0x8c
 1771 01b9 0C        		.sleb128 12
 1772 01ba 0A        		.uleb128 0xa
 1773 01bb 7063 7300 		.string	"pcs"
 1774 01bf 01        		.byte	0x1
 1775 01c0 71        		.byte	0x71
 1776 01c1 2902 0000 		.long	0x229
 1777 01c5 02        		.byte	0x2
 1778 01c6 8C        		.byte	0x8c
 1779 01c7 0A        		.sleb128 10
 1780 01c8 09        		.uleb128 0x9
 1781 01c9 0000 0000 		.long	.LASF20
 1782 01cd 01        		.byte	0x1
 1783 01ce 71        		.byte	0x71
 1784 01cf 2902 0000 		.long	0x229
 1785 01d3 02        		.byte	0x2
 1786 01d4 8C        		.byte	0x8c
 1787 01d5 08        		.sleb128 8
 1788 01d6 09        		.uleb128 0x9
 1789 01d7 0000 0000 		.long	.LASF21
 1790 01db 01        		.byte	0x1
 1791 01dc 71        		.byte	0x71
 1792 01dd 2902 0000 		.long	0x229
 1793 01e1 02        		.byte	0x2
 1794 01e2 8C        		.byte	0x8c
 1795 01e3 06        		.sleb128 6
 1796 01e4 09        		.uleb128 0x9
 1797 01e5 0000 0000 		.long	.LASF12
 1798 01e9 01        		.byte	0x1
 1799 01ea 72        		.byte	0x72
 1800 01eb 2C00 0000 		.long	0x2c
 1801 01ef 02        		.byte	0x2
 1802 01f0 8C        		.byte	0x8c
 1803 01f1 05        		.sleb128 5
 1804 01f2 0A        		.uleb128 0xa
 1805 01f3 6263 7300 		.string	"bcs"
 1806 01f7 01        		.byte	0x1
 1807 01f8 72        		.byte	0x72
 1808 01f9 2C00 0000 		.long	0x2c
 1809 01fd 02        		.byte	0x2
 1810 01fe 8C        		.byte	0x8c
 1811 01ff 04        		.sleb128 4
 1812 0200 09        		.uleb128 0x9
 1813 0201 0000 0000 		.long	.LASF13
 1814 0205 01        		.byte	0x1
 1815 0206 72        		.byte	0x72
 1816 0207 2C00 0000 		.long	0x2c
 1817 020b 02        		.byte	0x2
 1818 020c 8C        		.byte	0x8c
 1819 020d 03        		.sleb128 3
 1820 020e 09        		.uleb128 0x9
 1821 020f 0000 0000 		.long	.LASF14
 1822 0213 01        		.byte	0x1
 1823 0214 72        		.byte	0x72
 1824 0215 2C00 0000 		.long	0x2c
GAS LISTING C:\Users\alex\AppData\Local\Temp/cc0CmVZN.s 			page 33


 1825 0219 02        		.byte	0x2
 1826 021a 8C        		.byte	0x8c
 1827 021b 02        		.sleb128 2
 1828 021c 0A        		.uleb128 0xa
 1829 021d 6900      		.string	"i"
 1830 021f 01        		.byte	0x1
 1831 0220 73        		.byte	0x73
 1832 0221 2C00 0000 		.long	0x2c
 1833 0225 02        		.byte	0x2
 1834 0226 8C        		.byte	0x8c
 1835 0227 01        		.sleb128 1
 1836 0228 00        		.byte	0x0
 1837 0229 0B        		.uleb128 0xb
 1838 022a 02        		.byte	0x2
 1839 022b 2F02 0000 		.long	0x22f
 1840 022f 0C        		.uleb128 0xc
 1841 0230 2C00 0000 		.long	0x2c
 1842 0234 06        		.uleb128 0x6
 1843 0235 01        		.byte	0x1
 1844 0236 0000 0000 		.long	.LASF22
 1845 023a 01        		.byte	0x1
 1846 023b A2        		.byte	0xa2
 1847 023c 01        		.byte	0x1
 1848 023d 0000 0000 		.long	.LFB5
 1849 0241 0000 0000 		.long	.LFE5
 1850 0245 02        		.byte	0x2
 1851 0246 90        		.byte	0x90
 1852 0247 20        		.uleb128 0x20
 1853 0248 AF02 0000 		.long	0x2af
 1854 024c 07        		.uleb128 0x7
 1855 024d 0000 0000 		.long	.LASF9
 1856 0251 01        		.byte	0x1
 1857 0252 9F        		.byte	0x9f
 1858 0253 2C00 0000 		.long	0x2c
 1859 0257 02        		.byte	0x2
 1860 0258 8C        		.byte	0x8c
 1861 0259 07        		.sleb128 7
 1862 025a 07        		.uleb128 0x7
 1863 025b 0000 0000 		.long	.LASF18
 1864 025f 01        		.byte	0x1
 1865 0260 9F        		.byte	0x9f
 1866 0261 3E00 0000 		.long	0x3e
 1867 0265 02        		.byte	0x2
 1868 0266 8C        		.byte	0x8c
 1869 0267 08        		.sleb128 8
 1870 0268 08        		.uleb128 0x8
 1871 0269 6461 6300 		.string	"dac"
 1872 026d 01        		.byte	0x1
 1873 026e 9F        		.byte	0x9f
 1874 026f 2C00 0000 		.long	0x2c
 1875 0273 02        		.byte	0x2
 1876 0274 8C        		.byte	0x8c
 1877 0275 0A        		.sleb128 10
 1878 0276 0A        		.uleb128 0xa
 1879 0277 7063 7300 		.string	"pcs"
 1880 027b 01        		.byte	0x1
 1881 027c A3        		.byte	0xa3
GAS LISTING C:\Users\alex\AppData\Local\Temp/cc0CmVZN.s 			page 34


 1882 027d 2902 0000 		.long	0x229
 1883 0281 02        		.byte	0x2
 1884 0282 8C        		.byte	0x8c
 1885 0283 05        		.sleb128 5
 1886 0284 09        		.uleb128 0x9
 1887 0285 0000 0000 		.long	.LASF21
 1888 0289 01        		.byte	0x1
 1889 028a A3        		.byte	0xa3
 1890 028b 2902 0000 		.long	0x229
 1891 028f 02        		.byte	0x2
 1892 0290 8C        		.byte	0x8c
 1893 0291 03        		.sleb128 3
 1894 0292 0A        		.uleb128 0xa
 1895 0293 6263 7300 		.string	"bcs"
 1896 0297 01        		.byte	0x1
 1897 0298 A4        		.byte	0xa4
 1898 0299 2C00 0000 		.long	0x2c
 1899 029d 02        		.byte	0x2
 1900 029e 8C        		.byte	0x8c
 1901 029f 02        		.sleb128 2
 1902 02a0 09        		.uleb128 0x9
 1903 02a1 0000 0000 		.long	.LASF14
 1904 02a5 01        		.byte	0x1
 1905 02a6 A4        		.byte	0xa4
 1906 02a7 2C00 0000 		.long	0x2c
 1907 02ab 02        		.byte	0x2
 1908 02ac 8C        		.byte	0x8c
 1909 02ad 01        		.sleb128 1
 1910 02ae 00        		.byte	0x0
 1911 02af 0D        		.uleb128 0xd
 1912 02b0 2902 0000 		.long	0x229
 1913 02b4 BF02 0000 		.long	0x2bf
 1914 02b8 0E        		.uleb128 0xe
 1915 02b9 BF02 0000 		.long	0x2bf
 1916 02bd 03        		.byte	0x3
 1917 02be 00        		.byte	0x0
 1918 02bf 05        		.uleb128 0x5
 1919 02c0 02        		.byte	0x2
 1920 02c1 07        		.byte	0x7
 1921 02c2 0F        		.uleb128 0xf
 1922 02c3 0000 0000 		.long	.LASF23
 1923 02c7 01        		.byte	0x1
 1924 02c8 0D        		.byte	0xd
 1925 02c9 AF02 0000 		.long	0x2af
 1926 02cd 01        		.byte	0x1
 1927 02ce 05        		.byte	0x5
 1928 02cf 03        		.byte	0x3
 1929 02d0 0000 0000 		.long	mcp4922_p_cs
 1930 02d4 0F        		.uleb128 0xf
 1931 02d5 0000 0000 		.long	.LASF24
 1932 02d9 01        		.byte	0x1
 1933 02da 0E        		.byte	0xe
 1934 02db AF02 0000 		.long	0x2af
 1935 02df 01        		.byte	0x1
 1936 02e0 05        		.byte	0x5
 1937 02e1 03        		.byte	0x3
 1938 02e2 0000 0000 		.long	mcp4922_p_data
GAS LISTING C:\Users\alex\AppData\Local\Temp/cc0CmVZN.s 			page 35


 1939 02e6 0F        		.uleb128 0xf
 1940 02e7 0000 0000 		.long	.LASF25
 1941 02eb 01        		.byte	0x1
 1942 02ec 0F        		.byte	0xf
 1943 02ed AF02 0000 		.long	0x2af
 1944 02f1 01        		.byte	0x1
 1945 02f2 05        		.byte	0x5
 1946 02f3 03        		.byte	0x3
 1947 02f4 0000 0000 		.long	mcp4922_p_clk
 1948 02f8 0F        		.uleb128 0xf
 1949 02f9 0000 0000 		.long	.LASF26
 1950 02fd 01        		.byte	0x1
 1951 02fe 10        		.byte	0x10
 1952 02ff AF02 0000 		.long	0x2af
 1953 0303 01        		.byte	0x1
 1954 0304 05        		.byte	0x5
 1955 0305 03        		.byte	0x3
 1956 0306 0000 0000 		.long	mcp4922_p_ldac
 1957 030a 0D        		.uleb128 0xd
 1958 030b 2C00 0000 		.long	0x2c
 1959 030f 1A03 0000 		.long	0x31a
 1960 0313 0E        		.uleb128 0xe
 1961 0314 BF02 0000 		.long	0x2bf
 1962 0318 03        		.byte	0x3
 1963 0319 00        		.byte	0x0
 1964 031a 0F        		.uleb128 0xf
 1965 031b 0000 0000 		.long	.LASF27
 1966 031f 01        		.byte	0x1
 1967 0320 12        		.byte	0x12
 1968 0321 0A03 0000 		.long	0x30a
 1969 0325 01        		.byte	0x1
 1970 0326 05        		.byte	0x5
 1971 0327 03        		.byte	0x3
 1972 0328 0000 0000 		.long	mcp4922_b_cs
 1973 032c 0F        		.uleb128 0xf
 1974 032d 0000 0000 		.long	.LASF28
 1975 0331 01        		.byte	0x1
 1976 0332 13        		.byte	0x13
 1977 0333 0A03 0000 		.long	0x30a
 1978 0337 01        		.byte	0x1
 1979 0338 05        		.byte	0x5
 1980 0339 03        		.byte	0x3
 1981 033a 0000 0000 		.long	mcp4922_b_data
 1982 033e 0F        		.uleb128 0xf
 1983 033f 0000 0000 		.long	.LASF29
 1984 0343 01        		.byte	0x1
 1985 0344 14        		.byte	0x14
 1986 0345 0A03 0000 		.long	0x30a
 1987 0349 01        		.byte	0x1
 1988 034a 05        		.byte	0x5
 1989 034b 03        		.byte	0x3
 1990 034c 0000 0000 		.long	mcp4922_b_clk
 1991 0350 0F        		.uleb128 0xf
 1992 0351 0000 0000 		.long	.LASF30
 1993 0355 01        		.byte	0x1
 1994 0356 15        		.byte	0x15
 1995 0357 0A03 0000 		.long	0x30a
GAS LISTING C:\Users\alex\AppData\Local\Temp/cc0CmVZN.s 			page 36


 1996 035b 01        		.byte	0x1
 1997 035c 05        		.byte	0x5
 1998 035d 03        		.byte	0x3
 1999 035e 0000 0000 		.long	mcp4922_b_ldac
 2000 0362 00        		.byte	0x0
 2001               		.section	.debug_abbrev
 2002 0000 01        		.uleb128 0x1
 2003 0001 11        		.uleb128 0x11
 2004 0002 01        		.byte	0x1
 2005 0003 25        		.uleb128 0x25
 2006 0004 0E        		.uleb128 0xe
 2007 0005 13        		.uleb128 0x13
 2008 0006 0B        		.uleb128 0xb
 2009 0007 03        		.uleb128 0x3
 2010 0008 0E        		.uleb128 0xe
 2011 0009 1B        		.uleb128 0x1b
 2012 000a 0E        		.uleb128 0xe
 2013 000b 11        		.uleb128 0x11
 2014 000c 01        		.uleb128 0x1
 2015 000d 12        		.uleb128 0x12
 2016 000e 01        		.uleb128 0x1
 2017 000f 10        		.uleb128 0x10
 2018 0010 06        		.uleb128 0x6
 2019 0011 00        		.byte	0x0
 2020 0012 00        		.byte	0x0
 2021 0013 02        		.uleb128 0x2
 2022 0014 24        		.uleb128 0x24
 2023 0015 00        		.byte	0x0
 2024 0016 0B        		.uleb128 0xb
 2025 0017 0B        		.uleb128 0xb
 2026 0018 3E        		.uleb128 0x3e
 2027 0019 0B        		.uleb128 0xb
 2028 001a 03        		.uleb128 0x3
 2029 001b 0E        		.uleb128 0xe
 2030 001c 00        		.byte	0x0
 2031 001d 00        		.byte	0x0
 2032 001e 03        		.uleb128 0x3
 2033 001f 16        		.uleb128 0x16
 2034 0020 00        		.byte	0x0
 2035 0021 03        		.uleb128 0x3
 2036 0022 0E        		.uleb128 0xe
 2037 0023 3A        		.uleb128 0x3a
 2038 0024 0B        		.uleb128 0xb
 2039 0025 3B        		.uleb128 0x3b
 2040 0026 0B        		.uleb128 0xb
 2041 0027 49        		.uleb128 0x49
 2042 0028 13        		.uleb128 0x13
 2043 0029 00        		.byte	0x0
 2044 002a 00        		.byte	0x0
 2045 002b 04        		.uleb128 0x4
 2046 002c 24        		.uleb128 0x24
 2047 002d 00        		.byte	0x0
 2048 002e 0B        		.uleb128 0xb
 2049 002f 0B        		.uleb128 0xb
 2050 0030 3E        		.uleb128 0x3e
 2051 0031 0B        		.uleb128 0xb
 2052 0032 03        		.uleb128 0x3
GAS LISTING C:\Users\alex\AppData\Local\Temp/cc0CmVZN.s 			page 37


 2053 0033 08        		.uleb128 0x8
 2054 0034 00        		.byte	0x0
 2055 0035 00        		.byte	0x0
 2056 0036 05        		.uleb128 0x5
 2057 0037 24        		.uleb128 0x24
 2058 0038 00        		.byte	0x0
 2059 0039 0B        		.uleb128 0xb
 2060 003a 0B        		.uleb128 0xb
 2061 003b 3E        		.uleb128 0x3e
 2062 003c 0B        		.uleb128 0xb
 2063 003d 00        		.byte	0x0
 2064 003e 00        		.byte	0x0
 2065 003f 06        		.uleb128 0x6
 2066 0040 2E        		.uleb128 0x2e
 2067 0041 01        		.byte	0x1
 2068 0042 3F        		.uleb128 0x3f
 2069 0043 0C        		.uleb128 0xc
 2070 0044 03        		.uleb128 0x3
 2071 0045 0E        		.uleb128 0xe
 2072 0046 3A        		.uleb128 0x3a
 2073 0047 0B        		.uleb128 0xb
 2074 0048 3B        		.uleb128 0x3b
 2075 0049 0B        		.uleb128 0xb
 2076 004a 27        		.uleb128 0x27
 2077 004b 0C        		.uleb128 0xc
 2078 004c 11        		.uleb128 0x11
 2079 004d 01        		.uleb128 0x1
 2080 004e 12        		.uleb128 0x12
 2081 004f 01        		.uleb128 0x1
 2082 0050 40        		.uleb128 0x40
 2083 0051 0A        		.uleb128 0xa
 2084 0052 01        		.uleb128 0x1
 2085 0053 13        		.uleb128 0x13
 2086 0054 00        		.byte	0x0
 2087 0055 00        		.byte	0x0
 2088 0056 07        		.uleb128 0x7
 2089 0057 05        		.uleb128 0x5
 2090 0058 00        		.byte	0x0
 2091 0059 03        		.uleb128 0x3
 2092 005a 0E        		.uleb128 0xe
 2093 005b 3A        		.uleb128 0x3a
 2094 005c 0B        		.uleb128 0xb
 2095 005d 3B        		.uleb128 0x3b
 2096 005e 0B        		.uleb128 0xb
 2097 005f 49        		.uleb128 0x49
 2098 0060 13        		.uleb128 0x13
 2099 0061 02        		.uleb128 0x2
 2100 0062 0A        		.uleb128 0xa
 2101 0063 00        		.byte	0x0
 2102 0064 00        		.byte	0x0
 2103 0065 08        		.uleb128 0x8
 2104 0066 05        		.uleb128 0x5
 2105 0067 00        		.byte	0x0
 2106 0068 03        		.uleb128 0x3
 2107 0069 08        		.uleb128 0x8
 2108 006a 3A        		.uleb128 0x3a
 2109 006b 0B        		.uleb128 0xb
GAS LISTING C:\Users\alex\AppData\Local\Temp/cc0CmVZN.s 			page 38


 2110 006c 3B        		.uleb128 0x3b
 2111 006d 0B        		.uleb128 0xb
 2112 006e 49        		.uleb128 0x49
 2113 006f 13        		.uleb128 0x13
 2114 0070 02        		.uleb128 0x2
 2115 0071 0A        		.uleb128 0xa
 2116 0072 00        		.byte	0x0
 2117 0073 00        		.byte	0x0
 2118 0074 09        		.uleb128 0x9
 2119 0075 34        		.uleb128 0x34
 2120 0076 00        		.byte	0x0
 2121 0077 03        		.uleb128 0x3
 2122 0078 0E        		.uleb128 0xe
 2123 0079 3A        		.uleb128 0x3a
 2124 007a 0B        		.uleb128 0xb
 2125 007b 3B        		.uleb128 0x3b
 2126 007c 0B        		.uleb128 0xb
 2127 007d 49        		.uleb128 0x49
 2128 007e 13        		.uleb128 0x13
 2129 007f 02        		.uleb128 0x2
 2130 0080 0A        		.uleb128 0xa
 2131 0081 00        		.byte	0x0
 2132 0082 00        		.byte	0x0
 2133 0083 0A        		.uleb128 0xa
 2134 0084 34        		.uleb128 0x34
 2135 0085 00        		.byte	0x0
 2136 0086 03        		.uleb128 0x3
 2137 0087 08        		.uleb128 0x8
 2138 0088 3A        		.uleb128 0x3a
 2139 0089 0B        		.uleb128 0xb
 2140 008a 3B        		.uleb128 0x3b
 2141 008b 0B        		.uleb128 0xb
 2142 008c 49        		.uleb128 0x49
 2143 008d 13        		.uleb128 0x13
 2144 008e 02        		.uleb128 0x2
 2145 008f 0A        		.uleb128 0xa
 2146 0090 00        		.byte	0x0
 2147 0091 00        		.byte	0x0
 2148 0092 0B        		.uleb128 0xb
 2149 0093 0F        		.uleb128 0xf
 2150 0094 00        		.byte	0x0
 2151 0095 0B        		.uleb128 0xb
 2152 0096 0B        		.uleb128 0xb
 2153 0097 49        		.uleb128 0x49
 2154 0098 13        		.uleb128 0x13
 2155 0099 00        		.byte	0x0
 2156 009a 00        		.byte	0x0
 2157 009b 0C        		.uleb128 0xc
 2158 009c 35        		.uleb128 0x35
 2159 009d 00        		.byte	0x0
 2160 009e 49        		.uleb128 0x49
 2161 009f 13        		.uleb128 0x13
 2162 00a0 00        		.byte	0x0
 2163 00a1 00        		.byte	0x0
 2164 00a2 0D        		.uleb128 0xd
 2165 00a3 01        		.uleb128 0x1
 2166 00a4 01        		.byte	0x1
GAS LISTING C:\Users\alex\AppData\Local\Temp/cc0CmVZN.s 			page 39


 2167 00a5 49        		.uleb128 0x49
 2168 00a6 13        		.uleb128 0x13
 2169 00a7 01        		.uleb128 0x1
 2170 00a8 13        		.uleb128 0x13
 2171 00a9 00        		.byte	0x0
 2172 00aa 00        		.byte	0x0
 2173 00ab 0E        		.uleb128 0xe
 2174 00ac 21        		.uleb128 0x21
 2175 00ad 00        		.byte	0x0
 2176 00ae 49        		.uleb128 0x49
 2177 00af 13        		.uleb128 0x13
 2178 00b0 2F        		.uleb128 0x2f
 2179 00b1 0B        		.uleb128 0xb
 2180 00b2 00        		.byte	0x0
 2181 00b3 00        		.byte	0x0
 2182 00b4 0F        		.uleb128 0xf
 2183 00b5 34        		.uleb128 0x34
 2184 00b6 00        		.byte	0x0
 2185 00b7 03        		.uleb128 0x3
 2186 00b8 0E        		.uleb128 0xe
 2187 00b9 3A        		.uleb128 0x3a
 2188 00ba 0B        		.uleb128 0xb
 2189 00bb 3B        		.uleb128 0x3b
 2190 00bc 0B        		.uleb128 0xb
 2191 00bd 49        		.uleb128 0x49
 2192 00be 13        		.uleb128 0x13
 2193 00bf 3F        		.uleb128 0x3f
 2194 00c0 0C        		.uleb128 0xc
 2195 00c1 02        		.uleb128 0x2
 2196 00c2 0A        		.uleb128 0xa
 2197 00c3 00        		.byte	0x0
 2198 00c4 00        		.byte	0x0
 2199 00c5 00        		.byte	0x0
 2200               		.section	.debug_pubnames,"",@progbits
 2201 0000 E800 0000 		.long	0xe8
 2202 0004 0200      		.word	0x2
 2203 0006 0000 0000 		.long	.Ldebug_info0
 2204 000a 6303 0000 		.long	0x363
 2205 000e 7600 0000 		.long	0x76
 2206 0012 696E 6974 		.string	"init_mcp4922"
 2206      5F6D 6370 
 2206      3439 3232 
 2206      00
 2207 001f 0C01 0000 		.long	0x10c
 2208 0023 696E 6974 		.string	"init_mcp4922_spi"
 2208      5F6D 6370 
 2208      3439 3232 
 2208      5F73 7069 
 2208      00
 2209 0034 6A01 0000 		.long	0x16a
 2210 0038 6D63 7034 		.string	"mcp4922_putw"
 2210      3932 325F 
 2210      7075 7477 
 2210      00
 2211 0045 3402 0000 		.long	0x234
 2212 0049 6D63 7034 		.string	"mcp4922_spiw"
 2212      3932 325F 
GAS LISTING C:\Users\alex\AppData\Local\Temp/cc0CmVZN.s 			page 40


 2212      7370 6977 
 2212      00
 2213 0056 C202 0000 		.long	0x2c2
 2214 005a 6D63 7034 		.string	"mcp4922_p_cs"
 2214      3932 325F 
 2214      705F 6373 
 2214      00
 2215 0067 D402 0000 		.long	0x2d4
 2216 006b 6D63 7034 		.string	"mcp4922_p_data"
 2216      3932 325F 
 2216      705F 6461 
 2216      7461 00
 2217 007a E602 0000 		.long	0x2e6
 2218 007e 6D63 7034 		.string	"mcp4922_p_clk"
 2218      3932 325F 
 2218      705F 636C 
 2218      6B00 
 2219 008c F802 0000 		.long	0x2f8
 2220 0090 6D63 7034 		.string	"mcp4922_p_ldac"
 2220      3932 325F 
 2220      705F 6C64 
 2220      6163 00
 2221 009f 1A03 0000 		.long	0x31a
 2222 00a3 6D63 7034 		.string	"mcp4922_b_cs"
 2222      3932 325F 
 2222      625F 6373 
 2222      00
 2223 00b0 2C03 0000 		.long	0x32c
 2224 00b4 6D63 7034 		.string	"mcp4922_b_data"
 2224      3932 325F 
 2224      625F 6461 
 2224      7461 00
 2225 00c3 3E03 0000 		.long	0x33e
 2226 00c7 6D63 7034 		.string	"mcp4922_b_clk"
 2226      3932 325F 
 2226      625F 636C 
 2226      6B00 
 2227 00d5 5003 0000 		.long	0x350
 2228 00d9 6D63 7034 		.string	"mcp4922_b_ldac"
 2228      3932 325F 
 2228      625F 6C64 
 2228      6163 00
 2229 00e8 0000 0000 		.long	0x0
 2230               		.section	.debug_aranges,"",@progbits
 2231 0000 1C00 0000 		.long	0x1c
 2232 0004 0200      		.word	0x2
 2233 0006 0000 0000 		.long	.Ldebug_info0
 2234 000a 04        		.byte	0x4
 2235 000b 00        		.byte	0x0
 2236 000c 0000      		.word	0x0
 2237 000e 0000      		.word	0x0
 2238 0010 0000 0000 		.long	.Ltext0
 2239 0014 1C0A 0000 		.long	.Letext0-.Ltext0
 2240 0018 0000 0000 		.long	0x0
 2241 001c 0000 0000 		.long	0x0
 2242               		.section	.debug_line
 2243 0000 7E03 0000 		.long	.LELT0-.LSLT0
GAS LISTING C:\Users\alex\AppData\Local\Temp/cc0CmVZN.s 			page 41


 2244               	.LSLT0:
 2245 0004 0200      		.word	0x2
 2246 0006 5600 0000 		.long	.LELTP0-.LASLTP0
 2247               	.LASLTP0:
 2248 000a 01        		.byte	0x1
 2249 000b 01        		.byte	0x1
 2250 000c F6        		.byte	0xf6
 2251 000d F5        		.byte	0xf5
 2252 000e 0A        		.byte	0xa
 2253 000f 00        		.byte	0x0
 2254 0010 01        		.byte	0x1
 2255 0011 01        		.byte	0x1
 2256 0012 01        		.byte	0x1
 2257 0013 01        		.byte	0x1
 2258 0014 00        		.byte	0x0
 2259 0015 00        		.byte	0x0
 2260 0016 00        		.byte	0x0
 2261 0017 01        		.byte	0x1
 2262 0018 643A 2F77 		.ascii	"d:/winavr-20100110/lib/gcc/../../avr/include"
 2262      696E 6176 
 2262      722D 3230 
 2262      3130 3031 
 2262      3130 2F6C 
 2263 0044 00        		.byte	0
 2264 0045 00        		.byte	0x0
 2265 0046 6D63 7034 		.string	"mcp4922.c"
 2265      3932 322E 
 2265      6300 
 2266 0050 00        		.uleb128 0x0
 2267 0051 00        		.uleb128 0x0
 2268 0052 00        		.uleb128 0x0
 2269 0053 7374 6469 		.string	"stdint.h"
 2269      6E74 2E68 
 2269      00
 2270 005c 01        		.uleb128 0x1
 2271 005d 00        		.uleb128 0x0
 2272 005e 00        		.uleb128 0x0
 2273 005f 00        		.byte	0x0
 2274               	.LELTP0:
 2275 0060 00        		.byte	0x0
 2276 0061 05        		.uleb128 0x5
 2277 0062 02        		.byte	0x2
 2278 0063 0000 0000 		.long	.LM1
 2279 0067 32        		.byte	0x32
 2280 0068 00        		.byte	0x0
 2281 0069 05        		.uleb128 0x5
 2282 006a 02        		.byte	0x2
 2283 006b 0000 0000 		.long	.LM2
 2284 006f 18        		.byte	0x18
 2285 0070 00        		.byte	0x0
 2286 0071 05        		.uleb128 0x5
 2287 0072 02        		.byte	0x2
 2288 0073 0000 0000 		.long	.LM3
 2289 0077 15        		.byte	0x15
 2290 0078 00        		.byte	0x0
 2291 0079 05        		.uleb128 0x5
 2292 007a 02        		.byte	0x2
GAS LISTING C:\Users\alex\AppData\Local\Temp/cc0CmVZN.s 			page 42


 2293 007b 0000 0000 		.long	.LM4
 2294 007f 15        		.byte	0x15
 2295 0080 00        		.byte	0x0
 2296 0081 05        		.uleb128 0x5
 2297 0082 02        		.byte	0x2
 2298 0083 0000 0000 		.long	.LM5
 2299 0087 15        		.byte	0x15
 2300 0088 00        		.byte	0x0
 2301 0089 05        		.uleb128 0x5
 2302 008a 02        		.byte	0x2
 2303 008b 0000 0000 		.long	.LM6
 2304 008f 15        		.byte	0x15
 2305 0090 00        		.byte	0x0
 2306 0091 05        		.uleb128 0x5
 2307 0092 02        		.byte	0x2
 2308 0093 0000 0000 		.long	.LM7
 2309 0097 15        		.byte	0x15
 2310 0098 00        		.byte	0x0
 2311 0099 05        		.uleb128 0x5
 2312 009a 02        		.byte	0x2
 2313 009b 0000 0000 		.long	.LM8
 2314 009f 16        		.byte	0x16
 2315 00a0 00        		.byte	0x0
 2316 00a1 05        		.uleb128 0x5
 2317 00a2 02        		.byte	0x2
 2318 00a3 0000 0000 		.long	.LM9
 2319 00a7 15        		.byte	0x15
 2320 00a8 00        		.byte	0x0
 2321 00a9 05        		.uleb128 0x5
 2322 00aa 02        		.byte	0x2
 2323 00ab 0000 0000 		.long	.LM10
 2324 00af 17        		.byte	0x17
 2325 00b0 00        		.byte	0x0
 2326 00b1 05        		.uleb128 0x5
 2327 00b2 02        		.byte	0x2
 2328 00b3 0000 0000 		.long	.LM11
 2329 00b7 15        		.byte	0x15
 2330 00b8 00        		.byte	0x0
 2331 00b9 05        		.uleb128 0x5
 2332 00ba 02        		.byte	0x2
 2333 00bb 0000 0000 		.long	.LM12
 2334 00bf 15        		.byte	0x15
 2335 00c0 00        		.byte	0x0
 2336 00c1 05        		.uleb128 0x5
 2337 00c2 02        		.byte	0x2
 2338 00c3 0000 0000 		.long	.LM13
 2339 00c7 15        		.byte	0x15
 2340 00c8 00        		.byte	0x0
 2341 00c9 05        		.uleb128 0x5
 2342 00ca 02        		.byte	0x2
 2343 00cb 0000 0000 		.long	.LM14
 2344 00cf 15        		.byte	0x15
 2345 00d0 00        		.byte	0x0
 2346 00d1 05        		.uleb128 0x5
 2347 00d2 02        		.byte	0x2
 2348 00d3 0000 0000 		.long	.LM15
 2349 00d7 16        		.byte	0x16
GAS LISTING C:\Users\alex\AppData\Local\Temp/cc0CmVZN.s 			page 43


 2350 00d8 00        		.byte	0x0
 2351 00d9 05        		.uleb128 0x5
 2352 00da 02        		.byte	0x2
 2353 00db 0000 0000 		.long	.LM16
 2354 00df 15        		.byte	0x15
 2355 00e0 00        		.byte	0x0
 2356 00e1 05        		.uleb128 0x5
 2357 00e2 02        		.byte	0x2
 2358 00e3 0000 0000 		.long	.LM17
 2359 00e7 15        		.byte	0x15
 2360 00e8 00        		.byte	0x0
 2361 00e9 05        		.uleb128 0x5
 2362 00ea 02        		.byte	0x2
 2363 00eb 0000 0000 		.long	.LM18
 2364 00ef 15        		.byte	0x15
 2365 00f0 00        		.byte	0x0
 2366 00f1 05        		.uleb128 0x5
 2367 00f2 02        		.byte	0x2
 2368 00f3 0000 0000 		.long	.LM19
 2369 00f7 15        		.byte	0x15
 2370 00f8 00        		.byte	0x0
 2371 00f9 05        		.uleb128 0x5
 2372 00fa 02        		.byte	0x2
 2373 00fb 0000 0000 		.long	.LM20
 2374 00ff 17        		.byte	0x17
 2375 0100 00        		.byte	0x0
 2376 0101 05        		.uleb128 0x5
 2377 0102 02        		.byte	0x2
 2378 0103 0000 0000 		.long	.LM21
 2379 0107 15        		.byte	0x15
 2380 0108 00        		.byte	0x0
 2381 0109 05        		.uleb128 0x5
 2382 010a 02        		.byte	0x2
 2383 010b 0000 0000 		.long	.LM22
 2384 010f 15        		.byte	0x15
 2385 0110 00        		.byte	0x0
 2386 0111 05        		.uleb128 0x5
 2387 0112 02        		.byte	0x2
 2388 0113 0000 0000 		.long	.LM23
 2389 0117 15        		.byte	0x15
 2390 0118 00        		.byte	0x0
 2391 0119 05        		.uleb128 0x5
 2392 011a 02        		.byte	0x2
 2393 011b 0000 0000 		.long	.LM24
 2394 011f 15        		.byte	0x15
 2395 0120 00        		.byte	0x0
 2396 0121 05        		.uleb128 0x5
 2397 0122 02        		.byte	0x2
 2398 0123 0000 0000 		.long	.LM25
 2399 0127 17        		.byte	0x17
 2400 0128 00        		.byte	0x0
 2401 0129 05        		.uleb128 0x5
 2402 012a 02        		.byte	0x2
 2403 012b 0000 0000 		.long	.LM26
 2404 012f 15        		.byte	0x15
 2405 0130 00        		.byte	0x0
 2406 0131 05        		.uleb128 0x5
GAS LISTING C:\Users\alex\AppData\Local\Temp/cc0CmVZN.s 			page 44


 2407 0132 02        		.byte	0x2
 2408 0133 0000 0000 		.long	.LM27
 2409 0137 15        		.byte	0x15
 2410 0138 00        		.byte	0x0
 2411 0139 05        		.uleb128 0x5
 2412 013a 02        		.byte	0x2
 2413 013b 0000 0000 		.long	.LM28
 2414 013f 15        		.byte	0x15
 2415 0140 00        		.byte	0x0
 2416 0141 05        		.uleb128 0x5
 2417 0142 02        		.byte	0x2
 2418 0143 0000 0000 		.long	.LM29
 2419 0147 15        		.byte	0x15
 2420 0148 00        		.byte	0x0
 2421 0149 05        		.uleb128 0x5
 2422 014a 02        		.byte	0x2
 2423 014b 0000 0000 		.long	.LM30
 2424 014f 16        		.byte	0x16
 2425 0150 00        		.byte	0x0
 2426 0151 05        		.uleb128 0x5
 2427 0152 02        		.byte	0x2
 2428 0153 0000 0000 		.long	.LM31
 2429 0157 15        		.byte	0x15
 2430 0158 00        		.byte	0x0
 2431 0159 05        		.uleb128 0x5
 2432 015a 02        		.byte	0x2
 2433 015b 0000 0000 		.long	.LM32
 2434 015f 15        		.byte	0x15
 2435 0160 00        		.byte	0x0
 2436 0161 05        		.uleb128 0x5
 2437 0162 02        		.byte	0x2
 2438 0163 0000 0000 		.long	.LM33
 2439 0167 15        		.byte	0x15
 2440 0168 00        		.byte	0x0
 2441 0169 05        		.uleb128 0x5
 2442 016a 02        		.byte	0x2
 2443 016b 0000 0000 		.long	.LM34
 2444 016f 18        		.byte	0x18
 2445 0170 00        		.byte	0x0
 2446 0171 05        		.uleb128 0x5
 2447 0172 02        		.byte	0x2
 2448 0173 0000 0000 		.long	.LM35
 2449 0177 17        		.byte	0x17
 2450 0178 00        		.byte	0x0
 2451 0179 05        		.uleb128 0x5
 2452 017a 02        		.byte	0x2
 2453 017b 0000 0000 		.long	.LM36
 2454 017f 15        		.byte	0x15
 2455 0180 00        		.byte	0x0
 2456 0181 05        		.uleb128 0x5
 2457 0182 02        		.byte	0x2
 2458 0183 0000 0000 		.long	.LM37
 2459 0187 15        		.byte	0x15
 2460 0188 00        		.byte	0x0
 2461 0189 05        		.uleb128 0x5
 2462 018a 02        		.byte	0x2
 2463 018b 0000 0000 		.long	.LM38
GAS LISTING C:\Users\alex\AppData\Local\Temp/cc0CmVZN.s 			page 45


 2464 018f 15        		.byte	0x15
 2465 0190 00        		.byte	0x0
 2466 0191 05        		.uleb128 0x5
 2467 0192 02        		.byte	0x2
 2468 0193 0000 0000 		.long	.LM39
 2469 0197 16        		.byte	0x16
 2470 0198 00        		.byte	0x0
 2471 0199 05        		.uleb128 0x5
 2472 019a 02        		.byte	0x2
 2473 019b 0000 0000 		.long	.LM40
 2474 019f 16        		.byte	0x16
 2475 01a0 00        		.byte	0x0
 2476 01a1 05        		.uleb128 0x5
 2477 01a2 02        		.byte	0x2
 2478 01a3 0000 0000 		.long	.LM41
 2479 01a7 15        		.byte	0x15
 2480 01a8 00        		.byte	0x0
 2481 01a9 05        		.uleb128 0x5
 2482 01aa 02        		.byte	0x2
 2483 01ab 0000 0000 		.long	.LM42
 2484 01af 15        		.byte	0x15
 2485 01b0 00        		.byte	0x0
 2486 01b1 05        		.uleb128 0x5
 2487 01b2 02        		.byte	0x2
 2488 01b3 0000 0000 		.long	.LM43
 2489 01b7 15        		.byte	0x15
 2490 01b8 00        		.byte	0x0
 2491 01b9 05        		.uleb128 0x5
 2492 01ba 02        		.byte	0x2
 2493 01bb 0000 0000 		.long	.LM44
 2494 01bf 17        		.byte	0x17
 2495 01c0 00        		.byte	0x0
 2496 01c1 05        		.uleb128 0x5
 2497 01c2 02        		.byte	0x2
 2498 01c3 0000 0000 		.long	.LM45
 2499 01c7 15        		.byte	0x15
 2500 01c8 00        		.byte	0x0
 2501 01c9 05        		.uleb128 0x5
 2502 01ca 02        		.byte	0x2
 2503 01cb 0000 0000 		.long	.LM46
 2504 01cf 15        		.byte	0x15
 2505 01d0 00        		.byte	0x0
 2506 01d1 05        		.uleb128 0x5
 2507 01d2 02        		.byte	0x2
 2508 01d3 0000 0000 		.long	.LM47
 2509 01d7 15        		.byte	0x15
 2510 01d8 00        		.byte	0x0
 2511 01d9 05        		.uleb128 0x5
 2512 01da 02        		.byte	0x2
 2513 01db 0000 0000 		.long	.LM48
 2514 01df 15        		.byte	0x15
 2515 01e0 00        		.byte	0x0
 2516 01e1 05        		.uleb128 0x5
 2517 01e2 02        		.byte	0x2
 2518 01e3 0000 0000 		.long	.LM49
 2519 01e7 16        		.byte	0x16
 2520 01e8 00        		.byte	0x0
GAS LISTING C:\Users\alex\AppData\Local\Temp/cc0CmVZN.s 			page 46


 2521 01e9 05        		.uleb128 0x5
 2522 01ea 02        		.byte	0x2
 2523 01eb 0000 0000 		.long	.LM50
 2524 01ef 15        		.byte	0x15
 2525 01f0 00        		.byte	0x0
 2526 01f1 05        		.uleb128 0x5
 2527 01f2 02        		.byte	0x2
 2528 01f3 0000 0000 		.long	.LM51
 2529 01f7 16        		.byte	0x16
 2530 01f8 00        		.byte	0x0
 2531 01f9 05        		.uleb128 0x5
 2532 01fa 02        		.byte	0x2
 2533 01fb 0000 0000 		.long	.LM52
 2534 01ff 15        		.byte	0x15
 2535 0200 00        		.byte	0x0
 2536 0201 05        		.uleb128 0x5
 2537 0202 02        		.byte	0x2
 2538 0203 0000 0000 		.long	.LM53
 2539 0207 15        		.byte	0x15
 2540 0208 00        		.byte	0x0
 2541 0209 05        		.uleb128 0x5
 2542 020a 02        		.byte	0x2
 2543 020b 0000 0000 		.long	.LM54
 2544 020f 1A        		.byte	0x1a
 2545 0210 00        		.byte	0x0
 2546 0211 05        		.uleb128 0x5
 2547 0212 02        		.byte	0x2
 2548 0213 0000 0000 		.long	.LM55
 2549 0217 1A        		.byte	0x1a
 2550 0218 00        		.byte	0x0
 2551 0219 05        		.uleb128 0x5
 2552 021a 02        		.byte	0x2
 2553 021b 0000 0000 		.long	.LM56
 2554 021f 15        		.byte	0x15
 2555 0220 00        		.byte	0x0
 2556 0221 05        		.uleb128 0x5
 2557 0222 02        		.byte	0x2
 2558 0223 0000 0000 		.long	.LM57
 2559 0227 15        		.byte	0x15
 2560 0228 00        		.byte	0x0
 2561 0229 05        		.uleb128 0x5
 2562 022a 02        		.byte	0x2
 2563 022b 0000 0000 		.long	.LM58
 2564 022f 17        		.byte	0x17
 2565 0230 00        		.byte	0x0
 2566 0231 05        		.uleb128 0x5
 2567 0232 02        		.byte	0x2
 2568 0233 0000 0000 		.long	.LM59
 2569 0237 15        		.byte	0x15
 2570 0238 00        		.byte	0x0
 2571 0239 05        		.uleb128 0x5
 2572 023a 02        		.byte	0x2
 2573 023b 0000 0000 		.long	.LM60
 2574 023f 15        		.byte	0x15
 2575 0240 00        		.byte	0x0
 2576 0241 05        		.uleb128 0x5
 2577 0242 02        		.byte	0x2
GAS LISTING C:\Users\alex\AppData\Local\Temp/cc0CmVZN.s 			page 47


 2578 0243 0000 0000 		.long	.LM61
 2579 0247 15        		.byte	0x15
 2580 0248 00        		.byte	0x0
 2581 0249 05        		.uleb128 0x5
 2582 024a 02        		.byte	0x2
 2583 024b 0000 0000 		.long	.LM62
 2584 024f 16        		.byte	0x16
 2585 0250 00        		.byte	0x0
 2586 0251 05        		.uleb128 0x5
 2587 0252 02        		.byte	0x2
 2588 0253 0000 0000 		.long	.LM63
 2589 0257 15        		.byte	0x15
 2590 0258 00        		.byte	0x0
 2591 0259 05        		.uleb128 0x5
 2592 025a 02        		.byte	0x2
 2593 025b 0000 0000 		.long	.LM64
 2594 025f 15        		.byte	0x15
 2595 0260 00        		.byte	0x0
 2596 0261 05        		.uleb128 0x5
 2597 0262 02        		.byte	0x2
 2598 0263 0000 0000 		.long	.LM65
 2599 0267 15        		.byte	0x15
 2600 0268 00        		.byte	0x0
 2601 0269 05        		.uleb128 0x5
 2602 026a 02        		.byte	0x2
 2603 026b 0000 0000 		.long	.LM66
 2604 026f 16        		.byte	0x16
 2605 0270 00        		.byte	0x0
 2606 0271 05        		.uleb128 0x5
 2607 0272 02        		.byte	0x2
 2608 0273 0000 0000 		.long	.LM67
 2609 0277 15        		.byte	0x15
 2610 0278 00        		.byte	0x0
 2611 0279 05        		.uleb128 0x5
 2612 027a 02        		.byte	0x2
 2613 027b 0000 0000 		.long	.LM68
 2614 027f 17        		.byte	0x17
 2615 0280 00        		.byte	0x0
 2616 0281 05        		.uleb128 0x5
 2617 0282 02        		.byte	0x2
 2618 0283 0000 0000 		.long	.LM69
 2619 0287 16        		.byte	0x16
 2620 0288 00        		.byte	0x0
 2621 0289 05        		.uleb128 0x5
 2622 028a 02        		.byte	0x2
 2623 028b 0000 0000 		.long	.LM70
 2624 028f 15        		.byte	0x15
 2625 0290 00        		.byte	0x0
 2626 0291 05        		.uleb128 0x5
 2627 0292 02        		.byte	0x2
 2628 0293 0000 0000 		.long	.LM71
 2629 0297 15        		.byte	0x15
 2630 0298 00        		.byte	0x0
 2631 0299 05        		.uleb128 0x5
 2632 029a 02        		.byte	0x2
 2633 029b 0000 0000 		.long	.LM72
 2634 029f 17        		.byte	0x17
GAS LISTING C:\Users\alex\AppData\Local\Temp/cc0CmVZN.s 			page 48


 2635 02a0 00        		.byte	0x0
 2636 02a1 05        		.uleb128 0x5
 2637 02a2 02        		.byte	0x2
 2638 02a3 0000 0000 		.long	.LM73
 2639 02a7 16        		.byte	0x16
 2640 02a8 00        		.byte	0x0
 2641 02a9 05        		.uleb128 0x5
 2642 02aa 02        		.byte	0x2
 2643 02ab 0000 0000 		.long	.LM74
 2644 02af 15        		.byte	0x15
 2645 02b0 00        		.byte	0x0
 2646 02b1 05        		.uleb128 0x5
 2647 02b2 02        		.byte	0x2
 2648 02b3 0000 0000 		.long	.LM75
 2649 02b7 0A        		.byte	0xa
 2650 02b8 00        		.byte	0x0
 2651 02b9 05        		.uleb128 0x5
 2652 02ba 02        		.byte	0x2
 2653 02bb 0000 0000 		.long	.LM76
 2654 02bf 20        		.byte	0x20
 2655 02c0 00        		.byte	0x0
 2656 02c1 05        		.uleb128 0x5
 2657 02c2 02        		.byte	0x2
 2658 02c3 0000 0000 		.long	.LM77
 2659 02c7 15        		.byte	0x15
 2660 02c8 00        		.byte	0x0
 2661 02c9 05        		.uleb128 0x5
 2662 02ca 02        		.byte	0x2
 2663 02cb 0000 0000 		.long	.LM78
 2664 02cf 15        		.byte	0x15
 2665 02d0 00        		.byte	0x0
 2666 02d1 05        		.uleb128 0x5
 2667 02d2 02        		.byte	0x2
 2668 02d3 0000 0000 		.long	.LM79
 2669 02d7 15        		.byte	0x15
 2670 02d8 00        		.byte	0x0
 2671 02d9 05        		.uleb128 0x5
 2672 02da 02        		.byte	0x2
 2673 02db 0000 0000 		.long	.LM80
 2674 02df 15        		.byte	0x15
 2675 02e0 00        		.byte	0x0
 2676 02e1 05        		.uleb128 0x5
 2677 02e2 02        		.byte	0x2
 2678 02e3 0000 0000 		.long	.LM81
 2679 02e7 15        		.byte	0x15
 2680 02e8 00        		.byte	0x0
 2681 02e9 05        		.uleb128 0x5
 2682 02ea 02        		.byte	0x2
 2683 02eb 0000 0000 		.long	.LM82
 2684 02ef 1C        		.byte	0x1c
 2685 02f0 00        		.byte	0x0
 2686 02f1 05        		.uleb128 0x5
 2687 02f2 02        		.byte	0x2
 2688 02f3 0000 0000 		.long	.LM83
 2689 02f7 18        		.byte	0x18
 2690 02f8 00        		.byte	0x0
 2691 02f9 05        		.uleb128 0x5
GAS LISTING C:\Users\alex\AppData\Local\Temp/cc0CmVZN.s 			page 49


 2692 02fa 02        		.byte	0x2
 2693 02fb 0000 0000 		.long	.LM84
 2694 02ff 15        		.byte	0x15
 2695 0300 00        		.byte	0x0
 2696 0301 05        		.uleb128 0x5
 2697 0302 02        		.byte	0x2
 2698 0303 0000 0000 		.long	.LM85
 2699 0307 15        		.byte	0x15
 2700 0308 00        		.byte	0x0
 2701 0309 05        		.uleb128 0x5
 2702 030a 02        		.byte	0x2
 2703 030b 0000 0000 		.long	.LM86
 2704 030f 17        		.byte	0x17
 2705 0310 00        		.byte	0x0
 2706 0311 05        		.uleb128 0x5
 2707 0312 02        		.byte	0x2
 2708 0313 0000 0000 		.long	.LM87
 2709 0317 15        		.byte	0x15
 2710 0318 00        		.byte	0x0
 2711 0319 05        		.uleb128 0x5
 2712 031a 02        		.byte	0x2
 2713 031b 0000 0000 		.long	.LM88
 2714 031f 16        		.byte	0x16
 2715 0320 00        		.byte	0x0
 2716 0321 05        		.uleb128 0x5
 2717 0322 02        		.byte	0x2
 2718 0323 0000 0000 		.long	.LM89
 2719 0327 15        		.byte	0x15
 2720 0328 00        		.byte	0x0
 2721 0329 05        		.uleb128 0x5
 2722 032a 02        		.byte	0x2
 2723 032b 0000 0000 		.long	.LM90
 2724 032f 18        		.byte	0x18
 2725 0330 00        		.byte	0x0
 2726 0331 05        		.uleb128 0x5
 2727 0332 02        		.byte	0x2
 2728 0333 0000 0000 		.long	.LM91
 2729 0337 19        		.byte	0x19
 2730 0338 00        		.byte	0x0
 2731 0339 05        		.uleb128 0x5
 2732 033a 02        		.byte	0x2
 2733 033b 0000 0000 		.long	.LM92
 2734 033f 15        		.byte	0x15
 2735 0340 00        		.byte	0x0
 2736 0341 05        		.uleb128 0x5
 2737 0342 02        		.byte	0x2
 2738 0343 0000 0000 		.long	.LM93
 2739 0347 15        		.byte	0x15
 2740 0348 00        		.byte	0x0
 2741 0349 05        		.uleb128 0x5
 2742 034a 02        		.byte	0x2
 2743 034b 0000 0000 		.long	.LM94
 2744 034f 15        		.byte	0x15
 2745 0350 00        		.byte	0x0
 2746 0351 05        		.uleb128 0x5
 2747 0352 02        		.byte	0x2
 2748 0353 0000 0000 		.long	.LM95
GAS LISTING C:\Users\alex\AppData\Local\Temp/cc0CmVZN.s 			page 50


 2749 0357 1A        		.byte	0x1a
 2750 0358 00        		.byte	0x0
 2751 0359 05        		.uleb128 0x5
 2752 035a 02        		.byte	0x2
 2753 035b 0000 0000 		.long	.LM96
 2754 035f 15        		.byte	0x15
 2755 0360 00        		.byte	0x0
 2756 0361 05        		.uleb128 0x5
 2757 0362 02        		.byte	0x2
 2758 0363 0000 0000 		.long	.LM97
 2759 0367 15        		.byte	0x15
 2760 0368 00        		.byte	0x0
 2761 0369 05        		.uleb128 0x5
 2762 036a 02        		.byte	0x2
 2763 036b 0000 0000 		.long	.LM98
 2764 036f 15        		.byte	0x15
 2765 0370 00        		.byte	0x0
 2766 0371 05        		.uleb128 0x5
 2767 0372 02        		.byte	0x2
 2768 0373 0000 0000 		.long	.LM99
 2769 0377 17        		.byte	0x17
 2770 0378 00        		.byte	0x0
 2771 0379 05        		.uleb128 0x5
 2772 037a 02        		.byte	0x2
 2773 037b 0000 0000 		.long	.Letext0
 2774 037f 00        		.byte	0x0
 2775 0380 01        		.uleb128 0x1
 2776 0381 01        		.byte	0x1
 2777               	.LELT0:
 2778 0382 1600 0000 		.section	.debug_str,"MS",@progbits,1
 2778      0200 1000 
 2778      0000 0101 
 2778      FB0E 0A00 
 2778      0101 0101 
 2779               	.LASF30:
 2780 0000 6D63 7034 		.string	"mcp4922_b_ldac"
 2780      3932 325F 
 2780      625F 6C64 
 2780      6163 00
 2781               	.LASF15:
 2782 000f 696E 6974 		.string	"init_mcp4922"
 2782      5F6D 6370 
 2782      3439 3232 
 2782      00
 2783               	.LASF20:
 2784 001c 7064 6174 		.string	"pdata"
 2784      6100 
 2785               	.LASF23:
 2786 0022 6D63 7034 		.string	"mcp4922_p_cs"
 2786      3932 325F 
 2786      705F 6373 
 2786      00
 2787               	.LASF27:
 2788 002f 6D63 7034 		.string	"mcp4922_b_cs"
 2788      3932 325F 
 2788      625F 6373 
 2788      00
GAS LISTING C:\Users\alex\AppData\Local\Temp/cc0CmVZN.s 			page 51


 2789               	.LASF18:
 2790 003c 776F 7264 		.string	"word"
 2790      00
 2791               	.LASF28:
 2792 0041 6D63 7034 		.string	"mcp4922_b_data"
 2792      3932 325F 
 2792      625F 6461 
 2792      7461 00
 2793               	.LASF10:
 2794 0050 6461 7461 		.string	"data"
 2794      00
 2795               	.LASF8:
 2796 0055 6C6F 6E67 		.string	"long long unsigned int"
 2796      206C 6F6E 
 2796      6720 756E 
 2796      7369 676E 
 2796      6564 2069 
 2797               	.LASF1:
 2798 006c 756E 7369 		.string	"unsigned char"
 2798      676E 6564 
 2798      2063 6861 
 2798      7200 
 2799               	.LASF11:
 2800 007a 6C64 6163 		.string	"ldac"
 2800      00
 2801               	.LASF14:
 2802 007f 626C 6461 		.string	"bldac"
 2802      6300 
 2803               	.LASF6:
 2804 0085 6C6F 6E67 		.string	"long unsigned int"
 2804      2075 6E73 
 2804      6967 6E65 
 2804      6420 696E 
 2804      7400 
 2805               	.LASF19:
 2806 0097 7063 6C6B 		.string	"pclk"
 2806      00
 2807               	.LASF31:
 2808 009c 474E 5520 		.string	"GNU C 4.3.3"
 2808      4320 342E 
 2808      332E 3300 
 2809               	.LASF12:
 2810 00a8 6263 6C6B 		.string	"bclk"
 2810      00
 2811               	.LASF16:
 2812 00ad 696E 6974 		.string	"init_mcp4922_spi"
 2812      5F6D 6370 
 2812      3439 3232 
 2812      5F73 7069 
 2812      00
 2813               	.LASF22:
 2814 00be 6D63 7034 		.string	"mcp4922_spiw"
 2814      3932 325F 
 2814      7370 6977 
 2814      00
 2815               	.LASF25:
 2816 00cb 6D63 7034 		.string	"mcp4922_p_clk"
GAS LISTING C:\Users\alex\AppData\Local\Temp/cc0CmVZN.s 			page 52


 2816      3932 325F 
 2816      705F 636C 
 2816      6B00 
 2817               	.LASF4:
 2818 00d9 756E 7369 		.string	"unsigned int"
 2818      676E 6564 
 2818      2069 6E74 
 2818      00
 2819               	.LASF32:
 2820 00e6 6D63 7034 		.string	"mcp4922.c"
 2820      3932 322E 
 2820      6300 
 2821               	.LASF2:
 2822 00f0 7569 6E74 		.string	"uint8_t"
 2822      385F 7400 
 2823               	.LASF13:
 2824 00f8 6264 6174 		.string	"bdata"
 2824      6100 
 2825               	.LASF3:
 2826 00fe 696E 7431 		.string	"int16_t"
 2826      365F 7400 
 2827               	.LASF26:
 2828 0106 6D63 7034 		.string	"mcp4922_p_ldac"
 2828      3932 325F 
 2828      705F 6C64 
 2828      6163 00
 2829               	.LASF7:
 2830 0115 6C6F 6E67 		.string	"long long int"
 2830      206C 6F6E 
 2830      6720 696E 
 2830      7400 
 2831               	.LASF21:
 2832 0123 706C 6461 		.string	"pldac"
 2832      6300 
 2833               	.LASF9:
 2834 0129 6368 6970 		.string	"chip"
 2834      00
 2835               	.LASF17:
 2836 012e 6D63 7034 		.string	"mcp4922_putw"
 2836      3932 325F 
 2836      7075 7477 
 2836      00
 2837               	.LASF33:
 2838 013b 453A 5C61 		.string	"E:\\avr\\lib"
 2838      7672 5C6C 
 2838      6962 00
 2839               	.LASF5:
 2840 0146 6C6F 6E67 		.string	"long int"
 2840      2069 6E74 
 2840      00
 2841               	.LASF0:
 2842 014f 7369 676E 		.string	"signed char"
 2842      6564 2063 
 2842      6861 7200 
 2843               	.LASF24:
 2844 015b 6D63 7034 		.string	"mcp4922_p_data"
 2844      3932 325F 
GAS LISTING C:\Users\alex\AppData\Local\Temp/cc0CmVZN.s 			page 53


 2844      705F 6461 
 2844      7461 00
 2845               	.LASF29:
 2846 016a 6D63 7034 		.string	"mcp4922_b_clk"
 2846      3932 325F 
 2846      625F 636C 
 2846      6B00 
 2847               	.global __do_clear_bss
GAS LISTING C:\Users\alex\AppData\Local\Temp/cc0CmVZN.s 			page 54


DEFINED SYMBOLS
                            *ABS*:00000000 mcp4922.c
C:\Users\alex\AppData\Local\Temp/cc0CmVZN.s:2      *ABS*:0000003f __SREG__
C:\Users\alex\AppData\Local\Temp/cc0CmVZN.s:3      *ABS*:0000003e __SP_H__
C:\Users\alex\AppData\Local\Temp/cc0CmVZN.s:4      *ABS*:0000003d __SP_L__
C:\Users\alex\AppData\Local\Temp/cc0CmVZN.s:5      *ABS*:00000034 __CCP__
C:\Users\alex\AppData\Local\Temp/cc0CmVZN.s:6      *ABS*:00000000 __tmp_reg__
C:\Users\alex\AppData\Local\Temp/cc0CmVZN.s:7      *ABS*:00000001 __zero_reg__
C:\Users\alex\AppData\Local\Temp/cc0CmVZN.s:18     .text:00000000 init_mcp4922
                            *COM*:00000004 mcp4922_b_clk
                            *COM*:00000004 mcp4922_b_data
                            *COM*:00000004 mcp4922_b_cs
                            *COM*:00000004 mcp4922_b_ldac
                            *COM*:00000008 mcp4922_p_clk
                            *COM*:00000008 mcp4922_p_data
                            *COM*:00000008 mcp4922_p_cs
                            *COM*:00000008 mcp4922_p_ldac
C:\Users\alex\AppData\Local\Temp/cc0CmVZN.s:666    .text:0000049c init_mcp4922_spi
C:\Users\alex\AppData\Local\Temp/cc0CmVZN.s:1026   .text:00000722 mcp4922_putw
C:\Users\alex\AppData\Local\Temp/cc0CmVZN.s:1304   .text:000008fc mcp4922_spiw

UNDEFINED SYMBOLS
udelay
__do_clear_bss
