GAS LISTING D:\DOCUME~1\alex\LOCALS~1\Temp/ccZpN2I0.s 			page 1


   1               		.file	"lcd.c"
   2               	__SREG__ = 0x3f
   3               	__SP_H__ = 0x3e
   4               	__SP_L__ = 0x3d
   5               	__tmp_reg__ = 0
   6               	__zero_reg__ = 1
   7               		.global __do_copy_data
   8               		.global __do_clear_bss
   9               		.section	.debug_abbrev,"",@progbits
  10               	.Ldebug_abbrev0:
  11               		.section	.debug_info,"",@progbits
  12               	.Ldebug_info0:
  13               		.section	.debug_line,"",@progbits
  14               	.Ldebug_line0:
  15               		.text
  16               	.Ltext0:
  17               		.type	toggle_e, @function
  18               	toggle_e:
  19               	.LFB3:
  20               	.LM1:
  21               	/* prologue: frame size=0 */
  22               	/* prologue end (size=0) */
  23               	.LM2:
  24 0000 AC9A      		sbi 53-0x20,4
  25               	.LM3:
  26               	/* #APP */
  27 0002 00C0      		rjmp 1f
  28               	 1:
  29               	.LM4:
  30               	/* #NOAPP */
  31 0004 AC98      		cbi 53-0x20,4
  32               	/* epilogue: frame size=0 */
  33 0006 0895      		ret
  34               	/* epilogue end (size=1) */
  35               	/* function toggle_e size 7 (6) */
  36               	.LFE3:
  37               		.size	toggle_e, .-toggle_e
  38               		.type	lcd_write, @function
  39               	lcd_write:
  40               	.LFB4:
  41               	.LM5:
  42               	/* prologue: frame size=0 */
  43 0008 CF93      		push r28
  44 000a DF93      		push r29
  45               	/* prologue end (size=2) */
  46               	.LVL0:
  47               	.LM6:
  48 000c 6623      		tst r22
  49 000e 01F0      		breq .L4
  50               	.LM7:
  51 0010 949A      		sbi 50-0x20,4
  52 0012 00C0      		rjmp .L6
  53               	.L4:
  54               	.LM8:
  55 0014 9498      		cbi 50-0x20,4
  56               	.L6:
  57               	.LM9:
GAS LISTING D:\DOCUME~1\alex\LOCALS~1\Temp/ccZpN2I0.s 			page 2


  58 0016 AD98      		cbi 53-0x20,5
  59               	.LM10:
  60 0018 A39A      		sbi 52-0x20,3
  61               	.LM11:
  62 001a A29A      		sbi 52-0x20,2
  63               	.LM12:
  64 001c A19A      		sbi 52-0x20,1
  65               	.LM13:
  66 001e A09A      		sbi 52-0x20,0
  67               	.LM14:
  68 0020 A898      		cbi 53-0x20,0
  69               	.LM15:
  70 0022 A998      		cbi 53-0x20,1
  71               	.LM16:
  72 0024 AA98      		cbi 53-0x20,2
  73               	.LM17:
  74 0026 AB98      		cbi 53-0x20,3
  75               	.LM18:
  76 0028 87FD      		sbrc r24,7
  77 002a A89A      		sbi 53-0x20,0
  78               	.L7:
  79               	.LM19:
  80 002c C82F      		mov r28,r24
  81 002e 86FD      		sbrc r24,6
  82               	.LVL1:
  83 0030 A99A      		sbi 53-0x20,1
  84               	.L9:
  85               	.LM20:
  86 0032 C5FD      		sbrc r28,5
  87 0034 AA9A      		sbi 53-0x20,2
  88               	.L11:
  89               	.LM21:
  90 0036 C4FD      		sbrc r28,4
  91 0038 AB9A      		sbi 53-0x20,3
  92               	.L13:
  93               	.LM22:
  94 003a 00D0      		rcall toggle_e
  95               	.LVL2:
  96               	.LM23:
  97 003c A898      		cbi 53-0x20,0
  98               	.LM24:
  99 003e A998      		cbi 53-0x20,1
 100               	.LM25:
 101 0040 AA98      		cbi 53-0x20,2
 102               	.LM26:
 103 0042 AB98      		cbi 53-0x20,3
 104               	.LM27:
 105 0044 C3FD      		sbrc r28,3
 106 0046 A89A      		sbi 53-0x20,0
 107               	.L15:
 108               	.LM28:
 109 0048 C2FD      		sbrc r28,2
 110 004a A99A      		sbi 53-0x20,1
 111               	.L17:
 112               	.LM29:
 113 004c C1FD      		sbrc r28,1
 114 004e AA9A      		sbi 53-0x20,2
GAS LISTING D:\DOCUME~1\alex\LOCALS~1\Temp/ccZpN2I0.s 			page 3


 115               	.L19:
 116               	.LM30:
 117 0050 C0FD      		sbrc r28,0
 118 0052 AB9A      		sbi 53-0x20,3
 119               	.L21:
 120               	.LM31:
 121 0054 00D0      		rcall toggle_e
 122               	.LM32:
 123 0056 AB9A      		sbi 53-0x20,3
 124               	.LM33:
 125 0058 AA9A      		sbi 53-0x20,2
 126               	.LM34:
 127 005a A99A      		sbi 53-0x20,1
 128               	.LM35:
 129 005c A89A      		sbi 53-0x20,0
 130               	/* epilogue: frame size=0 */
 131 005e DF91      		pop r29
 132 0060 CF91      		pop r28
 133 0062 0895      		ret
 134               	/* epilogue end (size=3) */
 135               	/* function lcd_write size 54 (49) */
 136               	.LFE4:
 137               		.size	lcd_write, .-lcd_write
 138               		.type	lcd_read, @function
 139               	lcd_read:
 140               	.LFB5:
 141               	.LM36:
 142               	/* prologue: frame size=0 */
 143               	/* prologue end (size=0) */
 144               	.LVL3:
 145               	.LM37:
 146 0064 8823      		tst r24
 147 0066 01F0      		breq .L25
 148               	.LM38:
 149 0068 949A      		sbi 50-0x20,4
 150 006a 00C0      		rjmp .L27
 151               	.L25:
 152               	.LM39:
 153 006c 9498      		cbi 50-0x20,4
 154               	.L27:
 155               	.LM40:
 156 006e AD9A      		sbi 53-0x20,5
 157               	.LM41:
 158 0070 A398      		cbi 52-0x20,3
 159               	.LM42:
 160 0072 A298      		cbi 52-0x20,2
 161               	.LM43:
 162 0074 A198      		cbi 52-0x20,1
 163               	.LM44:
 164 0076 A098      		cbi 52-0x20,0
 165               	.LM45:
 166 0078 AC9A      		sbi 53-0x20,4
 167               	.LM46:
 168               	/* #APP */
 169 007a 00C0      		rjmp 1f
 170               	 1:
 171               	.LM47:
GAS LISTING D:\DOCUME~1\alex\LOCALS~1\Temp/ccZpN2I0.s 			page 4


 172               	/* #NOAPP */
 173 007c 9B9B      		sbis 51-0x20,3
 174 007e 00C0      		rjmp .L28
 175 0080 80E1      		ldi r24,lo8(16)
 176               	.LVL4:
 177 0082 00C0      		rjmp .L30
 178               	.LVL5:
 179               	.L28:
 180 0084 80E0      		ldi r24,lo8(0)
 181               	.LVL6:
 182               	.L30:
 183               	.LM48:
 184 0086 9A99      		sbic 51-0x20,2
 185 0088 8062      		ori r24,lo8(32)
 186               	.L31:
 187               	.LM49:
 188 008a 9999      		sbic 51-0x20,1
 189 008c 8064      		ori r24,lo8(64)
 190               	.L33:
 191               	.LM50:
 192 008e 9899      		sbic 51-0x20,0
 193 0090 8068      		ori r24,lo8(-128)
 194               	.L35:
 195               	.LM51:
 196 0092 AC98      		cbi 53-0x20,4
 197               	.LM52:
 198               	/* #APP */
 199 0094 00C0      		rjmp 1f
 200               	 1:
 201               	.LM53:
 202               	/* #NOAPP */
 203 0096 AC9A      		sbi 53-0x20,4
 204               	.LM54:
 205               	/* #APP */
 206 0098 00C0      		rjmp 1f
 207               	 1:
 208               	.LM55:
 209               	/* #NOAPP */
 210 009a 9B99      		sbic 51-0x20,3
 211 009c 8160      		ori r24,lo8(1)
 212               	.L37:
 213               	.LM56:
 214 009e 9A99      		sbic 51-0x20,2
 215 00a0 8260      		ori r24,lo8(2)
 216               	.L39:
 217               	.LM57:
 218 00a2 9999      		sbic 51-0x20,1
 219 00a4 8460      		ori r24,lo8(4)
 220               	.L41:
 221               	.LM58:
 222 00a6 9899      		sbic 51-0x20,0
 223 00a8 8860      		ori r24,lo8(8)
 224               	.L43:
 225               	.LM59:
 226 00aa AC98      		cbi 53-0x20,4
 227               	.LM60:
 228 00ac 90E0      		ldi r25,lo8(0)
GAS LISTING D:\DOCUME~1\alex\LOCALS~1\Temp/ccZpN2I0.s 			page 5


 229               	.LVL7:
 230               	/* epilogue: frame size=0 */
 231 00ae 0895      		ret
 232               	/* epilogue end (size=1) */
 233               	/* function lcd_read size 54 (53) */
 234               	.LFE5:
 235               		.size	lcd_read, .-lcd_read
 236               		.type	lcd_waitbusy, @function
 237               	lcd_waitbusy:
 238               	.LFB6:
 239               	.LM61:
 240               	/* prologue: frame size=0 */
 241               	/* prologue end (size=0) */
 242               	.L48:
 243               	.LM62:
 244 00b0 80E0      		ldi r24,lo8(0)
 245 00b2 00D0      		rcall lcd_read
 246 00b4 87FD      		sbrc r24,7
 247 00b6 00C0      		rjmp .L48
 248               	.LBB4:
 249               	.LBB5:
 250               	.LM63:
 251 00b8 82E0      		ldi r24,lo8(2)
 252 00ba 90E0      		ldi r25,hi8(2)
 253               	.LVL8:
 254               	/* #APP */
 255 00bc 0197      		1: sbiw r24,1
 256 00be 01F4      		brne 1b
 257               	/* #NOAPP */
 258               	.LBE5:
 259               	.LBE4:
 260               	.LM64:
 261 00c0 80E0      		ldi r24,lo8(0)
 262               	.LVL9:
 263 00c2 00D0      		rcall lcd_read
 264               	.LM65:
 265 00c4 90E0      		ldi r25,lo8(0)
 266               	/* epilogue: frame size=0 */
 267 00c6 0895      		ret
 268               	/* epilogue end (size=1) */
 269               	/* function lcd_waitbusy size 14 (13) */
 270               	.LFE6:
 271               		.size	lcd_waitbusy, .-lcd_waitbusy
 272               	.global	lcd_backlight
 273               		.type	lcd_backlight, @function
 274               	lcd_backlight:
 275               	.LFB8:
 276               	.LM66:
 277               	/* prologue: frame size=0 */
 278               	/* prologue end (size=0) */
 279               	.LVL10:
 280               	.LM67:
 281 00c8 8130      		cpi r24,lo8(1)
 282 00ca 01F4      		brne .L54
 283               	.LM68:
 284 00cc 959A      		sbi 50-0x20,5
 285 00ce 0895      		ret
GAS LISTING D:\DOCUME~1\alex\LOCALS~1\Temp/ccZpN2I0.s 			page 6


 286               	.L54:
 287               	.LM69:
 288 00d0 9598      		cbi 50-0x20,5
 289 00d2 0895      		ret
 290               	/* epilogue: frame size=0 */
 291               	/* epilogue: noreturn */
 292               	/* epilogue end (size=0) */
 293               	/* function lcd_backlight size 6 (6) */
 294               	.LFE8:
 295               		.size	lcd_backlight, .-lcd_backlight
 296               	.global	lcd_command
 297               		.type	lcd_command, @function
 298               	lcd_command:
 299               	.LFB9:
 300               	.LM70:
 301               	/* prologue: frame size=0 */
 302 00d4 1F93      		push r17
 303               	/* prologue end (size=1) */
 304               	.LVL11:
 305 00d6 182F      		mov r17,r24
 306               	.LM71:
 307 00d8 00D0      		rcall lcd_waitbusy
 308               	.LVL12:
 309               	.LM72:
 310 00da 60E0      		ldi r22,lo8(0)
 311 00dc 812F      		mov r24,r17
 312 00de 00D0      		rcall lcd_write
 313               	/* epilogue: frame size=0 */
 314 00e0 1F91      		pop r17
 315 00e2 0895      		ret
 316               	/* epilogue end (size=2) */
 317               	/* function lcd_command size 8 (5) */
 318               	.LFE9:
 319               		.size	lcd_command, .-lcd_command
 320               	.global	lcd_data
 321               		.type	lcd_data, @function
 322               	lcd_data:
 323               	.LFB10:
 324               	.LM73:
 325               	/* prologue: frame size=0 */
 326 00e4 1F93      		push r17
 327               	/* prologue end (size=1) */
 328               	.LVL13:
 329 00e6 182F      		mov r17,r24
 330               	.LM74:
 331 00e8 00D0      		rcall lcd_waitbusy
 332               	.LVL14:
 333               	.LM75:
 334 00ea 61E0      		ldi r22,lo8(1)
 335 00ec 812F      		mov r24,r17
 336 00ee 00D0      		rcall lcd_write
 337               	/* epilogue: frame size=0 */
 338 00f0 1F91      		pop r17
 339 00f2 0895      		ret
 340               	/* epilogue end (size=2) */
 341               	/* function lcd_data size 8 (5) */
 342               	.LFE10:
GAS LISTING D:\DOCUME~1\alex\LOCALS~1\Temp/ccZpN2I0.s 			page 7


 343               		.size	lcd_data, .-lcd_data
 344               	.global	lcd_gotoxy
 345               		.type	lcd_gotoxy, @function
 346               	lcd_gotoxy:
 347               	.LFB11:
 348               	.LM76:
 349               	/* prologue: frame size=0 */
 350               	/* prologue end (size=0) */
 351               	.LVL15:
 352               	.LM77:
 353 00f4 6623      		tst r22
 354 00f6 01F4      		brne .L63
 355               	.LM78:
 356 00f8 8058      		subi r24,lo8(-(-128))
 357               	.LVL16:
 358 00fa 00C0      		rjmp .L67
 359               	.LVL17:
 360               	.L63:
 361               	.LM79:
 362 00fc 8054      		subi r24,lo8(-(-64))
 363               	.LVL18:
 364               	.L67:
 365 00fe 00D0      		rcall lcd_command
 366               	.LVL19:
 367 0100 0895      		ret
 368               	/* epilogue: frame size=0 */
 369               	/* epilogue: noreturn */
 370               	/* epilogue end (size=0) */
 371               	/* function lcd_gotoxy size 7 (7) */
 372               	.LFE11:
 373               		.size	lcd_gotoxy, .-lcd_gotoxy
 374               	.global	lcd_getxy
 375               		.type	lcd_getxy, @function
 376               	lcd_getxy:
 377               	.LFB12:
 378               	.LM80:
 379               	/* prologue: frame size=0 */
 380               	/* prologue end (size=0) */
 381               	.LM81:
 382 0102 00D0      		rcall lcd_waitbusy
 383               	.LM82:
 384 0104 90E0      		ldi r25,lo8(0)
 385               	/* epilogue: frame size=0 */
 386 0106 0895      		ret
 387               	/* epilogue end (size=1) */
 388               	/* function lcd_getxy size 3 (2) */
 389               	.LFE12:
 390               		.size	lcd_getxy, .-lcd_getxy
 391               	.global	lcd_clrscr
 392               		.type	lcd_clrscr, @function
 393               	lcd_clrscr:
 394               	.LFB13:
 395               	.LM83:
 396               	/* prologue: frame size=0 */
 397               	/* prologue end (size=0) */
 398               	.LM84:
 399 0108 81E0      		ldi r24,lo8(1)
GAS LISTING D:\DOCUME~1\alex\LOCALS~1\Temp/ccZpN2I0.s 			page 8


 400 010a 00D0      		rcall lcd_command
 401               	/* epilogue: frame size=0 */
 402 010c 0895      		ret
 403               	/* epilogue end (size=1) */
 404               	/* function lcd_clrscr size 3 (2) */
 405               	.LFE13:
 406               		.size	lcd_clrscr, .-lcd_clrscr
 407               	.global	lcd_home
 408               		.type	lcd_home, @function
 409               	lcd_home:
 410               	.LFB14:
 411               	.LM85:
 412               	/* prologue: frame size=0 */
 413               	/* prologue end (size=0) */
 414               	.LM86:
 415 010e 82E0      		ldi r24,lo8(2)
 416 0110 00D0      		rcall lcd_command
 417               	/* epilogue: frame size=0 */
 418 0112 0895      		ret
 419               	/* epilogue end (size=1) */
 420               	/* function lcd_home size 3 (2) */
 421               	.LFE14:
 422               		.size	lcd_home, .-lcd_home
 423               	.global	lcd_putc
 424               		.type	lcd_putc, @function
 425               	lcd_putc:
 426               	.LFB15:
 427               	.LM87:
 428               	/* prologue: frame size=0 */
 429 0114 1F93      		push r17
 430               	/* prologue end (size=1) */
 431               	.LVL20:
 432 0116 182F      		mov r17,r24
 433               	.LM88:
 434 0118 00D0      		rcall lcd_waitbusy
 435               	.LVL21:
 436               	.LM89:
 437 011a 1A30      		cpi r17,lo8(10)
 438 011c 01F4      		brne .L75
 439               	.LBB8:
 440               	.LBB9:
 441               	.LM90:
 442 011e 8034      		cpi r24,lo8(64)
 443               	.LVL22:
 444 0120 00F4      		brsh .L77
 445 0122 80E4      		ldi r24,lo8(64)
 446               	.LVL23:
 447 0124 00C0      		rjmp .L79
 448               	.LVL24:
 449               	.L77:
 450 0126 80E0      		ldi r24,lo8(0)
 451               	.LVL25:
 452               	.L79:
 453               	.LM91:
 454 0128 8058      		subi r24,lo8(-(-128))
 455               	.LVL26:
 456 012a 00D0      		rcall lcd_command
GAS LISTING D:\DOCUME~1\alex\LOCALS~1\Temp/ccZpN2I0.s 			page 9


 457 012c 00C0      		rjmp .L81
 458               	.L75:
 459               	.LBE9:
 460               	.LBE8:
 461               	.LM92:
 462 012e 61E0      		ldi r22,lo8(1)
 463 0130 812F      		mov r24,r17
 464 0132 00D0      		rcall lcd_write
 465               	.L81:
 466               	/* epilogue: frame size=0 */
 467 0134 1F91      		pop r17
 468 0136 0895      		ret
 469               	/* epilogue end (size=2) */
 470               	/* function lcd_putc size 18 (15) */
 471               	.LFE15:
 472               		.size	lcd_putc, .-lcd_putc
 473               	.global	lcd_puts
 474               		.type	lcd_puts, @function
 475               	lcd_puts:
 476               	.LFB16:
 477               	.LM93:
 478               	/* prologue: frame size=0 */
 479 0138 CF93      		push r28
 480 013a DF93      		push r29
 481               	/* prologue end (size=2) */
 482               	.LVL27:
 483 013c EC01      		movw r28,r24
 484 013e 00C0      		rjmp .L83
 485               	.LVL28:
 486               	.L84:
 487               	.LM94:
 488 0140 00D0      		rcall lcd_putc
 489               	.LVL29:
 490               	.L83:
 491               	.LM95:
 492 0142 8991      		ld r24,Y+
 493               	.LVL30:
 494 0144 8823      		tst r24
 495 0146 01F4      		brne .L84
 496               	/* epilogue: frame size=0 */
 497 0148 DF91      		pop r29
 498 014a CF91      		pop r28
 499 014c 0895      		ret
 500               	/* epilogue end (size=3) */
 501               	/* function lcd_puts size 11 (6) */
 502               	.LFE16:
 503               		.size	lcd_puts, .-lcd_puts
 504               	.global	lcd_puts_p
 505               		.type	lcd_puts_p, @function
 506               	lcd_puts_p:
 507               	.LFB17:
 508               	.LM96:
 509               	/* prologue: frame size=0 */
 510 014e CF93      		push r28
 511 0150 DF93      		push r29
 512               	/* prologue end (size=2) */
 513               	.LVL31:
GAS LISTING D:\DOCUME~1\alex\LOCALS~1\Temp/ccZpN2I0.s 			page 10


 514 0152 EC01      		movw r28,r24
 515 0154 00C0      		rjmp .L88
 516               	.LVL32:
 517               	.L89:
 518               	.LM97:
 519 0156 00D0      		rcall lcd_putc
 520               	.LVL33:
 521               	.L88:
 522 0158 FE01      		movw r30,r28
 523               	.LVL34:
 524               	.LBB10:
 525               	.LM98:
 526 015a 2196      		adiw r28,1
 527               	/* #APP */
 528 015c 8491      		lpm r24, Z
 529               		
 530               	.LVL35:
 531               	/* #NOAPP */
 532               	.LBE10:
 533 015e 8823      		tst r24
 534 0160 01F4      		brne .L89
 535               	/* epilogue: frame size=0 */
 536 0162 DF91      		pop r29
 537 0164 CF91      		pop r28
 538 0166 0895      		ret
 539               	/* epilogue end (size=3) */
 540               	/* function lcd_puts_p size 16 (11) */
 541               	.LFE17:
 542               		.size	lcd_puts_p, .-lcd_puts_p
 543               	.global	lcd_printf
 544               		.type	lcd_printf, @function
 545               	lcd_printf:
 546               	.LFB18:
 547               	.LM99:
 548               	/* prologue: frame size=42 */
 549 0168 EF92      		push r14
 550 016a FF92      		push r15
 551 016c 0F93      		push r16
 552 016e 1F93      		push r17
 553 0170 CF93      		push r28
 554 0172 DF93      		push r29
 555 0174 CDB7      		in r28,__SP_L__
 556 0176 DEB7      		in r29,__SP_H__
 557 0178 AA97      		sbiw r28,42
 558 017a 0FB6      		in __tmp_reg__,__SREG__
 559 017c F894      		cli
 560 017e DEBF      		out __SP_H__,r29
 561 0180 0FBE      		out __SREG__,__tmp_reg__
 562 0182 CDBF      		out __SP_L__,r28
 563               	/* prologue end (size=14) */
 564               	.LVL36:
 565 0184 FE01      		movw r30,r28
 566 0186 F396      		adiw r30,51
 567 0188 8191      		ld r24,Z+
 568 018a 9191      		ld r25,Z+
 569               	.LM100:
 570 018c FA83      		std Y+2,r31
GAS LISTING D:\DOCUME~1\alex\LOCALS~1\Temp/ccZpN2I0.s 			page 11


 571 018e E983      		std Y+1,r30
 572               	.LVL37:
 573 0190 8C01      		movw r16,r24
 574               	.LVL38:
 575               	.LM101:
 576 0192 83E0      		ldi r24,lo8(3)
 577 0194 E82E      		mov r14,r24
 578 0196 F12C      		mov r15,__zero_reg__
 579 0198 EC0E      		add r14,r28
 580 019a FD1E      		adc r15,r29
 581 019c 00C0      		rjmp .L93
 582               	.LVL39:
 583               	.L94:
 584               	.LM102:
 585 019e 8532      		cpi r24,lo8(37)
 586 01a0 01F4      		brne .L98
 587               	.LM103:
 588 01a2 0F5F      		subi r16,lo8(-(1))
 589 01a4 1F4F      		sbci r17,hi8(-(1))
 590 01a6 F801      		movw r30,r16
 591 01a8 8081      		ld r24,Z
 592 01aa 8936      		cpi r24,lo8(105)
 593 01ac 01F0      		breq .L100
 594 01ae 8A36      		cpi r24,lo8(106)
 595 01b0 00F4      		brsh .L103
 596 01b2 8336      		cpi r24,lo8(99)
 597 01b4 01F0      		breq .L99
 598 01b6 8436      		cpi r24,lo8(100)
 599 01b8 01F4      		brne .L98
 600 01ba 00C0      		rjmp .L100
 601               	.L103:
 602 01bc 8337      		cpi r24,lo8(115)
 603 01be 01F0      		breq .L101
 604 01c0 8537      		cpi r24,lo8(117)
 605 01c2 01F4      		brne .L98
 606               	.LM104:
 607 01c4 E981      		ldd r30,Y+1
 608 01c6 FA81      		ldd r31,Y+2
 609 01c8 3296      		adiw r30,2
 610 01ca FA83      		std Y+2,r31
 611 01cc E983      		std Y+1,r30
 612               	.LVL40:
 613               	.LM105:
 614 01ce 4AE0      		ldi r20,lo8(10)
 615 01d0 50E0      		ldi r21,hi8(10)
 616 01d2 B701      		movw r22,r14
 617 01d4 9291      		ld r25,-Z
 618 01d6 8291      		ld r24,-Z
 619 01d8 00D0      		rcall utoa
 620 01da 00C0      		rjmp .L107
 621               	.L100:
 622               	.LM106:
 623 01dc E981      		ldd r30,Y+1
 624 01de FA81      		ldd r31,Y+2
 625 01e0 3296      		adiw r30,2
 626 01e2 FA83      		std Y+2,r31
 627 01e4 E983      		std Y+1,r30
GAS LISTING D:\DOCUME~1\alex\LOCALS~1\Temp/ccZpN2I0.s 			page 12


 628               	.LVL41:
 629               	.LM107:
 630 01e6 4AE0      		ldi r20,lo8(10)
 631 01e8 50E0      		ldi r21,hi8(10)
 632 01ea B701      		movw r22,r14
 633 01ec 9291      		ld r25,-Z
 634 01ee 8291      		ld r24,-Z
 635 01f0 00D0      		rcall itoa
 636               	.L107:
 637               	.LM108:
 638 01f2 C701      		movw r24,r14
 639 01f4 00C0      		rjmp .L106
 640               	.L99:
 641               	.LM109:
 642 01f6 E981      		ldd r30,Y+1
 643 01f8 FA81      		ldd r31,Y+2
 644 01fa 3296      		adiw r30,2
 645 01fc FA83      		std Y+2,r31
 646 01fe E983      		std Y+1,r30
 647               	.LVL42:
 648 0200 3297      		sbiw r30,2
 649               	.LM110:
 650 0202 8081      		ld r24,Z
 651 0204 00C0      		rjmp .L98
 652               	.L101:
 653               	.LM111:
 654 0206 E981      		ldd r30,Y+1
 655 0208 FA81      		ldd r31,Y+2
 656 020a 3296      		adiw r30,2
 657 020c FA83      		std Y+2,r31
 658 020e E983      		std Y+1,r30
 659               	.LVL43:
 660               	.LM112:
 661 0210 9291      		ld r25,-Z
 662 0212 8291      		ld r24,-Z
 663               	.L106:
 664 0214 00D0      		rcall lcd_puts
 665 0216 00C0      		rjmp .L97
 666               	.L98:
 667               	.LM113:
 668 0218 00D0      		rcall lcd_putc
 669               	.L97:
 670               	.LM114:
 671 021a 0F5F      		subi r16,lo8(-(1))
 672 021c 1F4F      		sbci r17,hi8(-(1))
 673               	.L93:
 674 021e F801      		movw r30,r16
 675 0220 8081      		ld r24,Z
 676 0222 8823      		tst r24
 677 0224 01F0      		breq .+2
 678 0226 00C0      		rjmp .L94
 679               	/* epilogue: frame size=42 */
 680 0228 AA96      		adiw r28,42
 681 022a 0FB6      		in __tmp_reg__,__SREG__
 682 022c F894      		cli
 683 022e DEBF      		out __SP_H__,r29
 684 0230 0FBE      		out __SREG__,__tmp_reg__
GAS LISTING D:\DOCUME~1\alex\LOCALS~1\Temp/ccZpN2I0.s 			page 13


 685 0232 CDBF      		out __SP_L__,r28
 686 0234 DF91      		pop r29
 687 0236 CF91      		pop r28
 688 0238 1F91      		pop r17
 689 023a 0F91      		pop r16
 690 023c FF90      		pop r15
 691 023e EF90      		pop r14
 692 0240 0895      		ret
 693               	/* epilogue end (size=13) */
 694               	/* function lcd_printf size 109 (82) */
 695               	.LFE18:
 696               		.size	lcd_printf, .-lcd_printf
 697               	.global	lcd_init
 698               		.type	lcd_init, @function
 699               	lcd_init:
 700               	.LFB19:
 701               	.LM115:
 702               	/* prologue: frame size=0 */
 703 0242 FF92      		push r15
 704 0244 0F93      		push r16
 705 0246 1F93      		push r17
 706               	/* prologue end (size=3) */
 707               	.LVL44:
 708 0248 F82E      		mov r15,r24
 709               	.LM116:
 710 024a 8C9A      		sbi 49-0x20,4
 711               	.LM117:
 712 024c A59A      		sbi 52-0x20,5
 713               	.LM118:
 714 024e A49A      		sbi 52-0x20,4
 715               	.LM119:
 716 0250 A39A      		sbi 52-0x20,3
 717               	.LM120:
 718 0252 A29A      		sbi 52-0x20,2
 719               	.LM121:
 720 0254 A19A      		sbi 52-0x20,1
 721               	.LM122:
 722 0256 A09A      		sbi 52-0x20,0
 723               	.LBB21:
 724               	.LBB22:
 725               	.LM123:
 726 0258 80E8      		ldi r24,lo8(16000)
 727 025a 9EE3      		ldi r25,hi8(16000)
 728               	.LVL45:
 729               	/* #APP */
 730 025c 0197      		1: sbiw r24,1
 731 025e 01F4      		brne 1b
 732               	/* #NOAPP */
 733               	.LBE22:
 734               	.LBE21:
 735               	.LM124:
 736 0260 AA9A      		sbi 53-0x20,2
 737               	.LM125:
 738 0262 AB9A      		sbi 53-0x20,3
 739               	.LM126:
 740 0264 00D0      		rcall toggle_e
 741               	.LVL46:
GAS LISTING D:\DOCUME~1\alex\LOCALS~1\Temp/ccZpN2I0.s 			page 14


 742               	.LBB23:
 743               	.LBB24:
 744               	.LM127:
 745 0266 80E8      		ldi r24,lo8(4992)
 746 0268 93E1      		ldi r25,hi8(4992)
 747               	.LVL47:
 748               	/* #APP */
 749 026a 0197      		1: sbiw r24,1
 750 026c 01F4      		brne 1b
 751               	/* #NOAPP */
 752               	.LBE24:
 753               	.LBE23:
 754               	.LM128:
 755 026e 00D0      		rcall toggle_e
 756               	.LVL48:
 757               	.LBB25:
 758               	.LBB26:
 759               	.LM129:
 760 0270 00E4      		ldi r16,lo8(64)
 761 0272 10E0      		ldi r17,hi8(64)
 762 0274 C801      		movw r24,r16
 763               	.LVL49:
 764               	/* #APP */
 765 0276 0197      		1: sbiw r24,1
 766 0278 01F4      		brne 1b
 767               	/* #NOAPP */
 768               	.LBE26:
 769               	.LBE25:
 770               	.LM130:
 771 027a 00D0      		rcall toggle_e
 772               	.LVL50:
 773               	.LBB27:
 774               	.LBB28:
 775               	.LM131:
 776 027c C801      		movw r24,r16
 777               	.LVL51:
 778               	/* #APP */
 779 027e 0197      		1: sbiw r24,1
 780 0280 01F4      		brne 1b
 781               	/* #NOAPP */
 782               	.LBE28:
 783               	.LBE27:
 784               	.LM132:
 785 0282 AB98      		cbi 53-0x20,3
 786               	.LM133:
 787 0284 00D0      		rcall toggle_e
 788               	.LVL52:
 789               	.LBB29:
 790               	.LBB30:
 791               	.LM134:
 792 0286 C801      		movw r24,r16
 793               	/* #APP */
 794 0288 0197      		1: sbiw r24,1
 795 028a 01F4      		brne 1b
 796               	/* #NOAPP */
 797               	.LBE30:
 798               	.LBE29:
GAS LISTING D:\DOCUME~1\alex\LOCALS~1\Temp/ccZpN2I0.s 			page 15


 799               	.LM135:
 800 028c 88E2      		ldi r24,lo8(40)
 801 028e 00D0      		rcall lcd_command
 802               	.LM136:
 803 0290 88E0      		ldi r24,lo8(8)
 804 0292 00D0      		rcall lcd_command
 805               	.LM137:
 806 0294 00D0      		rcall lcd_clrscr
 807               	.LM138:
 808 0296 86E0      		ldi r24,lo8(6)
 809 0298 00D0      		rcall lcd_command
 810               	.LM139:
 811 029a 8F2D      		mov r24,r15
 812 029c 00D0      		rcall lcd_command
 813               	/* epilogue: frame size=0 */
 814 029e 1F91      		pop r17
 815 02a0 0F91      		pop r16
 816 02a2 FF90      		pop r15
 817 02a4 0895      		ret
 818               	/* epilogue end (size=4) */
 819               	/* function lcd_init size 60 (53) */
 820               	.LFE19:
 821               		.size	lcd_init, .-lcd_init
 822               		.section	.debug_frame,"",@progbits
 823               	.Lframe0:
 824 0000 0C00 0000 		.long	.LECIE0-.LSCIE0
 825               	.LSCIE0:
 826 0004 FFFF FFFF 		.long	0xffffffff
 827 0008 01        		.byte	0x1
 828 0009 00        		.string	""
 829 000a 01        		.uleb128 0x1
 830 000b 7F        		.sleb128 -1
 831 000c 24        		.byte	0x24
 832 000d 0C        		.byte	0xc
 833 000e 20        		.uleb128 0x20
 834 000f 00        		.uleb128 0x0
 835               		.p2align	2
 836               	.LECIE0:
 837               	.LSFDE0:
 838 0010 0C00 0000 		.long	.LEFDE0-.LASFDE0
 839               	.LASFDE0:
 840 0014 0000 0000 		.long	.Lframe0
 841 0018 0000 0000 		.long	.LFB3
 842 001c 0800 0000 		.long	.LFE3-.LFB3
 843               		.p2align	2
 844               	.LEFDE0:
 845               	.LSFDE2:
 846 0020 0C00 0000 		.long	.LEFDE2-.LASFDE2
 847               	.LASFDE2:
 848 0024 0000 0000 		.long	.Lframe0
 849 0028 0000 0000 		.long	.LFB4
 850 002c 5C00 0000 		.long	.LFE4-.LFB4
 851               		.p2align	2
 852               	.LEFDE2:
 853               	.LSFDE4:
 854 0030 0C00 0000 		.long	.LEFDE4-.LASFDE4
 855               	.LASFDE4:
GAS LISTING D:\DOCUME~1\alex\LOCALS~1\Temp/ccZpN2I0.s 			page 16


 856 0034 0000 0000 		.long	.Lframe0
 857 0038 0000 0000 		.long	.LFB5
 858 003c 4C00 0000 		.long	.LFE5-.LFB5
 859               		.p2align	2
 860               	.LEFDE4:
 861               	.LSFDE6:
 862 0040 0C00 0000 		.long	.LEFDE6-.LASFDE6
 863               	.LASFDE6:
 864 0044 0000 0000 		.long	.Lframe0
 865 0048 0000 0000 		.long	.LFB6
 866 004c 1800 0000 		.long	.LFE6-.LFB6
 867               		.p2align	2
 868               	.LEFDE6:
 869               	.LSFDE8:
 870 0050 0C00 0000 		.long	.LEFDE8-.LASFDE8
 871               	.LASFDE8:
 872 0054 0000 0000 		.long	.Lframe0
 873 0058 0000 0000 		.long	.LFB8
 874 005c 0C00 0000 		.long	.LFE8-.LFB8
 875               		.p2align	2
 876               	.LEFDE8:
 877               	.LSFDE10:
 878 0060 0C00 0000 		.long	.LEFDE10-.LASFDE10
 879               	.LASFDE10:
 880 0064 0000 0000 		.long	.Lframe0
 881 0068 0000 0000 		.long	.LFB9
 882 006c 1000 0000 		.long	.LFE9-.LFB9
 883               		.p2align	2
 884               	.LEFDE10:
 885               	.LSFDE12:
 886 0070 0C00 0000 		.long	.LEFDE12-.LASFDE12
 887               	.LASFDE12:
 888 0074 0000 0000 		.long	.Lframe0
 889 0078 0000 0000 		.long	.LFB10
 890 007c 1000 0000 		.long	.LFE10-.LFB10
 891               		.p2align	2
 892               	.LEFDE12:
 893               	.LSFDE14:
 894 0080 0C00 0000 		.long	.LEFDE14-.LASFDE14
 895               	.LASFDE14:
 896 0084 0000 0000 		.long	.Lframe0
 897 0088 0000 0000 		.long	.LFB11
 898 008c 0E00 0000 		.long	.LFE11-.LFB11
 899               		.p2align	2
 900               	.LEFDE14:
 901               	.LSFDE16:
 902 0090 0C00 0000 		.long	.LEFDE16-.LASFDE16
 903               	.LASFDE16:
 904 0094 0000 0000 		.long	.Lframe0
 905 0098 0000 0000 		.long	.LFB12
 906 009c 0600 0000 		.long	.LFE12-.LFB12
 907               		.p2align	2
 908               	.LEFDE16:
 909               	.LSFDE18:
 910 00a0 0C00 0000 		.long	.LEFDE18-.LASFDE18
 911               	.LASFDE18:
 912 00a4 0000 0000 		.long	.Lframe0
GAS LISTING D:\DOCUME~1\alex\LOCALS~1\Temp/ccZpN2I0.s 			page 17


 913 00a8 0000 0000 		.long	.LFB13
 914 00ac 0600 0000 		.long	.LFE13-.LFB13
 915               		.p2align	2
 916               	.LEFDE18:
 917               	.LSFDE20:
 918 00b0 0C00 0000 		.long	.LEFDE20-.LASFDE20
 919               	.LASFDE20:
 920 00b4 0000 0000 		.long	.Lframe0
 921 00b8 0000 0000 		.long	.LFB14
 922 00bc 0600 0000 		.long	.LFE14-.LFB14
 923               		.p2align	2
 924               	.LEFDE20:
 925               	.LSFDE22:
 926 00c0 0C00 0000 		.long	.LEFDE22-.LASFDE22
 927               	.LASFDE22:
 928 00c4 0000 0000 		.long	.Lframe0
 929 00c8 0000 0000 		.long	.LFB15
 930 00cc 2400 0000 		.long	.LFE15-.LFB15
 931               		.p2align	2
 932               	.LEFDE22:
 933               	.LSFDE24:
 934 00d0 0C00 0000 		.long	.LEFDE24-.LASFDE24
 935               	.LASFDE24:
 936 00d4 0000 0000 		.long	.Lframe0
 937 00d8 0000 0000 		.long	.LFB16
 938 00dc 1600 0000 		.long	.LFE16-.LFB16
 939               		.p2align	2
 940               	.LEFDE24:
 941               	.LSFDE26:
 942 00e0 0C00 0000 		.long	.LEFDE26-.LASFDE26
 943               	.LASFDE26:
 944 00e4 0000 0000 		.long	.Lframe0
 945 00e8 0000 0000 		.long	.LFB17
 946 00ec 1A00 0000 		.long	.LFE17-.LFB17
 947               		.p2align	2
 948               	.LEFDE26:
 949               	.LSFDE28:
 950 00f0 0C00 0000 		.long	.LEFDE28-.LASFDE28
 951               	.LASFDE28:
 952 00f4 0000 0000 		.long	.Lframe0
 953 00f8 0000 0000 		.long	.LFB18
 954 00fc DA00 0000 		.long	.LFE18-.LFB18
 955               		.p2align	2
 956               	.LEFDE28:
 957               	.LSFDE30:
 958 0100 0C00 0000 		.long	.LEFDE30-.LASFDE30
 959               	.LASFDE30:
 960 0104 0000 0000 		.long	.Lframe0
 961 0108 0000 0000 		.long	.LFB19
 962 010c 6400 0000 		.long	.LFE19-.LFB19
 963               		.p2align	2
 964               	.LEFDE30:
 965               		.text
 966               	.Letext0:
 967               		.section	.debug_loc,"",@progbits
 968               	.Ldebug_loc0:
 969               	.LLST2:
GAS LISTING D:\DOCUME~1\alex\LOCALS~1\Temp/ccZpN2I0.s 			page 18


 970 0000 0C00 0000 		.long	.LVL0-.Ltext0
 971 0004 3000 0000 		.long	.LVL1-.Ltext0
 972 0008 0100      		.word	0x1
 973 000a 68        		.byte	0x68
 974 000b 0000 0000 		.long	0x0
 975 000f 0000 0000 		.long	0x0
 976               	.LLST3:
 977 0013 0C00 0000 		.long	.LVL0-.Ltext0
 978 0017 3C00 0000 		.long	.LVL2-.Ltext0
 979 001b 0100      		.word	0x1
 980 001d 66        		.byte	0x66
 981 001e 0000 0000 		.long	0x0
 982 0022 0000 0000 		.long	0x0
 983               	.LLST5:
 984 0026 6400 0000 		.long	.LVL3-.Ltext0
 985 002a 8200 0000 		.long	.LVL4-.Ltext0
 986 002e 0100      		.word	0x1
 987 0030 68        		.byte	0x68
 988 0031 8400 0000 		.long	.LVL5-.Ltext0
 989 0035 8600 0000 		.long	.LVL6-.Ltext0
 990 0039 0100      		.word	0x1
 991 003b 68        		.byte	0x68
 992 003c 0000 0000 		.long	0x0
 993 0040 0000 0000 		.long	0x0
 994               	.LLST6:
 995 0044 8200 0000 		.long	.LVL4-.Ltext0
 996 0048 8400 0000 		.long	.LVL5-.Ltext0
 997 004c 0100      		.word	0x1
 998 004e 68        		.byte	0x68
 999 004f 8600 0000 		.long	.LVL6-.Ltext0
 1000 0053 AE00 0000 		.long	.LVL7-.Ltext0
 1001 0057 0100      		.word	0x1
 1002 0059 68        		.byte	0x68
 1003 005a 0000 0000 		.long	0x0
 1004 005e 0000 0000 		.long	0x0
 1005               	.LLST8:
 1006 0062 BC00 0000 		.long	.LVL8-.Ltext0
 1007 0066 C200 0000 		.long	.LVL9-.Ltext0
 1008 006a 0600      		.word	0x6
 1009 006c 68        		.byte	0x68
 1010 006d 93        		.byte	0x93
 1011 006e 01        		.uleb128 0x1
 1012 006f 69        		.byte	0x69
 1013 0070 93        		.byte	0x93
 1014 0071 01        		.uleb128 0x1
 1015 0072 0000 0000 		.long	0x0
 1016 0076 0000 0000 		.long	0x0
 1017               	.LLST11:
 1018 007a D600 0000 		.long	.LVL11-.Ltext0
 1019 007e DA00 0000 		.long	.LVL12-.Ltext0
 1020 0082 0100      		.word	0x1
 1021 0084 68        		.byte	0x68
 1022 0085 DA00 0000 		.long	.LVL12-.Ltext0
 1023 0089 E400 0000 		.long	.LFE9-.Ltext0
 1024 008d 0100      		.word	0x1
 1025 008f 61        		.byte	0x61
 1026 0090 0000 0000 		.long	0x0
GAS LISTING D:\DOCUME~1\alex\LOCALS~1\Temp/ccZpN2I0.s 			page 19


 1027 0094 0000 0000 		.long	0x0
 1028               	.LLST13:
 1029 0098 E600 0000 		.long	.LVL13-.Ltext0
 1030 009c EA00 0000 		.long	.LVL14-.Ltext0
 1031 00a0 0100      		.word	0x1
 1032 00a2 68        		.byte	0x68
 1033 00a3 EA00 0000 		.long	.LVL14-.Ltext0
 1034 00a7 F400 0000 		.long	.LFE10-.Ltext0
 1035 00ab 0100      		.word	0x1
 1036 00ad 61        		.byte	0x61
 1037 00ae 0000 0000 		.long	0x0
 1038 00b2 0000 0000 		.long	0x0
 1039               	.LLST15:
 1040 00b6 F400 0000 		.long	.LVL15-.Ltext0
 1041 00ba FA00 0000 		.long	.LVL16-.Ltext0
 1042 00be 0100      		.word	0x1
 1043 00c0 68        		.byte	0x68
 1044 00c1 FC00 0000 		.long	.LVL17-.Ltext0
 1045 00c5 FE00 0000 		.long	.LVL18-.Ltext0
 1046 00c9 0100      		.word	0x1
 1047 00cb 68        		.byte	0x68
 1048 00cc 0000 0000 		.long	0x0
 1049 00d0 0000 0000 		.long	0x0
 1050               	.LLST16:
 1051 00d4 F400 0000 		.long	.LVL15-.Ltext0
 1052 00d8 0001 0000 		.long	.LVL19-.Ltext0
 1053 00dc 0100      		.word	0x1
 1054 00de 66        		.byte	0x66
 1055 00df 0000 0000 		.long	0x0
 1056 00e3 0000 0000 		.long	0x0
 1057               	.LLST21:
 1058 00e7 1601 0000 		.long	.LVL20-.Ltext0
 1059 00eb 1A01 0000 		.long	.LVL21-.Ltext0
 1060 00ef 0100      		.word	0x1
 1061 00f1 68        		.byte	0x68
 1062 00f2 1A01 0000 		.long	.LVL21-.Ltext0
 1063 00f6 3801 0000 		.long	.LFE15-.Ltext0
 1064 00fa 0100      		.word	0x1
 1065 00fc 61        		.byte	0x61
 1066 00fd 0000 0000 		.long	0x0
 1067 0101 0000 0000 		.long	0x0
 1068               	.LLST22:
 1069 0105 2001 0000 		.long	.LVL22-.Ltext0
 1070 0109 2401 0000 		.long	.LVL23-.Ltext0
 1071 010d 0100      		.word	0x1
 1072 010f 68        		.byte	0x68
 1073 0110 2601 0000 		.long	.LVL24-.Ltext0
 1074 0114 2801 0000 		.long	.LVL25-.Ltext0
 1075 0118 0100      		.word	0x1
 1076 011a 68        		.byte	0x68
 1077 011b 0000 0000 		.long	0x0
 1078 011f 0000 0000 		.long	0x0
 1079               	.LLST23:
 1080 0123 2401 0000 		.long	.LVL23-.Ltext0
 1081 0127 2601 0000 		.long	.LVL24-.Ltext0
 1082 012b 0100      		.word	0x1
 1083 012d 68        		.byte	0x68
GAS LISTING D:\DOCUME~1\alex\LOCALS~1\Temp/ccZpN2I0.s 			page 20


 1084 012e 2801 0000 		.long	.LVL25-.Ltext0
 1085 0132 2A01 0000 		.long	.LVL26-.Ltext0
 1086 0136 0100      		.word	0x1
 1087 0138 68        		.byte	0x68
 1088 0139 0000 0000 		.long	0x0
 1089 013d 0000 0000 		.long	0x0
 1090               	.LLST25:
 1091 0141 3C01 0000 		.long	.LVL27-.Ltext0
 1092 0145 4001 0000 		.long	.LVL28-.Ltext0
 1093 0149 0600      		.word	0x6
 1094 014b 68        		.byte	0x68
 1095 014c 93        		.byte	0x93
 1096 014d 01        		.uleb128 0x1
 1097 014e 69        		.byte	0x69
 1098 014f 93        		.byte	0x93
 1099 0150 01        		.uleb128 0x1
 1100 0151 4001 0000 		.long	.LVL28-.Ltext0
 1101 0155 4E01 0000 		.long	.LFE16-.Ltext0
 1102 0159 0600      		.word	0x6
 1103 015b 6C        		.byte	0x6c
 1104 015c 93        		.byte	0x93
 1105 015d 01        		.uleb128 0x1
 1106 015e 6D        		.byte	0x6d
 1107 015f 93        		.byte	0x93
 1108 0160 01        		.uleb128 0x1
 1109 0161 0000 0000 		.long	0x0
 1110 0165 0000 0000 		.long	0x0
 1111               	.LLST26:
 1112 0169 4001 0000 		.long	.LVL28-.Ltext0
 1113 016d 4201 0000 		.long	.LVL29-.Ltext0
 1114 0171 0100      		.word	0x1
 1115 0173 68        		.byte	0x68
 1116 0174 4401 0000 		.long	.LVL30-.Ltext0
 1117 0178 4E01 0000 		.long	.LFE16-.Ltext0
 1118 017c 0100      		.word	0x1
 1119 017e 68        		.byte	0x68
 1120 017f 0000 0000 		.long	0x0
 1121 0183 0000 0000 		.long	0x0
 1122               	.LLST28:
 1123 0187 5201 0000 		.long	.LVL31-.Ltext0
 1124 018b 5601 0000 		.long	.LVL32-.Ltext0
 1125 018f 0600      		.word	0x6
 1126 0191 68        		.byte	0x68
 1127 0192 93        		.byte	0x93
 1128 0193 01        		.uleb128 0x1
 1129 0194 69        		.byte	0x69
 1130 0195 93        		.byte	0x93
 1131 0196 01        		.uleb128 0x1
 1132 0197 5601 0000 		.long	.LVL32-.Ltext0
 1133 019b 6801 0000 		.long	.LFE17-.Ltext0
 1134 019f 0600      		.word	0x6
 1135 01a1 6C        		.byte	0x6c
 1136 01a2 93        		.byte	0x93
 1137 01a3 01        		.uleb128 0x1
 1138 01a4 6D        		.byte	0x6d
 1139 01a5 93        		.byte	0x93
 1140 01a6 01        		.uleb128 0x1
GAS LISTING D:\DOCUME~1\alex\LOCALS~1\Temp/ccZpN2I0.s 			page 21


 1141 01a7 0000 0000 		.long	0x0
 1142 01ab 0000 0000 		.long	0x0
 1143               	.LLST29:
 1144 01af 5601 0000 		.long	.LVL32-.Ltext0
 1145 01b3 5801 0000 		.long	.LVL33-.Ltext0
 1146 01b7 0600      		.word	0x6
 1147 01b9 6E        		.byte	0x6e
 1148 01ba 93        		.byte	0x93
 1149 01bb 01        		.uleb128 0x1
 1150 01bc 6F        		.byte	0x6f
 1151 01bd 93        		.byte	0x93
 1152 01be 01        		.uleb128 0x1
 1153 01bf 5A01 0000 		.long	.LVL34-.Ltext0
 1154 01c3 6801 0000 		.long	.LFE17-.Ltext0
 1155 01c7 0600      		.word	0x6
 1156 01c9 6E        		.byte	0x6e
 1157 01ca 93        		.byte	0x93
 1158 01cb 01        		.uleb128 0x1
 1159 01cc 6F        		.byte	0x6f
 1160 01cd 93        		.byte	0x93
 1161 01ce 01        		.uleb128 0x1
 1162 01cf 0000 0000 		.long	0x0
 1163 01d3 0000 0000 		.long	0x0
 1164               	.LLST30:
 1165 01d7 5601 0000 		.long	.LVL32-.Ltext0
 1166 01db 5801 0000 		.long	.LVL33-.Ltext0
 1167 01df 0100      		.word	0x1
 1168 01e1 68        		.byte	0x68
 1169 01e2 5E01 0000 		.long	.LVL35-.Ltext0
 1170 01e6 6801 0000 		.long	.LFE17-.Ltext0
 1171 01ea 0100      		.word	0x1
 1172 01ec 68        		.byte	0x68
 1173 01ed 0000 0000 		.long	0x0
 1174 01f1 0000 0000 		.long	0x0
 1175               	.LLST32:
 1176 01f5 8401 0000 		.long	.LVL36-.Ltext0
 1177 01f9 9E01 0000 		.long	.LVL39-.Ltext0
 1178 01fd 0200      		.word	0x2
 1179 01ff 91        		.byte	0x91
 1180 0200 33        		.sleb128 51
 1181 0201 9E01 0000 		.long	.LVL39-.Ltext0
 1182 0205 4202 0000 		.long	.LFE18-.Ltext0
 1183 0209 0200      		.word	0x2
 1184 020b 8E        		.byte	0x8e
 1185 020c 00        		.sleb128 0
 1186 020d 0000 0000 		.long	0x0
 1187 0211 0000 0000 		.long	0x0
 1188               	.LLST34:
 1189 0215 4802 0000 		.long	.LVL44-.Ltext0
 1190 0219 5C02 0000 		.long	.LVL45-.Ltext0
 1191 021d 0100      		.word	0x1
 1192 021f 68        		.byte	0x68
 1193 0220 5C02 0000 		.long	.LVL45-.Ltext0
 1194 0224 A602 0000 		.long	.LFE19-.Ltext0
 1195 0228 0100      		.word	0x1
 1196 022a 5F        		.byte	0x5f
 1197 022b 0000 0000 		.long	0x0
GAS LISTING D:\DOCUME~1\alex\LOCALS~1\Temp/ccZpN2I0.s 			page 22


 1198 022f 0000 0000 		.long	0x0
 1199               	.LLST35:
 1200 0233 5C02 0000 		.long	.LVL45-.Ltext0
 1201 0237 6602 0000 		.long	.LVL46-.Ltext0
 1202 023b 0600      		.word	0x6
 1203 023d 68        		.byte	0x68
 1204 023e 93        		.byte	0x93
 1205 023f 01        		.uleb128 0x1
 1206 0240 69        		.byte	0x69
 1207 0241 93        		.byte	0x93
 1208 0242 01        		.uleb128 0x1
 1209 0243 0000 0000 		.long	0x0
 1210 0247 0000 0000 		.long	0x0
 1211               	.LLST36:
 1212 024b 6A02 0000 		.long	.LVL47-.Ltext0
 1213 024f 7002 0000 		.long	.LVL48-.Ltext0
 1214 0253 0600      		.word	0x6
 1215 0255 68        		.byte	0x68
 1216 0256 93        		.byte	0x93
 1217 0257 01        		.uleb128 0x1
 1218 0258 69        		.byte	0x69
 1219 0259 93        		.byte	0x93
 1220 025a 01        		.uleb128 0x1
 1221 025b 0000 0000 		.long	0x0
 1222 025f 0000 0000 		.long	0x0
 1223               	.LLST37:
 1224 0263 7602 0000 		.long	.LVL49-.Ltext0
 1225 0267 7C02 0000 		.long	.LVL50-.Ltext0
 1226 026b 0600      		.word	0x6
 1227 026d 68        		.byte	0x68
 1228 026e 93        		.byte	0x93
 1229 026f 01        		.uleb128 0x1
 1230 0270 69        		.byte	0x69
 1231 0271 93        		.byte	0x93
 1232 0272 01        		.uleb128 0x1
 1233 0273 0000 0000 		.long	0x0
 1234 0277 0000 0000 		.long	0x0
 1235               	.LLST38:
 1236 027b 7E02 0000 		.long	.LVL51-.Ltext0
 1237 027f 8602 0000 		.long	.LVL52-.Ltext0
 1238 0283 0600      		.word	0x6
 1239 0285 68        		.byte	0x68
 1240 0286 93        		.byte	0x93
 1241 0287 01        		.uleb128 0x1
 1242 0288 69        		.byte	0x69
 1243 0289 93        		.byte	0x93
 1244 028a 01        		.uleb128 0x1
 1245 028b 0000 0000 		.long	0x0
 1246 028f 0000 0000 		.long	0x0
 1247               		.section	.debug_info
 1248 0000 E904 0000 		.long	0x4e9
 1249 0004 0200      		.word	0x2
 1250 0006 0000 0000 		.long	.Ldebug_abbrev0
 1251 000a 04        		.byte	0x4
 1252 000b 01        		.uleb128 0x1
 1253 000c 0000 0000 		.long	.LASF37
 1254 0010 01        		.byte	0x1
GAS LISTING D:\DOCUME~1\alex\LOCALS~1\Temp/ccZpN2I0.s 			page 23


 1255 0011 0000 0000 		.long	.LASF38
 1256 0015 0000 0000 		.long	.LASF39
 1257 0019 0000 0000 		.long	.Ltext0
 1258 001d 0000 0000 		.long	.Letext0
 1259 0021 0000 0000 		.long	.Ldebug_line0
 1260 0025 02        		.uleb128 0x2
 1261 0026 01        		.byte	0x1
 1262 0027 06        		.byte	0x6
 1263 0028 0000 0000 		.long	.LASF0
 1264 002c 03        		.uleb128 0x3
 1265 002d 0000 0000 		.long	.LASF2
 1266 0031 02        		.byte	0x2
 1267 0032 7A        		.byte	0x7a
 1268 0033 3700 0000 		.long	0x37
 1269 0037 02        		.uleb128 0x2
 1270 0038 01        		.byte	0x1
 1271 0039 08        		.byte	0x8
 1272 003a 0000 0000 		.long	.LASF1
 1273 003e 04        		.uleb128 0x4
 1274 003f 02        		.byte	0x2
 1275 0040 05        		.byte	0x5
 1276 0041 696E 7400 		.string	"int"
 1277 0045 03        		.uleb128 0x3
 1278 0046 0000 0000 		.long	.LASF3
 1279 004a 02        		.byte	0x2
 1280 004b 7C        		.byte	0x7c
 1281 004c 5000 0000 		.long	0x50
 1282 0050 02        		.uleb128 0x2
 1283 0051 02        		.byte	0x2
 1284 0052 07        		.byte	0x7
 1285 0053 0000 0000 		.long	.LASF4
 1286 0057 02        		.uleb128 0x2
 1287 0058 04        		.byte	0x4
 1288 0059 05        		.byte	0x5
 1289 005a 0000 0000 		.long	.LASF5
 1290 005e 02        		.uleb128 0x2
 1291 005f 04        		.byte	0x4
 1292 0060 07        		.byte	0x7
 1293 0061 0000 0000 		.long	.LASF6
 1294 0065 02        		.uleb128 0x2
 1295 0066 08        		.byte	0x8
 1296 0067 05        		.byte	0x5
 1297 0068 0000 0000 		.long	.LASF7
 1298 006c 02        		.uleb128 0x2
 1299 006d 08        		.byte	0x8
 1300 006e 07        		.byte	0x7
 1301 006f 0000 0000 		.long	.LASF8
 1302 0073 05        		.uleb128 0x5
 1303 0074 01        		.byte	0x1
 1304 0075 08        		.byte	0x8
 1305 0076 03        		.uleb128 0x3
 1306 0077 0000 0000 		.long	.LASF9
 1307 007b 03        		.byte	0x3
 1308 007c 2B        		.byte	0x2b
 1309 007d 8100 0000 		.long	0x81
 1310 0081 06        		.uleb128 0x6
 1311 0082 02        		.byte	0x2
GAS LISTING D:\DOCUME~1\alex\LOCALS~1\Temp/ccZpN2I0.s 			page 24


 1312 0083 0000 0000 		.long	.LASF40
 1313 0087 03        		.uleb128 0x3
 1314 0088 0000 0000 		.long	.LASF10
 1315 008c 03        		.byte	0x3
 1316 008d 69        		.byte	0x69
 1317 008e 7600 0000 		.long	0x76
 1318 0092 07        		.uleb128 0x7
 1319 0093 0000 0000 		.long	.LASF21
 1320 0097 01        		.byte	0x1
 1321 0098 64        		.byte	0x64
 1322 0099 01        		.byte	0x1
 1323 009a 03        		.byte	0x3
 1324 009b AB00 0000 		.long	0xab
 1325 009f 08        		.uleb128 0x8
 1326 00a0 0000 0000 		.long	.LASF23
 1327 00a4 01        		.byte	0x1
 1328 00a5 63        		.byte	0x63
 1329 00a6 5000 0000 		.long	0x50
 1330 00aa 00        		.byte	0x0
 1331 00ab 09        		.uleb128 0x9
 1332 00ac 0000 0000 		.long	.LASF41
 1333 00b0 01        		.byte	0x1
 1334 00b1 7B        		.byte	0x7b
 1335 00b2 01        		.byte	0x1
 1336 00b3 0000 0000 		.long	.LFB3
 1337 00b7 0000 0000 		.long	.LFE3
 1338 00bb 02        		.byte	0x2
 1339 00bc 90        		.byte	0x90
 1340 00bd 20        		.uleb128 0x20
 1341 00be 0A        		.uleb128 0xa
 1342 00bf 0000 0000 		.long	.LASF42
 1343 00c3 01        		.byte	0x1
 1344 00c4 8C        		.byte	0x8c
 1345 00c5 01        		.byte	0x1
 1346 00c6 0000 0000 		.long	.LFB4
 1347 00ca 0000 0000 		.long	.LFE4
 1348 00ce 02        		.byte	0x2
 1349 00cf 90        		.byte	0x90
 1350 00d0 20        		.uleb128 0x20
 1351 00d1 FE00 0000 		.long	0xfe
 1352 00d5 0B        		.uleb128 0xb
 1353 00d6 0000 0000 		.long	.LASF11
 1354 00da 01        		.byte	0x1
 1355 00db 8B        		.byte	0x8b
 1356 00dc 2C00 0000 		.long	0x2c
 1357 00e0 0000 0000 		.long	.LLST2
 1358 00e4 0C        		.uleb128 0xc
 1359 00e5 7273 00   		.string	"rs"
 1360 00e8 01        		.byte	0x1
 1361 00e9 8B        		.byte	0x8b
 1362 00ea 2C00 0000 		.long	0x2c
 1363 00ee 0000 0000 		.long	.LLST3
 1364 00f2 0D        		.uleb128 0xd
 1365 00f3 0000 0000 		.long	.LASF14
 1366 00f7 01        		.byte	0x1
 1367 00f8 8D        		.byte	0x8d
 1368 00f9 3700 0000 		.long	0x37
GAS LISTING D:\DOCUME~1\alex\LOCALS~1\Temp/ccZpN2I0.s 			page 25


 1369 00fd 00        		.byte	0x0
 1370 00fe 0E        		.uleb128 0xe
 1371 00ff 0000 0000 		.long	.LASF12
 1372 0103 01        		.byte	0x1
 1373 0104 DD        		.byte	0xdd
 1374 0105 01        		.byte	0x1
 1375 0106 2C00 0000 		.long	0x2c
 1376 010a 0000 0000 		.long	.LFB5
 1377 010e 0000 0000 		.long	.LFE5
 1378 0112 02        		.byte	0x2
 1379 0113 90        		.byte	0x90
 1380 0114 20        		.uleb128 0x20
 1381 0115 3701 0000 		.long	0x137
 1382 0119 0C        		.uleb128 0xc
 1383 011a 7273 00   		.string	"rs"
 1384 011d 01        		.byte	0x1
 1385 011e DC        		.byte	0xdc
 1386 011f 2C00 0000 		.long	0x2c
 1387 0123 0000 0000 		.long	.LLST5
 1388 0127 0F        		.uleb128 0xf
 1389 0128 0000 0000 		.long	.LASF11
 1390 012c 01        		.byte	0x1
 1391 012d DE        		.byte	0xde
 1392 012e 2C00 0000 		.long	0x2c
 1393 0132 0000 0000 		.long	.LLST6
 1394 0136 00        		.byte	0x0
 1395 0137 10        		.uleb128 0x10
 1396 0138 0000 0000 		.long	.LASF13
 1397 013c 01        		.byte	0x1
 1398 013d 2301      		.word	0x123
 1399 013f 01        		.byte	0x1
 1400 0140 2C00 0000 		.long	0x2c
 1401 0144 0000 0000 		.long	.LFB6
 1402 0148 0000 0000 		.long	.LFE6
 1403 014c 02        		.byte	0x2
 1404 014d 90        		.byte	0x90
 1405 014e 20        		.uleb128 0x20
 1406 014f 7801 0000 		.long	0x178
 1407 0153 11        		.uleb128 0x11
 1408 0154 6300      		.string	"c"
 1409 0156 01        		.byte	0x1
 1410 0157 2401      		.word	0x124
 1411 0159 2C00 0000 		.long	0x2c
 1412 015d 12        		.uleb128 0x12
 1413 015e 9200 0000 		.long	0x92
 1414 0162 0000 0000 		.long	.LBB4
 1415 0166 0000 0000 		.long	.LBE4
 1416 016a 01        		.byte	0x1
 1417 016b 2A01      		.word	0x12a
 1418 016d 13        		.uleb128 0x13
 1419 016e 9F00 0000 		.long	0x9f
 1420 0172 0000 0000 		.long	.LLST8
 1421 0176 00        		.byte	0x0
 1422 0177 00        		.byte	0x0
 1423 0178 14        		.uleb128 0x14
 1424 0179 01        		.byte	0x1
 1425 017a 0000 0000 		.long	.LASF15
GAS LISTING D:\DOCUME~1\alex\LOCALS~1\Temp/ccZpN2I0.s 			page 26


 1426 017e 01        		.byte	0x1
 1427 017f 6B01      		.word	0x16b
 1428 0181 01        		.byte	0x1
 1429 0182 0000 0000 		.long	.LFB8
 1430 0186 0000 0000 		.long	.LFE8
 1431 018a 02        		.byte	0x2
 1432 018b 90        		.byte	0x90
 1433 018c 20        		.uleb128 0x20
 1434 018d A001 0000 		.long	0x1a0
 1435 0191 15        		.uleb128 0x15
 1436 0192 636D 6400 		.string	"cmd"
 1437 0196 01        		.byte	0x1
 1438 0197 6A01      		.word	0x16a
 1439 0199 2C00 0000 		.long	0x2c
 1440 019d 01        		.byte	0x1
 1441 019e 68        		.byte	0x68
 1442 019f 00        		.byte	0x0
 1443 01a0 14        		.uleb128 0x14
 1444 01a1 01        		.byte	0x1
 1445 01a2 0000 0000 		.long	.LASF16
 1446 01a6 01        		.byte	0x1
 1447 01a7 7B01      		.word	0x17b
 1448 01a9 01        		.byte	0x1
 1449 01aa 0000 0000 		.long	.LFB9
 1450 01ae 0000 0000 		.long	.LFE9
 1451 01b2 02        		.byte	0x2
 1452 01b3 90        		.byte	0x90
 1453 01b4 20        		.uleb128 0x20
 1454 01b5 CA01 0000 		.long	0x1ca
 1455 01b9 16        		.uleb128 0x16
 1456 01ba 636D 6400 		.string	"cmd"
 1457 01be 01        		.byte	0x1
 1458 01bf 7A01      		.word	0x17a
 1459 01c1 2C00 0000 		.long	0x2c
 1460 01c5 0000 0000 		.long	.LLST11
 1461 01c9 00        		.byte	0x0
 1462 01ca 14        		.uleb128 0x14
 1463 01cb 01        		.byte	0x1
 1464 01cc 0000 0000 		.long	.LASF17
 1465 01d0 01        		.byte	0x1
 1466 01d1 8701      		.word	0x187
 1467 01d3 01        		.byte	0x1
 1468 01d4 0000 0000 		.long	.LFB10
 1469 01d8 0000 0000 		.long	.LFE10
 1470 01dc 02        		.byte	0x2
 1471 01dd 90        		.byte	0x90
 1472 01de 20        		.uleb128 0x20
 1473 01df F401 0000 		.long	0x1f4
 1474 01e3 17        		.uleb128 0x17
 1475 01e4 0000 0000 		.long	.LASF11
 1476 01e8 01        		.byte	0x1
 1477 01e9 8601      		.word	0x186
 1478 01eb 2C00 0000 		.long	0x2c
 1479 01ef 0000 0000 		.long	.LLST13
 1480 01f3 00        		.byte	0x0
 1481 01f4 14        		.uleb128 0x14
 1482 01f5 01        		.byte	0x1
GAS LISTING D:\DOCUME~1\alex\LOCALS~1\Temp/ccZpN2I0.s 			page 27


 1483 01f6 0000 0000 		.long	.LASF18
 1484 01fa 01        		.byte	0x1
 1485 01fb 9501      		.word	0x195
 1486 01fd 01        		.byte	0x1
 1487 01fe 0000 0000 		.long	.LFB11
 1488 0202 0000 0000 		.long	.LFE11
 1489 0206 02        		.byte	0x2
 1490 0207 90        		.byte	0x90
 1491 0208 20        		.uleb128 0x20
 1492 0209 2A02 0000 		.long	0x22a
 1493 020d 16        		.uleb128 0x16
 1494 020e 7800      		.string	"x"
 1495 0210 01        		.byte	0x1
 1496 0211 9401      		.word	0x194
 1497 0213 2C00 0000 		.long	0x2c
 1498 0217 0000 0000 		.long	.LLST15
 1499 021b 16        		.uleb128 0x16
 1500 021c 7900      		.string	"y"
 1501 021e 01        		.byte	0x1
 1502 021f 9401      		.word	0x194
 1503 0221 2C00 0000 		.long	0x2c
 1504 0225 0000 0000 		.long	.LLST16
 1505 0229 00        		.byte	0x0
 1506 022a 18        		.uleb128 0x18
 1507 022b 01        		.byte	0x1
 1508 022c 0000 0000 		.long	.LASF43
 1509 0230 01        		.byte	0x1
 1510 0231 B001      		.word	0x1b0
 1511 0233 01        		.byte	0x1
 1512 0234 3E00 0000 		.long	0x3e
 1513 0238 0000 0000 		.long	.LFB12
 1514 023c 0000 0000 		.long	.LFE12
 1515 0240 02        		.byte	0x2
 1516 0241 90        		.byte	0x90
 1517 0242 20        		.uleb128 0x20
 1518 0243 19        		.uleb128 0x19
 1519 0244 01        		.byte	0x1
 1520 0245 0000 0000 		.long	.LASF19
 1521 0249 01        		.byte	0x1
 1522 024a B901      		.word	0x1b9
 1523 024c 01        		.byte	0x1
 1524 024d 0000 0000 		.long	.LFB13
 1525 0251 0000 0000 		.long	.LFE13
 1526 0255 02        		.byte	0x2
 1527 0256 90        		.byte	0x90
 1528 0257 20        		.uleb128 0x20
 1529 0258 19        		.uleb128 0x19
 1530 0259 01        		.byte	0x1
 1531 025a 0000 0000 		.long	.LASF20
 1532 025e 01        		.byte	0x1
 1533 025f C201      		.word	0x1c2
 1534 0261 01        		.byte	0x1
 1535 0262 0000 0000 		.long	.LFB14
 1536 0266 0000 0000 		.long	.LFE14
 1537 026a 02        		.byte	0x2
 1538 026b 90        		.byte	0x90
 1539 026c 20        		.uleb128 0x20
GAS LISTING D:\DOCUME~1\alex\LOCALS~1\Temp/ccZpN2I0.s 			page 28


 1540 026d 1A        		.uleb128 0x1a
 1541 026e 0000 0000 		.long	.LASF22
 1542 0272 01        		.byte	0x1
 1543 0273 3701      		.word	0x137
 1544 0275 01        		.byte	0x1
 1545 0276 03        		.byte	0x3
 1546 0277 9402 0000 		.long	0x294
 1547 027b 1B        		.uleb128 0x1b
 1548 027c 706F 7300 		.string	"pos"
 1549 0280 01        		.byte	0x1
 1550 0281 3601      		.word	0x136
 1551 0283 2C00 0000 		.long	0x2c
 1552 0287 1C        		.uleb128 0x1c
 1553 0288 0000 0000 		.long	.LASF24
 1554 028c 01        		.byte	0x1
 1555 028d 3801      		.word	0x138
 1556 028f 2C00 0000 		.long	0x2c
 1557 0293 00        		.byte	0x0
 1558 0294 14        		.uleb128 0x14
 1559 0295 01        		.byte	0x1
 1560 0296 0000 0000 		.long	.LASF25
 1561 029a 01        		.byte	0x1
 1562 029b CD01      		.word	0x1cd
 1563 029d 01        		.byte	0x1
 1564 029e 0000 0000 		.long	.LFB15
 1565 02a2 0000 0000 		.long	.LFE15
 1566 02a6 02        		.byte	0x2
 1567 02a7 90        		.byte	0x90
 1568 02a8 20        		.uleb128 0x20
 1569 02a9 F502 0000 		.long	0x2f5
 1570 02ad 16        		.uleb128 0x16
 1571 02ae 6300      		.string	"c"
 1572 02b0 01        		.byte	0x1
 1573 02b1 CC01      		.word	0x1cc
 1574 02b3 F502 0000 		.long	0x2f5
 1575 02b7 0000 0000 		.long	.LLST21
 1576 02bb 1D        		.uleb128 0x1d
 1577 02bc 706F 7300 		.string	"pos"
 1578 02c0 01        		.byte	0x1
 1579 02c1 CE01      		.word	0x1ce
 1580 02c3 2C00 0000 		.long	0x2c
 1581 02c7 0000 0000 		.long	.LLST22
 1582 02cb 12        		.uleb128 0x12
 1583 02cc 6D02 0000 		.long	0x26d
 1584 02d0 0000 0000 		.long	.LBB8
 1585 02d4 0000 0000 		.long	.LBE8
 1586 02d8 01        		.byte	0x1
 1587 02d9 D401      		.word	0x1d4
 1588 02db 1E        		.uleb128 0x1e
 1589 02dc 7B02 0000 		.long	0x27b
 1590 02e0 1F        		.uleb128 0x1f
 1591 02e1 0000 0000 		.long	.LBB9
 1592 02e5 0000 0000 		.long	.LBE9
 1593 02e9 20        		.uleb128 0x20
 1594 02ea 8702 0000 		.long	0x287
 1595 02ee 0000 0000 		.long	.LLST23
 1596 02f2 00        		.byte	0x0
GAS LISTING D:\DOCUME~1\alex\LOCALS~1\Temp/ccZpN2I0.s 			page 29


 1597 02f3 00        		.byte	0x0
 1598 02f4 00        		.byte	0x0
 1599 02f5 02        		.uleb128 0x2
 1600 02f6 01        		.byte	0x1
 1601 02f7 08        		.byte	0x8
 1602 02f8 0000 0000 		.long	.LASF26
 1603 02fc 14        		.uleb128 0x14
 1604 02fd 01        		.byte	0x1
 1605 02fe 0000 0000 		.long	.LASF27
 1606 0302 01        		.byte	0x1
 1607 0303 FD01      		.word	0x1fd
 1608 0305 01        		.byte	0x1
 1609 0306 0000 0000 		.long	.LFB16
 1610 030a 0000 0000 		.long	.LFE16
 1611 030e 02        		.byte	0x2
 1612 030f 90        		.byte	0x90
 1613 0310 20        		.uleb128 0x20
 1614 0311 3203 0000 		.long	0x332
 1615 0315 16        		.uleb128 0x16
 1616 0316 7300      		.string	"s"
 1617 0318 01        		.byte	0x1
 1618 0319 FB01      		.word	0x1fb
 1619 031b 3203 0000 		.long	0x332
 1620 031f 0000 0000 		.long	.LLST25
 1621 0323 1D        		.uleb128 0x1d
 1622 0324 6300      		.string	"c"
 1623 0326 01        		.byte	0x1
 1624 0327 FE01      		.word	0x1fe
 1625 0329 F502 0000 		.long	0x2f5
 1626 032d 0000 0000 		.long	.LLST26
 1627 0331 00        		.byte	0x0
 1628 0332 21        		.uleb128 0x21
 1629 0333 02        		.byte	0x2
 1630 0334 3803 0000 		.long	0x338
 1631 0338 22        		.uleb128 0x22
 1632 0339 F502 0000 		.long	0x2f5
 1633 033d 14        		.uleb128 0x14
 1634 033e 01        		.byte	0x1
 1635 033f 0000 0000 		.long	.LASF28
 1636 0343 01        		.byte	0x1
 1637 0344 0E02      		.word	0x20e
 1638 0346 01        		.byte	0x1
 1639 0347 0000 0000 		.long	.LFB17
 1640 034b 0000 0000 		.long	.LFE17
 1641 034f 02        		.byte	0x2
 1642 0350 90        		.byte	0x90
 1643 0351 20        		.uleb128 0x20
 1644 0352 9B03 0000 		.long	0x39b
 1645 0356 17        		.uleb128 0x17
 1646 0357 0000 0000 		.long	.LASF29
 1647 035b 01        		.byte	0x1
 1648 035c 0C02      		.word	0x20c
 1649 035e 3203 0000 		.long	0x332
 1650 0362 0000 0000 		.long	.LLST28
 1651 0366 11        		.uleb128 0x11
 1652 0367 6300      		.string	"c"
 1653 0369 01        		.byte	0x1
GAS LISTING D:\DOCUME~1\alex\LOCALS~1\Temp/ccZpN2I0.s 			page 30


 1654 036a 0F02      		.word	0x20f
 1655 036c F502 0000 		.long	0x2f5
 1656 0370 1F        		.uleb128 0x1f
 1657 0371 0000 0000 		.long	.LBB10
 1658 0375 0000 0000 		.long	.LBE10
 1659 0379 23        		.uleb128 0x23
 1660 037a 0000 0000 		.long	.LASF30
 1661 037e 01        		.byte	0x1
 1662 037f 1102      		.word	0x211
 1663 0381 4500 0000 		.long	0x45
 1664 0385 0000 0000 		.long	.LLST29
 1665 0389 23        		.uleb128 0x23
 1666 038a 0000 0000 		.long	.LASF31
 1667 038e 01        		.byte	0x1
 1668 038f 1102      		.word	0x211
 1669 0391 2C00 0000 		.long	0x2c
 1670 0395 0000 0000 		.long	.LLST30
 1671 0399 00        		.byte	0x0
 1672 039a 00        		.byte	0x0
 1673 039b 14        		.uleb128 0x14
 1674 039c 01        		.byte	0x1
 1675 039d 0000 0000 		.long	.LASF32
 1676 03a1 01        		.byte	0x1
 1677 03a2 1B02      		.word	0x21b
 1678 03a4 01        		.byte	0x1
 1679 03a5 0000 0000 		.long	.LFB18
 1680 03a9 0000 0000 		.long	.LFE18
 1681 03ad 02        		.byte	0x2
 1682 03ae 90        		.byte	0x90
 1683 03af 20        		.uleb128 0x20
 1684 03b0 1804 0000 		.long	0x418
 1685 03b4 16        		.uleb128 0x16
 1686 03b5 666D 7400 		.string	"fmt"
 1687 03b9 01        		.byte	0x1
 1688 03ba 1A02      		.word	0x21a
 1689 03bc 1804 0000 		.long	0x418
 1690 03c0 0000 0000 		.long	.LLST32
 1691 03c4 24        		.uleb128 0x24
 1692 03c5 25        		.uleb128 0x25
 1693 03c6 6170 00   		.string	"ap"
 1694 03c9 01        		.byte	0x1
 1695 03ca 1C02      		.word	0x21c
 1696 03cc 8700 0000 		.long	0x87
 1697 03d0 02        		.byte	0x2
 1698 03d1 8C        		.byte	0x8c
 1699 03d2 01        		.sleb128 1
 1700 03d3 25        		.uleb128 0x25
 1701 03d4 7000      		.string	"p"
 1702 03d6 01        		.byte	0x1
 1703 03d7 1D02      		.word	0x21d
 1704 03d9 1804 0000 		.long	0x418
 1705 03dd 06        		.byte	0x6
 1706 03de 60        		.byte	0x60
 1707 03df 93        		.byte	0x93
 1708 03e0 01        		.uleb128 0x1
 1709 03e1 61        		.byte	0x61
 1710 03e2 93        		.byte	0x93
GAS LISTING D:\DOCUME~1\alex\LOCALS~1\Temp/ccZpN2I0.s 			page 31


 1711 03e3 01        		.uleb128 0x1
 1712 03e4 1C        		.uleb128 0x1c
 1713 03e5 0000 0000 		.long	.LASF33
 1714 03e9 01        		.byte	0x1
 1715 03ea 1D02      		.word	0x21d
 1716 03ec 1804 0000 		.long	0x418
 1717 03f0 1C        		.uleb128 0x1c
 1718 03f1 0000 0000 		.long	.LASF34
 1719 03f5 01        		.byte	0x1
 1720 03f6 1E02      		.word	0x21e
 1721 03f8 3E00 0000 		.long	0x3e
 1722 03fc 1C        		.uleb128 0x1c
 1723 03fd 0000 0000 		.long	.LASF35
 1724 0401 01        		.byte	0x1
 1725 0402 1F02      		.word	0x21f
 1726 0404 5000 0000 		.long	0x50
 1727 0408 25        		.uleb128 0x25
 1728 0409 6275 6600 		.string	"buf"
 1729 040d 01        		.byte	0x1
 1730 040e 2002      		.word	0x220
 1731 0410 1E04 0000 		.long	0x41e
 1732 0414 02        		.byte	0x2
 1733 0415 8C        		.byte	0x8c
 1734 0416 03        		.sleb128 3
 1735 0417 00        		.byte	0x0
 1736 0418 21        		.uleb128 0x21
 1737 0419 02        		.byte	0x2
 1738 041a F502 0000 		.long	0x2f5
 1739 041e 26        		.uleb128 0x26
 1740 041f F502 0000 		.long	0x2f5
 1741 0423 2E04 0000 		.long	0x42e
 1742 0427 27        		.uleb128 0x27
 1743 0428 2E04 0000 		.long	0x42e
 1744 042c 27        		.byte	0x27
 1745 042d 00        		.byte	0x0
 1746 042e 05        		.uleb128 0x5
 1747 042f 02        		.byte	0x2
 1748 0430 07        		.byte	0x7
 1749 0431 28        		.uleb128 0x28
 1750 0432 01        		.byte	0x1
 1751 0433 0000 0000 		.long	.LASF44
 1752 0437 01        		.byte	0x1
 1753 0438 5102      		.word	0x251
 1754 043a 01        		.byte	0x1
 1755 043b 0000 0000 		.long	.LFB19
 1756 043f 0000 0000 		.long	.LFE19
 1757 0443 02        		.byte	0x2
 1758 0444 90        		.byte	0x90
 1759 0445 20        		.uleb128 0x20
 1760 0446 17        		.uleb128 0x17
 1761 0447 0000 0000 		.long	.LASF36
 1762 044b 01        		.byte	0x1
 1763 044c 5002      		.word	0x250
 1764 044e 2C00 0000 		.long	0x2c
 1765 0452 0000 0000 		.long	.LLST34
 1766 0456 29        		.uleb128 0x29
 1767 0457 9200 0000 		.long	0x92
GAS LISTING D:\DOCUME~1\alex\LOCALS~1\Temp/ccZpN2I0.s 			page 32


 1768 045b 0000 0000 		.long	.LBB21
 1769 045f 0000 0000 		.long	.LBE21
 1770 0463 01        		.byte	0x1
 1771 0464 7302      		.word	0x273
 1772 0466 7404 0000 		.long	0x474
 1773 046a 13        		.uleb128 0x13
 1774 046b 9F00 0000 		.long	0x9f
 1775 046f 0000 0000 		.long	.LLST35
 1776 0473 00        		.byte	0x0
 1777 0474 29        		.uleb128 0x29
 1778 0475 9200 0000 		.long	0x92
 1779 0479 0000 0000 		.long	.LBB23
 1780 047d 0000 0000 		.long	.LBE23
 1781 0481 01        		.byte	0x1
 1782 0482 7902      		.word	0x279
 1783 0484 9204 0000 		.long	0x492
 1784 0488 13        		.uleb128 0x13
 1785 0489 9F00 0000 		.long	0x9f
 1786 048d 0000 0000 		.long	.LLST36
 1787 0491 00        		.byte	0x0
 1788 0492 29        		.uleb128 0x29
 1789 0493 9200 0000 		.long	0x92
 1790 0497 0000 0000 		.long	.LBB25
 1791 049b 0000 0000 		.long	.LBE25
 1792 049f 01        		.byte	0x1
 1793 04a0 7D02      		.word	0x27d
 1794 04a2 B004 0000 		.long	0x4b0
 1795 04a6 13        		.uleb128 0x13
 1796 04a7 9F00 0000 		.long	0x9f
 1797 04ab 0000 0000 		.long	.LLST37
 1798 04af 00        		.byte	0x0
 1799 04b0 29        		.uleb128 0x29
 1800 04b1 9200 0000 		.long	0x92
 1801 04b5 0000 0000 		.long	.LBB27
 1802 04b9 0000 0000 		.long	.LBE27
 1803 04bd 01        		.byte	0x1
 1804 04be 8102      		.word	0x281
 1805 04c0 CE04 0000 		.long	0x4ce
 1806 04c4 13        		.uleb128 0x13
 1807 04c5 9F00 0000 		.long	0x9f
 1808 04c9 0000 0000 		.long	.LLST38
 1809 04cd 00        		.byte	0x0
 1810 04ce 12        		.uleb128 0x12
 1811 04cf 9200 0000 		.long	0x92
 1812 04d3 0000 0000 		.long	.LBB29
 1813 04d7 0000 0000 		.long	.LBE29
 1814 04db 01        		.byte	0x1
 1815 04dc 8602      		.word	0x286
 1816 04de 2A        		.uleb128 0x2a
 1817 04df 9F00 0000 		.long	0x9f
 1818 04e3 06        		.byte	0x6
 1819 04e4 60        		.byte	0x60
 1820 04e5 93        		.byte	0x93
 1821 04e6 01        		.uleb128 0x1
 1822 04e7 61        		.byte	0x61
 1823 04e8 93        		.byte	0x93
 1824 04e9 01        		.uleb128 0x1
GAS LISTING D:\DOCUME~1\alex\LOCALS~1\Temp/ccZpN2I0.s 			page 33


 1825 04ea 00        		.byte	0x0
 1826 04eb 00        		.byte	0x0
 1827 04ec 00        		.byte	0x0
 1828               		.section	.debug_abbrev
 1829 0000 01        		.uleb128 0x1
 1830 0001 11        		.uleb128 0x11
 1831 0002 01        		.byte	0x1
 1832 0003 25        		.uleb128 0x25
 1833 0004 0E        		.uleb128 0xe
 1834 0005 13        		.uleb128 0x13
 1835 0006 0B        		.uleb128 0xb
 1836 0007 03        		.uleb128 0x3
 1837 0008 0E        		.uleb128 0xe
 1838 0009 1B        		.uleb128 0x1b
 1839 000a 0E        		.uleb128 0xe
 1840 000b 11        		.uleb128 0x11
 1841 000c 01        		.uleb128 0x1
 1842 000d 12        		.uleb128 0x12
 1843 000e 01        		.uleb128 0x1
 1844 000f 10        		.uleb128 0x10
 1845 0010 06        		.uleb128 0x6
 1846 0011 00        		.byte	0x0
 1847 0012 00        		.byte	0x0
 1848 0013 02        		.uleb128 0x2
 1849 0014 24        		.uleb128 0x24
 1850 0015 00        		.byte	0x0
 1851 0016 0B        		.uleb128 0xb
 1852 0017 0B        		.uleb128 0xb
 1853 0018 3E        		.uleb128 0x3e
 1854 0019 0B        		.uleb128 0xb
 1855 001a 03        		.uleb128 0x3
 1856 001b 0E        		.uleb128 0xe
 1857 001c 00        		.byte	0x0
 1858 001d 00        		.byte	0x0
 1859 001e 03        		.uleb128 0x3
 1860 001f 16        		.uleb128 0x16
 1861 0020 00        		.byte	0x0
 1862 0021 03        		.uleb128 0x3
 1863 0022 0E        		.uleb128 0xe
 1864 0023 3A        		.uleb128 0x3a
 1865 0024 0B        		.uleb128 0xb
 1866 0025 3B        		.uleb128 0x3b
 1867 0026 0B        		.uleb128 0xb
 1868 0027 49        		.uleb128 0x49
 1869 0028 13        		.uleb128 0x13
 1870 0029 00        		.byte	0x0
 1871 002a 00        		.byte	0x0
 1872 002b 04        		.uleb128 0x4
 1873 002c 24        		.uleb128 0x24
 1874 002d 00        		.byte	0x0
 1875 002e 0B        		.uleb128 0xb
 1876 002f 0B        		.uleb128 0xb
 1877 0030 3E        		.uleb128 0x3e
 1878 0031 0B        		.uleb128 0xb
 1879 0032 03        		.uleb128 0x3
 1880 0033 08        		.uleb128 0x8
 1881 0034 00        		.byte	0x0
GAS LISTING D:\DOCUME~1\alex\LOCALS~1\Temp/ccZpN2I0.s 			page 34


 1882 0035 00        		.byte	0x0
 1883 0036 05        		.uleb128 0x5
 1884 0037 24        		.uleb128 0x24
 1885 0038 00        		.byte	0x0
 1886 0039 0B        		.uleb128 0xb
 1887 003a 0B        		.uleb128 0xb
 1888 003b 3E        		.uleb128 0x3e
 1889 003c 0B        		.uleb128 0xb
 1890 003d 00        		.byte	0x0
 1891 003e 00        		.byte	0x0
 1892 003f 06        		.uleb128 0x6
 1893 0040 0F        		.uleb128 0xf
 1894 0041 00        		.byte	0x0
 1895 0042 0B        		.uleb128 0xb
 1896 0043 0B        		.uleb128 0xb
 1897 0044 03        		.uleb128 0x3
 1898 0045 0E        		.uleb128 0xe
 1899 0046 00        		.byte	0x0
 1900 0047 00        		.byte	0x0
 1901 0048 07        		.uleb128 0x7
 1902 0049 2E        		.uleb128 0x2e
 1903 004a 01        		.byte	0x1
 1904 004b 03        		.uleb128 0x3
 1905 004c 0E        		.uleb128 0xe
 1906 004d 3A        		.uleb128 0x3a
 1907 004e 0B        		.uleb128 0xb
 1908 004f 3B        		.uleb128 0x3b
 1909 0050 0B        		.uleb128 0xb
 1910 0051 27        		.uleb128 0x27
 1911 0052 0C        		.uleb128 0xc
 1912 0053 20        		.uleb128 0x20
 1913 0054 0B        		.uleb128 0xb
 1914 0055 01        		.uleb128 0x1
 1915 0056 13        		.uleb128 0x13
 1916 0057 00        		.byte	0x0
 1917 0058 00        		.byte	0x0
 1918 0059 08        		.uleb128 0x8
 1919 005a 05        		.uleb128 0x5
 1920 005b 00        		.byte	0x0
 1921 005c 03        		.uleb128 0x3
 1922 005d 0E        		.uleb128 0xe
 1923 005e 3A        		.uleb128 0x3a
 1924 005f 0B        		.uleb128 0xb
 1925 0060 3B        		.uleb128 0x3b
 1926 0061 0B        		.uleb128 0xb
 1927 0062 49        		.uleb128 0x49
 1928 0063 13        		.uleb128 0x13
 1929 0064 00        		.byte	0x0
 1930 0065 00        		.byte	0x0
 1931 0066 09        		.uleb128 0x9
 1932 0067 2E        		.uleb128 0x2e
 1933 0068 00        		.byte	0x0
 1934 0069 03        		.uleb128 0x3
 1935 006a 0E        		.uleb128 0xe
 1936 006b 3A        		.uleb128 0x3a
 1937 006c 0B        		.uleb128 0xb
 1938 006d 3B        		.uleb128 0x3b
GAS LISTING D:\DOCUME~1\alex\LOCALS~1\Temp/ccZpN2I0.s 			page 35


 1939 006e 0B        		.uleb128 0xb
 1940 006f 27        		.uleb128 0x27
 1941 0070 0C        		.uleb128 0xc
 1942 0071 11        		.uleb128 0x11
 1943 0072 01        		.uleb128 0x1
 1944 0073 12        		.uleb128 0x12
 1945 0074 01        		.uleb128 0x1
 1946 0075 40        		.uleb128 0x40
 1947 0076 0A        		.uleb128 0xa
 1948 0077 00        		.byte	0x0
 1949 0078 00        		.byte	0x0
 1950 0079 0A        		.uleb128 0xa
 1951 007a 2E        		.uleb128 0x2e
 1952 007b 01        		.byte	0x1
 1953 007c 03        		.uleb128 0x3
 1954 007d 0E        		.uleb128 0xe
 1955 007e 3A        		.uleb128 0x3a
 1956 007f 0B        		.uleb128 0xb
 1957 0080 3B        		.uleb128 0x3b
 1958 0081 0B        		.uleb128 0xb
 1959 0082 27        		.uleb128 0x27
 1960 0083 0C        		.uleb128 0xc
 1961 0084 11        		.uleb128 0x11
 1962 0085 01        		.uleb128 0x1
 1963 0086 12        		.uleb128 0x12
 1964 0087 01        		.uleb128 0x1
 1965 0088 40        		.uleb128 0x40
 1966 0089 0A        		.uleb128 0xa
 1967 008a 01        		.uleb128 0x1
 1968 008b 13        		.uleb128 0x13
 1969 008c 00        		.byte	0x0
 1970 008d 00        		.byte	0x0
 1971 008e 0B        		.uleb128 0xb
 1972 008f 05        		.uleb128 0x5
 1973 0090 00        		.byte	0x0
 1974 0091 03        		.uleb128 0x3
 1975 0092 0E        		.uleb128 0xe
 1976 0093 3A        		.uleb128 0x3a
 1977 0094 0B        		.uleb128 0xb
 1978 0095 3B        		.uleb128 0x3b
 1979 0096 0B        		.uleb128 0xb
 1980 0097 49        		.uleb128 0x49
 1981 0098 13        		.uleb128 0x13
 1982 0099 02        		.uleb128 0x2
 1983 009a 06        		.uleb128 0x6
 1984 009b 00        		.byte	0x0
 1985 009c 00        		.byte	0x0
 1986 009d 0C        		.uleb128 0xc
 1987 009e 05        		.uleb128 0x5
 1988 009f 00        		.byte	0x0
 1989 00a0 03        		.uleb128 0x3
 1990 00a1 08        		.uleb128 0x8
 1991 00a2 3A        		.uleb128 0x3a
 1992 00a3 0B        		.uleb128 0xb
 1993 00a4 3B        		.uleb128 0x3b
 1994 00a5 0B        		.uleb128 0xb
 1995 00a6 49        		.uleb128 0x49
GAS LISTING D:\DOCUME~1\alex\LOCALS~1\Temp/ccZpN2I0.s 			page 36


 1996 00a7 13        		.uleb128 0x13
 1997 00a8 02        		.uleb128 0x2
 1998 00a9 06        		.uleb128 0x6
 1999 00aa 00        		.byte	0x0
 2000 00ab 00        		.byte	0x0
 2001 00ac 0D        		.uleb128 0xd
 2002 00ad 34        		.uleb128 0x34
 2003 00ae 00        		.byte	0x0
 2004 00af 03        		.uleb128 0x3
 2005 00b0 0E        		.uleb128 0xe
 2006 00b1 3A        		.uleb128 0x3a
 2007 00b2 0B        		.uleb128 0xb
 2008 00b3 3B        		.uleb128 0x3b
 2009 00b4 0B        		.uleb128 0xb
 2010 00b5 49        		.uleb128 0x49
 2011 00b6 13        		.uleb128 0x13
 2012 00b7 00        		.byte	0x0
 2013 00b8 00        		.byte	0x0
 2014 00b9 0E        		.uleb128 0xe
 2015 00ba 2E        		.uleb128 0x2e
 2016 00bb 01        		.byte	0x1
 2017 00bc 03        		.uleb128 0x3
 2018 00bd 0E        		.uleb128 0xe
 2019 00be 3A        		.uleb128 0x3a
 2020 00bf 0B        		.uleb128 0xb
 2021 00c0 3B        		.uleb128 0x3b
 2022 00c1 0B        		.uleb128 0xb
 2023 00c2 27        		.uleb128 0x27
 2024 00c3 0C        		.uleb128 0xc
 2025 00c4 49        		.uleb128 0x49
 2026 00c5 13        		.uleb128 0x13
 2027 00c6 11        		.uleb128 0x11
 2028 00c7 01        		.uleb128 0x1
 2029 00c8 12        		.uleb128 0x12
 2030 00c9 01        		.uleb128 0x1
 2031 00ca 40        		.uleb128 0x40
 2032 00cb 0A        		.uleb128 0xa
 2033 00cc 01        		.uleb128 0x1
 2034 00cd 13        		.uleb128 0x13
 2035 00ce 00        		.byte	0x0
 2036 00cf 00        		.byte	0x0
 2037 00d0 0F        		.uleb128 0xf
 2038 00d1 34        		.uleb128 0x34
 2039 00d2 00        		.byte	0x0
 2040 00d3 03        		.uleb128 0x3
 2041 00d4 0E        		.uleb128 0xe
 2042 00d5 3A        		.uleb128 0x3a
 2043 00d6 0B        		.uleb128 0xb
 2044 00d7 3B        		.uleb128 0x3b
 2045 00d8 0B        		.uleb128 0xb
 2046 00d9 49        		.uleb128 0x49
 2047 00da 13        		.uleb128 0x13
 2048 00db 02        		.uleb128 0x2
 2049 00dc 06        		.uleb128 0x6
 2050 00dd 00        		.byte	0x0
 2051 00de 00        		.byte	0x0
 2052 00df 10        		.uleb128 0x10
GAS LISTING D:\DOCUME~1\alex\LOCALS~1\Temp/ccZpN2I0.s 			page 37


 2053 00e0 2E        		.uleb128 0x2e
 2054 00e1 01        		.byte	0x1
 2055 00e2 03        		.uleb128 0x3
 2056 00e3 0E        		.uleb128 0xe
 2057 00e4 3A        		.uleb128 0x3a
 2058 00e5 0B        		.uleb128 0xb
 2059 00e6 3B        		.uleb128 0x3b
 2060 00e7 05        		.uleb128 0x5
 2061 00e8 27        		.uleb128 0x27
 2062 00e9 0C        		.uleb128 0xc
 2063 00ea 49        		.uleb128 0x49
 2064 00eb 13        		.uleb128 0x13
 2065 00ec 11        		.uleb128 0x11
 2066 00ed 01        		.uleb128 0x1
 2067 00ee 12        		.uleb128 0x12
 2068 00ef 01        		.uleb128 0x1
 2069 00f0 40        		.uleb128 0x40
 2070 00f1 0A        		.uleb128 0xa
 2071 00f2 01        		.uleb128 0x1
 2072 00f3 13        		.uleb128 0x13
 2073 00f4 00        		.byte	0x0
 2074 00f5 00        		.byte	0x0
 2075 00f6 11        		.uleb128 0x11
 2076 00f7 34        		.uleb128 0x34
 2077 00f8 00        		.byte	0x0
 2078 00f9 03        		.uleb128 0x3
 2079 00fa 08        		.uleb128 0x8
 2080 00fb 3A        		.uleb128 0x3a
 2081 00fc 0B        		.uleb128 0xb
 2082 00fd 3B        		.uleb128 0x3b
 2083 00fe 05        		.uleb128 0x5
 2084 00ff 49        		.uleb128 0x49
 2085 0100 13        		.uleb128 0x13
 2086 0101 00        		.byte	0x0
 2087 0102 00        		.byte	0x0
 2088 0103 12        		.uleb128 0x12
 2089 0104 1D        		.uleb128 0x1d
 2090 0105 01        		.byte	0x1
 2091 0106 31        		.uleb128 0x31
 2092 0107 13        		.uleb128 0x13
 2093 0108 11        		.uleb128 0x11
 2094 0109 01        		.uleb128 0x1
 2095 010a 12        		.uleb128 0x12
 2096 010b 01        		.uleb128 0x1
 2097 010c 58        		.uleb128 0x58
 2098 010d 0B        		.uleb128 0xb
 2099 010e 59        		.uleb128 0x59
 2100 010f 05        		.uleb128 0x5
 2101 0110 00        		.byte	0x0
 2102 0111 00        		.byte	0x0
 2103 0112 13        		.uleb128 0x13
 2104 0113 05        		.uleb128 0x5
 2105 0114 00        		.byte	0x0
 2106 0115 31        		.uleb128 0x31
 2107 0116 13        		.uleb128 0x13
 2108 0117 02        		.uleb128 0x2
 2109 0118 06        		.uleb128 0x6
GAS LISTING D:\DOCUME~1\alex\LOCALS~1\Temp/ccZpN2I0.s 			page 38


 2110 0119 00        		.byte	0x0
 2111 011a 00        		.byte	0x0
 2112 011b 14        		.uleb128 0x14
 2113 011c 2E        		.uleb128 0x2e
 2114 011d 01        		.byte	0x1
 2115 011e 3F        		.uleb128 0x3f
 2116 011f 0C        		.uleb128 0xc
 2117 0120 03        		.uleb128 0x3
 2118 0121 0E        		.uleb128 0xe
 2119 0122 3A        		.uleb128 0x3a
 2120 0123 0B        		.uleb128 0xb
 2121 0124 3B        		.uleb128 0x3b
 2122 0125 05        		.uleb128 0x5
 2123 0126 27        		.uleb128 0x27
 2124 0127 0C        		.uleb128 0xc
 2125 0128 11        		.uleb128 0x11
 2126 0129 01        		.uleb128 0x1
 2127 012a 12        		.uleb128 0x12
 2128 012b 01        		.uleb128 0x1
 2129 012c 40        		.uleb128 0x40
 2130 012d 0A        		.uleb128 0xa
 2131 012e 01        		.uleb128 0x1
 2132 012f 13        		.uleb128 0x13
 2133 0130 00        		.byte	0x0
 2134 0131 00        		.byte	0x0
 2135 0132 15        		.uleb128 0x15
 2136 0133 05        		.uleb128 0x5
 2137 0134 00        		.byte	0x0
 2138 0135 03        		.uleb128 0x3
 2139 0136 08        		.uleb128 0x8
 2140 0137 3A        		.uleb128 0x3a
 2141 0138 0B        		.uleb128 0xb
 2142 0139 3B        		.uleb128 0x3b
 2143 013a 05        		.uleb128 0x5
 2144 013b 49        		.uleb128 0x49
 2145 013c 13        		.uleb128 0x13
 2146 013d 02        		.uleb128 0x2
 2147 013e 0A        		.uleb128 0xa
 2148 013f 00        		.byte	0x0
 2149 0140 00        		.byte	0x0
 2150 0141 16        		.uleb128 0x16
 2151 0142 05        		.uleb128 0x5
 2152 0143 00        		.byte	0x0
 2153 0144 03        		.uleb128 0x3
 2154 0145 08        		.uleb128 0x8
 2155 0146 3A        		.uleb128 0x3a
 2156 0147 0B        		.uleb128 0xb
 2157 0148 3B        		.uleb128 0x3b
 2158 0149 05        		.uleb128 0x5
 2159 014a 49        		.uleb128 0x49
 2160 014b 13        		.uleb128 0x13
 2161 014c 02        		.uleb128 0x2
 2162 014d 06        		.uleb128 0x6
 2163 014e 00        		.byte	0x0
 2164 014f 00        		.byte	0x0
 2165 0150 17        		.uleb128 0x17
 2166 0151 05        		.uleb128 0x5
GAS LISTING D:\DOCUME~1\alex\LOCALS~1\Temp/ccZpN2I0.s 			page 39


 2167 0152 00        		.byte	0x0
 2168 0153 03        		.uleb128 0x3
 2169 0154 0E        		.uleb128 0xe
 2170 0155 3A        		.uleb128 0x3a
 2171 0156 0B        		.uleb128 0xb
 2172 0157 3B        		.uleb128 0x3b
 2173 0158 05        		.uleb128 0x5
 2174 0159 49        		.uleb128 0x49
 2175 015a 13        		.uleb128 0x13
 2176 015b 02        		.uleb128 0x2
 2177 015c 06        		.uleb128 0x6
 2178 015d 00        		.byte	0x0
 2179 015e 00        		.byte	0x0
 2180 015f 18        		.uleb128 0x18
 2181 0160 2E        		.uleb128 0x2e
 2182 0161 00        		.byte	0x0
 2183 0162 3F        		.uleb128 0x3f
 2184 0163 0C        		.uleb128 0xc
 2185 0164 03        		.uleb128 0x3
 2186 0165 0E        		.uleb128 0xe
 2187 0166 3A        		.uleb128 0x3a
 2188 0167 0B        		.uleb128 0xb
 2189 0168 3B        		.uleb128 0x3b
 2190 0169 05        		.uleb128 0x5
 2191 016a 27        		.uleb128 0x27
 2192 016b 0C        		.uleb128 0xc
 2193 016c 49        		.uleb128 0x49
 2194 016d 13        		.uleb128 0x13
 2195 016e 11        		.uleb128 0x11
 2196 016f 01        		.uleb128 0x1
 2197 0170 12        		.uleb128 0x12
 2198 0171 01        		.uleb128 0x1
 2199 0172 40        		.uleb128 0x40
 2200 0173 0A        		.uleb128 0xa
 2201 0174 00        		.byte	0x0
 2202 0175 00        		.byte	0x0
 2203 0176 19        		.uleb128 0x19
 2204 0177 2E        		.uleb128 0x2e
 2205 0178 00        		.byte	0x0
 2206 0179 3F        		.uleb128 0x3f
 2207 017a 0C        		.uleb128 0xc
 2208 017b 03        		.uleb128 0x3
 2209 017c 0E        		.uleb128 0xe
 2210 017d 3A        		.uleb128 0x3a
 2211 017e 0B        		.uleb128 0xb
 2212 017f 3B        		.uleb128 0x3b
 2213 0180 05        		.uleb128 0x5
 2214 0181 27        		.uleb128 0x27
 2215 0182 0C        		.uleb128 0xc
 2216 0183 11        		.uleb128 0x11
 2217 0184 01        		.uleb128 0x1
 2218 0185 12        		.uleb128 0x12
 2219 0186 01        		.uleb128 0x1
 2220 0187 40        		.uleb128 0x40
 2221 0188 0A        		.uleb128 0xa
 2222 0189 00        		.byte	0x0
 2223 018a 00        		.byte	0x0
GAS LISTING D:\DOCUME~1\alex\LOCALS~1\Temp/ccZpN2I0.s 			page 40


 2224 018b 1A        		.uleb128 0x1a
 2225 018c 2E        		.uleb128 0x2e
 2226 018d 01        		.byte	0x1
 2227 018e 03        		.uleb128 0x3
 2228 018f 0E        		.uleb128 0xe
 2229 0190 3A        		.uleb128 0x3a
 2230 0191 0B        		.uleb128 0xb
 2231 0192 3B        		.uleb128 0x3b
 2232 0193 05        		.uleb128 0x5
 2233 0194 27        		.uleb128 0x27
 2234 0195 0C        		.uleb128 0xc
 2235 0196 20        		.uleb128 0x20
 2236 0197 0B        		.uleb128 0xb
 2237 0198 01        		.uleb128 0x1
 2238 0199 13        		.uleb128 0x13
 2239 019a 00        		.byte	0x0
 2240 019b 00        		.byte	0x0
 2241 019c 1B        		.uleb128 0x1b
 2242 019d 05        		.uleb128 0x5
 2243 019e 00        		.byte	0x0
 2244 019f 03        		.uleb128 0x3
 2245 01a0 08        		.uleb128 0x8
 2246 01a1 3A        		.uleb128 0x3a
 2247 01a2 0B        		.uleb128 0xb
 2248 01a3 3B        		.uleb128 0x3b
 2249 01a4 05        		.uleb128 0x5
 2250 01a5 49        		.uleb128 0x49
 2251 01a6 13        		.uleb128 0x13
 2252 01a7 00        		.byte	0x0
 2253 01a8 00        		.byte	0x0
 2254 01a9 1C        		.uleb128 0x1c
 2255 01aa 34        		.uleb128 0x34
 2256 01ab 00        		.byte	0x0
 2257 01ac 03        		.uleb128 0x3
 2258 01ad 0E        		.uleb128 0xe
 2259 01ae 3A        		.uleb128 0x3a
 2260 01af 0B        		.uleb128 0xb
 2261 01b0 3B        		.uleb128 0x3b
 2262 01b1 05        		.uleb128 0x5
 2263 01b2 49        		.uleb128 0x49
 2264 01b3 13        		.uleb128 0x13
 2265 01b4 00        		.byte	0x0
 2266 01b5 00        		.byte	0x0
 2267 01b6 1D        		.uleb128 0x1d
 2268 01b7 34        		.uleb128 0x34
 2269 01b8 00        		.byte	0x0
 2270 01b9 03        		.uleb128 0x3
 2271 01ba 08        		.uleb128 0x8
 2272 01bb 3A        		.uleb128 0x3a
 2273 01bc 0B        		.uleb128 0xb
 2274 01bd 3B        		.uleb128 0x3b
 2275 01be 05        		.uleb128 0x5
 2276 01bf 49        		.uleb128 0x49
 2277 01c0 13        		.uleb128 0x13
 2278 01c1 02        		.uleb128 0x2
 2279 01c2 06        		.uleb128 0x6
 2280 01c3 00        		.byte	0x0
GAS LISTING D:\DOCUME~1\alex\LOCALS~1\Temp/ccZpN2I0.s 			page 41


 2281 01c4 00        		.byte	0x0
 2282 01c5 1E        		.uleb128 0x1e
 2283 01c6 05        		.uleb128 0x5
 2284 01c7 00        		.byte	0x0
 2285 01c8 31        		.uleb128 0x31
 2286 01c9 13        		.uleb128 0x13
 2287 01ca 00        		.byte	0x0
 2288 01cb 00        		.byte	0x0
 2289 01cc 1F        		.uleb128 0x1f
 2290 01cd 0B        		.uleb128 0xb
 2291 01ce 01        		.byte	0x1
 2292 01cf 11        		.uleb128 0x11
 2293 01d0 01        		.uleb128 0x1
 2294 01d1 12        		.uleb128 0x12
 2295 01d2 01        		.uleb128 0x1
 2296 01d3 00        		.byte	0x0
 2297 01d4 00        		.byte	0x0
 2298 01d5 20        		.uleb128 0x20
 2299 01d6 34        		.uleb128 0x34
 2300 01d7 00        		.byte	0x0
 2301 01d8 31        		.uleb128 0x31
 2302 01d9 13        		.uleb128 0x13
 2303 01da 02        		.uleb128 0x2
 2304 01db 06        		.uleb128 0x6
 2305 01dc 00        		.byte	0x0
 2306 01dd 00        		.byte	0x0
 2307 01de 21        		.uleb128 0x21
 2308 01df 0F        		.uleb128 0xf
 2309 01e0 00        		.byte	0x0
 2310 01e1 0B        		.uleb128 0xb
 2311 01e2 0B        		.uleb128 0xb
 2312 01e3 49        		.uleb128 0x49
 2313 01e4 13        		.uleb128 0x13
 2314 01e5 00        		.byte	0x0
 2315 01e6 00        		.byte	0x0
 2316 01e7 22        		.uleb128 0x22
 2317 01e8 26        		.uleb128 0x26
 2318 01e9 00        		.byte	0x0
 2319 01ea 49        		.uleb128 0x49
 2320 01eb 13        		.uleb128 0x13
 2321 01ec 00        		.byte	0x0
 2322 01ed 00        		.byte	0x0
 2323 01ee 23        		.uleb128 0x23
 2324 01ef 34        		.uleb128 0x34
 2325 01f0 00        		.byte	0x0
 2326 01f1 03        		.uleb128 0x3
 2327 01f2 0E        		.uleb128 0xe
 2328 01f3 3A        		.uleb128 0x3a
 2329 01f4 0B        		.uleb128 0xb
 2330 01f5 3B        		.uleb128 0x3b
 2331 01f6 05        		.uleb128 0x5
 2332 01f7 49        		.uleb128 0x49
 2333 01f8 13        		.uleb128 0x13
 2334 01f9 02        		.uleb128 0x2
 2335 01fa 06        		.uleb128 0x6
 2336 01fb 00        		.byte	0x0
 2337 01fc 00        		.byte	0x0
GAS LISTING D:\DOCUME~1\alex\LOCALS~1\Temp/ccZpN2I0.s 			page 42


 2338 01fd 24        		.uleb128 0x24
 2339 01fe 18        		.uleb128 0x18
 2340 01ff 00        		.byte	0x0
 2341 0200 00        		.byte	0x0
 2342 0201 00        		.byte	0x0
 2343 0202 25        		.uleb128 0x25
 2344 0203 34        		.uleb128 0x34
 2345 0204 00        		.byte	0x0
 2346 0205 03        		.uleb128 0x3
 2347 0206 08        		.uleb128 0x8
 2348 0207 3A        		.uleb128 0x3a
 2349 0208 0B        		.uleb128 0xb
 2350 0209 3B        		.uleb128 0x3b
 2351 020a 05        		.uleb128 0x5
 2352 020b 49        		.uleb128 0x49
 2353 020c 13        		.uleb128 0x13
 2354 020d 02        		.uleb128 0x2
 2355 020e 0A        		.uleb128 0xa
 2356 020f 00        		.byte	0x0
 2357 0210 00        		.byte	0x0
 2358 0211 26        		.uleb128 0x26
 2359 0212 01        		.uleb128 0x1
 2360 0213 01        		.byte	0x1
 2361 0214 49        		.uleb128 0x49
 2362 0215 13        		.uleb128 0x13
 2363 0216 01        		.uleb128 0x1
 2364 0217 13        		.uleb128 0x13
 2365 0218 00        		.byte	0x0
 2366 0219 00        		.byte	0x0
 2367 021a 27        		.uleb128 0x27
 2368 021b 21        		.uleb128 0x21
 2369 021c 00        		.byte	0x0
 2370 021d 49        		.uleb128 0x49
 2371 021e 13        		.uleb128 0x13
 2372 021f 2F        		.uleb128 0x2f
 2373 0220 0B        		.uleb128 0xb
 2374 0221 00        		.byte	0x0
 2375 0222 00        		.byte	0x0
 2376 0223 28        		.uleb128 0x28
 2377 0224 2E        		.uleb128 0x2e
 2378 0225 01        		.byte	0x1
 2379 0226 3F        		.uleb128 0x3f
 2380 0227 0C        		.uleb128 0xc
 2381 0228 03        		.uleb128 0x3
 2382 0229 0E        		.uleb128 0xe
 2383 022a 3A        		.uleb128 0x3a
 2384 022b 0B        		.uleb128 0xb
 2385 022c 3B        		.uleb128 0x3b
 2386 022d 05        		.uleb128 0x5
 2387 022e 27        		.uleb128 0x27
 2388 022f 0C        		.uleb128 0xc
 2389 0230 11        		.uleb128 0x11
 2390 0231 01        		.uleb128 0x1
 2391 0232 12        		.uleb128 0x12
 2392 0233 01        		.uleb128 0x1
 2393 0234 40        		.uleb128 0x40
 2394 0235 0A        		.uleb128 0xa
GAS LISTING D:\DOCUME~1\alex\LOCALS~1\Temp/ccZpN2I0.s 			page 43


 2395 0236 00        		.byte	0x0
 2396 0237 00        		.byte	0x0
 2397 0238 29        		.uleb128 0x29
 2398 0239 1D        		.uleb128 0x1d
 2399 023a 01        		.byte	0x1
 2400 023b 31        		.uleb128 0x31
 2401 023c 13        		.uleb128 0x13
 2402 023d 11        		.uleb128 0x11
 2403 023e 01        		.uleb128 0x1
 2404 023f 12        		.uleb128 0x12
 2405 0240 01        		.uleb128 0x1
 2406 0241 58        		.uleb128 0x58
 2407 0242 0B        		.uleb128 0xb
 2408 0243 59        		.uleb128 0x59
 2409 0244 05        		.uleb128 0x5
 2410 0245 01        		.uleb128 0x1
 2411 0246 13        		.uleb128 0x13
 2412 0247 00        		.byte	0x0
 2413 0248 00        		.byte	0x0
 2414 0249 2A        		.uleb128 0x2a
 2415 024a 05        		.uleb128 0x5
 2416 024b 00        		.byte	0x0
 2417 024c 31        		.uleb128 0x31
 2418 024d 13        		.uleb128 0x13
 2419 024e 02        		.uleb128 0x2
 2420 024f 0A        		.uleb128 0xa
 2421 0250 00        		.byte	0x0
 2422 0251 00        		.byte	0x0
 2423 0252 00        		.byte	0x0
 2424               		.section	.debug_pubnames,"",@progbits
 2425 0000 BB00 0000 		.long	0xbb
 2426 0004 0200      		.word	0x2
 2427 0006 0000 0000 		.long	.Ldebug_info0
 2428 000a ED04 0000 		.long	0x4ed
 2429 000e 7801 0000 		.long	0x178
 2430 0012 6C63 645F 		.string	"lcd_backlight"
 2430      6261 636B 
 2430      6C69 6768 
 2430      7400 
 2431 0020 A001 0000 		.long	0x1a0
 2432 0024 6C63 645F 		.string	"lcd_command"
 2432      636F 6D6D 
 2432      616E 6400 
 2433 0030 CA01 0000 		.long	0x1ca
 2434 0034 6C63 645F 		.string	"lcd_data"
 2434      6461 7461 
 2434      00
 2435 003d F401 0000 		.long	0x1f4
 2436 0041 6C63 645F 		.string	"lcd_gotoxy"
 2436      676F 746F 
 2436      7879 00
 2437 004c 2A02 0000 		.long	0x22a
 2438 0050 6C63 645F 		.string	"lcd_getxy"
 2438      6765 7478 
 2438      7900 
 2439 005a 4302 0000 		.long	0x243
 2440 005e 6C63 645F 		.string	"lcd_clrscr"
GAS LISTING D:\DOCUME~1\alex\LOCALS~1\Temp/ccZpN2I0.s 			page 44


 2440      636C 7273 
 2440      6372 00
 2441 0069 5802 0000 		.long	0x258
 2442 006d 6C63 645F 		.string	"lcd_home"
 2442      686F 6D65 
 2442      00
 2443 0076 9402 0000 		.long	0x294
 2444 007a 6C63 645F 		.string	"lcd_putc"
 2444      7075 7463 
 2444      00
 2445 0083 FC02 0000 		.long	0x2fc
 2446 0087 6C63 645F 		.string	"lcd_puts"
 2446      7075 7473 
 2446      00
 2447 0090 3D03 0000 		.long	0x33d
 2448 0094 6C63 645F 		.string	"lcd_puts_p"
 2448      7075 7473 
 2448      5F70 00
 2449 009f 9B03 0000 		.long	0x39b
 2450 00a3 6C63 645F 		.string	"lcd_printf"
 2450      7072 696E 
 2450      7466 00
 2451 00ae 3104 0000 		.long	0x431
 2452 00b2 6C63 645F 		.string	"lcd_init"
 2452      696E 6974 
 2452      00
 2453 00bb 0000 0000 		.long	0x0
 2454               		.section	.debug_aranges,"",@progbits
 2455 0000 1C00 0000 		.long	0x1c
 2456 0004 0200      		.word	0x2
 2457 0006 0000 0000 		.long	.Ldebug_info0
 2458 000a 04        		.byte	0x4
 2459 000b 00        		.byte	0x0
 2460 000c 0000      		.word	0x0
 2461 000e 0000      		.word	0x0
 2462 0010 0000 0000 		.long	.Ltext0
 2463 0014 A602 0000 		.long	.Letext0-.Ltext0
 2464 0018 0000 0000 		.long	0x0
 2465 001c 0000 0000 		.long	0x0
 2466               		.section	.debug_line
 2467 0000 1B05 0000 		.long	.LELT0-.LSLT0
 2468               	.LSLT0:
 2469 0004 0200      		.word	0x2
 2470 0006 8B00 0000 		.long	.LELTP0-.LASLTP0
 2471               	.LASLTP0:
 2472 000a 01        		.byte	0x1
 2473 000b 01        		.byte	0x1
 2474 000c F6        		.byte	0xf6
 2475 000d F5        		.byte	0xf5
 2476 000e 0A        		.byte	0xa
 2477 000f 00        		.byte	0x0
 2478 0010 01        		.byte	0x1
 2479 0011 01        		.byte	0x1
 2480 0012 01        		.byte	0x1
 2481 0013 01        		.byte	0x1
 2482 0014 00        		.byte	0x0
 2483 0015 00        		.byte	0x0
GAS LISTING D:\DOCUME~1\alex\LOCALS~1\Temp/ccZpN2I0.s 			page 45


 2484 0016 00        		.byte	0x0
 2485 0017 01        		.byte	0x1
 2486 0018 653A 2F77 		.ascii	"e:/winavr-20071221/bin/../avr/include"
 2486      696E 6176 
 2486      722D 3230 
 2486      3037 3132 
 2486      3231 2F62 
 2487 003d 00        		.byte	0
 2488 003e 653A 5C77 		.ascii	"e:\\winavr-20071221\\bin\\../lib/gcc/avr/4.2.2/include"
 2488      696E 6176 
 2488      722D 3230 
 2488      3037 3132 
 2488      3231 5C62 
 2489 0071 00        		.byte	0
 2490 0072 00        		.byte	0x0
 2491 0073 6C63 642E 		.string	"lcd.c"
 2491      6300 
 2492 0079 00        		.uleb128 0x0
 2493 007a 00        		.uleb128 0x0
 2494 007b 00        		.uleb128 0x0
 2495 007c 7374 6469 		.string	"stdint.h"
 2495      6E74 2E68 
 2495      00
 2496 0085 01        		.uleb128 0x1
 2497 0086 00        		.uleb128 0x0
 2498 0087 00        		.uleb128 0x0
 2499 0088 7374 6461 		.string	"stdarg.h"
 2499      7267 2E68 
 2499      00
 2500 0091 02        		.uleb128 0x2
 2501 0092 00        		.uleb128 0x0
 2502 0093 00        		.uleb128 0x0
 2503 0094 00        		.byte	0x0
 2504               	.LELTP0:
 2505 0095 00        		.byte	0x0
 2506 0096 05        		.uleb128 0x5
 2507 0097 02        		.byte	0x2
 2508 0098 0000 0000 		.long	.LM1
 2509 009c 8E        		.byte	0x8e
 2510 009d 00        		.byte	0x0
 2511 009e 05        		.uleb128 0x5
 2512 009f 02        		.byte	0x2
 2513 00a0 0000 0000 		.long	.LM2
 2514 00a4 15        		.byte	0x15
 2515 00a5 00        		.byte	0x0
 2516 00a6 05        		.uleb128 0x5
 2517 00a7 02        		.byte	0x2
 2518 00a8 0000 0000 		.long	.LM3
 2519 00ac 15        		.byte	0x15
 2520 00ad 00        		.byte	0x0
 2521 00ae 05        		.uleb128 0x5
 2522 00af 02        		.byte	0x2
 2523 00b0 0000 0000 		.long	.LM4
 2524 00b4 15        		.byte	0x15
 2525 00b5 00        		.byte	0x0
 2526 00b6 05        		.uleb128 0x5
 2527 00b7 02        		.byte	0x2
GAS LISTING D:\DOCUME~1\alex\LOCALS~1\Temp/ccZpN2I0.s 			page 46


 2528 00b8 0000 0000 		.long	.LM5
 2529 00bc 22        		.byte	0x22
 2530 00bd 00        		.byte	0x0
 2531 00be 05        		.uleb128 0x5
 2532 00bf 02        		.byte	0x2
 2533 00c0 0000 0000 		.long	.LM6
 2534 00c4 18        		.byte	0x18
 2535 00c5 00        		.byte	0x0
 2536 00c6 05        		.uleb128 0x5
 2537 00c7 02        		.byte	0x2
 2538 00c8 0000 0000 		.long	.LM7
 2539 00cc 15        		.byte	0x15
 2540 00cd 00        		.byte	0x0
 2541 00ce 05        		.uleb128 0x5
 2542 00cf 02        		.byte	0x2
 2543 00d0 0000 0000 		.long	.LM8
 2544 00d4 16        		.byte	0x16
 2545 00d5 00        		.byte	0x0
 2546 00d6 05        		.uleb128 0x5
 2547 00d7 02        		.byte	0x2
 2548 00d8 0000 0000 		.long	.LM9
 2549 00dc 16        		.byte	0x16
 2550 00dd 00        		.byte	0x0
 2551 00de 05        		.uleb128 0x5
 2552 00df 02        		.byte	0x2
 2553 00e0 0000 0000 		.long	.LM10
 2554 00e4 2B        		.byte	0x2b
 2555 00e5 00        		.byte	0x0
 2556 00e6 05        		.uleb128 0x5
 2557 00e7 02        		.byte	0x2
 2558 00e8 0000 0000 		.long	.LM11
 2559 00ec 15        		.byte	0x15
 2560 00ed 00        		.byte	0x0
 2561 00ee 05        		.uleb128 0x5
 2562 00ef 02        		.byte	0x2
 2563 00f0 0000 0000 		.long	.LM12
 2564 00f4 15        		.byte	0x15
 2565 00f5 00        		.byte	0x0
 2566 00f6 05        		.uleb128 0x5
 2567 00f7 02        		.byte	0x2
 2568 00f8 0000 0000 		.long	.LM13
 2569 00fc 15        		.byte	0x15
 2570 00fd 00        		.byte	0x0
 2571 00fe 05        		.uleb128 0x5
 2572 00ff 02        		.byte	0x2
 2573 0100 0000 0000 		.long	.LM14
 2574 0104 17        		.byte	0x17
 2575 0105 00        		.byte	0x0
 2576 0106 05        		.uleb128 0x5
 2577 0107 02        		.byte	0x2
 2578 0108 0000 0000 		.long	.LM15
 2579 010c 15        		.byte	0x15
 2580 010d 00        		.byte	0x0
 2581 010e 05        		.uleb128 0x5
 2582 010f 02        		.byte	0x2
 2583 0110 0000 0000 		.long	.LM16
 2584 0114 15        		.byte	0x15
GAS LISTING D:\DOCUME~1\alex\LOCALS~1\Temp/ccZpN2I0.s 			page 47


 2585 0115 00        		.byte	0x0
 2586 0116 05        		.uleb128 0x5
 2587 0117 02        		.byte	0x2
 2588 0118 0000 0000 		.long	.LM17
 2589 011c 15        		.byte	0x15
 2590 011d 00        		.byte	0x0
 2591 011e 05        		.uleb128 0x5
 2592 011f 02        		.byte	0x2
 2593 0120 0000 0000 		.long	.LM18
 2594 0124 15        		.byte	0x15
 2595 0125 00        		.byte	0x0
 2596 0126 05        		.uleb128 0x5
 2597 0127 02        		.byte	0x2
 2598 0128 0000 0000 		.long	.LM19
 2599 012c 15        		.byte	0x15
 2600 012d 00        		.byte	0x0
 2601 012e 05        		.uleb128 0x5
 2602 012f 02        		.byte	0x2
 2603 0130 0000 0000 		.long	.LM20
 2604 0134 15        		.byte	0x15
 2605 0135 00        		.byte	0x0
 2606 0136 05        		.uleb128 0x5
 2607 0137 02        		.byte	0x2
 2608 0138 0000 0000 		.long	.LM21
 2609 013c 15        		.byte	0x15
 2610 013d 00        		.byte	0x0
 2611 013e 05        		.uleb128 0x5
 2612 013f 02        		.byte	0x2
 2613 0140 0000 0000 		.long	.LM22
 2614 0144 15        		.byte	0x15
 2615 0145 00        		.byte	0x0
 2616 0146 05        		.uleb128 0x5
 2617 0147 02        		.byte	0x2
 2618 0148 0000 0000 		.long	.LM23
 2619 014c 17        		.byte	0x17
 2620 014d 00        		.byte	0x0
 2621 014e 05        		.uleb128 0x5
 2622 014f 02        		.byte	0x2
 2623 0150 0000 0000 		.long	.LM24
 2624 0154 15        		.byte	0x15
 2625 0155 00        		.byte	0x0
 2626 0156 05        		.uleb128 0x5
 2627 0157 02        		.byte	0x2
 2628 0158 0000 0000 		.long	.LM25
 2629 015c 15        		.byte	0x15
 2630 015d 00        		.byte	0x0
 2631 015e 05        		.uleb128 0x5
 2632 015f 02        		.byte	0x2
 2633 0160 0000 0000 		.long	.LM26
 2634 0164 15        		.byte	0x15
 2635 0165 00        		.byte	0x0
 2636 0166 05        		.uleb128 0x5
 2637 0167 02        		.byte	0x2
 2638 0168 0000 0000 		.long	.LM27
 2639 016c 15        		.byte	0x15
 2640 016d 00        		.byte	0x0
 2641 016e 05        		.uleb128 0x5
GAS LISTING D:\DOCUME~1\alex\LOCALS~1\Temp/ccZpN2I0.s 			page 48


 2642 016f 02        		.byte	0x2
 2643 0170 0000 0000 		.long	.LM28
 2644 0174 15        		.byte	0x15
 2645 0175 00        		.byte	0x0
 2646 0176 05        		.uleb128 0x5
 2647 0177 02        		.byte	0x2
 2648 0178 0000 0000 		.long	.LM29
 2649 017c 15        		.byte	0x15
 2650 017d 00        		.byte	0x0
 2651 017e 05        		.uleb128 0x5
 2652 017f 02        		.byte	0x2
 2653 0180 0000 0000 		.long	.LM30
 2654 0184 15        		.byte	0x15
 2655 0185 00        		.byte	0x0
 2656 0186 05        		.uleb128 0x5
 2657 0187 02        		.byte	0x2
 2658 0188 0000 0000 		.long	.LM31
 2659 018c 15        		.byte	0x15
 2660 018d 00        		.byte	0x0
 2661 018e 05        		.uleb128 0x5
 2662 018f 02        		.byte	0x2
 2663 0190 0000 0000 		.long	.LM32
 2664 0194 17        		.byte	0x17
 2665 0195 00        		.byte	0x0
 2666 0196 05        		.uleb128 0x5
 2667 0197 02        		.byte	0x2
 2668 0198 0000 0000 		.long	.LM33
 2669 019c 15        		.byte	0x15
 2670 019d 00        		.byte	0x0
 2671 019e 05        		.uleb128 0x5
 2672 019f 02        		.byte	0x2
 2673 01a0 0000 0000 		.long	.LM34
 2674 01a4 15        		.byte	0x15
 2675 01a5 00        		.byte	0x0
 2676 01a6 05        		.uleb128 0x5
 2677 01a7 02        		.byte	0x2
 2678 01a8 0000 0000 		.long	.LM35
 2679 01ac 15        		.byte	0x15
 2680 01ad 00        		.byte	0x0
 2681 01ae 05        		.uleb128 0x5
 2682 01af 02        		.byte	0x2
 2683 01b0 0000 0000 		.long	.LM36
 2684 01b4 26        		.byte	0x26
 2685 01b5 00        		.byte	0x0
 2686 01b6 05        		.uleb128 0x5
 2687 01b7 02        		.byte	0x2
 2688 01b8 0000 0000 		.long	.LM37
 2689 01bc 18        		.byte	0x18
 2690 01bd 00        		.byte	0x0
 2691 01be 05        		.uleb128 0x5
 2692 01bf 02        		.byte	0x2
 2693 01c0 0000 0000 		.long	.LM38
 2694 01c4 15        		.byte	0x15
 2695 01c5 00        		.byte	0x0
 2696 01c6 05        		.uleb128 0x5
 2697 01c7 02        		.byte	0x2
 2698 01c8 0000 0000 		.long	.LM39
GAS LISTING D:\DOCUME~1\alex\LOCALS~1\Temp/ccZpN2I0.s 			page 49


 2699 01cc 16        		.byte	0x16
 2700 01cd 00        		.byte	0x0
 2701 01ce 05        		.uleb128 0x5
 2702 01cf 02        		.byte	0x2
 2703 01d0 0000 0000 		.long	.LM40
 2704 01d4 15        		.byte	0x15
 2705 01d5 00        		.byte	0x0
 2706 01d6 05        		.uleb128 0x5
 2707 01d7 02        		.byte	0x2
 2708 01d8 0000 0000 		.long	.LM41
 2709 01dc 2A        		.byte	0x2a
 2710 01dd 00        		.byte	0x0
 2711 01de 05        		.uleb128 0x5
 2712 01df 02        		.byte	0x2
 2713 01e0 0000 0000 		.long	.LM42
 2714 01e4 15        		.byte	0x15
 2715 01e5 00        		.byte	0x0
 2716 01e6 05        		.uleb128 0x5
 2717 01e7 02        		.byte	0x2
 2718 01e8 0000 0000 		.long	.LM43
 2719 01ec 15        		.byte	0x15
 2720 01ed 00        		.byte	0x0
 2721 01ee 05        		.uleb128 0x5
 2722 01ef 02        		.byte	0x2
 2723 01f0 0000 0000 		.long	.LM44
 2724 01f4 15        		.byte	0x15
 2725 01f5 00        		.byte	0x0
 2726 01f6 05        		.uleb128 0x5
 2727 01f7 02        		.byte	0x2
 2728 01f8 0000 0000 		.long	.LM45
 2729 01fc 17        		.byte	0x17
 2730 01fd 00        		.byte	0x0
 2731 01fe 05        		.uleb128 0x5
 2732 01ff 02        		.byte	0x2
 2733 0200 0000 0000 		.long	.LM46
 2734 0204 15        		.byte	0x15
 2735 0205 00        		.byte	0x0
 2736 0206 05        		.uleb128 0x5
 2737 0207 02        		.byte	0x2
 2738 0208 0000 0000 		.long	.LM47
 2739 020c 16        		.byte	0x16
 2740 020d 00        		.byte	0x0
 2741 020e 05        		.uleb128 0x5
 2742 020f 02        		.byte	0x2
 2743 0210 0000 0000 		.long	.LM48
 2744 0214 15        		.byte	0x15
 2745 0215 00        		.byte	0x0
 2746 0216 05        		.uleb128 0x5
 2747 0217 02        		.byte	0x2
 2748 0218 0000 0000 		.long	.LM49
 2749 021c 15        		.byte	0x15
 2750 021d 00        		.byte	0x0
 2751 021e 05        		.uleb128 0x5
 2752 021f 02        		.byte	0x2
 2753 0220 0000 0000 		.long	.LM50
 2754 0224 15        		.byte	0x15
 2755 0225 00        		.byte	0x0
GAS LISTING D:\DOCUME~1\alex\LOCALS~1\Temp/ccZpN2I0.s 			page 50


 2756 0226 05        		.uleb128 0x5
 2757 0227 02        		.byte	0x2
 2758 0228 0000 0000 		.long	.LM51
 2759 022c 15        		.byte	0x15
 2760 022d 00        		.byte	0x0
 2761 022e 05        		.uleb128 0x5
 2762 022f 02        		.byte	0x2
 2763 0230 0000 0000 		.long	.LM52
 2764 0234 16        		.byte	0x16
 2765 0235 00        		.byte	0x0
 2766 0236 05        		.uleb128 0x5
 2767 0237 02        		.byte	0x2
 2768 0238 0000 0000 		.long	.LM53
 2769 023c 17        		.byte	0x17
 2770 023d 00        		.byte	0x0
 2771 023e 05        		.uleb128 0x5
 2772 023f 02        		.byte	0x2
 2773 0240 0000 0000 		.long	.LM54
 2774 0244 15        		.byte	0x15
 2775 0245 00        		.byte	0x0
 2776 0246 05        		.uleb128 0x5
 2777 0247 02        		.byte	0x2
 2778 0248 0000 0000 		.long	.LM55
 2779 024c 15        		.byte	0x15
 2780 024d 00        		.byte	0x0
 2781 024e 05        		.uleb128 0x5
 2782 024f 02        		.byte	0x2
 2783 0250 0000 0000 		.long	.LM56
 2784 0254 15        		.byte	0x15
 2785 0255 00        		.byte	0x0
 2786 0256 05        		.uleb128 0x5
 2787 0257 02        		.byte	0x2
 2788 0258 0000 0000 		.long	.LM57
 2789 025c 15        		.byte	0x15
 2790 025d 00        		.byte	0x0
 2791 025e 05        		.uleb128 0x5
 2792 025f 02        		.byte	0x2
 2793 0260 0000 0000 		.long	.LM58
 2794 0264 15        		.byte	0x15
 2795 0265 00        		.byte	0x0
 2796 0266 05        		.uleb128 0x5
 2797 0267 02        		.byte	0x2
 2798 0268 0000 0000 		.long	.LM59
 2799 026c 15        		.byte	0x15
 2800 026d 00        		.byte	0x0
 2801 026e 05        		.uleb128 0x5
 2802 026f 02        		.byte	0x2
 2803 0270 0000 0000 		.long	.LM60
 2804 0274 17        		.byte	0x17
 2805 0275 00        		.byte	0x0
 2806 0276 05        		.uleb128 0x5
 2807 0277 02        		.byte	0x2
 2808 0278 0000 0000 		.long	.LM61
 2809 027c 21        		.byte	0x21
 2810 027d 00        		.byte	0x0
 2811 027e 05        		.uleb128 0x5
 2812 027f 02        		.byte	0x2
GAS LISTING D:\DOCUME~1\alex\LOCALS~1\Temp/ccZpN2I0.s 			page 51


 2813 0280 0000 0000 		.long	.LM62
 2814 0284 18        		.byte	0x18
 2815 0285 00        		.byte	0x0
 2816 0286 05        		.uleb128 0x5
 2817 0287 02        		.byte	0x2
 2818 0288 0000 0000 		.long	.LM63
 2819 028c 03        		.byte	0x3
 2820 028d C17E      		.sleb128 -191
 2821 028f 01        		.byte	0x1
 2822 0290 00        		.byte	0x0
 2823 0291 05        		.uleb128 0x5
 2824 0292 02        		.byte	0x2
 2825 0293 0000 0000 		.long	.LM64
 2826 0297 D9        		.byte	0xd9
 2827 0298 00        		.byte	0x0
 2828 0299 05        		.uleb128 0x5
 2829 029a 02        		.byte	0x2
 2830 029b 0000 0000 		.long	.LM65
 2831 029f 16        		.byte	0x16
 2832 02a0 00        		.byte	0x0
 2833 02a1 05        		.uleb128 0x5
 2834 02a2 02        		.byte	0x2
 2835 02a3 0000 0000 		.long	.LM66
 2836 02a7 50        		.byte	0x50
 2837 02a8 00        		.byte	0x0
 2838 02a9 05        		.uleb128 0x5
 2839 02aa 02        		.byte	0x2
 2840 02ab 0000 0000 		.long	.LM67
 2841 02af 15        		.byte	0x15
 2842 02b0 00        		.byte	0x0
 2843 02b1 05        		.uleb128 0x5
 2844 02b2 02        		.byte	0x2
 2845 02b3 0000 0000 		.long	.LM68
 2846 02b7 15        		.byte	0x15
 2847 02b8 00        		.byte	0x0
 2848 02b9 05        		.uleb128 0x5
 2849 02ba 02        		.byte	0x2
 2850 02bb 0000 0000 		.long	.LM69
 2851 02bf 16        		.byte	0x16
 2852 02c0 00        		.byte	0x0
 2853 02c1 05        		.uleb128 0x5
 2854 02c2 02        		.byte	0x2
 2855 02c3 0000 0000 		.long	.LM70
 2856 02c7 20        		.byte	0x20
 2857 02c8 00        		.byte	0x0
 2858 02c9 05        		.uleb128 0x5
 2859 02ca 02        		.byte	0x2
 2860 02cb 0000 0000 		.long	.LM71
 2861 02cf 15        		.byte	0x15
 2862 02d0 00        		.byte	0x0
 2863 02d1 05        		.uleb128 0x5
 2864 02d2 02        		.byte	0x2
 2865 02d3 0000 0000 		.long	.LM72
 2866 02d7 15        		.byte	0x15
 2867 02d8 00        		.byte	0x0
 2868 02d9 05        		.uleb128 0x5
 2869 02da 02        		.byte	0x2
GAS LISTING D:\DOCUME~1\alex\LOCALS~1\Temp/ccZpN2I0.s 			page 52


 2870 02db 0000 0000 		.long	.LM73
 2871 02df 1E        		.byte	0x1e
 2872 02e0 00        		.byte	0x0
 2873 02e1 05        		.uleb128 0x5
 2874 02e2 02        		.byte	0x2
 2875 02e3 0000 0000 		.long	.LM74
 2876 02e7 15        		.byte	0x15
 2877 02e8 00        		.byte	0x0
 2878 02e9 05        		.uleb128 0x5
 2879 02ea 02        		.byte	0x2
 2880 02eb 0000 0000 		.long	.LM75
 2881 02ef 15        		.byte	0x15
 2882 02f0 00        		.byte	0x0
 2883 02f1 05        		.uleb128 0x5
 2884 02f2 02        		.byte	0x2
 2885 02f3 0000 0000 		.long	.LM76
 2886 02f7 20        		.byte	0x20
 2887 02f8 00        		.byte	0x0
 2888 02f9 05        		.uleb128 0x5
 2889 02fa 02        		.byte	0x2
 2890 02fb 0000 0000 		.long	.LM77
 2891 02ff 19        		.byte	0x19
 2892 0300 00        		.byte	0x0
 2893 0301 05        		.uleb128 0x5
 2894 0302 02        		.byte	0x2
 2895 0303 0000 0000 		.long	.LM78
 2896 0307 15        		.byte	0x15
 2897 0308 00        		.byte	0x0
 2898 0309 05        		.uleb128 0x5
 2899 030a 02        		.byte	0x2
 2900 030b 0000 0000 		.long	.LM79
 2901 030f 16        		.byte	0x16
 2902 0310 00        		.byte	0x0
 2903 0311 05        		.uleb128 0x5
 2904 0312 02        		.byte	0x2
 2905 0313 0000 0000 		.long	.LM80
 2906 0317 27        		.byte	0x27
 2907 0318 00        		.byte	0x0
 2908 0319 05        		.uleb128 0x5
 2909 031a 02        		.byte	0x2
 2910 031b 0000 0000 		.long	.LM81
 2911 031f 15        		.byte	0x15
 2912 0320 00        		.byte	0x0
 2913 0321 05        		.uleb128 0x5
 2914 0322 02        		.byte	0x2
 2915 0323 0000 0000 		.long	.LM82
 2916 0327 15        		.byte	0x15
 2917 0328 00        		.byte	0x0
 2918 0329 05        		.uleb128 0x5
 2919 032a 02        		.byte	0x2
 2920 032b 0000 0000 		.long	.LM83
 2921 032f 1B        		.byte	0x1b
 2922 0330 00        		.byte	0x0
 2923 0331 05        		.uleb128 0x5
 2924 0332 02        		.byte	0x2
 2925 0333 0000 0000 		.long	.LM84
 2926 0337 15        		.byte	0x15
GAS LISTING D:\DOCUME~1\alex\LOCALS~1\Temp/ccZpN2I0.s 			page 53


 2927 0338 00        		.byte	0x0
 2928 0339 05        		.uleb128 0x5
 2929 033a 02        		.byte	0x2
 2930 033b 0000 0000 		.long	.LM85
 2931 033f 1C        		.byte	0x1c
 2932 0340 00        		.byte	0x0
 2933 0341 05        		.uleb128 0x5
 2934 0342 02        		.byte	0x2
 2935 0343 0000 0000 		.long	.LM86
 2936 0347 15        		.byte	0x15
 2937 0348 00        		.byte	0x0
 2938 0349 05        		.uleb128 0x5
 2939 034a 02        		.byte	0x2
 2940 034b 0000 0000 		.long	.LM87
 2941 034f 1E        		.byte	0x1e
 2942 0350 00        		.byte	0x0
 2943 0351 05        		.uleb128 0x5
 2944 0352 02        		.byte	0x2
 2945 0353 0000 0000 		.long	.LM88
 2946 0357 18        		.byte	0x18
 2947 0358 00        		.byte	0x0
 2948 0359 05        		.uleb128 0x5
 2949 035a 02        		.byte	0x2
 2950 035b 0000 0000 		.long	.LM89
 2951 035f 15        		.byte	0x15
 2952 0360 00        		.byte	0x0
 2953 0361 05        		.uleb128 0x5
 2954 0362 02        		.byte	0x2
 2955 0363 0000 0000 		.long	.LM90
 2956 0367 03        		.byte	0x3
 2957 0368 ED7E      		.sleb128 -147
 2958 036a 01        		.byte	0x1
 2959 036b 00        		.byte	0x0
 2960 036c 05        		.uleb128 0x5
 2961 036d 02        		.byte	0x2
 2962 036e 0000 0000 		.long	.LM91
 2963 0372 2E        		.byte	0x2e
 2964 0373 00        		.byte	0x0
 2965 0374 05        		.uleb128 0x5
 2966 0375 02        		.byte	0x2
 2967 0376 0000 0000 		.long	.LM92
 2968 037a AB        		.byte	0xab
 2969 037b 00        		.byte	0x0
 2970 037c 05        		.uleb128 0x5
 2971 037d 02        		.byte	0x2
 2972 037e 0000 0000 		.long	.LM93
 2973 0382 21        		.byte	0x21
 2974 0383 00        		.byte	0x0
 2975 0384 05        		.uleb128 0x5
 2976 0385 02        		.byte	0x2
 2977 0386 0000 0000 		.long	.LM94
 2978 038a 18        		.byte	0x18
 2979 038b 00        		.byte	0x0
 2980 038c 05        		.uleb128 0x5
 2981 038d 02        		.byte	0x2
 2982 038e 0000 0000 		.long	.LM95
 2983 0392 13        		.byte	0x13
GAS LISTING D:\DOCUME~1\alex\LOCALS~1\Temp/ccZpN2I0.s 			page 54


 2984 0393 00        		.byte	0x0
 2985 0394 05        		.uleb128 0x5
 2986 0395 02        		.byte	0x2
 2987 0396 0000 0000 		.long	.LM96
 2988 039a 22        		.byte	0x22
 2989 039b 00        		.byte	0x0
 2990 039c 05        		.uleb128 0x5
 2991 039d 02        		.byte	0x2
 2992 039e 0000 0000 		.long	.LM97
 2993 03a2 18        		.byte	0x18
 2994 03a3 00        		.byte	0x0
 2995 03a4 05        		.uleb128 0x5
 2996 03a5 02        		.byte	0x2
 2997 03a6 0000 0000 		.long	.LM98
 2998 03aa 13        		.byte	0x13
 2999 03ab 00        		.byte	0x0
 3000 03ac 05        		.uleb128 0x5
 3001 03ad 02        		.byte	0x2
 3002 03ae 0000 0000 		.long	.LM99
 3003 03b2 1E        		.byte	0x1e
 3004 03b3 00        		.byte	0x0
 3005 03b4 05        		.uleb128 0x5
 3006 03b5 02        		.byte	0x2
 3007 03b6 0000 0000 		.long	.LM100
 3008 03ba 1C        		.byte	0x1c
 3009 03bb 00        		.byte	0x0
 3010 03bc 05        		.uleb128 0x5
 3011 03bd 02        		.byte	0x2
 3012 03be 0000 0000 		.long	.LM101
 3013 03c2 23        		.byte	0x23
 3014 03c3 00        		.byte	0x0
 3015 03c4 05        		.uleb128 0x5
 3016 03c5 02        		.byte	0x2
 3017 03c6 0000 0000 		.long	.LM102
 3018 03ca 03        		.byte	0x3
 3019 03cb 73        		.sleb128 -13
 3020 03cc 01        		.byte	0x1
 3021 03cd 00        		.byte	0x0
 3022 03ce 05        		.uleb128 0x5
 3023 03cf 02        		.byte	0x2
 3024 03d0 0000 0000 		.long	.LM103
 3025 03d4 18        		.byte	0x18
 3026 03d5 00        		.byte	0x0
 3027 03d6 05        		.uleb128 0x5
 3028 03d7 02        		.byte	0x2
 3029 03d8 0000 0000 		.long	.LM104
 3030 03dc 16        		.byte	0x16
 3031 03dd 00        		.byte	0x0
 3032 03de 05        		.uleb128 0x5
 3033 03df 02        		.byte	0x2
 3034 03e0 0000 0000 		.long	.LM105
 3035 03e4 15        		.byte	0x15
 3036 03e5 00        		.byte	0x0
 3037 03e6 05        		.uleb128 0x5
 3038 03e7 02        		.byte	0x2
 3039 03e8 0000 0000 		.long	.LM106
 3040 03ec 19        		.byte	0x19
GAS LISTING D:\DOCUME~1\alex\LOCALS~1\Temp/ccZpN2I0.s 			page 55


 3041 03ed 00        		.byte	0x0
 3042 03ee 05        		.uleb128 0x5
 3043 03ef 02        		.byte	0x2
 3044 03f0 0000 0000 		.long	.LM107
 3045 03f4 15        		.byte	0x15
 3046 03f5 00        		.byte	0x0
 3047 03f6 05        		.uleb128 0x5
 3048 03f7 02        		.byte	0x2
 3049 03f8 0000 0000 		.long	.LM108
 3050 03fc 15        		.byte	0x15
 3051 03fd 00        		.byte	0x0
 3052 03fe 05        		.uleb128 0x5
 3053 03ff 02        		.byte	0x2
 3054 0400 0000 0000 		.long	.LM109
 3055 0404 17        		.byte	0x17
 3056 0405 00        		.byte	0x0
 3057 0406 05        		.uleb128 0x5
 3058 0407 02        		.byte	0x2
 3059 0408 0000 0000 		.long	.LM110
 3060 040c 15        		.byte	0x15
 3061 040d 00        		.byte	0x0
 3062 040e 05        		.uleb128 0x5
 3063 040f 02        		.byte	0x2
 3064 0410 0000 0000 		.long	.LM111
 3065 0414 17        		.byte	0x17
 3066 0415 00        		.byte	0x0
 3067 0416 05        		.uleb128 0x5
 3068 0417 02        		.byte	0x2
 3069 0418 0000 0000 		.long	.LM112
 3070 041c 15        		.byte	0x15
 3071 041d 00        		.byte	0x0
 3072 041e 05        		.uleb128 0x5
 3073 041f 02        		.byte	0x2
 3074 0420 0000 0000 		.long	.LM113
 3075 0424 17        		.byte	0x17
 3076 0425 00        		.byte	0x0
 3077 0426 05        		.uleb128 0x5
 3078 0427 02        		.byte	0x2
 3079 0428 0000 0000 		.long	.LM114
 3080 042c 03        		.byte	0x3
 3081 042d 66        		.sleb128 -26
 3082 042e 01        		.byte	0x1
 3083 042f 00        		.byte	0x0
 3084 0430 05        		.uleb128 0x5
 3085 0431 02        		.byte	0x2
 3086 0432 0000 0000 		.long	.LM115
 3087 0436 41        		.byte	0x41
 3088 0437 00        		.byte	0x0
 3089 0438 05        		.uleb128 0x5
 3090 0439 02        		.byte	0x2
 3091 043a 0000 0000 		.long	.LM116
 3092 043e 2E        		.byte	0x2e
 3093 043f 00        		.byte	0x0
 3094 0440 05        		.uleb128 0x5
 3095 0441 02        		.byte	0x2
 3096 0442 0000 0000 		.long	.LM117
 3097 0446 15        		.byte	0x15
GAS LISTING D:\DOCUME~1\alex\LOCALS~1\Temp/ccZpN2I0.s 			page 56


 3098 0447 00        		.byte	0x0
 3099 0448 05        		.uleb128 0x5
 3100 0449 02        		.byte	0x2
 3101 044a 0000 0000 		.long	.LM118
 3102 044e 15        		.byte	0x15
 3103 044f 00        		.byte	0x0
 3104 0450 05        		.uleb128 0x5
 3105 0451 02        		.byte	0x2
 3106 0452 0000 0000 		.long	.LM119
 3107 0456 15        		.byte	0x15
 3108 0457 00        		.byte	0x0
 3109 0458 05        		.uleb128 0x5
 3110 0459 02        		.byte	0x2
 3111 045a 0000 0000 		.long	.LM120
 3112 045e 15        		.byte	0x15
 3113 045f 00        		.byte	0x0
 3114 0460 05        		.uleb128 0x5
 3115 0461 02        		.byte	0x2
 3116 0462 0000 0000 		.long	.LM121
 3117 0466 15        		.byte	0x15
 3118 0467 00        		.byte	0x0
 3119 0468 05        		.uleb128 0x5
 3120 0469 02        		.byte	0x2
 3121 046a 0000 0000 		.long	.LM122
 3122 046e 15        		.byte	0x15
 3123 046f 00        		.byte	0x0
 3124 0470 05        		.uleb128 0x5
 3125 0471 02        		.byte	0x2
 3126 0472 0000 0000 		.long	.LM123
 3127 0476 03        		.byte	0x3
 3128 0477 F77B      		.sleb128 -521
 3129 0479 01        		.byte	0x1
 3130 047a 00        		.byte	0x0
 3131 047b 05        		.uleb128 0x5
 3132 047c 02        		.byte	0x2
 3133 047d 0000 0000 		.long	.LM124
 3134 0481 03        		.byte	0x3
 3135 0482 8E04      		.sleb128 526
 3136 0484 01        		.byte	0x1
 3137 0485 00        		.byte	0x0
 3138 0486 05        		.uleb128 0x5
 3139 0487 02        		.byte	0x2
 3140 0488 0000 0000 		.long	.LM125
 3141 048c 15        		.byte	0x15
 3142 048d 00        		.byte	0x0
 3143 048e 05        		.uleb128 0x5
 3144 048f 02        		.byte	0x2
 3145 0490 0000 0000 		.long	.LM126
 3146 0494 15        		.byte	0x15
 3147 0495 00        		.byte	0x0
 3148 0496 05        		.uleb128 0x5
 3149 0497 02        		.byte	0x2
 3150 0498 0000 0000 		.long	.LM127
 3151 049c 03        		.byte	0x3
 3152 049d F07B      		.sleb128 -528
 3153 049f 01        		.byte	0x1
 3154 04a0 00        		.byte	0x0
GAS LISTING D:\DOCUME~1\alex\LOCALS~1\Temp/ccZpN2I0.s 			page 57


 3155 04a1 05        		.uleb128 0x5
 3156 04a2 02        		.byte	0x2
 3157 04a3 0000 0000 		.long	.LM128
 3158 04a7 03        		.byte	0x3
 3159 04a8 9404      		.sleb128 532
 3160 04aa 01        		.byte	0x1
 3161 04ab 00        		.byte	0x0
 3162 04ac 05        		.uleb128 0x5
 3163 04ad 02        		.byte	0x2
 3164 04ae 0000 0000 		.long	.LM129
 3165 04b2 03        		.byte	0x3
 3166 04b3 EC7B      		.sleb128 -532
 3167 04b5 01        		.byte	0x1
 3168 04b6 00        		.byte	0x0
 3169 04b7 05        		.uleb128 0x5
 3170 04b8 02        		.byte	0x2
 3171 04b9 0000 0000 		.long	.LM130
 3172 04bd 03        		.byte	0x3
 3173 04be 9804      		.sleb128 536
 3174 04c0 01        		.byte	0x1
 3175 04c1 00        		.byte	0x0
 3176 04c2 05        		.uleb128 0x5
 3177 04c3 02        		.byte	0x2
 3178 04c4 0000 0000 		.long	.LM131
 3179 04c8 03        		.byte	0x3
 3180 04c9 E87B      		.sleb128 -536
 3181 04cb 01        		.byte	0x1
 3182 04cc 00        		.byte	0x0
 3183 04cd 05        		.uleb128 0x5
 3184 04ce 02        		.byte	0x2
 3185 04cf 0000 0000 		.long	.LM132
 3186 04d3 03        		.byte	0x3
 3187 04d4 9C04      		.sleb128 540
 3188 04d6 01        		.byte	0x1
 3189 04d7 00        		.byte	0x0
 3190 04d8 05        		.uleb128 0x5
 3191 04d9 02        		.byte	0x2
 3192 04da 0000 0000 		.long	.LM133
 3193 04de 15        		.byte	0x15
 3194 04df 00        		.byte	0x0
 3195 04e0 05        		.uleb128 0x5
 3196 04e1 02        		.byte	0x2
 3197 04e2 0000 0000 		.long	.LM134
 3198 04e6 03        		.byte	0x3
 3199 04e7 E37B      		.sleb128 -541
 3200 04e9 01        		.byte	0x1
 3201 04ea 00        		.byte	0x0
 3202 04eb 05        		.uleb128 0x5
 3203 04ec 02        		.byte	0x2
 3204 04ed 0000 0000 		.long	.LM135
 3205 04f1 03        		.byte	0x3
 3206 04f2 B904      		.sleb128 569
 3207 04f4 01        		.byte	0x1
 3208 04f5 00        		.byte	0x0
 3209 04f6 05        		.uleb128 0x5
 3210 04f7 02        		.byte	0x2
 3211 04f8 0000 0000 		.long	.LM136
GAS LISTING D:\DOCUME~1\alex\LOCALS~1\Temp/ccZpN2I0.s 			page 58


 3212 04fc 16        		.byte	0x16
 3213 04fd 00        		.byte	0x0
 3214 04fe 05        		.uleb128 0x5
 3215 04ff 02        		.byte	0x2
 3216 0500 0000 0000 		.long	.LM137
 3217 0504 15        		.byte	0x15
 3218 0505 00        		.byte	0x0
 3219 0506 05        		.uleb128 0x5
 3220 0507 02        		.byte	0x2
 3221 0508 0000 0000 		.long	.LM138
 3222 050c 15        		.byte	0x15
 3223 050d 00        		.byte	0x0
 3224 050e 05        		.uleb128 0x5
 3225 050f 02        		.byte	0x2
 3226 0510 0000 0000 		.long	.LM139
 3227 0514 15        		.byte	0x15
 3228 0515 00        		.byte	0x0
 3229 0516 05        		.uleb128 0x5
 3230 0517 02        		.byte	0x2
 3231 0518 0000 0000 		.long	.Letext0
 3232 051c 00        		.byte	0x0
 3233 051d 01        		.uleb128 0x1
 3234 051e 01        		.byte	0x1
 3235               	.LELT0:
 3236 051f 1900 0000 		.section	.debug_str,"MS",@progbits,1
 3236      0200 1300 
 3236      0000 0101 
 3236      FB0E 0D00 
 3236      0101 0101 
 3237               	.LASF22:
 3238 0000 6C63 645F 		.string	"lcd_newline"
 3238      6E65 776C 
 3238      696E 6500 
 3239               	.LASF27:
 3240 000c 6C63 645F 		.string	"lcd_puts"
 3240      7075 7473 
 3240      00
 3241               	.LASF15:
 3242 0015 6C63 645F 		.string	"lcd_backlight"
 3242      6261 636B 
 3242      6C69 6768 
 3242      7400 
 3243               	.LASF18:
 3244 0023 6C63 645F 		.string	"lcd_gotoxy"
 3244      676F 746F 
 3244      7879 00
 3245               	.LASF44:
 3246 002e 6C63 645F 		.string	"lcd_init"
 3246      696E 6974 
 3246      00
 3247               	.LASF35:
 3248 0037 7576 616C 		.string	"uval"
 3248      00
 3249               	.LASF23:
 3250 003c 5F5F 636F 		.string	"__count"
 3250      756E 7400 
 3251               	.LASF10:
GAS LISTING D:\DOCUME~1\alex\LOCALS~1\Temp/ccZpN2I0.s 			page 59


 3252 0044 7661 5F6C 		.string	"va_list"
 3252      6973 7400 
 3253               	.LASF37:
 3254 004c 474E 5520 		.string	"GNU C 4.2.2 (WinAVR 20071221)"
 3254      4320 342E 
 3254      322E 3220 
 3254      2857 696E 
 3254      4156 5220 
 3255               	.LASF42:
 3256 006a 6C63 645F 		.string	"lcd_write"
 3256      7772 6974 
 3256      6500 
 3257               	.LASF2:
 3258 0074 7569 6E74 		.string	"uint8_t"
 3258      385F 7400 
 3259               	.LASF41:
 3260 007c 746F 6767 		.string	"toggle_e"
 3260      6C65 5F65 
 3260      00
 3261               	.LASF14:
 3262 0085 6461 7461 		.string	"dataBits"
 3262      4269 7473 
 3262      00
 3263               	.LASF12:
 3264 008e 6C63 645F 		.string	"lcd_read"
 3264      7265 6164 
 3264      00
 3265               	.LASF30:
 3266 0097 5F5F 6164 		.string	"__addr16"
 3266      6472 3136 
 3266      00
 3267               	.LASF16:
 3268 00a0 6C63 645F 		.string	"lcd_command"
 3268      636F 6D6D 
 3268      616E 6400 
 3269               	.LASF39:
 3270 00ac 453A 5C61 		.string	"E:\\avr\\serial_lcd"
 3270      7672 5C73 
 3270      6572 6961 
 3270      6C5F 6C63 
 3270      6400 
 3271               	.LASF7:
 3272 00be 6C6F 6E67 		.string	"long long int"
 3272      206C 6F6E 
 3272      6720 696E 
 3272      7400 
 3273               	.LASF5:
 3274 00cc 6C6F 6E67 		.string	"long int"
 3274      2069 6E74 
 3274      00
 3275               	.LASF19:
 3276 00d5 6C63 645F 		.string	"lcd_clrscr"
 3276      636C 7273 
 3276      6372 00
 3277               	.LASF17:
 3278 00e0 6C63 645F 		.string	"lcd_data"
 3278      6461 7461 
GAS LISTING D:\DOCUME~1\alex\LOCALS~1\Temp/ccZpN2I0.s 			page 60


 3278      00
 3279               	.LASF29:
 3280 00e9 7072 6F67 		.string	"progmem_s"
 3280      6D65 6D5F 
 3280      7300 
 3281               	.LASF1:
 3282 00f3 756E 7369 		.string	"unsigned char"
 3282      676E 6564 
 3282      2063 6861 
 3282      7200 
 3283               	.LASF43:
 3284 0101 6C63 645F 		.string	"lcd_getxy"
 3284      6765 7478 
 3284      7900 
 3285               	.LASF0:
 3286 010b 7369 676E 		.string	"signed char"
 3286      6564 2063 
 3286      6861 7200 
 3287               	.LASF13:
 3288 0117 6C63 645F 		.string	"lcd_waitbusy"
 3288      7761 6974 
 3288      6275 7379 
 3288      00
 3289               	.LASF8:
 3290 0124 6C6F 6E67 		.string	"long long unsigned int"
 3290      206C 6F6E 
 3290      6720 756E 
 3290      7369 676E 
 3290      6564 2069 
 3291               	.LASF4:
 3292 013b 756E 7369 		.string	"unsigned int"
 3292      676E 6564 
 3292      2069 6E74 
 3292      00
 3293               	.LASF3:
 3294 0148 7569 6E74 		.string	"uint16_t"
 3294      3136 5F74 
 3294      00
 3295               	.LASF31:
 3296 0151 5F5F 7265 		.string	"__result"
 3296      7375 6C74 
 3296      00
 3297               	.LASF21:
 3298 015a 5F64 656C 		.string	"_delayFourCycles"
 3298      6179 466F 
 3298      7572 4379 
 3298      636C 6573 
 3298      00
 3299               	.LASF26:
 3300 016b 6368 6172 		.string	"char"
 3300      00
 3301               	.LASF32:
 3302 0170 6C63 645F 		.string	"lcd_printf"
 3302      7072 696E 
 3302      7466 00
 3303               	.LASF33:
 3304 017b 7376 616C 		.string	"sval"
GAS LISTING D:\DOCUME~1\alex\LOCALS~1\Temp/ccZpN2I0.s 			page 61


 3304      00
 3305               	.LASF38:
 3306 0180 6C63 642E 		.string	"lcd.c"
 3306      6300 
 3307               	.LASF11:
 3308 0186 6461 7461 		.string	"data"
 3308      00
 3309               	.LASF20:
 3310 018b 6C63 645F 		.string	"lcd_home"
 3310      686F 6D65 
 3310      00
 3311               	.LASF6:
 3312 0194 6C6F 6E67 		.string	"long unsigned int"
 3312      2075 6E73 
 3312      6967 6E65 
 3312      6420 696E 
 3312      7400 
 3313               	.LASF40:
 3314 01a6 5F5F 6275 		.string	"__builtin_va_list"
 3314      696C 7469 
 3314      6E5F 7661 
 3314      5F6C 6973 
 3314      7400 
 3315               	.LASF28:
 3316 01b8 6C63 645F 		.string	"lcd_puts_p"
 3316      7075 7473 
 3316      5F70 00
 3317               	.LASF36:
 3318 01c3 6469 7370 		.string	"dispAttr"
 3318      4174 7472 
 3318      00
 3319               	.LASF9:
 3320 01cc 5F5F 676E 		.string	"__gnuc_va_list"
 3320      7563 5F76 
 3320      615F 6C69 
 3320      7374 00
 3321               	.LASF24:
 3322 01db 6164 6472 		.string	"addressCounter"
 3322      6573 7343 
 3322      6F75 6E74 
 3322      6572 00
 3323               	.LASF34:
 3324 01ea 6976 616C 		.string	"ival"
 3324      00
 3325               	.LASF25:
 3326 01ef 6C63 645F 		.string	"lcd_putc"
 3326      7075 7463 
 3326      00
 3327               	/* File "lcd.c": code  381 = 0x017d ( 317), prologues  26, epilogues  38 */
GAS LISTING D:\DOCUME~1\alex\LOCALS~1\Temp/ccZpN2I0.s 			page 62


DEFINED SYMBOLS
                            *ABS*:00000000 lcd.c
D:\DOCUME~1\alex\LOCALS~1\Temp/ccZpN2I0.s:2      *ABS*:0000003f __SREG__
D:\DOCUME~1\alex\LOCALS~1\Temp/ccZpN2I0.s:3      *ABS*:0000003e __SP_H__
D:\DOCUME~1\alex\LOCALS~1\Temp/ccZpN2I0.s:4      *ABS*:0000003d __SP_L__
D:\DOCUME~1\alex\LOCALS~1\Temp/ccZpN2I0.s:5      *ABS*:00000000 __tmp_reg__
D:\DOCUME~1\alex\LOCALS~1\Temp/ccZpN2I0.s:6      *ABS*:00000001 __zero_reg__
D:\DOCUME~1\alex\LOCALS~1\Temp/ccZpN2I0.s:18     .text:00000000 toggle_e
D:\DOCUME~1\alex\LOCALS~1\Temp/ccZpN2I0.s:39     .text:00000008 lcd_write
D:\DOCUME~1\alex\LOCALS~1\Temp/ccZpN2I0.s:139    .text:00000064 lcd_read
D:\DOCUME~1\alex\LOCALS~1\Temp/ccZpN2I0.s:237    .text:000000b0 lcd_waitbusy
D:\DOCUME~1\alex\LOCALS~1\Temp/ccZpN2I0.s:274    .text:000000c8 lcd_backlight
D:\DOCUME~1\alex\LOCALS~1\Temp/ccZpN2I0.s:298    .text:000000d4 lcd_command
D:\DOCUME~1\alex\LOCALS~1\Temp/ccZpN2I0.s:322    .text:000000e4 lcd_data
D:\DOCUME~1\alex\LOCALS~1\Temp/ccZpN2I0.s:346    .text:000000f4 lcd_gotoxy
D:\DOCUME~1\alex\LOCALS~1\Temp/ccZpN2I0.s:376    .text:00000102 lcd_getxy
D:\DOCUME~1\alex\LOCALS~1\Temp/ccZpN2I0.s:393    .text:00000108 lcd_clrscr
D:\DOCUME~1\alex\LOCALS~1\Temp/ccZpN2I0.s:409    .text:0000010e lcd_home
D:\DOCUME~1\alex\LOCALS~1\Temp/ccZpN2I0.s:425    .text:00000114 lcd_putc
D:\DOCUME~1\alex\LOCALS~1\Temp/ccZpN2I0.s:475    .text:00000138 lcd_puts
D:\DOCUME~1\alex\LOCALS~1\Temp/ccZpN2I0.s:506    .text:0000014e lcd_puts_p
D:\DOCUME~1\alex\LOCALS~1\Temp/ccZpN2I0.s:545    .text:00000168 lcd_printf
D:\DOCUME~1\alex\LOCALS~1\Temp/ccZpN2I0.s:699    .text:00000242 lcd_init

UNDEFINED SYMBOLS
__do_copy_data
__do_clear_bss
utoa
itoa
