GAS LISTING C:\Users\alex\AppData\Local\Temp/ccyALXvz.s 			page 1


   1               		.file	"cat4016.c"
   2               	__SREG__ = 0x3f
   3               	__SP_H__ = 0x3e
   4               	__SP_L__ = 0x3d
   5               	__CCP__  = 0x34
   6               	__tmp_reg__ = 0
   7               	__zero_reg__ = 1
   8               		.section	.debug_abbrev,"",@progbits
   9               	.Ldebug_abbrev0:
  10               		.section	.debug_info,"",@progbits
  11               	.Ldebug_info0:
  12               		.section	.debug_line,"",@progbits
  13               	.Ldebug_line0:
  14               		.text
  15               	.Ltext0:
  16               	.global	numbers
  17               		.data
  18               		.type	numbers, @object
  19               		.size	numbers, 11
  20               	numbers:
  21 0000 3F        		.byte	63
  22 0001 06        		.byte	6
  23 0002 5B        		.byte	91
  24 0003 4F        		.byte	79
  25 0004 66        		.byte	102
  26 0005 6D        		.byte	109
  27 0006 7D        		.byte	125
  28 0007 07        		.byte	7
  29 0008 7F        		.byte	127
  30 0009 6F        		.byte	111
  31 000a 00        		.byte	0
  32               	.global	hex_numbers
  33               		.type	hex_numbers, @object
  34               		.size	hex_numbers, 16
  35               	hex_numbers:
  36 000b 3F        		.byte	63
  37 000c 06        		.byte	6
  38 000d 5B        		.byte	91
  39 000e 4F        		.byte	79
  40 000f 66        		.byte	102
  41 0010 6D        		.byte	109
  42 0011 7D        		.byte	125
  43 0012 07        		.byte	7
  44 0013 7F        		.byte	127
  45 0014 6F        		.byte	111
  46 0015 5F        		.byte	95
  47 0016 7C        		.byte	124
  48 0017 58        		.byte	88
  49 0018 5E        		.byte	94
  50 0019 7B        		.byte	123
  51 001a 71        		.byte	113
  52               	.global	letters
  53               		.type	letters, @object
  54               		.size	letters, 27
  55               	letters:
  56 001b 5F        		.byte	95
  57 001c 7C        		.byte	124
GAS LISTING C:\Users\alex\AppData\Local\Temp/ccyALXvz.s 			page 2


  58 001d 58        		.byte	88
  59 001e 5E        		.byte	94
  60 001f 7B        		.byte	123
  61 0020 71        		.byte	113
  62 0021 6F        		.byte	111
  63 0022 74        		.byte	116
  64 0023 04        		.byte	4
  65 0024 0C        		.byte	12
  66 0025 76        		.byte	118
  67 0026 38        		.byte	56
  68 0027 54        		.byte	84
  69 0028 54        		.byte	84
  70 0029 5C        		.byte	92
  71 002a 73        		.byte	115
  72 002b 67        		.byte	103
  73 002c 50        		.byte	80
  74 002d 6D        		.byte	109
  75 002e 78        		.byte	120
  76 002f 1C        		.byte	28
  77 0030 3E        		.byte	62
  78 0031 7E        		.byte	126
  79 0032 76        		.byte	118
  80 0033 6E        		.byte	110
  81 0034 5B        		.byte	91
  82 0035 00        		.byte	0
  83               	.global	special_up
  84               		.type	special_up, @object
  85               		.size	special_up, 27
  86               	special_up:
  87 0036 61        		.byte	97
  88 0037 23        		.byte	35
  89 0038 43        		.byte	67
  90 0039 62        		.byte	98
  91 003a 0000 0000 		.skip 23,0
  91      0000 0000 
  91      0000 0000 
  91      0000 0000 
  91      0000 0000 
  92               	.global	special_down
  93               		.type	special_down, @object
  94               		.size	special_down, 27
  95               	special_down:
  96 0051 4C        		.byte	76
  97 0052 54        		.byte	84
  98 0053 58        		.byte	88
  99 0054 1C        		.byte	28
 100 0055 0000 0000 		.skip 23,0
 100      0000 0000 
 100      0000 0000 
 100      0000 0000 
 100      0000 0000 
 101               	.global	special_updown
 102               		.type	special_updown, @object
 103               		.size	special_updown, 6
 104               	special_updown:
 105 006c 3E        		.byte	62
 106 006d 3D        		.byte	61
GAS LISTING C:\Users\alex\AppData\Local\Temp/ccyALXvz.s 			page 3


 107 006e 3B        		.byte	59
 108 006f 37        		.byte	55
 109 0070 2F        		.byte	47
 110 0071 1F        		.byte	31
 111               		.text
 112               	.global	init_cat4016
 113               		.type	init_cat4016, @function
 114               	init_cat4016:
 115               	.LFB2:
 116               	.LM1:
 117 0000 0F93      		push r16
 118 0002 DF93      		push r29
 119 0004 CF93      		push r28
 120 0006 CDB7      		in r28,__SP_L__
 121 0008 DEB7      		in r29,__SP_H__
 122 000a 2B97      		sbiw r28,11
 123 000c 0FB6      		in __tmp_reg__,__SREG__
 124 000e F894      		cli
 125 0010 DEBF      		out __SP_H__,r29
 126 0012 0FBE      		out __SREG__,__tmp_reg__
 127 0014 CDBF      		out __SP_L__,r28
 128               	/* prologue: function */
 129               	/* frame size = 11 */
 130 0016 8F83      		std Y+7,r24
 131 0018 6887      		std Y+8,r22
 132 001a 4987      		std Y+9,r20
 133 001c 2A87      		std Y+10,r18
 134 001e 0B87      		std Y+11,r16
 135               	.LM2:
 136 0020 8885      		ldd r24,Y+8
 137 0022 882F      		mov r24,r24
 138 0024 90E0      		ldi r25,lo8(0)
 139 0026 9C01      		movw r18,r24
 140 0028 2F70      		andi r18,lo8(15)
 141 002a 3070      		andi r19,hi8(15)
 142 002c 81E0      		ldi r24,lo8(1)
 143 002e 90E0      		ldi r25,hi8(1)
 144 0030 00C0      		rjmp 2f
 145 0032 880F      	1:	lsl r24
 146 0034 991F      		rol r25
 147 0036 2A95      	2:	dec r18
 148 0038 02F4      		brpl 1b
 149 003a 8E83      		std Y+6,r24
 150               	.LM3:
 151 003c 8F81      		ldd r24,Y+7
 152 003e 882F      		mov r24,r24
 153 0040 90E0      		ldi r25,lo8(0)
 154 0042 FC01      		movw r30,r24
 155 0044 E050      		subi r30,lo8(-(cat4016_b_clk))
 156 0046 F040      		sbci r31,hi8(-(cat4016_b_clk))
 157 0048 8E81      		ldd r24,Y+6
 158 004a 8083      		st Z,r24
 159               	.LM4:
 160 004c 8A85      		ldd r24,Y+10
 161 004e 882F      		mov r24,r24
 162 0050 90E0      		ldi r25,lo8(0)
 163 0052 9C01      		movw r18,r24
GAS LISTING C:\Users\alex\AppData\Local\Temp/ccyALXvz.s 			page 4


 164 0054 2F70      		andi r18,lo8(15)
 165 0056 3070      		andi r19,hi8(15)
 166 0058 81E0      		ldi r24,lo8(1)
 167 005a 90E0      		ldi r25,hi8(1)
 168 005c 00C0      		rjmp 2f
 169 005e 880F      	1:	lsl r24
 170 0060 991F      		rol r25
 171 0062 2A95      	2:	dec r18
 172 0064 02F4      		brpl 1b
 173 0066 8C83      		std Y+4,r24
 174               	.LM5:
 175 0068 8F81      		ldd r24,Y+7
 176 006a 882F      		mov r24,r24
 177 006c 90E0      		ldi r25,lo8(0)
 178 006e FC01      		movw r30,r24
 179 0070 E050      		subi r30,lo8(-(cat4016_b_data))
 180 0072 F040      		sbci r31,hi8(-(cat4016_b_data))
 181 0074 8C81      		ldd r24,Y+4
 182 0076 8083      		st Z,r24
 183               	.LM6:
 184 0078 8985      		ldd r24,Y+9
 185 007a 882F      		mov r24,r24
 186 007c 90E0      		ldi r25,lo8(0)
 187 007e 9C01      		movw r18,r24
 188 0080 2F70      		andi r18,lo8(15)
 189 0082 3070      		andi r19,hi8(15)
 190 0084 81E0      		ldi r24,lo8(1)
 191 0086 90E0      		ldi r25,hi8(1)
 192 0088 00C0      		rjmp 2f
 193 008a 880F      	1:	lsl r24
 194 008c 991F      		rol r25
 195 008e 2A95      	2:	dec r18
 196 0090 02F4      		brpl 1b
 197 0092 8D83      		std Y+5,r24
 198               	.LM7:
 199 0094 8F81      		ldd r24,Y+7
 200 0096 882F      		mov r24,r24
 201 0098 90E0      		ldi r25,lo8(0)
 202 009a FC01      		movw r30,r24
 203 009c E050      		subi r30,lo8(-(cat4016_b_latch))
 204 009e F040      		sbci r31,hi8(-(cat4016_b_latch))
 205 00a0 8D81      		ldd r24,Y+5
 206 00a2 8083      		st Z,r24
 207               	.LM8:
 208 00a4 8B85      		ldd r24,Y+11
 209 00a6 882F      		mov r24,r24
 210 00a8 90E0      		ldi r25,lo8(0)
 211 00aa 9C01      		movw r18,r24
 212 00ac 2F70      		andi r18,lo8(15)
 213 00ae 3070      		andi r19,hi8(15)
 214 00b0 81E0      		ldi r24,lo8(1)
 215 00b2 90E0      		ldi r25,hi8(1)
 216 00b4 022E      		mov r0,r18
 217 00b6 00C0      		rjmp 2f
 218 00b8 880F      	1:	lsl r24
 219 00ba 991F      		rol r25
 220 00bc 0A94      	2:	dec r0
GAS LISTING C:\Users\alex\AppData\Local\Temp/ccyALXvz.s 			page 5


 221 00be 02F4      		brpl 1b
 222 00c0 8B83      		std Y+3,r24
 223               	.LM9:
 224 00c2 8F81      		ldd r24,Y+7
 225 00c4 882F      		mov r24,r24
 226 00c6 90E0      		ldi r25,lo8(0)
 227 00c8 FC01      		movw r30,r24
 228 00ca E050      		subi r30,lo8(-(cat4016_b_blank))
 229 00cc F040      		sbci r31,hi8(-(cat4016_b_blank))
 230 00ce 8B81      		ldd r24,Y+3
 231 00d0 8083      		st Z,r24
 232               	.LM10:
 233 00d2 8885      		ldd r24,Y+8
 234 00d4 807F      		andi r24,lo8(-16)
 235 00d6 8887      		std Y+8,r24
 236               	.LM11:
 237 00d8 8885      		ldd r24,Y+8
 238 00da 8823      		tst r24
 239 00dc 01F4      		brne .L2
 240 00de 8F81      		ldd r24,Y+7
 241 00e0 882F      		mov r24,r24
 242 00e2 90E0      		ldi r25,lo8(0)
 243 00e4 880F      		lsl r24
 244 00e6 991F      		rol r25
 245 00e8 FC01      		movw r30,r24
 246 00ea E050      		subi r30,lo8(-(cat4016_p_clk))
 247 00ec F040      		sbci r31,hi8(-(cat4016_p_clk))
 248 00ee 8BE3      		ldi r24,lo8(59)
 249 00f0 90E0      		ldi r25,hi8(59)
 250 00f2 9183      		std Z+1,r25
 251 00f4 8083      		st Z,r24
 252 00f6 AAE3      		ldi r26,lo8(58)
 253 00f8 B0E0      		ldi r27,hi8(58)
 254 00fa EAE3      		ldi r30,lo8(58)
 255 00fc F0E0      		ldi r31,hi8(58)
 256 00fe 9081      		ld r25,Z
 257 0100 8E81      		ldd r24,Y+6
 258 0102 892B      		or r24,r25
 259 0104 8C93      		st X,r24
 260               	.L2:
 261               	.LM12:
 262 0106 8885      		ldd r24,Y+8
 263 0108 8031      		cpi r24,lo8(16)
 264 010a 01F4      		brne .L3
 265 010c 8F81      		ldd r24,Y+7
 266 010e 882F      		mov r24,r24
 267 0110 90E0      		ldi r25,lo8(0)
 268 0112 880F      		lsl r24
 269 0114 991F      		rol r25
 270 0116 FC01      		movw r30,r24
 271 0118 E050      		subi r30,lo8(-(cat4016_p_clk))
 272 011a F040      		sbci r31,hi8(-(cat4016_p_clk))
 273 011c 88E3      		ldi r24,lo8(56)
 274 011e 90E0      		ldi r25,hi8(56)
 275 0120 9183      		std Z+1,r25
 276 0122 8083      		st Z,r24
 277 0124 A7E3      		ldi r26,lo8(55)
GAS LISTING C:\Users\alex\AppData\Local\Temp/ccyALXvz.s 			page 6


 278 0126 B0E0      		ldi r27,hi8(55)
 279 0128 E7E3      		ldi r30,lo8(55)
 280 012a F0E0      		ldi r31,hi8(55)
 281 012c 9081      		ld r25,Z
 282 012e 8E81      		ldd r24,Y+6
 283 0130 892B      		or r24,r25
 284 0132 8C93      		st X,r24
 285               	.L3:
 286               	.LM13:
 287 0134 8885      		ldd r24,Y+8
 288 0136 8032      		cpi r24,lo8(32)
 289 0138 01F4      		brne .L4
 290 013a 8F81      		ldd r24,Y+7
 291 013c 882F      		mov r24,r24
 292 013e 90E0      		ldi r25,lo8(0)
 293 0140 880F      		lsl r24
 294 0142 991F      		rol r25
 295 0144 FC01      		movw r30,r24
 296 0146 E050      		subi r30,lo8(-(cat4016_p_clk))
 297 0148 F040      		sbci r31,hi8(-(cat4016_p_clk))
 298 014a 85E3      		ldi r24,lo8(53)
 299 014c 90E0      		ldi r25,hi8(53)
 300 014e 9183      		std Z+1,r25
 301 0150 8083      		st Z,r24
 302 0152 A4E3      		ldi r26,lo8(52)
 303 0154 B0E0      		ldi r27,hi8(52)
 304 0156 E4E3      		ldi r30,lo8(52)
 305 0158 F0E0      		ldi r31,hi8(52)
 306 015a 9081      		ld r25,Z
 307 015c 8E81      		ldd r24,Y+6
 308 015e 892B      		or r24,r25
 309 0160 8C93      		st X,r24
 310               	.L4:
 311               	.LM14:
 312 0162 8885      		ldd r24,Y+8
 313 0164 8033      		cpi r24,lo8(48)
 314 0166 01F4      		brne .L5
 315 0168 8F81      		ldd r24,Y+7
 316 016a 882F      		mov r24,r24
 317 016c 90E0      		ldi r25,lo8(0)
 318 016e 880F      		lsl r24
 319 0170 991F      		rol r25
 320 0172 FC01      		movw r30,r24
 321 0174 E050      		subi r30,lo8(-(cat4016_p_clk))
 322 0176 F040      		sbci r31,hi8(-(cat4016_p_clk))
 323 0178 82E3      		ldi r24,lo8(50)
 324 017a 90E0      		ldi r25,hi8(50)
 325 017c 9183      		std Z+1,r25
 326 017e 8083      		st Z,r24
 327 0180 A1E3      		ldi r26,lo8(49)
 328 0182 B0E0      		ldi r27,hi8(49)
 329 0184 E1E3      		ldi r30,lo8(49)
 330 0186 F0E0      		ldi r31,hi8(49)
 331 0188 9081      		ld r25,Z
 332 018a 8E81      		ldd r24,Y+6
 333 018c 892B      		or r24,r25
 334 018e 8C93      		st X,r24
GAS LISTING C:\Users\alex\AppData\Local\Temp/ccyALXvz.s 			page 7


 335               	.L5:
 336               	.LM15:
 337 0190 8A85      		ldd r24,Y+10
 338 0192 807F      		andi r24,lo8(-16)
 339 0194 8A87      		std Y+10,r24
 340               	.LM16:
 341 0196 8A85      		ldd r24,Y+10
 342 0198 8823      		tst r24
 343 019a 01F4      		brne .L6
 344 019c 8F81      		ldd r24,Y+7
 345 019e 882F      		mov r24,r24
 346 01a0 90E0      		ldi r25,lo8(0)
 347 01a2 880F      		lsl r24
 348 01a4 991F      		rol r25
 349 01a6 FC01      		movw r30,r24
 350 01a8 E050      		subi r30,lo8(-(cat4016_p_data))
 351 01aa F040      		sbci r31,hi8(-(cat4016_p_data))
 352 01ac 8BE3      		ldi r24,lo8(59)
 353 01ae 90E0      		ldi r25,hi8(59)
 354 01b0 9183      		std Z+1,r25
 355 01b2 8083      		st Z,r24
 356 01b4 AAE3      		ldi r26,lo8(58)
 357 01b6 B0E0      		ldi r27,hi8(58)
 358 01b8 EAE3      		ldi r30,lo8(58)
 359 01ba F0E0      		ldi r31,hi8(58)
 360 01bc 9081      		ld r25,Z
 361 01be 8C81      		ldd r24,Y+4
 362 01c0 892B      		or r24,r25
 363 01c2 8C93      		st X,r24
 364               	.L6:
 365               	.LM17:
 366 01c4 8A85      		ldd r24,Y+10
 367 01c6 8031      		cpi r24,lo8(16)
 368 01c8 01F4      		brne .L7
 369 01ca 8F81      		ldd r24,Y+7
 370 01cc 882F      		mov r24,r24
 371 01ce 90E0      		ldi r25,lo8(0)
 372 01d0 880F      		lsl r24
 373 01d2 991F      		rol r25
 374 01d4 FC01      		movw r30,r24
 375 01d6 E050      		subi r30,lo8(-(cat4016_p_data))
 376 01d8 F040      		sbci r31,hi8(-(cat4016_p_data))
 377 01da 88E3      		ldi r24,lo8(56)
 378 01dc 90E0      		ldi r25,hi8(56)
 379 01de 9183      		std Z+1,r25
 380 01e0 8083      		st Z,r24
 381 01e2 A7E3      		ldi r26,lo8(55)
 382 01e4 B0E0      		ldi r27,hi8(55)
 383 01e6 E7E3      		ldi r30,lo8(55)
 384 01e8 F0E0      		ldi r31,hi8(55)
 385 01ea 9081      		ld r25,Z
 386 01ec 8C81      		ldd r24,Y+4
 387 01ee 892B      		or r24,r25
 388 01f0 8C93      		st X,r24
 389               	.L7:
 390               	.LM18:
 391 01f2 8A85      		ldd r24,Y+10
GAS LISTING C:\Users\alex\AppData\Local\Temp/ccyALXvz.s 			page 8


 392 01f4 8032      		cpi r24,lo8(32)
 393 01f6 01F4      		brne .L8
 394 01f8 8F81      		ldd r24,Y+7
 395 01fa 882F      		mov r24,r24
 396 01fc 90E0      		ldi r25,lo8(0)
 397 01fe 880F      		lsl r24
 398 0200 991F      		rol r25
 399 0202 FC01      		movw r30,r24
 400 0204 E050      		subi r30,lo8(-(cat4016_p_data))
 401 0206 F040      		sbci r31,hi8(-(cat4016_p_data))
 402 0208 85E3      		ldi r24,lo8(53)
 403 020a 90E0      		ldi r25,hi8(53)
 404 020c 9183      		std Z+1,r25
 405 020e 8083      		st Z,r24
 406 0210 A4E3      		ldi r26,lo8(52)
 407 0212 B0E0      		ldi r27,hi8(52)
 408 0214 E4E3      		ldi r30,lo8(52)
 409 0216 F0E0      		ldi r31,hi8(52)
 410 0218 9081      		ld r25,Z
 411 021a 8C81      		ldd r24,Y+4
 412 021c 892B      		or r24,r25
 413 021e 8C93      		st X,r24
 414               	.L8:
 415               	.LM19:
 416 0220 8A85      		ldd r24,Y+10
 417 0222 8033      		cpi r24,lo8(48)
 418 0224 01F4      		brne .L9
 419 0226 8F81      		ldd r24,Y+7
 420 0228 882F      		mov r24,r24
 421 022a 90E0      		ldi r25,lo8(0)
 422 022c 880F      		lsl r24
 423 022e 991F      		rol r25
 424 0230 FC01      		movw r30,r24
 425 0232 E050      		subi r30,lo8(-(cat4016_p_data))
 426 0234 F040      		sbci r31,hi8(-(cat4016_p_data))
 427 0236 82E3      		ldi r24,lo8(50)
 428 0238 90E0      		ldi r25,hi8(50)
 429 023a 9183      		std Z+1,r25
 430 023c 8083      		st Z,r24
 431 023e A1E3      		ldi r26,lo8(49)
 432 0240 B0E0      		ldi r27,hi8(49)
 433 0242 E1E3      		ldi r30,lo8(49)
 434 0244 F0E0      		ldi r31,hi8(49)
 435 0246 9081      		ld r25,Z
 436 0248 8C81      		ldd r24,Y+4
 437 024a 892B      		or r24,r25
 438 024c 8C93      		st X,r24
 439               	.L9:
 440               	.LM20:
 441 024e 8985      		ldd r24,Y+9
 442 0250 807F      		andi r24,lo8(-16)
 443 0252 8987      		std Y+9,r24
 444               	.LM21:
 445 0254 8985      		ldd r24,Y+9
 446 0256 8823      		tst r24
 447 0258 01F4      		brne .L10
 448 025a 8F81      		ldd r24,Y+7
GAS LISTING C:\Users\alex\AppData\Local\Temp/ccyALXvz.s 			page 9


 449 025c 882F      		mov r24,r24
 450 025e 90E0      		ldi r25,lo8(0)
 451 0260 880F      		lsl r24
 452 0262 991F      		rol r25
 453 0264 FC01      		movw r30,r24
 454 0266 E050      		subi r30,lo8(-(cat4016_p_latch))
 455 0268 F040      		sbci r31,hi8(-(cat4016_p_latch))
 456 026a 8BE3      		ldi r24,lo8(59)
 457 026c 90E0      		ldi r25,hi8(59)
 458 026e 9183      		std Z+1,r25
 459 0270 8083      		st Z,r24
 460 0272 AAE3      		ldi r26,lo8(58)
 461 0274 B0E0      		ldi r27,hi8(58)
 462 0276 EAE3      		ldi r30,lo8(58)
 463 0278 F0E0      		ldi r31,hi8(58)
 464 027a 9081      		ld r25,Z
 465 027c 8D81      		ldd r24,Y+5
 466 027e 892B      		or r24,r25
 467 0280 8C93      		st X,r24
 468               	.L10:
 469               	.LM22:
 470 0282 8985      		ldd r24,Y+9
 471 0284 8031      		cpi r24,lo8(16)
 472 0286 01F4      		brne .L11
 473 0288 8F81      		ldd r24,Y+7
 474 028a 882F      		mov r24,r24
 475 028c 90E0      		ldi r25,lo8(0)
 476 028e 880F      		lsl r24
 477 0290 991F      		rol r25
 478 0292 FC01      		movw r30,r24
 479 0294 E050      		subi r30,lo8(-(cat4016_p_latch))
 480 0296 F040      		sbci r31,hi8(-(cat4016_p_latch))
 481 0298 88E3      		ldi r24,lo8(56)
 482 029a 90E0      		ldi r25,hi8(56)
 483 029c 9183      		std Z+1,r25
 484 029e 8083      		st Z,r24
 485 02a0 A7E3      		ldi r26,lo8(55)
 486 02a2 B0E0      		ldi r27,hi8(55)
 487 02a4 E7E3      		ldi r30,lo8(55)
 488 02a6 F0E0      		ldi r31,hi8(55)
 489 02a8 9081      		ld r25,Z
 490 02aa 8D81      		ldd r24,Y+5
 491 02ac 892B      		or r24,r25
 492 02ae 8C93      		st X,r24
 493               	.L11:
 494               	.LM23:
 495 02b0 8985      		ldd r24,Y+9
 496 02b2 8032      		cpi r24,lo8(32)
 497 02b4 01F4      		brne .L12
 498 02b6 8F81      		ldd r24,Y+7
 499 02b8 882F      		mov r24,r24
 500 02ba 90E0      		ldi r25,lo8(0)
 501 02bc 880F      		lsl r24
 502 02be 991F      		rol r25
 503 02c0 FC01      		movw r30,r24
 504 02c2 E050      		subi r30,lo8(-(cat4016_p_latch))
 505 02c4 F040      		sbci r31,hi8(-(cat4016_p_latch))
GAS LISTING C:\Users\alex\AppData\Local\Temp/ccyALXvz.s 			page 10


 506 02c6 85E3      		ldi r24,lo8(53)
 507 02c8 90E0      		ldi r25,hi8(53)
 508 02ca 9183      		std Z+1,r25
 509 02cc 8083      		st Z,r24
 510 02ce A4E3      		ldi r26,lo8(52)
 511 02d0 B0E0      		ldi r27,hi8(52)
 512 02d2 E4E3      		ldi r30,lo8(52)
 513 02d4 F0E0      		ldi r31,hi8(52)
 514 02d6 9081      		ld r25,Z
 515 02d8 8D81      		ldd r24,Y+5
 516 02da 892B      		or r24,r25
 517 02dc 8C93      		st X,r24
 518               	.L12:
 519               	.LM24:
 520 02de 8985      		ldd r24,Y+9
 521 02e0 8033      		cpi r24,lo8(48)
 522 02e2 01F4      		brne .L13
 523 02e4 8F81      		ldd r24,Y+7
 524 02e6 882F      		mov r24,r24
 525 02e8 90E0      		ldi r25,lo8(0)
 526 02ea 880F      		lsl r24
 527 02ec 991F      		rol r25
 528 02ee FC01      		movw r30,r24
 529 02f0 E050      		subi r30,lo8(-(cat4016_p_latch))
 530 02f2 F040      		sbci r31,hi8(-(cat4016_p_latch))
 531 02f4 82E3      		ldi r24,lo8(50)
 532 02f6 90E0      		ldi r25,hi8(50)
 533 02f8 9183      		std Z+1,r25
 534 02fa 8083      		st Z,r24
 535 02fc A1E3      		ldi r26,lo8(49)
 536 02fe B0E0      		ldi r27,hi8(49)
 537 0300 E1E3      		ldi r30,lo8(49)
 538 0302 F0E0      		ldi r31,hi8(49)
 539 0304 9081      		ld r25,Z
 540 0306 8D81      		ldd r24,Y+5
 541 0308 892B      		or r24,r25
 542 030a 8C93      		st X,r24
 543               	.L13:
 544               	.LM25:
 545 030c 8B85      		ldd r24,Y+11
 546 030e 807F      		andi r24,lo8(-16)
 547 0310 8B87      		std Y+11,r24
 548               	.LM26:
 549 0312 8B85      		ldd r24,Y+11
 550 0314 8823      		tst r24
 551 0316 01F4      		brne .L14
 552 0318 8F81      		ldd r24,Y+7
 553 031a 882F      		mov r24,r24
 554 031c 90E0      		ldi r25,lo8(0)
 555 031e 880F      		lsl r24
 556 0320 991F      		rol r25
 557 0322 FC01      		movw r30,r24
 558 0324 E050      		subi r30,lo8(-(cat4016_p_blank))
 559 0326 F040      		sbci r31,hi8(-(cat4016_p_blank))
 560 0328 8BE3      		ldi r24,lo8(59)
 561 032a 90E0      		ldi r25,hi8(59)
 562 032c 9183      		std Z+1,r25
GAS LISTING C:\Users\alex\AppData\Local\Temp/ccyALXvz.s 			page 11


 563 032e 8083      		st Z,r24
 564 0330 AAE3      		ldi r26,lo8(58)
 565 0332 B0E0      		ldi r27,hi8(58)
 566 0334 EAE3      		ldi r30,lo8(58)
 567 0336 F0E0      		ldi r31,hi8(58)
 568 0338 9081      		ld r25,Z
 569 033a 8B81      		ldd r24,Y+3
 570 033c 892B      		or r24,r25
 571 033e 8C93      		st X,r24
 572               	.L14:
 573               	.LM27:
 574 0340 8B85      		ldd r24,Y+11
 575 0342 8031      		cpi r24,lo8(16)
 576 0344 01F4      		brne .L15
 577 0346 8F81      		ldd r24,Y+7
 578 0348 882F      		mov r24,r24
 579 034a 90E0      		ldi r25,lo8(0)
 580 034c 880F      		lsl r24
 581 034e 991F      		rol r25
 582 0350 FC01      		movw r30,r24
 583 0352 E050      		subi r30,lo8(-(cat4016_p_blank))
 584 0354 F040      		sbci r31,hi8(-(cat4016_p_blank))
 585 0356 88E3      		ldi r24,lo8(56)
 586 0358 90E0      		ldi r25,hi8(56)
 587 035a 9183      		std Z+1,r25
 588 035c 8083      		st Z,r24
 589 035e A7E3      		ldi r26,lo8(55)
 590 0360 B0E0      		ldi r27,hi8(55)
 591 0362 E7E3      		ldi r30,lo8(55)
 592 0364 F0E0      		ldi r31,hi8(55)
 593 0366 9081      		ld r25,Z
 594 0368 8B81      		ldd r24,Y+3
 595 036a 892B      		or r24,r25
 596 036c 8C93      		st X,r24
 597               	.L15:
 598               	.LM28:
 599 036e 8B85      		ldd r24,Y+11
 600 0370 8032      		cpi r24,lo8(32)
 601 0372 01F4      		brne .L16
 602 0374 8F81      		ldd r24,Y+7
 603 0376 882F      		mov r24,r24
 604 0378 90E0      		ldi r25,lo8(0)
 605 037a 880F      		lsl r24
 606 037c 991F      		rol r25
 607 037e FC01      		movw r30,r24
 608 0380 E050      		subi r30,lo8(-(cat4016_p_blank))
 609 0382 F040      		sbci r31,hi8(-(cat4016_p_blank))
 610 0384 85E3      		ldi r24,lo8(53)
 611 0386 90E0      		ldi r25,hi8(53)
 612 0388 9183      		std Z+1,r25
 613 038a 8083      		st Z,r24
 614 038c A4E3      		ldi r26,lo8(52)
 615 038e B0E0      		ldi r27,hi8(52)
 616 0390 E4E3      		ldi r30,lo8(52)
 617 0392 F0E0      		ldi r31,hi8(52)
 618 0394 9081      		ld r25,Z
 619 0396 8B81      		ldd r24,Y+3
GAS LISTING C:\Users\alex\AppData\Local\Temp/ccyALXvz.s 			page 12


 620 0398 892B      		or r24,r25
 621 039a 8C93      		st X,r24
 622               	.L16:
 623               	.LM29:
 624 039c 8B85      		ldd r24,Y+11
 625 039e 8033      		cpi r24,lo8(48)
 626 03a0 01F4      		brne .L17
 627 03a2 8F81      		ldd r24,Y+7
 628 03a4 882F      		mov r24,r24
 629 03a6 90E0      		ldi r25,lo8(0)
 630 03a8 880F      		lsl r24
 631 03aa 991F      		rol r25
 632 03ac FC01      		movw r30,r24
 633 03ae E050      		subi r30,lo8(-(cat4016_p_blank))
 634 03b0 F040      		sbci r31,hi8(-(cat4016_p_blank))
 635 03b2 82E3      		ldi r24,lo8(50)
 636 03b4 90E0      		ldi r25,hi8(50)
 637 03b6 9183      		std Z+1,r25
 638 03b8 8083      		st Z,r24
 639 03ba A1E3      		ldi r26,lo8(49)
 640 03bc B0E0      		ldi r27,hi8(49)
 641 03be E1E3      		ldi r30,lo8(49)
 642 03c0 F0E0      		ldi r31,hi8(49)
 643 03c2 9081      		ld r25,Z
 644 03c4 8B81      		ldd r24,Y+3
 645 03c6 892B      		or r24,r25
 646 03c8 8C93      		st X,r24
 647               	.L17:
 648               	.LM30:
 649 03ca 8F81      		ldd r24,Y+7
 650 03cc 882F      		mov r24,r24
 651 03ce 90E0      		ldi r25,lo8(0)
 652 03d0 880F      		lsl r24
 653 03d2 991F      		rol r25
 654 03d4 FC01      		movw r30,r24
 655 03d6 E050      		subi r30,lo8(-(cat4016_p_blank))
 656 03d8 F040      		sbci r31,hi8(-(cat4016_p_blank))
 657 03da 8081      		ld r24,Z
 658 03dc 9181      		ldd r25,Z+1
 659 03de 9A83      		std Y+2,r25
 660 03e0 8983      		std Y+1,r24
 661               	.LM31:
 662 03e2 E981      		ldd r30,Y+1
 663 03e4 FA81      		ldd r31,Y+2
 664 03e6 8081      		ld r24,Z
 665 03e8 982F      		mov r25,r24
 666 03ea 8B81      		ldd r24,Y+3
 667 03ec 8095      		com r24
 668 03ee 8923      		and r24,r25
 669 03f0 E981      		ldd r30,Y+1
 670 03f2 FA81      		ldd r31,Y+2
 671 03f4 8083      		st Z,r24
 672               	/* epilogue start */
 673               	.LM32:
 674 03f6 2B96      		adiw r28,11
 675 03f8 0FB6      		in __tmp_reg__,__SREG__
 676 03fa F894      		cli
GAS LISTING C:\Users\alex\AppData\Local\Temp/ccyALXvz.s 			page 13


 677 03fc DEBF      		out __SP_H__,r29
 678 03fe 0FBE      		out __SREG__,__tmp_reg__
 679 0400 CDBF      		out __SP_L__,r28
 680 0402 CF91      		pop r28
 681 0404 DF91      		pop r29
 682 0406 0F91      		pop r16
 683 0408 0895      		ret
 684               	.LFE2:
 685               		.size	init_cat4016, .-init_cat4016
 686               	.global	cat4016_put4
 687               		.type	cat4016_put4, @function
 688               	cat4016_put4:
 689               	.LFB3:
 690               	.LM33:
 691 040a DF93      		push r29
 692 040c CF93      		push r28
 693 040e CDB7      		in r28,__SP_L__
 694 0410 DEB7      		in r29,__SP_H__
 695 0412 6397      		sbiw r28,19
 696 0414 0FB6      		in __tmp_reg__,__SREG__
 697 0416 F894      		cli
 698 0418 DEBF      		out __SP_H__,r29
 699 041a 0FBE      		out __SREG__,__tmp_reg__
 700 041c CDBF      		out __SP_L__,r28
 701               	/* prologue: function */
 702               	/* frame size = 19 */
 703 041e 8F87      		std Y+15,r24
 704 0420 488B      		std Y+16,r20
 705 0422 598B      		std Y+17,r21
 706 0424 6A8B      		std Y+18,r22
 707 0426 7B8B      		std Y+19,r23
 708               	.LM34:
 709 0428 8F85      		ldd r24,Y+15
 710 042a 882F      		mov r24,r24
 711 042c 90E0      		ldi r25,lo8(0)
 712 042e 880F      		lsl r24
 713 0430 991F      		rol r25
 714 0432 FC01      		movw r30,r24
 715 0434 E050      		subi r30,lo8(-(cat4016_p_clk))
 716 0436 F040      		sbci r31,hi8(-(cat4016_p_clk))
 717 0438 8081      		ld r24,Z
 718 043a 9181      		ldd r25,Z+1
 719 043c 9E87      		std Y+14,r25
 720 043e 8D87      		std Y+13,r24
 721               	.LM35:
 722 0440 8F85      		ldd r24,Y+15
 723 0442 882F      		mov r24,r24
 724 0444 90E0      		ldi r25,lo8(0)
 725 0446 880F      		lsl r24
 726 0448 991F      		rol r25
 727 044a FC01      		movw r30,r24
 728 044c E050      		subi r30,lo8(-(cat4016_p_data))
 729 044e F040      		sbci r31,hi8(-(cat4016_p_data))
 730 0450 8081      		ld r24,Z
 731 0452 9181      		ldd r25,Z+1
 732 0454 9A87      		std Y+10,r25
 733 0456 8987      		std Y+9,r24
GAS LISTING C:\Users\alex\AppData\Local\Temp/ccyALXvz.s 			page 14


 734               	.LM36:
 735 0458 8F85      		ldd r24,Y+15
 736 045a 882F      		mov r24,r24
 737 045c 90E0      		ldi r25,lo8(0)
 738 045e 880F      		lsl r24
 739 0460 991F      		rol r25
 740 0462 FC01      		movw r30,r24
 741 0464 E050      		subi r30,lo8(-(cat4016_p_latch))
 742 0466 F040      		sbci r31,hi8(-(cat4016_p_latch))
 743 0468 8081      		ld r24,Z
 744 046a 9181      		ldd r25,Z+1
 745 046c 9C87      		std Y+12,r25
 746 046e 8B87      		std Y+11,r24
 747               	.LM37:
 748 0470 8F85      		ldd r24,Y+15
 749 0472 882F      		mov r24,r24
 750 0474 90E0      		ldi r25,lo8(0)
 751 0476 FC01      		movw r30,r24
 752 0478 E050      		subi r30,lo8(-(cat4016_b_clk))
 753 047a F040      		sbci r31,hi8(-(cat4016_b_clk))
 754 047c 8081      		ld r24,Z
 755 047e 8C83      		std Y+4,r24
 756               	.LM38:
 757 0480 8F85      		ldd r24,Y+15
 758 0482 882F      		mov r24,r24
 759 0484 90E0      		ldi r25,lo8(0)
 760 0486 FC01      		movw r30,r24
 761 0488 E050      		subi r30,lo8(-(cat4016_b_data))
 762 048a F040      		sbci r31,hi8(-(cat4016_b_data))
 763 048c 8081      		ld r24,Z
 764 048e 8A83      		std Y+2,r24
 765               	.LM39:
 766 0490 8F85      		ldd r24,Y+15
 767 0492 882F      		mov r24,r24
 768 0494 90E0      		ldi r25,lo8(0)
 769 0496 FC01      		movw r30,r24
 770 0498 E050      		subi r30,lo8(-(cat4016_b_latch))
 771 049a F040      		sbci r31,hi8(-(cat4016_b_latch))
 772 049c 8081      		ld r24,Z
 773 049e 8B83      		std Y+3,r24
 774               	.LM40:
 775 04a0 8889      		ldd r24,Y+16
 776 04a2 9989      		ldd r25,Y+17
 777 04a4 AA89      		ldd r26,Y+18
 778 04a6 BB89      		ldd r27,Y+19
 779 04a8 8D83      		std Y+5,r24
 780 04aa 9E83      		std Y+6,r25
 781 04ac AF83      		std Y+7,r26
 782 04ae B887      		std Y+8,r27
 783               	.LM41:
 784 04b0 EB85      		ldd r30,Y+11
 785 04b2 FC85      		ldd r31,Y+12
 786 04b4 8081      		ld r24,Z
 787 04b6 982F      		mov r25,r24
 788 04b8 8B81      		ldd r24,Y+3
 789 04ba 8095      		com r24
 790 04bc 8923      		and r24,r25
GAS LISTING C:\Users\alex\AppData\Local\Temp/ccyALXvz.s 			page 15


 791 04be EB85      		ldd r30,Y+11
 792 04c0 FC85      		ldd r31,Y+12
 793 04c2 8083      		st Z,r24
 794               	.LM42:
 795 04c4 E985      		ldd r30,Y+9
 796 04c6 FA85      		ldd r31,Y+10
 797 04c8 8081      		ld r24,Z
 798 04ca 982F      		mov r25,r24
 799 04cc 8A81      		ldd r24,Y+2
 800 04ce 8095      		com r24
 801 04d0 8923      		and r24,r25
 802 04d2 E985      		ldd r30,Y+9
 803 04d4 FA85      		ldd r31,Y+10
 804 04d6 8083      		st Z,r24
 805               	.LM43:
 806 04d8 ED85      		ldd r30,Y+13
 807 04da FE85      		ldd r31,Y+14
 808 04dc 8081      		ld r24,Z
 809 04de 982F      		mov r25,r24
 810 04e0 8C81      		ldd r24,Y+4
 811 04e2 8095      		com r24
 812 04e4 8923      		and r24,r25
 813 04e6 ED85      		ldd r30,Y+13
 814 04e8 FE85      		ldd r31,Y+14
 815 04ea 8083      		st Z,r24
 816               	.LM44:
 817 04ec 1982      		std Y+1,__zero_reg__
 818 04ee 00C0      		rjmp .L20
 819               	.L23:
 820               	.LM45:
 821 04f0 8D81      		ldd r24,Y+5
 822 04f2 9E81      		ldd r25,Y+6
 823 04f4 AF81      		ldd r26,Y+7
 824 04f6 B885      		ldd r27,Y+8
 825 04f8 BB23      		tst r27
 826 04fa 04F0      		brlt .L21
 827               	.LM46:
 828 04fc E985      		ldd r30,Y+9
 829 04fe FA85      		ldd r31,Y+10
 830 0500 8081      		ld r24,Z
 831 0502 982F      		mov r25,r24
 832 0504 8A81      		ldd r24,Y+2
 833 0506 8095      		com r24
 834 0508 8923      		and r24,r25
 835 050a E985      		ldd r30,Y+9
 836 050c FA85      		ldd r31,Y+10
 837 050e 8083      		st Z,r24
 838 0510 00C0      		rjmp .L22
 839               	.L21:
 840               	.LM47:
 841 0512 E985      		ldd r30,Y+9
 842 0514 FA85      		ldd r31,Y+10
 843 0516 9081      		ld r25,Z
 844 0518 8A81      		ldd r24,Y+2
 845 051a 892B      		or r24,r25
 846 051c E985      		ldd r30,Y+9
 847 051e FA85      		ldd r31,Y+10
GAS LISTING C:\Users\alex\AppData\Local\Temp/ccyALXvz.s 			page 16


 848 0520 8083      		st Z,r24
 849               	.L22:
 850               	.LM48:
 851 0522 ED85      		ldd r30,Y+13
 852 0524 FE85      		ldd r31,Y+14
 853 0526 9081      		ld r25,Z
 854 0528 8C81      		ldd r24,Y+4
 855 052a 892B      		or r24,r25
 856 052c ED85      		ldd r30,Y+13
 857 052e FE85      		ldd r31,Y+14
 858 0530 8083      		st Z,r24
 859               	.LM49:
 860 0532 ED85      		ldd r30,Y+13
 861 0534 FE85      		ldd r31,Y+14
 862 0536 8081      		ld r24,Z
 863 0538 982F      		mov r25,r24
 864 053a 8C81      		ldd r24,Y+4
 865 053c 8095      		com r24
 866 053e 8923      		and r24,r25
 867 0540 ED85      		ldd r30,Y+13
 868 0542 FE85      		ldd r31,Y+14
 869 0544 8083      		st Z,r24
 870               	.LM50:
 871 0546 8D81      		ldd r24,Y+5
 872 0548 9E81      		ldd r25,Y+6
 873 054a AF81      		ldd r26,Y+7
 874 054c B885      		ldd r27,Y+8
 875 054e 880F      		lsl r24
 876 0550 991F      		rol r25
 877 0552 AA1F      		rol r26
 878 0554 BB1F      		rol r27
 879 0556 8D83      		std Y+5,r24
 880 0558 9E83      		std Y+6,r25
 881 055a AF83      		std Y+7,r26
 882 055c B887      		std Y+8,r27
 883               	.LM51:
 884 055e 8981      		ldd r24,Y+1
 885 0560 8F5F      		subi r24,lo8(-(1))
 886 0562 8983      		std Y+1,r24
 887               	.L20:
 888 0564 8981      		ldd r24,Y+1
 889 0566 8032      		cpi r24,lo8(32)
 890 0568 00F0      		brlo .L23
 891               	.LM52:
 892 056a EB85      		ldd r30,Y+11
 893 056c FC85      		ldd r31,Y+12
 894 056e 9081      		ld r25,Z
 895 0570 8B81      		ldd r24,Y+3
 896 0572 892B      		or r24,r25
 897 0574 EB85      		ldd r30,Y+11
 898 0576 FC85      		ldd r31,Y+12
 899 0578 8083      		st Z,r24
 900               	.LM53:
 901 057a EB85      		ldd r30,Y+11
 902 057c FC85      		ldd r31,Y+12
 903 057e 8081      		ld r24,Z
 904 0580 982F      		mov r25,r24
GAS LISTING C:\Users\alex\AppData\Local\Temp/ccyALXvz.s 			page 17


 905 0582 8B81      		ldd r24,Y+3
 906 0584 8095      		com r24
 907 0586 8923      		and r24,r25
 908 0588 EB85      		ldd r30,Y+11
 909 058a FC85      		ldd r31,Y+12
 910 058c 8083      		st Z,r24
 911               	/* epilogue start */
 912               	.LM54:
 913 058e 6396      		adiw r28,19
 914 0590 0FB6      		in __tmp_reg__,__SREG__
 915 0592 F894      		cli
 916 0594 DEBF      		out __SP_H__,r29
 917 0596 0FBE      		out __SREG__,__tmp_reg__
 918 0598 CDBF      		out __SP_L__,r28
 919 059a CF91      		pop r28
 920 059c DF91      		pop r29
 921 059e 0895      		ret
 922               	.LFE3:
 923               		.size	cat4016_put4, .-cat4016_put4
 924               	.global	cat4016_put_unumber
 925               		.type	cat4016_put_unumber, @function
 926               	cat4016_put_unumber:
 927               	.LFB4:
 928               	.LM55:
 929 05a0 DF93      		push r29
 930 05a2 CF93      		push r28
 931 05a4 CDB7      		in r28,__SP_L__
 932 05a6 DEB7      		in r29,__SP_H__
 933 05a8 2A97      		sbiw r28,10
 934 05aa 0FB6      		in __tmp_reg__,__SREG__
 935 05ac F894      		cli
 936 05ae DEBF      		out __SP_H__,r29
 937 05b0 0FBE      		out __SREG__,__tmp_reg__
 938 05b2 CDBF      		out __SP_L__,r28
 939               	/* prologue: function */
 940               	/* frame size = 10 */
 941 05b4 8887      		std Y+8,r24
 942 05b6 7A87      		std Y+10,r23
 943 05b8 6987      		std Y+9,r22
 944               	.LM56:
 945 05ba 1982      		std Y+1,__zero_reg__
 946 05bc 1A82      		std Y+2,__zero_reg__
 947 05be 1B82      		std Y+3,__zero_reg__
 948 05c0 1C82      		std Y+4,__zero_reg__
 949               	.LM57:
 950 05c2 8985      		ldd r24,Y+9
 951 05c4 9A85      		ldd r25,Y+10
 952 05c6 27E2      		ldi r18,hi8(10001)
 953 05c8 8131      		cpi r24,lo8(10001)
 954 05ca 9207      		cpc r25,r18
 955 05cc 00F0      		brlo .L26
 956               	.LM58:
 957 05ce 8CE5      		ldi r24,lo8(1547202908)
 958 05d0 91E7      		ldi r25,hi8(1547202908)
 959 05d2 A8E3      		ldi r26,hlo8(1547202908)
 960 05d4 BCE5      		ldi r27,hhi8(1547202908)
 961 05d6 8983      		std Y+1,r24
GAS LISTING C:\Users\alex\AppData\Local\Temp/ccyALXvz.s 			page 18


 962 05d8 9A83      		std Y+2,r25
 963 05da AB83      		std Y+3,r26
 964 05dc BC83      		std Y+4,r27
 965               	.LM59:
 966 05de 2981      		ldd r18,Y+1
 967 05e0 3A81      		ldd r19,Y+2
 968 05e2 4B81      		ldd r20,Y+3
 969 05e4 5C81      		ldd r21,Y+4
 970 05e6 8885      		ldd r24,Y+8
 971 05e8 BA01      		movw r22,r20
 972 05ea A901      		movw r20,r18
 973 05ec 0E94 0000 		call cat4016_put4
 974 05f0 00C0      		rjmp .L37
 975               	.L26:
 976               	.LM60:
 977 05f2 8985      		ldd r24,Y+9
 978 05f4 9A85      		ldd r25,Y+10
 979 05f6 9E83      		std Y+6,r25
 980 05f8 8D83      		std Y+5,r24
 981               	.LM61:
 982 05fa 8D81      		ldd r24,Y+5
 983 05fc 9E81      		ldd r25,Y+6
 984 05fe 23E0      		ldi r18,hi8(1000)
 985 0600 883E      		cpi r24,lo8(1000)
 986 0602 9207      		cpc r25,r18
 987 0604 04F0      		brlt .L28
 988               	.LM62:
 989 0606 1F82      		std Y+7,__zero_reg__
 990 0608 00C0      		rjmp .L29
 991               	.L30:
 992               	.LM63:
 993 060a 8F81      		ldd r24,Y+7
 994 060c 8F5F      		subi r24,lo8(-(1))
 995 060e 8F83      		std Y+7,r24
 996 0610 8985      		ldd r24,Y+9
 997 0612 9A85      		ldd r25,Y+10
 998 0614 885E      		subi r24,lo8(-(-1000))
 999 0616 9340      		sbci r25,hi8(-(-1000))
 1000 0618 9A87      		std Y+10,r25
 1001 061a 8987      		std Y+9,r24
 1002               	.L29:
 1003 061c 8985      		ldd r24,Y+9
 1004 061e 9A85      		ldd r25,Y+10
 1005 0620 23E0      		ldi r18,hi8(1000)
 1006 0622 883E      		cpi r24,lo8(1000)
 1007 0624 9207      		cpc r25,r18
 1008 0626 00F4      		brsh .L30
 1009               	.LM64:
 1010 0628 8F81      		ldd r24,Y+7
 1011 062a 882F      		mov r24,r24
 1012 062c 90E0      		ldi r25,lo8(0)
 1013 062e FC01      		movw r30,r24
 1014 0630 E050      		subi r30,lo8(-(numbers))
 1015 0632 F040      		sbci r31,hi8(-(numbers))
 1016 0634 8081      		ld r24,Z
 1017 0636 882F      		mov r24,r24
 1018 0638 90E0      		ldi r25,lo8(0)
GAS LISTING C:\Users\alex\AppData\Local\Temp/ccyALXvz.s 			page 19


 1019 063a A0E0      		ldi r26,lo8(0)
 1020 063c B0E0      		ldi r27,hi8(0)
 1021 063e 8983      		std Y+1,r24
 1022 0640 9A83      		std Y+2,r25
 1023 0642 AB83      		std Y+3,r26
 1024 0644 BC83      		std Y+4,r27
 1025               	.L28:
 1026               	.LM65:
 1027 0646 8D81      		ldd r24,Y+5
 1028 0648 9E81      		ldd r25,Y+6
 1029 064a 8436      		cpi r24,100
 1030 064c 9105      		cpc r25,__zero_reg__
 1031 064e 04F0      		brlt .L31
 1032               	.LM66:
 1033 0650 1F82      		std Y+7,__zero_reg__
 1034 0652 00C0      		rjmp .L32
 1035               	.L33:
 1036               	.LM67:
 1037 0654 8F81      		ldd r24,Y+7
 1038 0656 8F5F      		subi r24,lo8(-(1))
 1039 0658 8F83      		std Y+7,r24
 1040 065a 8985      		ldd r24,Y+9
 1041 065c 9A85      		ldd r25,Y+10
 1042 065e 8456      		subi r24,lo8(-(-100))
 1043 0660 9040      		sbci r25,hi8(-(-100))
 1044 0662 9A87      		std Y+10,r25
 1045 0664 8987      		std Y+9,r24
 1046               	.L32:
 1047 0666 8985      		ldd r24,Y+9
 1048 0668 9A85      		ldd r25,Y+10
 1049 066a 8436      		cpi r24,100
 1050 066c 9105      		cpc r25,__zero_reg__
 1051 066e 00F4      		brsh .L33
 1052               	.LM68:
 1053 0670 8F81      		ldd r24,Y+7
 1054 0672 882F      		mov r24,r24
 1055 0674 90E0      		ldi r25,lo8(0)
 1056 0676 FC01      		movw r30,r24
 1057 0678 E050      		subi r30,lo8(-(numbers))
 1058 067a F040      		sbci r31,hi8(-(numbers))
 1059 067c 8081      		ld r24,Z
 1060 067e 882F      		mov r24,r24
 1061 0680 90E0      		ldi r25,lo8(0)
 1062 0682 A0E0      		ldi r26,lo8(0)
 1063 0684 B0E0      		ldi r27,hi8(0)
 1064 0686 2227      		clr r18
 1065 0688 382F      		mov r19,r24
 1066 068a 492F      		mov r20,r25
 1067 068c 5A2F      		mov r21,r26
 1068 068e 8981      		ldd r24,Y+1
 1069 0690 9A81      		ldd r25,Y+2
 1070 0692 AB81      		ldd r26,Y+3
 1071 0694 BC81      		ldd r27,Y+4
 1072 0696 822B      		or r24,r18
 1073 0698 932B      		or r25,r19
 1074 069a A42B      		or r26,r20
 1075 069c B52B      		or r27,r21
GAS LISTING C:\Users\alex\AppData\Local\Temp/ccyALXvz.s 			page 20


 1076 069e 8983      		std Y+1,r24
 1077 06a0 9A83      		std Y+2,r25
 1078 06a2 AB83      		std Y+3,r26
 1079 06a4 BC83      		std Y+4,r27
 1080               	.L31:
 1081               	.LM69:
 1082 06a6 8D81      		ldd r24,Y+5
 1083 06a8 9E81      		ldd r25,Y+6
 1084 06aa 8A30      		cpi r24,10
 1085 06ac 9105      		cpc r25,__zero_reg__
 1086 06ae 04F0      		brlt .L34
 1087               	.LM70:
 1088 06b0 1F82      		std Y+7,__zero_reg__
 1089 06b2 00C0      		rjmp .L35
 1090               	.L36:
 1091               	.LM71:
 1092 06b4 8F81      		ldd r24,Y+7
 1093 06b6 8F5F      		subi r24,lo8(-(1))
 1094 06b8 8F83      		std Y+7,r24
 1095 06ba 8985      		ldd r24,Y+9
 1096 06bc 9A85      		ldd r25,Y+10
 1097 06be 0A97      		sbiw r24,10
 1098 06c0 9A87      		std Y+10,r25
 1099 06c2 8987      		std Y+9,r24
 1100               	.L35:
 1101 06c4 8985      		ldd r24,Y+9
 1102 06c6 9A85      		ldd r25,Y+10
 1103 06c8 8A30      		cpi r24,10
 1104 06ca 9105      		cpc r25,__zero_reg__
 1105 06cc 00F4      		brsh .L36
 1106               	.LM72:
 1107 06ce 8F81      		ldd r24,Y+7
 1108 06d0 882F      		mov r24,r24
 1109 06d2 90E0      		ldi r25,lo8(0)
 1110 06d4 FC01      		movw r30,r24
 1111 06d6 E050      		subi r30,lo8(-(numbers))
 1112 06d8 F040      		sbci r31,hi8(-(numbers))
 1113 06da 8081      		ld r24,Z
 1114 06dc 882F      		mov r24,r24
 1115 06de 90E0      		ldi r25,lo8(0)
 1116 06e0 A0E0      		ldi r26,lo8(0)
 1117 06e2 B0E0      		ldi r27,hi8(0)
 1118 06e4 AC01      		movw r20,r24
 1119 06e6 3327      		clr r19
 1120 06e8 2227      		clr r18
 1121 06ea 8981      		ldd r24,Y+1
 1122 06ec 9A81      		ldd r25,Y+2
 1123 06ee AB81      		ldd r26,Y+3
 1124 06f0 BC81      		ldd r27,Y+4
 1125 06f2 822B      		or r24,r18
 1126 06f4 932B      		or r25,r19
 1127 06f6 A42B      		or r26,r20
 1128 06f8 B52B      		or r27,r21
 1129 06fa 8983      		std Y+1,r24
 1130 06fc 9A83      		std Y+2,r25
 1131 06fe AB83      		std Y+3,r26
 1132 0700 BC83      		std Y+4,r27
GAS LISTING C:\Users\alex\AppData\Local\Temp/ccyALXvz.s 			page 21


 1133               	.L34:
 1134               	.LM73:
 1135 0702 8985      		ldd r24,Y+9
 1136 0704 9A85      		ldd r25,Y+10
 1137 0706 FC01      		movw r30,r24
 1138 0708 E050      		subi r30,lo8(-(numbers))
 1139 070a F040      		sbci r31,hi8(-(numbers))
 1140 070c 8081      		ld r24,Z
 1141 070e 882F      		mov r24,r24
 1142 0710 90E0      		ldi r25,lo8(0)
 1143 0712 A0E0      		ldi r26,lo8(0)
 1144 0714 B0E0      		ldi r27,hi8(0)
 1145 0716 582F      		mov r21,r24
 1146 0718 4427      		clr r20
 1147 071a 3327      		clr r19
 1148 071c 2227      		clr r18
 1149 071e 8981      		ldd r24,Y+1
 1150 0720 9A81      		ldd r25,Y+2
 1151 0722 AB81      		ldd r26,Y+3
 1152 0724 BC81      		ldd r27,Y+4
 1153 0726 822B      		or r24,r18
 1154 0728 932B      		or r25,r19
 1155 072a A42B      		or r26,r20
 1156 072c B52B      		or r27,r21
 1157 072e 8983      		std Y+1,r24
 1158 0730 9A83      		std Y+2,r25
 1159 0732 AB83      		std Y+3,r26
 1160 0734 BC83      		std Y+4,r27
 1161               	.LM74:
 1162 0736 2981      		ldd r18,Y+1
 1163 0738 3A81      		ldd r19,Y+2
 1164 073a 4B81      		ldd r20,Y+3
 1165 073c 5C81      		ldd r21,Y+4
 1166 073e 8885      		ldd r24,Y+8
 1167 0740 BA01      		movw r22,r20
 1168 0742 A901      		movw r20,r18
 1169 0744 0E94 0000 		call cat4016_put4
 1170               	.L37:
 1171               	/* epilogue start */
 1172               	.LM75:
 1173 0748 2A96      		adiw r28,10
 1174 074a 0FB6      		in __tmp_reg__,__SREG__
 1175 074c F894      		cli
 1176 074e DEBF      		out __SP_H__,r29
 1177 0750 0FBE      		out __SREG__,__tmp_reg__
 1178 0752 CDBF      		out __SP_L__,r28
 1179 0754 CF91      		pop r28
 1180 0756 DF91      		pop r29
 1181 0758 0895      		ret
 1182               	.LFE4:
 1183               		.size	cat4016_put_unumber, .-cat4016_put_unumber
 1184               	.global	cat4016_put_snumber
 1185               		.type	cat4016_put_snumber, @function
 1186               	cat4016_put_snumber:
 1187               	.LFB5:
 1188               	.LM76:
 1189 075a DF93      		push r29
GAS LISTING C:\Users\alex\AppData\Local\Temp/ccyALXvz.s 			page 22


 1190 075c CF93      		push r28
 1191 075e CDB7      		in r28,__SP_L__
 1192 0760 DEB7      		in r29,__SP_H__
 1193 0762 2A97      		sbiw r28,10
 1194 0764 0FB6      		in __tmp_reg__,__SREG__
 1195 0766 F894      		cli
 1196 0768 DEBF      		out __SP_H__,r29
 1197 076a 0FBE      		out __SREG__,__tmp_reg__
 1198 076c CDBF      		out __SP_L__,r28
 1199               	/* prologue: function */
 1200               	/* frame size = 10 */
 1201 076e 8887      		std Y+8,r24
 1202 0770 7A87      		std Y+10,r23
 1203 0772 6987      		std Y+9,r22
 1204               	.LM77:
 1205 0774 1C82      		std Y+4,__zero_reg__
 1206 0776 1D82      		std Y+5,__zero_reg__
 1207 0778 1E82      		std Y+6,__zero_reg__
 1208 077a 1F82      		std Y+7,__zero_reg__
 1209               	.LM78:
 1210 077c 8985      		ldd r24,Y+9
 1211 077e 9A85      		ldd r25,Y+10
 1212 0780 9B83      		std Y+3,r25
 1213 0782 8A83      		std Y+2,r24
 1214               	.LM79:
 1215 0784 8985      		ldd r24,Y+9
 1216 0786 9A85      		ldd r25,Y+10
 1217 0788 27E2      		ldi r18,hi8(10000)
 1218 078a 8031      		cpi r24,lo8(10000)
 1219 078c 9207      		cpc r25,r18
 1220 078e 04F0      		brlt .L39
 1221               	.LM80:
 1222 0790 8CE5      		ldi r24,lo8(1547202908)
 1223 0792 91E7      		ldi r25,hi8(1547202908)
 1224 0794 A8E3      		ldi r26,hlo8(1547202908)
 1225 0796 BCE5      		ldi r27,hhi8(1547202908)
 1226 0798 8C83      		std Y+4,r24
 1227 079a 9D83      		std Y+5,r25
 1228 079c AE83      		std Y+6,r26
 1229 079e BF83      		std Y+7,r27
 1230               	.LM81:
 1231 07a0 2C81      		ldd r18,Y+4
 1232 07a2 3D81      		ldd r19,Y+5
 1233 07a4 4E81      		ldd r20,Y+6
 1234 07a6 5F81      		ldd r21,Y+7
 1235 07a8 8885      		ldd r24,Y+8
 1236 07aa BA01      		movw r22,r20
 1237 07ac A901      		movw r20,r18
 1238 07ae 0E94 0000 		call cat4016_put4
 1239 07b2 00C0      		rjmp .L52
 1240               	.L39:
 1241               	.LM82:
 1242 07b4 8985      		ldd r24,Y+9
 1243 07b6 9A85      		ldd r25,Y+10
 1244 07b8 2CEF      		ldi r18,hi8(-999)
 1245 07ba 8931      		cpi r24,lo8(-999)
 1246 07bc 9207      		cpc r25,r18
GAS LISTING C:\Users\alex\AppData\Local\Temp/ccyALXvz.s 			page 23


 1247 07be 04F4      		brge .L41
 1248               	.LM83:
 1249 07c0 8CE1      		ldi r24,lo8(1547202844)
 1250 07c2 91E7      		ldi r25,hi8(1547202844)
 1251 07c4 A8E3      		ldi r26,hlo8(1547202844)
 1252 07c6 BCE5      		ldi r27,hhi8(1547202844)
 1253 07c8 8C83      		std Y+4,r24
 1254 07ca 9D83      		std Y+5,r25
 1255 07cc AE83      		std Y+6,r26
 1256 07ce BF83      		std Y+7,r27
 1257               	.LM84:
 1258 07d0 2C81      		ldd r18,Y+4
 1259 07d2 3D81      		ldd r19,Y+5
 1260 07d4 4E81      		ldd r20,Y+6
 1261 07d6 5F81      		ldd r21,Y+7
 1262 07d8 8885      		ldd r24,Y+8
 1263 07da BA01      		movw r22,r20
 1264 07dc A901      		movw r20,r18
 1265 07de 0E94 0000 		call cat4016_put4
 1266 07e2 00C0      		rjmp .L52
 1267               	.L41:
 1268               	.LM85:
 1269 07e4 8985      		ldd r24,Y+9
 1270 07e6 9A85      		ldd r25,Y+10
 1271 07e8 1816      		cp __zero_reg__,r24
 1272 07ea 1906      		cpc __zero_reg__,r25
 1273 07ec 04F0      		brlt .L42
 1274               	.LM86:
 1275 07ee 8985      		ldd r24,Y+9
 1276 07f0 9A85      		ldd r25,Y+10
 1277 07f2 9095      		com r25
 1278 07f4 8195      		neg r24
 1279 07f6 9F4F      		sbci r25,lo8(-1)
 1280 07f8 9A87      		std Y+10,r25
 1281 07fa 8987      		std Y+9,r24
 1282               	.LM87:
 1283 07fc 80E4      		ldi r24,lo8(64)
 1284 07fe 90E0      		ldi r25,hi8(64)
 1285 0800 A0E0      		ldi r26,hlo8(64)
 1286 0802 B0E0      		ldi r27,hhi8(64)
 1287 0804 8C83      		std Y+4,r24
 1288 0806 9D83      		std Y+5,r25
 1289 0808 AE83      		std Y+6,r26
 1290 080a BF83      		std Y+7,r27
 1291               	.L42:
 1292               	.LM88:
 1293 080c 8985      		ldd r24,Y+9
 1294 080e 9A85      		ldd r25,Y+10
 1295 0810 23E0      		ldi r18,hi8(1000)
 1296 0812 883E      		cpi r24,lo8(1000)
 1297 0814 9207      		cpc r25,r18
 1298 0816 04F0      		brlt .L43
 1299               	.LM89:
 1300 0818 1982      		std Y+1,__zero_reg__
 1301 081a 00C0      		rjmp .L44
 1302               	.L45:
 1303               	.LM90:
GAS LISTING C:\Users\alex\AppData\Local\Temp/ccyALXvz.s 			page 24


 1304 081c 8981      		ldd r24,Y+1
 1305 081e 8F5F      		subi r24,lo8(-(1))
 1306 0820 8983      		std Y+1,r24
 1307 0822 8985      		ldd r24,Y+9
 1308 0824 9A85      		ldd r25,Y+10
 1309 0826 885E      		subi r24,lo8(-(-1000))
 1310 0828 9340      		sbci r25,hi8(-(-1000))
 1311 082a 9A87      		std Y+10,r25
 1312 082c 8987      		std Y+9,r24
 1313               	.L44:
 1314 082e 8985      		ldd r24,Y+9
 1315 0830 9A85      		ldd r25,Y+10
 1316 0832 23E0      		ldi r18,hi8(1000)
 1317 0834 883E      		cpi r24,lo8(1000)
 1318 0836 9207      		cpc r25,r18
 1319 0838 04F4      		brge .L45
 1320               	.LM91:
 1321 083a 8981      		ldd r24,Y+1
 1322 083c 882F      		mov r24,r24
 1323 083e 90E0      		ldi r25,lo8(0)
 1324 0840 FC01      		movw r30,r24
 1325 0842 E050      		subi r30,lo8(-(numbers))
 1326 0844 F040      		sbci r31,hi8(-(numbers))
 1327 0846 8081      		ld r24,Z
 1328 0848 882F      		mov r24,r24
 1329 084a 90E0      		ldi r25,lo8(0)
 1330 084c A0E0      		ldi r26,lo8(0)
 1331 084e B0E0      		ldi r27,hi8(0)
 1332 0850 8C83      		std Y+4,r24
 1333 0852 9D83      		std Y+5,r25
 1334 0854 AE83      		std Y+6,r26
 1335 0856 BF83      		std Y+7,r27
 1336               	.L43:
 1337               	.LM92:
 1338 0858 8A81      		ldd r24,Y+2
 1339 085a 9B81      		ldd r25,Y+3
 1340 085c 8436      		cpi r24,100
 1341 085e 9105      		cpc r25,__zero_reg__
 1342 0860 04F0      		brlt .L46
 1343               	.LM93:
 1344 0862 1982      		std Y+1,__zero_reg__
 1345 0864 00C0      		rjmp .L47
 1346               	.L48:
 1347               	.LM94:
 1348 0866 8981      		ldd r24,Y+1
 1349 0868 8F5F      		subi r24,lo8(-(1))
 1350 086a 8983      		std Y+1,r24
 1351 086c 8985      		ldd r24,Y+9
 1352 086e 9A85      		ldd r25,Y+10
 1353 0870 8456      		subi r24,lo8(-(-100))
 1354 0872 9040      		sbci r25,hi8(-(-100))
 1355 0874 9A87      		std Y+10,r25
 1356 0876 8987      		std Y+9,r24
 1357               	.L47:
 1358 0878 8985      		ldd r24,Y+9
 1359 087a 9A85      		ldd r25,Y+10
 1360 087c 8436      		cpi r24,100
GAS LISTING C:\Users\alex\AppData\Local\Temp/ccyALXvz.s 			page 25


 1361 087e 9105      		cpc r25,__zero_reg__
 1362 0880 04F4      		brge .L48
 1363               	.LM95:
 1364 0882 8981      		ldd r24,Y+1
 1365 0884 882F      		mov r24,r24
 1366 0886 90E0      		ldi r25,lo8(0)
 1367 0888 FC01      		movw r30,r24
 1368 088a E050      		subi r30,lo8(-(numbers))
 1369 088c F040      		sbci r31,hi8(-(numbers))
 1370 088e 8081      		ld r24,Z
 1371 0890 882F      		mov r24,r24
 1372 0892 90E0      		ldi r25,lo8(0)
 1373 0894 A0E0      		ldi r26,lo8(0)
 1374 0896 B0E0      		ldi r27,hi8(0)
 1375 0898 2227      		clr r18
 1376 089a 382F      		mov r19,r24
 1377 089c 492F      		mov r20,r25
 1378 089e 5A2F      		mov r21,r26
 1379 08a0 8C81      		ldd r24,Y+4
 1380 08a2 9D81      		ldd r25,Y+5
 1381 08a4 AE81      		ldd r26,Y+6
 1382 08a6 BF81      		ldd r27,Y+7
 1383 08a8 822B      		or r24,r18
 1384 08aa 932B      		or r25,r19
 1385 08ac A42B      		or r26,r20
 1386 08ae B52B      		or r27,r21
 1387 08b0 8C83      		std Y+4,r24
 1388 08b2 9D83      		std Y+5,r25
 1389 08b4 AE83      		std Y+6,r26
 1390 08b6 BF83      		std Y+7,r27
 1391               	.L46:
 1392               	.LM96:
 1393 08b8 8A81      		ldd r24,Y+2
 1394 08ba 9B81      		ldd r25,Y+3
 1395 08bc 8A30      		cpi r24,10
 1396 08be 9105      		cpc r25,__zero_reg__
 1397 08c0 04F0      		brlt .L49
 1398               	.LM97:
 1399 08c2 1982      		std Y+1,__zero_reg__
 1400 08c4 00C0      		rjmp .L50
 1401               	.L51:
 1402               	.LM98:
 1403 08c6 8981      		ldd r24,Y+1
 1404 08c8 8F5F      		subi r24,lo8(-(1))
 1405 08ca 8983      		std Y+1,r24
 1406 08cc 8985      		ldd r24,Y+9
 1407 08ce 9A85      		ldd r25,Y+10
 1408 08d0 0A97      		sbiw r24,10
 1409 08d2 9A87      		std Y+10,r25
 1410 08d4 8987      		std Y+9,r24
 1411               	.L50:
 1412 08d6 8985      		ldd r24,Y+9
 1413 08d8 9A85      		ldd r25,Y+10
 1414 08da 8A30      		cpi r24,10
 1415 08dc 9105      		cpc r25,__zero_reg__
 1416 08de 04F4      		brge .L51
 1417               	.LM99:
GAS LISTING C:\Users\alex\AppData\Local\Temp/ccyALXvz.s 			page 26


 1418 08e0 8981      		ldd r24,Y+1
 1419 08e2 882F      		mov r24,r24
 1420 08e4 90E0      		ldi r25,lo8(0)
 1421 08e6 FC01      		movw r30,r24
 1422 08e8 E050      		subi r30,lo8(-(numbers))
 1423 08ea F040      		sbci r31,hi8(-(numbers))
 1424 08ec 8081      		ld r24,Z
 1425 08ee 882F      		mov r24,r24
 1426 08f0 90E0      		ldi r25,lo8(0)
 1427 08f2 A0E0      		ldi r26,lo8(0)
 1428 08f4 B0E0      		ldi r27,hi8(0)
 1429 08f6 AC01      		movw r20,r24
 1430 08f8 3327      		clr r19
 1431 08fa 2227      		clr r18
 1432 08fc 8C81      		ldd r24,Y+4
 1433 08fe 9D81      		ldd r25,Y+5
 1434 0900 AE81      		ldd r26,Y+6
 1435 0902 BF81      		ldd r27,Y+7
 1436 0904 822B      		or r24,r18
 1437 0906 932B      		or r25,r19
 1438 0908 A42B      		or r26,r20
 1439 090a B52B      		or r27,r21
 1440 090c 8C83      		std Y+4,r24
 1441 090e 9D83      		std Y+5,r25
 1442 0910 AE83      		std Y+6,r26
 1443 0912 BF83      		std Y+7,r27
 1444               	.L49:
 1445               	.LM100:
 1446 0914 8985      		ldd r24,Y+9
 1447 0916 9A85      		ldd r25,Y+10
 1448 0918 FC01      		movw r30,r24
 1449 091a E050      		subi r30,lo8(-(numbers))
 1450 091c F040      		sbci r31,hi8(-(numbers))
 1451 091e 8081      		ld r24,Z
 1452 0920 882F      		mov r24,r24
 1453 0922 90E0      		ldi r25,lo8(0)
 1454 0924 A0E0      		ldi r26,lo8(0)
 1455 0926 B0E0      		ldi r27,hi8(0)
 1456 0928 582F      		mov r21,r24
 1457 092a 4427      		clr r20
 1458 092c 3327      		clr r19
 1459 092e 2227      		clr r18
 1460 0930 8C81      		ldd r24,Y+4
 1461 0932 9D81      		ldd r25,Y+5
 1462 0934 AE81      		ldd r26,Y+6
 1463 0936 BF81      		ldd r27,Y+7
 1464 0938 822B      		or r24,r18
 1465 093a 932B      		or r25,r19
 1466 093c A42B      		or r26,r20
 1467 093e B52B      		or r27,r21
 1468 0940 8C83      		std Y+4,r24
 1469 0942 9D83      		std Y+5,r25
 1470 0944 AE83      		std Y+6,r26
 1471 0946 BF83      		std Y+7,r27
 1472               	.LM101:
 1473 0948 2C81      		ldd r18,Y+4
 1474 094a 3D81      		ldd r19,Y+5
GAS LISTING C:\Users\alex\AppData\Local\Temp/ccyALXvz.s 			page 27


 1475 094c 4E81      		ldd r20,Y+6
 1476 094e 5F81      		ldd r21,Y+7
 1477 0950 8885      		ldd r24,Y+8
 1478 0952 BA01      		movw r22,r20
 1479 0954 A901      		movw r20,r18
 1480 0956 0E94 0000 		call cat4016_put4
 1481               	.L52:
 1482               	/* epilogue start */
 1483               	.LM102:
 1484 095a 2A96      		adiw r28,10
 1485 095c 0FB6      		in __tmp_reg__,__SREG__
 1486 095e F894      		cli
 1487 0960 DEBF      		out __SP_H__,r29
 1488 0962 0FBE      		out __SREG__,__tmp_reg__
 1489 0964 CDBF      		out __SP_L__,r28
 1490 0966 CF91      		pop r28
 1491 0968 DF91      		pop r29
 1492 096a 0895      		ret
 1493               	.LFE5:
 1494               		.size	cat4016_put_snumber, .-cat4016_put_snumber
 1495               	.global	cat4016_put_txt
 1496               		.type	cat4016_put_txt, @function
 1497               	cat4016_put_txt:
 1498               	.LFB6:
 1499               	.LM103:
 1500 096c DF93      		push r29
 1501 096e CF93      		push r28
 1502 0970 CDB7      		in r28,__SP_L__
 1503 0972 DEB7      		in r29,__SP_H__
 1504 0974 2897      		sbiw r28,8
 1505 0976 0FB6      		in __tmp_reg__,__SREG__
 1506 0978 F894      		cli
 1507 097a DEBF      		out __SP_H__,r29
 1508 097c 0FBE      		out __SREG__,__tmp_reg__
 1509 097e CDBF      		out __SP_L__,r28
 1510               	/* prologue: function */
 1511               	/* frame size = 8 */
 1512 0980 8E83      		std Y+6,r24
 1513 0982 7887      		std Y+8,r23
 1514 0984 6F83      		std Y+7,r22
 1515               	.LM104:
 1516 0986 EF81      		ldd r30,Y+7
 1517 0988 F885      		ldd r31,Y+8
 1518 098a 8081      		ld r24,Z
 1519 098c 8983      		std Y+1,r24
 1520               	.LM105:
 1521 098e 8981      		ldd r24,Y+1
 1522 0990 882F      		mov r24,r24
 1523 0992 90E0      		ldi r25,lo8(0)
 1524 0994 807F      		andi r24,lo8(240)
 1525 0996 9070      		andi r25,hi8(240)
 1526 0998 8033      		cpi r24,48
 1527 099a 9105      		cpc r25,__zero_reg__
 1528 099c 01F4      		brne .L54
 1529               	.LM106:
 1530 099e 8981      		ldd r24,Y+1
 1531 09a0 8053      		subi r24,lo8(-(-48))
GAS LISTING C:\Users\alex\AppData\Local\Temp/ccyALXvz.s 			page 28


 1532 09a2 8983      		std Y+1,r24
 1533               	.LM107:
 1534 09a4 8981      		ldd r24,Y+1
 1535 09a6 882F      		mov r24,r24
 1536 09a8 90E0      		ldi r25,lo8(0)
 1537 09aa FC01      		movw r30,r24
 1538 09ac E050      		subi r30,lo8(-(numbers))
 1539 09ae F040      		sbci r31,hi8(-(numbers))
 1540 09b0 8081      		ld r24,Z
 1541 09b2 882F      		mov r24,r24
 1542 09b4 90E0      		ldi r25,lo8(0)
 1543 09b6 A0E0      		ldi r26,lo8(0)
 1544 09b8 B0E0      		ldi r27,hi8(0)
 1545 09ba 8A83      		std Y+2,r24
 1546 09bc 9B83      		std Y+3,r25
 1547 09be AC83      		std Y+4,r26
 1548 09c0 BD83      		std Y+5,r27
 1549 09c2 00C0      		rjmp .L55
 1550               	.L54:
 1551               	.LM108:
 1552 09c4 8981      		ldd r24,Y+1
 1553 09c6 8062      		ori r24,lo8(32)
 1554 09c8 8156      		subi r24,lo8(-(-97))
 1555 09ca 8983      		std Y+1,r24
 1556               	.LM109:
 1557 09cc 8981      		ldd r24,Y+1
 1558 09ce 882F      		mov r24,r24
 1559 09d0 90E0      		ldi r25,lo8(0)
 1560 09d2 FC01      		movw r30,r24
 1561 09d4 E050      		subi r30,lo8(-(letters))
 1562 09d6 F040      		sbci r31,hi8(-(letters))
 1563 09d8 8081      		ld r24,Z
 1564 09da 882F      		mov r24,r24
 1565 09dc 90E0      		ldi r25,lo8(0)
 1566 09de A0E0      		ldi r26,lo8(0)
 1567 09e0 B0E0      		ldi r27,hi8(0)
 1568 09e2 8A83      		std Y+2,r24
 1569 09e4 9B83      		std Y+3,r25
 1570 09e6 AC83      		std Y+4,r26
 1571 09e8 BD83      		std Y+5,r27
 1572               	.L55:
 1573               	.LM110:
 1574 09ea 8F81      		ldd r24,Y+7
 1575 09ec 9885      		ldd r25,Y+8
 1576 09ee FC01      		movw r30,r24
 1577 09f0 3196      		adiw r30,1
 1578 09f2 8081      		ld r24,Z
 1579 09f4 8983      		std Y+1,r24
 1580               	.LM111:
 1581 09f6 8981      		ldd r24,Y+1
 1582 09f8 882F      		mov r24,r24
 1583 09fa 90E0      		ldi r25,lo8(0)
 1584 09fc 807F      		andi r24,lo8(240)
 1585 09fe 9070      		andi r25,hi8(240)
 1586 0a00 8033      		cpi r24,48
 1587 0a02 9105      		cpc r25,__zero_reg__
 1588 0a04 01F4      		brne .L56
GAS LISTING C:\Users\alex\AppData\Local\Temp/ccyALXvz.s 			page 29


 1589               	.LM112:
 1590 0a06 8981      		ldd r24,Y+1
 1591 0a08 8053      		subi r24,lo8(-(-48))
 1592 0a0a 8983      		std Y+1,r24
 1593               	.LM113:
 1594 0a0c 8981      		ldd r24,Y+1
 1595 0a0e 882F      		mov r24,r24
 1596 0a10 90E0      		ldi r25,lo8(0)
 1597 0a12 FC01      		movw r30,r24
 1598 0a14 E050      		subi r30,lo8(-(numbers))
 1599 0a16 F040      		sbci r31,hi8(-(numbers))
 1600 0a18 8081      		ld r24,Z
 1601 0a1a 882F      		mov r24,r24
 1602 0a1c 90E0      		ldi r25,lo8(0)
 1603 0a1e A0E0      		ldi r26,lo8(0)
 1604 0a20 B0E0      		ldi r27,hi8(0)
 1605 0a22 BA2F      		mov r27,r26
 1606 0a24 A92F      		mov r26,r25
 1607 0a26 982F      		mov r25,r24
 1608 0a28 8827      		clr r24
 1609 0a2a 8A83      		std Y+2,r24
 1610 0a2c 9B83      		std Y+3,r25
 1611 0a2e AC83      		std Y+4,r26
 1612 0a30 BD83      		std Y+5,r27
 1613 0a32 00C0      		rjmp .L57
 1614               	.L56:
 1615               	.LM114:
 1616 0a34 8981      		ldd r24,Y+1
 1617 0a36 8062      		ori r24,lo8(32)
 1618 0a38 8156      		subi r24,lo8(-(-97))
 1619 0a3a 8983      		std Y+1,r24
 1620               	.LM115:
 1621 0a3c 8981      		ldd r24,Y+1
 1622 0a3e 882F      		mov r24,r24
 1623 0a40 90E0      		ldi r25,lo8(0)
 1624 0a42 FC01      		movw r30,r24
 1625 0a44 E050      		subi r30,lo8(-(letters))
 1626 0a46 F040      		sbci r31,hi8(-(letters))
 1627 0a48 8081      		ld r24,Z
 1628 0a4a 882F      		mov r24,r24
 1629 0a4c 90E0      		ldi r25,lo8(0)
 1630 0a4e A0E0      		ldi r26,lo8(0)
 1631 0a50 B0E0      		ldi r27,hi8(0)
 1632 0a52 2227      		clr r18
 1633 0a54 382F      		mov r19,r24
 1634 0a56 492F      		mov r20,r25
 1635 0a58 5A2F      		mov r21,r26
 1636 0a5a 8A81      		ldd r24,Y+2
 1637 0a5c 9B81      		ldd r25,Y+3
 1638 0a5e AC81      		ldd r26,Y+4
 1639 0a60 BD81      		ldd r27,Y+5
 1640 0a62 822B      		or r24,r18
 1641 0a64 932B      		or r25,r19
 1642 0a66 A42B      		or r26,r20
 1643 0a68 B52B      		or r27,r21
 1644 0a6a 8A83      		std Y+2,r24
 1645 0a6c 9B83      		std Y+3,r25
GAS LISTING C:\Users\alex\AppData\Local\Temp/ccyALXvz.s 			page 30


 1646 0a6e AC83      		std Y+4,r26
 1647 0a70 BD83      		std Y+5,r27
 1648               	.L57:
 1649               	.LM116:
 1650 0a72 8F81      		ldd r24,Y+7
 1651 0a74 9885      		ldd r25,Y+8
 1652 0a76 FC01      		movw r30,r24
 1653 0a78 3296      		adiw r30,2
 1654 0a7a 8081      		ld r24,Z
 1655 0a7c 8983      		std Y+1,r24
 1656               	.LM117:
 1657 0a7e 8981      		ldd r24,Y+1
 1658 0a80 882F      		mov r24,r24
 1659 0a82 90E0      		ldi r25,lo8(0)
 1660 0a84 807F      		andi r24,lo8(240)
 1661 0a86 9070      		andi r25,hi8(240)
 1662 0a88 8033      		cpi r24,48
 1663 0a8a 9105      		cpc r25,__zero_reg__
 1664 0a8c 01F4      		brne .L58
 1665               	.LM118:
 1666 0a8e 8981      		ldd r24,Y+1
 1667 0a90 8053      		subi r24,lo8(-(-48))
 1668 0a92 8983      		std Y+1,r24
 1669               	.LM119:
 1670 0a94 8981      		ldd r24,Y+1
 1671 0a96 882F      		mov r24,r24
 1672 0a98 90E0      		ldi r25,lo8(0)
 1673 0a9a FC01      		movw r30,r24
 1674 0a9c E050      		subi r30,lo8(-(numbers))
 1675 0a9e F040      		sbci r31,hi8(-(numbers))
 1676 0aa0 8081      		ld r24,Z
 1677 0aa2 882F      		mov r24,r24
 1678 0aa4 90E0      		ldi r25,lo8(0)
 1679 0aa6 A0E0      		ldi r26,lo8(0)
 1680 0aa8 B0E0      		ldi r27,hi8(0)
 1681 0aaa DC01      		movw r26,r24
 1682 0aac 9927      		clr r25
 1683 0aae 8827      		clr r24
 1684 0ab0 8A83      		std Y+2,r24
 1685 0ab2 9B83      		std Y+3,r25
 1686 0ab4 AC83      		std Y+4,r26
 1687 0ab6 BD83      		std Y+5,r27
 1688 0ab8 00C0      		rjmp .L59
 1689               	.L58:
 1690               	.LM120:
 1691 0aba 8981      		ldd r24,Y+1
 1692 0abc 8062      		ori r24,lo8(32)
 1693 0abe 8156      		subi r24,lo8(-(-97))
 1694 0ac0 8983      		std Y+1,r24
 1695               	.LM121:
 1696 0ac2 8981      		ldd r24,Y+1
 1697 0ac4 882F      		mov r24,r24
 1698 0ac6 90E0      		ldi r25,lo8(0)
 1699 0ac8 FC01      		movw r30,r24
 1700 0aca E050      		subi r30,lo8(-(letters))
 1701 0acc F040      		sbci r31,hi8(-(letters))
 1702 0ace 8081      		ld r24,Z
GAS LISTING C:\Users\alex\AppData\Local\Temp/ccyALXvz.s 			page 31


 1703 0ad0 882F      		mov r24,r24
 1704 0ad2 90E0      		ldi r25,lo8(0)
 1705 0ad4 A0E0      		ldi r26,lo8(0)
 1706 0ad6 B0E0      		ldi r27,hi8(0)
 1707 0ad8 AC01      		movw r20,r24
 1708 0ada 3327      		clr r19
 1709 0adc 2227      		clr r18
 1710 0ade 8A81      		ldd r24,Y+2
 1711 0ae0 9B81      		ldd r25,Y+3
 1712 0ae2 AC81      		ldd r26,Y+4
 1713 0ae4 BD81      		ldd r27,Y+5
 1714 0ae6 822B      		or r24,r18
 1715 0ae8 932B      		or r25,r19
 1716 0aea A42B      		or r26,r20
 1717 0aec B52B      		or r27,r21
 1718 0aee 8A83      		std Y+2,r24
 1719 0af0 9B83      		std Y+3,r25
 1720 0af2 AC83      		std Y+4,r26
 1721 0af4 BD83      		std Y+5,r27
 1722               	.L59:
 1723               	.LM122:
 1724 0af6 8F81      		ldd r24,Y+7
 1725 0af8 9885      		ldd r25,Y+8
 1726 0afa FC01      		movw r30,r24
 1727 0afc 3396      		adiw r30,3
 1728 0afe 8081      		ld r24,Z
 1729 0b00 8983      		std Y+1,r24
 1730               	.LM123:
 1731 0b02 8981      		ldd r24,Y+1
 1732 0b04 882F      		mov r24,r24
 1733 0b06 90E0      		ldi r25,lo8(0)
 1734 0b08 807F      		andi r24,lo8(240)
 1735 0b0a 9070      		andi r25,hi8(240)
 1736 0b0c 8033      		cpi r24,48
 1737 0b0e 9105      		cpc r25,__zero_reg__
 1738 0b10 01F4      		brne .L60
 1739               	.LM124:
 1740 0b12 8981      		ldd r24,Y+1
 1741 0b14 8053      		subi r24,lo8(-(-48))
 1742 0b16 8983      		std Y+1,r24
 1743               	.LM125:
 1744 0b18 8981      		ldd r24,Y+1
 1745 0b1a 882F      		mov r24,r24
 1746 0b1c 90E0      		ldi r25,lo8(0)
 1747 0b1e FC01      		movw r30,r24
 1748 0b20 E050      		subi r30,lo8(-(numbers))
 1749 0b22 F040      		sbci r31,hi8(-(numbers))
 1750 0b24 8081      		ld r24,Z
 1751 0b26 882F      		mov r24,r24
 1752 0b28 90E0      		ldi r25,lo8(0)
 1753 0b2a A0E0      		ldi r26,lo8(0)
 1754 0b2c B0E0      		ldi r27,hi8(0)
 1755 0b2e B82F      		mov r27,r24
 1756 0b30 AA27      		clr r26
 1757 0b32 9927      		clr r25
 1758 0b34 8827      		clr r24
 1759 0b36 8A83      		std Y+2,r24
GAS LISTING C:\Users\alex\AppData\Local\Temp/ccyALXvz.s 			page 32


 1760 0b38 9B83      		std Y+3,r25
 1761 0b3a AC83      		std Y+4,r26
 1762 0b3c BD83      		std Y+5,r27
 1763 0b3e 00C0      		rjmp .L61
 1764               	.L60:
 1765               	.LM126:
 1766 0b40 8981      		ldd r24,Y+1
 1767 0b42 8062      		ori r24,lo8(32)
 1768 0b44 8156      		subi r24,lo8(-(-97))
 1769 0b46 8983      		std Y+1,r24
 1770               	.LM127:
 1771 0b48 8981      		ldd r24,Y+1
 1772 0b4a 882F      		mov r24,r24
 1773 0b4c 90E0      		ldi r25,lo8(0)
 1774 0b4e FC01      		movw r30,r24
 1775 0b50 E050      		subi r30,lo8(-(letters))
 1776 0b52 F040      		sbci r31,hi8(-(letters))
 1777 0b54 8081      		ld r24,Z
 1778 0b56 882F      		mov r24,r24
 1779 0b58 90E0      		ldi r25,lo8(0)
 1780 0b5a A0E0      		ldi r26,lo8(0)
 1781 0b5c B0E0      		ldi r27,hi8(0)
 1782 0b5e 582F      		mov r21,r24
 1783 0b60 4427      		clr r20
 1784 0b62 3327      		clr r19
 1785 0b64 2227      		clr r18
 1786 0b66 8A81      		ldd r24,Y+2
 1787 0b68 9B81      		ldd r25,Y+3
 1788 0b6a AC81      		ldd r26,Y+4
 1789 0b6c BD81      		ldd r27,Y+5
 1790 0b6e 822B      		or r24,r18
 1791 0b70 932B      		or r25,r19
 1792 0b72 A42B      		or r26,r20
 1793 0b74 B52B      		or r27,r21
 1794 0b76 8A83      		std Y+2,r24
 1795 0b78 9B83      		std Y+3,r25
 1796 0b7a AC83      		std Y+4,r26
 1797 0b7c BD83      		std Y+5,r27
 1798               	.L61:
 1799               	.LM128:
 1800 0b7e 2A81      		ldd r18,Y+2
 1801 0b80 3B81      		ldd r19,Y+3
 1802 0b82 4C81      		ldd r20,Y+4
 1803 0b84 5D81      		ldd r21,Y+5
 1804 0b86 8E81      		ldd r24,Y+6
 1805 0b88 BA01      		movw r22,r20
 1806 0b8a A901      		movw r20,r18
 1807 0b8c 0E94 0000 		call cat4016_put4
 1808               	/* epilogue start */
 1809               	.LM129:
 1810 0b90 2896      		adiw r28,8
 1811 0b92 0FB6      		in __tmp_reg__,__SREG__
 1812 0b94 F894      		cli
 1813 0b96 DEBF      		out __SP_H__,r29
 1814 0b98 0FBE      		out __SREG__,__tmp_reg__
 1815 0b9a CDBF      		out __SP_L__,r28
 1816 0b9c CF91      		pop r28
GAS LISTING C:\Users\alex\AppData\Local\Temp/ccyALXvz.s 			page 33


 1817 0b9e DF91      		pop r29
 1818 0ba0 0895      		ret
 1819               	.LFE6:
 1820               		.size	cat4016_put_txt, .-cat4016_put_txt
 1821               		.comm cat4016_p_blank,40,1
 1822               		.comm cat4016_p_latch,40,1
 1823               		.comm cat4016_p_data,40,1
 1824               		.comm cat4016_p_clk,40,1
 1825               		.comm cat4016_b_blank,20,1
 1826               		.comm cat4016_b_latch,20,1
 1827               		.comm cat4016_b_data,20,1
 1828               		.comm cat4016_b_clk,20,1
 1829               		.section	.debug_frame,"",@progbits
 1830               	.Lframe0:
 1831 0000 0C00 0000 		.long	.LECIE0-.LSCIE0
 1832               	.LSCIE0:
 1833 0004 FFFF FFFF 		.long	0xffffffff
 1834 0008 01        		.byte	0x1
 1835 0009 00        		.string	""
 1836 000a 01        		.uleb128 0x1
 1837 000b 7F        		.sleb128 -1
 1838 000c 24        		.byte	0x24
 1839 000d 0C        		.byte	0xc
 1840 000e 20        		.uleb128 0x20
 1841 000f 00        		.uleb128 0x0
 1842               		.p2align	2
 1843               	.LECIE0:
 1844               	.LSFDE0:
 1845 0010 0C00 0000 		.long	.LEFDE0-.LASFDE0
 1846               	.LASFDE0:
 1847 0014 0000 0000 		.long	.Lframe0
 1848 0018 0000 0000 		.long	.LFB2
 1849 001c 0A04 0000 		.long	.LFE2-.LFB2
 1850               		.p2align	2
 1851               	.LEFDE0:
 1852               	.LSFDE2:
 1853 0020 0C00 0000 		.long	.LEFDE2-.LASFDE2
 1854               	.LASFDE2:
 1855 0024 0000 0000 		.long	.Lframe0
 1856 0028 0000 0000 		.long	.LFB3
 1857 002c 9601 0000 		.long	.LFE3-.LFB3
 1858               		.p2align	2
 1859               	.LEFDE2:
 1860               	.LSFDE4:
 1861 0030 0C00 0000 		.long	.LEFDE4-.LASFDE4
 1862               	.LASFDE4:
 1863 0034 0000 0000 		.long	.Lframe0
 1864 0038 0000 0000 		.long	.LFB4
 1865 003c BA01 0000 		.long	.LFE4-.LFB4
 1866               		.p2align	2
 1867               	.LEFDE4:
 1868               	.LSFDE6:
 1869 0040 0C00 0000 		.long	.LEFDE6-.LASFDE6
 1870               	.LASFDE6:
 1871 0044 0000 0000 		.long	.Lframe0
 1872 0048 0000 0000 		.long	.LFB5
 1873 004c 1202 0000 		.long	.LFE5-.LFB5
GAS LISTING C:\Users\alex\AppData\Local\Temp/ccyALXvz.s 			page 34


 1874               		.p2align	2
 1875               	.LEFDE6:
 1876               	.LSFDE8:
 1877 0050 0C00 0000 		.long	.LEFDE8-.LASFDE8
 1878               	.LASFDE8:
 1879 0054 0000 0000 		.long	.Lframe0
 1880 0058 0000 0000 		.long	.LFB6
 1881 005c 3602 0000 		.long	.LFE6-.LFB6
 1882               		.p2align	2
 1883               	.LEFDE8:
 1884               		.text
 1885               	.Letext0:
 1886               		.section	.debug_info
 1887 0000 3404 0000 		.long	0x434
 1888 0004 0200      		.word	0x2
 1889 0006 0000 0000 		.long	.Ldebug_abbrev0
 1890 000a 04        		.byte	0x4
 1891 000b 01        		.uleb128 0x1
 1892 000c 0000 0000 		.long	.LASF41
 1893 0010 01        		.byte	0x1
 1894 0011 0000 0000 		.long	.LASF42
 1895 0015 0000 0000 		.long	.LASF43
 1896 0019 0000 0000 		.long	.Ltext0
 1897 001d 0000 0000 		.long	.Letext0
 1898 0021 0000 0000 		.long	.Ldebug_line0
 1899 0025 02        		.uleb128 0x2
 1900 0026 02        		.byte	0x2
 1901 0027 07        		.byte	0x7
 1902 0028 0000 0000 		.long	.LASF0
 1903 002c 03        		.uleb128 0x3
 1904 002d 02        		.byte	0x2
 1905 002e 05        		.byte	0x5
 1906 002f 696E 7400 		.string	"int"
 1907 0033 02        		.uleb128 0x2
 1908 0034 04        		.byte	0x4
 1909 0035 05        		.byte	0x5
 1910 0036 0000 0000 		.long	.LASF1
 1911 003a 02        		.uleb128 0x2
 1912 003b 01        		.byte	0x1
 1913 003c 06        		.byte	0x6
 1914 003d 0000 0000 		.long	.LASF2
 1915 0041 04        		.uleb128 0x4
 1916 0042 0000 0000 		.long	.LASF44
 1917 0046 02        		.byte	0x2
 1918 0047 7A        		.byte	0x7a
 1919 0048 4C00 0000 		.long	0x4c
 1920 004c 02        		.uleb128 0x2
 1921 004d 01        		.byte	0x1
 1922 004e 08        		.byte	0x8
 1923 004f 0000 0000 		.long	.LASF3
 1924 0053 02        		.uleb128 0x2
 1925 0054 04        		.byte	0x4
 1926 0055 07        		.byte	0x7
 1927 0056 0000 0000 		.long	.LASF4
 1928 005a 02        		.uleb128 0x2
 1929 005b 08        		.byte	0x8
 1930 005c 05        		.byte	0x5
GAS LISTING C:\Users\alex\AppData\Local\Temp/ccyALXvz.s 			page 35


 1931 005d 0000 0000 		.long	.LASF5
 1932 0061 02        		.uleb128 0x2
 1933 0062 08        		.byte	0x8
 1934 0063 07        		.byte	0x7
 1935 0064 0000 0000 		.long	.LASF6
 1936 0068 05        		.uleb128 0x5
 1937 0069 01        		.byte	0x1
 1938 006a 08        		.byte	0x8
 1939 006b 06        		.uleb128 0x6
 1940 006c 01        		.byte	0x1
 1941 006d 0000 0000 		.long	.LASF16
 1942 0071 01        		.byte	0x1
 1943 0072 84        		.byte	0x84
 1944 0073 01        		.byte	0x1
 1945 0074 0000 0000 		.long	.LFB2
 1946 0078 0000 0000 		.long	.LFE2
 1947 007c 02        		.byte	0x2
 1948 007d 90        		.byte	0x90
 1949 007e 20        		.uleb128 0x20
 1950 007f 1001 0000 		.long	0x110
 1951 0083 07        		.uleb128 0x7
 1952 0084 0000 0000 		.long	.LASF7
 1953 0088 01        		.byte	0x1
 1954 0089 82        		.byte	0x82
 1955 008a 4100 0000 		.long	0x41
 1956 008e 02        		.byte	0x2
 1957 008f 8C        		.byte	0x8c
 1958 0090 07        		.sleb128 7
 1959 0091 08        		.uleb128 0x8
 1960 0092 636C 6B00 		.string	"clk"
 1961 0096 01        		.byte	0x1
 1962 0097 82        		.byte	0x82
 1963 0098 4100 0000 		.long	0x41
 1964 009c 02        		.byte	0x2
 1965 009d 8C        		.byte	0x8c
 1966 009e 08        		.sleb128 8
 1967 009f 07        		.uleb128 0x7
 1968 00a0 0000 0000 		.long	.LASF8
 1969 00a4 01        		.byte	0x1
 1970 00a5 82        		.byte	0x82
 1971 00a6 4100 0000 		.long	0x41
 1972 00aa 02        		.byte	0x2
 1973 00ab 8C        		.byte	0x8c
 1974 00ac 09        		.sleb128 9
 1975 00ad 07        		.uleb128 0x7
 1976 00ae 0000 0000 		.long	.LASF9
 1977 00b2 01        		.byte	0x1
 1978 00b3 82        		.byte	0x82
 1979 00b4 4100 0000 		.long	0x41
 1980 00b8 02        		.byte	0x2
 1981 00b9 8C        		.byte	0x8c
 1982 00ba 0A        		.sleb128 10
 1983 00bb 07        		.uleb128 0x7
 1984 00bc 0000 0000 		.long	.LASF10
 1985 00c0 01        		.byte	0x1
 1986 00c1 82        		.byte	0x82
 1987 00c2 4100 0000 		.long	0x41
GAS LISTING C:\Users\alex\AppData\Local\Temp/ccyALXvz.s 			page 36


 1988 00c6 02        		.byte	0x2
 1989 00c7 8C        		.byte	0x8c
 1990 00c8 0B        		.sleb128 11
 1991 00c9 09        		.uleb128 0x9
 1992 00ca 0000 0000 		.long	.LASF11
 1993 00ce 01        		.byte	0x1
 1994 00cf 84        		.byte	0x84
 1995 00d0 4100 0000 		.long	0x41
 1996 00d4 02        		.byte	0x2
 1997 00d5 8C        		.byte	0x8c
 1998 00d6 06        		.sleb128 6
 1999 00d7 09        		.uleb128 0x9
 2000 00d8 0000 0000 		.long	.LASF12
 2001 00dc 01        		.byte	0x1
 2002 00dd 84        		.byte	0x84
 2003 00de 4100 0000 		.long	0x41
 2004 00e2 02        		.byte	0x2
 2005 00e3 8C        		.byte	0x8c
 2006 00e4 05        		.sleb128 5
 2007 00e5 09        		.uleb128 0x9
 2008 00e6 0000 0000 		.long	.LASF13
 2009 00ea 01        		.byte	0x1
 2010 00eb 84        		.byte	0x84
 2011 00ec 4100 0000 		.long	0x41
 2012 00f0 02        		.byte	0x2
 2013 00f1 8C        		.byte	0x8c
 2014 00f2 04        		.sleb128 4
 2015 00f3 09        		.uleb128 0x9
 2016 00f4 0000 0000 		.long	.LASF14
 2017 00f8 01        		.byte	0x1
 2018 00f9 84        		.byte	0x84
 2019 00fa 4100 0000 		.long	0x41
 2020 00fe 02        		.byte	0x2
 2021 00ff 8C        		.byte	0x8c
 2022 0100 03        		.sleb128 3
 2023 0101 09        		.uleb128 0x9
 2024 0102 0000 0000 		.long	.LASF15
 2025 0106 01        		.byte	0x1
 2026 0107 85        		.byte	0x85
 2027 0108 1001 0000 		.long	0x110
 2028 010c 02        		.byte	0x2
 2029 010d 8C        		.byte	0x8c
 2030 010e 01        		.sleb128 1
 2031 010f 00        		.byte	0x0
 2032 0110 0A        		.uleb128 0xa
 2033 0111 02        		.byte	0x2
 2034 0112 1601 0000 		.long	0x116
 2035 0116 0B        		.uleb128 0xb
 2036 0117 4100 0000 		.long	0x41
 2037 011b 06        		.uleb128 0x6
 2038 011c 01        		.byte	0x1
 2039 011d 0000 0000 		.long	.LASF17
 2040 0121 01        		.byte	0x1
 2041 0122 B4        		.byte	0xb4
 2042 0123 01        		.byte	0x1
 2043 0124 0000 0000 		.long	.LFB3
 2044 0128 0000 0000 		.long	.LFE3
GAS LISTING C:\Users\alex\AppData\Local\Temp/ccyALXvz.s 			page 37


 2045 012c 02        		.byte	0x2
 2046 012d 90        		.byte	0x90
 2047 012e 20        		.uleb128 0x20
 2048 012f BB01 0000 		.long	0x1bb
 2049 0133 07        		.uleb128 0x7
 2050 0134 0000 0000 		.long	.LASF7
 2051 0138 01        		.byte	0x1
 2052 0139 B2        		.byte	0xb2
 2053 013a 4100 0000 		.long	0x41
 2054 013e 02        		.byte	0x2
 2055 013f 8C        		.byte	0x8c
 2056 0140 0F        		.sleb128 15
 2057 0141 08        		.uleb128 0x8
 2058 0142 6300      		.string	"c"
 2059 0144 01        		.byte	0x1
 2060 0145 B2        		.byte	0xb2
 2061 0146 5300 0000 		.long	0x53
 2062 014a 02        		.byte	0x2
 2063 014b 8C        		.byte	0x8c
 2064 014c 10        		.sleb128 16
 2065 014d 09        		.uleb128 0x9
 2066 014e 0000 0000 		.long	.LASF18
 2067 0152 01        		.byte	0x1
 2068 0153 B5        		.byte	0xb5
 2069 0154 1001 0000 		.long	0x110
 2070 0158 02        		.byte	0x2
 2071 0159 8C        		.byte	0x8c
 2072 015a 0D        		.sleb128 13
 2073 015b 09        		.uleb128 0x9
 2074 015c 0000 0000 		.long	.LASF19
 2075 0160 01        		.byte	0x1
 2076 0161 B5        		.byte	0xb5
 2077 0162 1001 0000 		.long	0x110
 2078 0166 02        		.byte	0x2
 2079 0167 8C        		.byte	0x8c
 2080 0168 0B        		.sleb128 11
 2081 0169 09        		.uleb128 0x9
 2082 016a 0000 0000 		.long	.LASF20
 2083 016e 01        		.byte	0x1
 2084 016f B5        		.byte	0xb5
 2085 0170 1001 0000 		.long	0x110
 2086 0174 02        		.byte	0x2
 2087 0175 8C        		.byte	0x8c
 2088 0176 09        		.sleb128 9
 2089 0177 0C        		.uleb128 0xc
 2090 0178 6363 00   		.string	"cc"
 2091 017b 01        		.byte	0x1
 2092 017c B6        		.byte	0xb6
 2093 017d 5300 0000 		.long	0x53
 2094 0181 02        		.byte	0x2
 2095 0182 8C        		.byte	0x8c
 2096 0183 05        		.sleb128 5
 2097 0184 09        		.uleb128 0x9
 2098 0185 0000 0000 		.long	.LASF11
 2099 0189 01        		.byte	0x1
 2100 018a B7        		.byte	0xb7
 2101 018b 4100 0000 		.long	0x41
GAS LISTING C:\Users\alex\AppData\Local\Temp/ccyALXvz.s 			page 38


 2102 018f 02        		.byte	0x2
 2103 0190 8C        		.byte	0x8c
 2104 0191 04        		.sleb128 4
 2105 0192 09        		.uleb128 0x9
 2106 0193 0000 0000 		.long	.LASF12
 2107 0197 01        		.byte	0x1
 2108 0198 B7        		.byte	0xb7
 2109 0199 4100 0000 		.long	0x41
 2110 019d 02        		.byte	0x2
 2111 019e 8C        		.byte	0x8c
 2112 019f 03        		.sleb128 3
 2113 01a0 09        		.uleb128 0x9
 2114 01a1 0000 0000 		.long	.LASF13
 2115 01a5 01        		.byte	0x1
 2116 01a6 B7        		.byte	0xb7
 2117 01a7 4100 0000 		.long	0x41
 2118 01ab 02        		.byte	0x2
 2119 01ac 8C        		.byte	0x8c
 2120 01ad 02        		.sleb128 2
 2121 01ae 0C        		.uleb128 0xc
 2122 01af 6900      		.string	"i"
 2123 01b1 01        		.byte	0x1
 2124 01b2 B8        		.byte	0xb8
 2125 01b3 4100 0000 		.long	0x41
 2126 01b7 02        		.byte	0x2
 2127 01b8 8C        		.byte	0x8c
 2128 01b9 01        		.sleb128 1
 2129 01ba 00        		.byte	0x0
 2130 01bb 06        		.uleb128 0x6
 2131 01bc 01        		.byte	0x1
 2132 01bd 0000 0000 		.long	.LASF21
 2133 01c1 01        		.byte	0x1
 2134 01c2 E1        		.byte	0xe1
 2135 01c3 01        		.byte	0x1
 2136 01c4 0000 0000 		.long	.LFB4
 2137 01c8 0000 0000 		.long	.LFE4
 2138 01cc 02        		.byte	0x2
 2139 01cd 90        		.byte	0x90
 2140 01ce 20        		.uleb128 0x20
 2141 01cf 1802 0000 		.long	0x218
 2142 01d3 07        		.uleb128 0x7
 2143 01d4 0000 0000 		.long	.LASF7
 2144 01d8 01        		.byte	0x1
 2145 01d9 E0        		.byte	0xe0
 2146 01da 4100 0000 		.long	0x41
 2147 01de 02        		.byte	0x2
 2148 01df 8C        		.byte	0x8c
 2149 01e0 08        		.sleb128 8
 2150 01e1 08        		.uleb128 0x8
 2151 01e2 6E75 6D00 		.string	"num"
 2152 01e6 01        		.byte	0x1
 2153 01e7 E0        		.byte	0xe0
 2154 01e8 2500 0000 		.long	0x25
 2155 01ec 02        		.byte	0x2
 2156 01ed 8C        		.byte	0x8c
 2157 01ee 09        		.sleb128 9
 2158 01ef 09        		.uleb128 0x9
GAS LISTING C:\Users\alex\AppData\Local\Temp/ccyALXvz.s 			page 39


 2159 01f0 0000 0000 		.long	.LASF22
 2160 01f4 01        		.byte	0x1
 2161 01f5 E2        		.byte	0xe2
 2162 01f6 4100 0000 		.long	0x41
 2163 01fa 02        		.byte	0x2
 2164 01fb 8C        		.byte	0x8c
 2165 01fc 07        		.sleb128 7
 2166 01fd 09        		.uleb128 0x9
 2167 01fe 0000 0000 		.long	.LASF23
 2168 0202 01        		.byte	0x1
 2169 0203 E3        		.byte	0xe3
 2170 0204 2C00 0000 		.long	0x2c
 2171 0208 02        		.byte	0x2
 2172 0209 8C        		.byte	0x8c
 2173 020a 05        		.sleb128 5
 2174 020b 0C        		.uleb128 0xc
 2175 020c 7700      		.string	"w"
 2176 020e 01        		.byte	0x1
 2177 020f E4        		.byte	0xe4
 2178 0210 5300 0000 		.long	0x53
 2179 0214 02        		.byte	0x2
 2180 0215 8C        		.byte	0x8c
 2181 0216 01        		.sleb128 1
 2182 0217 00        		.byte	0x0
 2183 0218 0D        		.uleb128 0xd
 2184 0219 01        		.byte	0x1
 2185 021a 0000 0000 		.long	.LASF24
 2186 021e 01        		.byte	0x1
 2187 021f 0401      		.word	0x104
 2188 0221 01        		.byte	0x1
 2189 0222 0000 0000 		.long	.LFB5
 2190 0226 0000 0000 		.long	.LFE5
 2191 022a 02        		.byte	0x2
 2192 022b 90        		.byte	0x90
 2193 022c 20        		.uleb128 0x20
 2194 022d 7B02 0000 		.long	0x27b
 2195 0231 0E        		.uleb128 0xe
 2196 0232 0000 0000 		.long	.LASF7
 2197 0236 01        		.byte	0x1
 2198 0237 0301      		.word	0x103
 2199 0239 4100 0000 		.long	0x41
 2200 023d 02        		.byte	0x2
 2201 023e 8C        		.byte	0x8c
 2202 023f 08        		.sleb128 8
 2203 0240 0F        		.uleb128 0xf
 2204 0241 6E75 6D00 		.string	"num"
 2205 0245 01        		.byte	0x1
 2206 0246 0301      		.word	0x103
 2207 0248 2C00 0000 		.long	0x2c
 2208 024c 02        		.byte	0x2
 2209 024d 8C        		.byte	0x8c
 2210 024e 09        		.sleb128 9
 2211 024f 10        		.uleb128 0x10
 2212 0250 7700      		.string	"w"
 2213 0252 01        		.byte	0x1
 2214 0253 0501      		.word	0x105
 2215 0255 5300 0000 		.long	0x53
GAS LISTING C:\Users\alex\AppData\Local\Temp/ccyALXvz.s 			page 40


 2216 0259 02        		.byte	0x2
 2217 025a 8C        		.byte	0x8c
 2218 025b 04        		.sleb128 4
 2219 025c 11        		.uleb128 0x11
 2220 025d 0000 0000 		.long	.LASF23
 2221 0261 01        		.byte	0x1
 2222 0262 0601      		.word	0x106
 2223 0264 2C00 0000 		.long	0x2c
 2224 0268 02        		.byte	0x2
 2225 0269 8C        		.byte	0x8c
 2226 026a 02        		.sleb128 2
 2227 026b 11        		.uleb128 0x11
 2228 026c 0000 0000 		.long	.LASF22
 2229 0270 01        		.byte	0x1
 2230 0271 0701      		.word	0x107
 2231 0273 4100 0000 		.long	0x41
 2232 0277 02        		.byte	0x2
 2233 0278 8C        		.byte	0x8c
 2234 0279 01        		.sleb128 1
 2235 027a 00        		.byte	0x0
 2236 027b 0D        		.uleb128 0xd
 2237 027c 01        		.byte	0x1
 2238 027d 0000 0000 		.long	.LASF25
 2239 0281 01        		.byte	0x1
 2240 0282 3401      		.word	0x134
 2241 0284 01        		.byte	0x1
 2242 0285 0000 0000 		.long	.LFB6
 2243 0289 0000 0000 		.long	.LFE6
 2244 028d 02        		.byte	0x2
 2245 028e 90        		.byte	0x90
 2246 028f 20        		.uleb128 0x20
 2247 0290 CB02 0000 		.long	0x2cb
 2248 0294 0E        		.uleb128 0xe
 2249 0295 0000 0000 		.long	.LASF7
 2250 0299 01        		.byte	0x1
 2251 029a 3301      		.word	0x133
 2252 029c 4100 0000 		.long	0x41
 2253 02a0 02        		.byte	0x2
 2254 02a1 8C        		.byte	0x8c
 2255 02a2 06        		.sleb128 6
 2256 02a3 0F        		.uleb128 0xf
 2257 02a4 7300      		.string	"s"
 2258 02a6 01        		.byte	0x1
 2259 02a7 3301      		.word	0x133
 2260 02a9 CB02 0000 		.long	0x2cb
 2261 02ad 02        		.byte	0x2
 2262 02ae 8C        		.byte	0x8c
 2263 02af 07        		.sleb128 7
 2264 02b0 10        		.uleb128 0x10
 2265 02b1 7700      		.string	"w"
 2266 02b3 01        		.byte	0x1
 2267 02b4 3501      		.word	0x135
 2268 02b6 5300 0000 		.long	0x53
 2269 02ba 02        		.byte	0x2
 2270 02bb 8C        		.byte	0x8c
 2271 02bc 02        		.sleb128 2
 2272 02bd 10        		.uleb128 0x10
GAS LISTING C:\Users\alex\AppData\Local\Temp/ccyALXvz.s 			page 41


 2273 02be 6300      		.string	"c"
 2274 02c0 01        		.byte	0x1
 2275 02c1 3601      		.word	0x136
 2276 02c3 4100 0000 		.long	0x41
 2277 02c7 02        		.byte	0x2
 2278 02c8 8C        		.byte	0x8c
 2279 02c9 01        		.sleb128 1
 2280 02ca 00        		.byte	0x0
 2281 02cb 0A        		.uleb128 0xa
 2282 02cc 02        		.byte	0x2
 2283 02cd D102 0000 		.long	0x2d1
 2284 02d1 02        		.uleb128 0x2
 2285 02d2 01        		.byte	0x1
 2286 02d3 08        		.byte	0x8
 2287 02d4 0000 0000 		.long	.LASF26
 2288 02d8 12        		.uleb128 0x12
 2289 02d9 1001 0000 		.long	0x110
 2290 02dd E802 0000 		.long	0x2e8
 2291 02e1 13        		.uleb128 0x13
 2292 02e2 E802 0000 		.long	0x2e8
 2293 02e6 13        		.byte	0x13
 2294 02e7 00        		.byte	0x0
 2295 02e8 05        		.uleb128 0x5
 2296 02e9 02        		.byte	0x2
 2297 02ea 07        		.byte	0x7
 2298 02eb 14        		.uleb128 0x14
 2299 02ec 0000 0000 		.long	.LASF27
 2300 02f0 01        		.byte	0x1
 2301 02f1 12        		.byte	0x12
 2302 02f2 D802 0000 		.long	0x2d8
 2303 02f6 01        		.byte	0x1
 2304 02f7 05        		.byte	0x5
 2305 02f8 03        		.byte	0x3
 2306 02f9 0000 0000 		.long	cat4016_p_blank
 2307 02fd 14        		.uleb128 0x14
 2308 02fe 0000 0000 		.long	.LASF28
 2309 0302 01        		.byte	0x1
 2310 0303 13        		.byte	0x13
 2311 0304 D802 0000 		.long	0x2d8
 2312 0308 01        		.byte	0x1
 2313 0309 05        		.byte	0x5
 2314 030a 03        		.byte	0x3
 2315 030b 0000 0000 		.long	cat4016_p_latch
 2316 030f 14        		.uleb128 0x14
 2317 0310 0000 0000 		.long	.LASF29
 2318 0314 01        		.byte	0x1
 2319 0315 14        		.byte	0x14
 2320 0316 D802 0000 		.long	0x2d8
 2321 031a 01        		.byte	0x1
 2322 031b 05        		.byte	0x5
 2323 031c 03        		.byte	0x3
 2324 031d 0000 0000 		.long	cat4016_p_data
 2325 0321 14        		.uleb128 0x14
 2326 0322 0000 0000 		.long	.LASF30
 2327 0326 01        		.byte	0x1
 2328 0327 15        		.byte	0x15
 2329 0328 D802 0000 		.long	0x2d8
GAS LISTING C:\Users\alex\AppData\Local\Temp/ccyALXvz.s 			page 42


 2330 032c 01        		.byte	0x1
 2331 032d 05        		.byte	0x5
 2332 032e 03        		.byte	0x3
 2333 032f 0000 0000 		.long	cat4016_p_clk
 2334 0333 12        		.uleb128 0x12
 2335 0334 4100 0000 		.long	0x41
 2336 0338 4303 0000 		.long	0x343
 2337 033c 13        		.uleb128 0x13
 2338 033d E802 0000 		.long	0x2e8
 2339 0341 13        		.byte	0x13
 2340 0342 00        		.byte	0x0
 2341 0343 14        		.uleb128 0x14
 2342 0344 0000 0000 		.long	.LASF31
 2343 0348 01        		.byte	0x1
 2344 0349 17        		.byte	0x17
 2345 034a 3303 0000 		.long	0x333
 2346 034e 01        		.byte	0x1
 2347 034f 05        		.byte	0x5
 2348 0350 03        		.byte	0x3
 2349 0351 0000 0000 		.long	cat4016_b_blank
 2350 0355 14        		.uleb128 0x14
 2351 0356 0000 0000 		.long	.LASF32
 2352 035a 01        		.byte	0x1
 2353 035b 18        		.byte	0x18
 2354 035c 3303 0000 		.long	0x333
 2355 0360 01        		.byte	0x1
 2356 0361 05        		.byte	0x5
 2357 0362 03        		.byte	0x3
 2358 0363 0000 0000 		.long	cat4016_b_latch
 2359 0367 14        		.uleb128 0x14
 2360 0368 0000 0000 		.long	.LASF33
 2361 036c 01        		.byte	0x1
 2362 036d 19        		.byte	0x19
 2363 036e 3303 0000 		.long	0x333
 2364 0372 01        		.byte	0x1
 2365 0373 05        		.byte	0x5
 2366 0374 03        		.byte	0x3
 2367 0375 0000 0000 		.long	cat4016_b_data
 2368 0379 14        		.uleb128 0x14
 2369 037a 0000 0000 		.long	.LASF34
 2370 037e 01        		.byte	0x1
 2371 037f 1A        		.byte	0x1a
 2372 0380 3303 0000 		.long	0x333
 2373 0384 01        		.byte	0x1
 2374 0385 05        		.byte	0x5
 2375 0386 03        		.byte	0x3
 2376 0387 0000 0000 		.long	cat4016_b_clk
 2377 038b 12        		.uleb128 0x12
 2378 038c 4C00 0000 		.long	0x4c
 2379 0390 9B03 0000 		.long	0x39b
 2380 0394 13        		.uleb128 0x13
 2381 0395 E802 0000 		.long	0x2e8
 2382 0399 0A        		.byte	0xa
 2383 039a 00        		.byte	0x0
 2384 039b 14        		.uleb128 0x14
 2385 039c 0000 0000 		.long	.LASF35
 2386 03a0 01        		.byte	0x1
GAS LISTING C:\Users\alex\AppData\Local\Temp/ccyALXvz.s 			page 43


 2387 03a1 21        		.byte	0x21
 2388 03a2 8B03 0000 		.long	0x38b
 2389 03a6 01        		.byte	0x1
 2390 03a7 05        		.byte	0x5
 2391 03a8 03        		.byte	0x3
 2392 03a9 0000 0000 		.long	numbers
 2393 03ad 12        		.uleb128 0x12
 2394 03ae 4C00 0000 		.long	0x4c
 2395 03b2 BD03 0000 		.long	0x3bd
 2396 03b6 13        		.uleb128 0x13
 2397 03b7 E802 0000 		.long	0x2e8
 2398 03bb 0F        		.byte	0xf
 2399 03bc 00        		.byte	0x0
 2400 03bd 14        		.uleb128 0x14
 2401 03be 0000 0000 		.long	.LASF36
 2402 03c2 01        		.byte	0x1
 2403 03c3 31        		.byte	0x31
 2404 03c4 AD03 0000 		.long	0x3ad
 2405 03c8 01        		.byte	0x1
 2406 03c9 05        		.byte	0x5
 2407 03ca 03        		.byte	0x3
 2408 03cb 0000 0000 		.long	hex_numbers
 2409 03cf 12        		.uleb128 0x12
 2410 03d0 4C00 0000 		.long	0x4c
 2411 03d4 DF03 0000 		.long	0x3df
 2412 03d8 13        		.uleb128 0x13
 2413 03d9 E802 0000 		.long	0x2e8
 2414 03dd 1A        		.byte	0x1a
 2415 03de 00        		.byte	0x0
 2416 03df 14        		.uleb128 0x14
 2417 03e0 0000 0000 		.long	.LASF37
 2418 03e4 01        		.byte	0x1
 2419 03e5 46        		.byte	0x46
 2420 03e6 CF03 0000 		.long	0x3cf
 2421 03ea 01        		.byte	0x1
 2422 03eb 05        		.byte	0x5
 2423 03ec 03        		.byte	0x3
 2424 03ed 0000 0000 		.long	letters
 2425 03f1 14        		.uleb128 0x14
 2426 03f2 0000 0000 		.long	.LASF38
 2427 03f6 01        		.byte	0x1
 2428 03f7 66        		.byte	0x66
 2429 03f8 CF03 0000 		.long	0x3cf
 2430 03fc 01        		.byte	0x1
 2431 03fd 05        		.byte	0x5
 2432 03fe 03        		.byte	0x3
 2433 03ff 0000 0000 		.long	special_up
 2434 0403 14        		.uleb128 0x14
 2435 0404 0000 0000 		.long	.LASF39
 2436 0408 01        		.byte	0x1
 2437 0409 6D        		.byte	0x6d
 2438 040a CF03 0000 		.long	0x3cf
 2439 040e 01        		.byte	0x1
 2440 040f 05        		.byte	0x5
 2441 0410 03        		.byte	0x3
 2442 0411 0000 0000 		.long	special_down
 2443 0415 12        		.uleb128 0x12
GAS LISTING C:\Users\alex\AppData\Local\Temp/ccyALXvz.s 			page 44


 2444 0416 4C00 0000 		.long	0x4c
 2445 041a 2504 0000 		.long	0x425
 2446 041e 13        		.uleb128 0x13
 2447 041f E802 0000 		.long	0x2e8
 2448 0423 05        		.byte	0x5
 2449 0424 00        		.byte	0x0
 2450 0425 14        		.uleb128 0x14
 2451 0426 0000 0000 		.long	.LASF40
 2452 042a 01        		.byte	0x1
 2453 042b 74        		.byte	0x74
 2454 042c 1504 0000 		.long	0x415
 2455 0430 01        		.byte	0x1
 2456 0431 05        		.byte	0x5
 2457 0432 03        		.byte	0x3
 2458 0433 0000 0000 		.long	special_updown
 2459 0437 00        		.byte	0x0
 2460               		.section	.debug_abbrev
 2461 0000 01        		.uleb128 0x1
 2462 0001 11        		.uleb128 0x11
 2463 0002 01        		.byte	0x1
 2464 0003 25        		.uleb128 0x25
 2465 0004 0E        		.uleb128 0xe
 2466 0005 13        		.uleb128 0x13
 2467 0006 0B        		.uleb128 0xb
 2468 0007 03        		.uleb128 0x3
 2469 0008 0E        		.uleb128 0xe
 2470 0009 1B        		.uleb128 0x1b
 2471 000a 0E        		.uleb128 0xe
 2472 000b 11        		.uleb128 0x11
 2473 000c 01        		.uleb128 0x1
 2474 000d 12        		.uleb128 0x12
 2475 000e 01        		.uleb128 0x1
 2476 000f 10        		.uleb128 0x10
 2477 0010 06        		.uleb128 0x6
 2478 0011 00        		.byte	0x0
 2479 0012 00        		.byte	0x0
 2480 0013 02        		.uleb128 0x2
 2481 0014 24        		.uleb128 0x24
 2482 0015 00        		.byte	0x0
 2483 0016 0B        		.uleb128 0xb
 2484 0017 0B        		.uleb128 0xb
 2485 0018 3E        		.uleb128 0x3e
 2486 0019 0B        		.uleb128 0xb
 2487 001a 03        		.uleb128 0x3
 2488 001b 0E        		.uleb128 0xe
 2489 001c 00        		.byte	0x0
 2490 001d 00        		.byte	0x0
 2491 001e 03        		.uleb128 0x3
 2492 001f 24        		.uleb128 0x24
 2493 0020 00        		.byte	0x0
 2494 0021 0B        		.uleb128 0xb
 2495 0022 0B        		.uleb128 0xb
 2496 0023 3E        		.uleb128 0x3e
 2497 0024 0B        		.uleb128 0xb
 2498 0025 03        		.uleb128 0x3
 2499 0026 08        		.uleb128 0x8
 2500 0027 00        		.byte	0x0
GAS LISTING C:\Users\alex\AppData\Local\Temp/ccyALXvz.s 			page 45


 2501 0028 00        		.byte	0x0
 2502 0029 04        		.uleb128 0x4
 2503 002a 16        		.uleb128 0x16
 2504 002b 00        		.byte	0x0
 2505 002c 03        		.uleb128 0x3
 2506 002d 0E        		.uleb128 0xe
 2507 002e 3A        		.uleb128 0x3a
 2508 002f 0B        		.uleb128 0xb
 2509 0030 3B        		.uleb128 0x3b
 2510 0031 0B        		.uleb128 0xb
 2511 0032 49        		.uleb128 0x49
 2512 0033 13        		.uleb128 0x13
 2513 0034 00        		.byte	0x0
 2514 0035 00        		.byte	0x0
 2515 0036 05        		.uleb128 0x5
 2516 0037 24        		.uleb128 0x24
 2517 0038 00        		.byte	0x0
 2518 0039 0B        		.uleb128 0xb
 2519 003a 0B        		.uleb128 0xb
 2520 003b 3E        		.uleb128 0x3e
 2521 003c 0B        		.uleb128 0xb
 2522 003d 00        		.byte	0x0
 2523 003e 00        		.byte	0x0
 2524 003f 06        		.uleb128 0x6
 2525 0040 2E        		.uleb128 0x2e
 2526 0041 01        		.byte	0x1
 2527 0042 3F        		.uleb128 0x3f
 2528 0043 0C        		.uleb128 0xc
 2529 0044 03        		.uleb128 0x3
 2530 0045 0E        		.uleb128 0xe
 2531 0046 3A        		.uleb128 0x3a
 2532 0047 0B        		.uleb128 0xb
 2533 0048 3B        		.uleb128 0x3b
 2534 0049 0B        		.uleb128 0xb
 2535 004a 27        		.uleb128 0x27
 2536 004b 0C        		.uleb128 0xc
 2537 004c 11        		.uleb128 0x11
 2538 004d 01        		.uleb128 0x1
 2539 004e 12        		.uleb128 0x12
 2540 004f 01        		.uleb128 0x1
 2541 0050 40        		.uleb128 0x40
 2542 0051 0A        		.uleb128 0xa
 2543 0052 01        		.uleb128 0x1
 2544 0053 13        		.uleb128 0x13
 2545 0054 00        		.byte	0x0
 2546 0055 00        		.byte	0x0
 2547 0056 07        		.uleb128 0x7
 2548 0057 05        		.uleb128 0x5
 2549 0058 00        		.byte	0x0
 2550 0059 03        		.uleb128 0x3
 2551 005a 0E        		.uleb128 0xe
 2552 005b 3A        		.uleb128 0x3a
 2553 005c 0B        		.uleb128 0xb
 2554 005d 3B        		.uleb128 0x3b
 2555 005e 0B        		.uleb128 0xb
 2556 005f 49        		.uleb128 0x49
 2557 0060 13        		.uleb128 0x13
GAS LISTING C:\Users\alex\AppData\Local\Temp/ccyALXvz.s 			page 46


 2558 0061 02        		.uleb128 0x2
 2559 0062 0A        		.uleb128 0xa
 2560 0063 00        		.byte	0x0
 2561 0064 00        		.byte	0x0
 2562 0065 08        		.uleb128 0x8
 2563 0066 05        		.uleb128 0x5
 2564 0067 00        		.byte	0x0
 2565 0068 03        		.uleb128 0x3
 2566 0069 08        		.uleb128 0x8
 2567 006a 3A        		.uleb128 0x3a
 2568 006b 0B        		.uleb128 0xb
 2569 006c 3B        		.uleb128 0x3b
 2570 006d 0B        		.uleb128 0xb
 2571 006e 49        		.uleb128 0x49
 2572 006f 13        		.uleb128 0x13
 2573 0070 02        		.uleb128 0x2
 2574 0071 0A        		.uleb128 0xa
 2575 0072 00        		.byte	0x0
 2576 0073 00        		.byte	0x0
 2577 0074 09        		.uleb128 0x9
 2578 0075 34        		.uleb128 0x34
 2579 0076 00        		.byte	0x0
 2580 0077 03        		.uleb128 0x3
 2581 0078 0E        		.uleb128 0xe
 2582 0079 3A        		.uleb128 0x3a
 2583 007a 0B        		.uleb128 0xb
 2584 007b 3B        		.uleb128 0x3b
 2585 007c 0B        		.uleb128 0xb
 2586 007d 49        		.uleb128 0x49
 2587 007e 13        		.uleb128 0x13
 2588 007f 02        		.uleb128 0x2
 2589 0080 0A        		.uleb128 0xa
 2590 0081 00        		.byte	0x0
 2591 0082 00        		.byte	0x0
 2592 0083 0A        		.uleb128 0xa
 2593 0084 0F        		.uleb128 0xf
 2594 0085 00        		.byte	0x0
 2595 0086 0B        		.uleb128 0xb
 2596 0087 0B        		.uleb128 0xb
 2597 0088 49        		.uleb128 0x49
 2598 0089 13        		.uleb128 0x13
 2599 008a 00        		.byte	0x0
 2600 008b 00        		.byte	0x0
 2601 008c 0B        		.uleb128 0xb
 2602 008d 35        		.uleb128 0x35
 2603 008e 00        		.byte	0x0
 2604 008f 49        		.uleb128 0x49
 2605 0090 13        		.uleb128 0x13
 2606 0091 00        		.byte	0x0
 2607 0092 00        		.byte	0x0
 2608 0093 0C        		.uleb128 0xc
 2609 0094 34        		.uleb128 0x34
 2610 0095 00        		.byte	0x0
 2611 0096 03        		.uleb128 0x3
 2612 0097 08        		.uleb128 0x8
 2613 0098 3A        		.uleb128 0x3a
 2614 0099 0B        		.uleb128 0xb
GAS LISTING C:\Users\alex\AppData\Local\Temp/ccyALXvz.s 			page 47


 2615 009a 3B        		.uleb128 0x3b
 2616 009b 0B        		.uleb128 0xb
 2617 009c 49        		.uleb128 0x49
 2618 009d 13        		.uleb128 0x13
 2619 009e 02        		.uleb128 0x2
 2620 009f 0A        		.uleb128 0xa
 2621 00a0 00        		.byte	0x0
 2622 00a1 00        		.byte	0x0
 2623 00a2 0D        		.uleb128 0xd
 2624 00a3 2E        		.uleb128 0x2e
 2625 00a4 01        		.byte	0x1
 2626 00a5 3F        		.uleb128 0x3f
 2627 00a6 0C        		.uleb128 0xc
 2628 00a7 03        		.uleb128 0x3
 2629 00a8 0E        		.uleb128 0xe
 2630 00a9 3A        		.uleb128 0x3a
 2631 00aa 0B        		.uleb128 0xb
 2632 00ab 3B        		.uleb128 0x3b
 2633 00ac 05        		.uleb128 0x5
 2634 00ad 27        		.uleb128 0x27
 2635 00ae 0C        		.uleb128 0xc
 2636 00af 11        		.uleb128 0x11
 2637 00b0 01        		.uleb128 0x1
 2638 00b1 12        		.uleb128 0x12
 2639 00b2 01        		.uleb128 0x1
 2640 00b3 40        		.uleb128 0x40
 2641 00b4 0A        		.uleb128 0xa
 2642 00b5 01        		.uleb128 0x1
 2643 00b6 13        		.uleb128 0x13
 2644 00b7 00        		.byte	0x0
 2645 00b8 00        		.byte	0x0
 2646 00b9 0E        		.uleb128 0xe
 2647 00ba 05        		.uleb128 0x5
 2648 00bb 00        		.byte	0x0
 2649 00bc 03        		.uleb128 0x3
 2650 00bd 0E        		.uleb128 0xe
 2651 00be 3A        		.uleb128 0x3a
 2652 00bf 0B        		.uleb128 0xb
 2653 00c0 3B        		.uleb128 0x3b
 2654 00c1 05        		.uleb128 0x5
 2655 00c2 49        		.uleb128 0x49
 2656 00c3 13        		.uleb128 0x13
 2657 00c4 02        		.uleb128 0x2
 2658 00c5 0A        		.uleb128 0xa
 2659 00c6 00        		.byte	0x0
 2660 00c7 00        		.byte	0x0
 2661 00c8 0F        		.uleb128 0xf
 2662 00c9 05        		.uleb128 0x5
 2663 00ca 00        		.byte	0x0
 2664 00cb 03        		.uleb128 0x3
 2665 00cc 08        		.uleb128 0x8
 2666 00cd 3A        		.uleb128 0x3a
 2667 00ce 0B        		.uleb128 0xb
 2668 00cf 3B        		.uleb128 0x3b
 2669 00d0 05        		.uleb128 0x5
 2670 00d1 49        		.uleb128 0x49
 2671 00d2 13        		.uleb128 0x13
GAS LISTING C:\Users\alex\AppData\Local\Temp/ccyALXvz.s 			page 48


 2672 00d3 02        		.uleb128 0x2
 2673 00d4 0A        		.uleb128 0xa
 2674 00d5 00        		.byte	0x0
 2675 00d6 00        		.byte	0x0
 2676 00d7 10        		.uleb128 0x10
 2677 00d8 34        		.uleb128 0x34
 2678 00d9 00        		.byte	0x0
 2679 00da 03        		.uleb128 0x3
 2680 00db 08        		.uleb128 0x8
 2681 00dc 3A        		.uleb128 0x3a
 2682 00dd 0B        		.uleb128 0xb
 2683 00de 3B        		.uleb128 0x3b
 2684 00df 05        		.uleb128 0x5
 2685 00e0 49        		.uleb128 0x49
 2686 00e1 13        		.uleb128 0x13
 2687 00e2 02        		.uleb128 0x2
 2688 00e3 0A        		.uleb128 0xa
 2689 00e4 00        		.byte	0x0
 2690 00e5 00        		.byte	0x0
 2691 00e6 11        		.uleb128 0x11
 2692 00e7 34        		.uleb128 0x34
 2693 00e8 00        		.byte	0x0
 2694 00e9 03        		.uleb128 0x3
 2695 00ea 0E        		.uleb128 0xe
 2696 00eb 3A        		.uleb128 0x3a
 2697 00ec 0B        		.uleb128 0xb
 2698 00ed 3B        		.uleb128 0x3b
 2699 00ee 05        		.uleb128 0x5
 2700 00ef 49        		.uleb128 0x49
 2701 00f0 13        		.uleb128 0x13
 2702 00f1 02        		.uleb128 0x2
 2703 00f2 0A        		.uleb128 0xa
 2704 00f3 00        		.byte	0x0
 2705 00f4 00        		.byte	0x0
 2706 00f5 12        		.uleb128 0x12
 2707 00f6 01        		.uleb128 0x1
 2708 00f7 01        		.byte	0x1
 2709 00f8 49        		.uleb128 0x49
 2710 00f9 13        		.uleb128 0x13
 2711 00fa 01        		.uleb128 0x1
 2712 00fb 13        		.uleb128 0x13
 2713 00fc 00        		.byte	0x0
 2714 00fd 00        		.byte	0x0
 2715 00fe 13        		.uleb128 0x13
 2716 00ff 21        		.uleb128 0x21
 2717 0100 00        		.byte	0x0
 2718 0101 49        		.uleb128 0x49
 2719 0102 13        		.uleb128 0x13
 2720 0103 2F        		.uleb128 0x2f
 2721 0104 0B        		.uleb128 0xb
 2722 0105 00        		.byte	0x0
 2723 0106 00        		.byte	0x0
 2724 0107 14        		.uleb128 0x14
 2725 0108 34        		.uleb128 0x34
 2726 0109 00        		.byte	0x0
 2727 010a 03        		.uleb128 0x3
 2728 010b 0E        		.uleb128 0xe
GAS LISTING C:\Users\alex\AppData\Local\Temp/ccyALXvz.s 			page 49


 2729 010c 3A        		.uleb128 0x3a
 2730 010d 0B        		.uleb128 0xb
 2731 010e 3B        		.uleb128 0x3b
 2732 010f 0B        		.uleb128 0xb
 2733 0110 49        		.uleb128 0x49
 2734 0111 13        		.uleb128 0x13
 2735 0112 3F        		.uleb128 0x3f
 2736 0113 0C        		.uleb128 0xc
 2737 0114 02        		.uleb128 0x2
 2738 0115 0A        		.uleb128 0xa
 2739 0116 00        		.byte	0x0
 2740 0117 00        		.byte	0x0
 2741 0118 00        		.byte	0x0
 2742               		.section	.debug_pubnames,"",@progbits
 2743 0000 6901 0000 		.long	0x169
 2744 0004 0200      		.word	0x2
 2745 0006 0000 0000 		.long	.Ldebug_info0
 2746 000a 3804 0000 		.long	0x438
 2747 000e 6B00 0000 		.long	0x6b
 2748 0012 696E 6974 		.string	"init_cat4016"
 2748      5F63 6174 
 2748      3430 3136 
 2748      00
 2749 001f 1B01 0000 		.long	0x11b
 2750 0023 6361 7434 		.string	"cat4016_put4"
 2750      3031 365F 
 2750      7075 7434 
 2750      00
 2751 0030 BB01 0000 		.long	0x1bb
 2752 0034 6361 7434 		.string	"cat4016_put_unumber"
 2752      3031 365F 
 2752      7075 745F 
 2752      756E 756D 
 2752      6265 7200 
 2753 0048 1802 0000 		.long	0x218
 2754 004c 6361 7434 		.string	"cat4016_put_snumber"
 2754      3031 365F 
 2754      7075 745F 
 2754      736E 756D 
 2754      6265 7200 
 2755 0060 7B02 0000 		.long	0x27b
 2756 0064 6361 7434 		.string	"cat4016_put_txt"
 2756      3031 365F 
 2756      7075 745F 
 2756      7478 7400 
 2757 0074 EB02 0000 		.long	0x2eb
 2758 0078 6361 7434 		.string	"cat4016_p_blank"
 2758      3031 365F 
 2758      705F 626C 
 2758      616E 6B00 
 2759 0088 FD02 0000 		.long	0x2fd
 2760 008c 6361 7434 		.string	"cat4016_p_latch"
 2760      3031 365F 
 2760      705F 6C61 
 2760      7463 6800 
 2761 009c 0F03 0000 		.long	0x30f
 2762 00a0 6361 7434 		.string	"cat4016_p_data"
GAS LISTING C:\Users\alex\AppData\Local\Temp/ccyALXvz.s 			page 50


 2762      3031 365F 
 2762      705F 6461 
 2762      7461 00
 2763 00af 2103 0000 		.long	0x321
 2764 00b3 6361 7434 		.string	"cat4016_p_clk"
 2764      3031 365F 
 2764      705F 636C 
 2764      6B00 
 2765 00c1 4303 0000 		.long	0x343
 2766 00c5 6361 7434 		.string	"cat4016_b_blank"
 2766      3031 365F 
 2766      625F 626C 
 2766      616E 6B00 
 2767 00d5 5503 0000 		.long	0x355
 2768 00d9 6361 7434 		.string	"cat4016_b_latch"
 2768      3031 365F 
 2768      625F 6C61 
 2768      7463 6800 
 2769 00e9 6703 0000 		.long	0x367
 2770 00ed 6361 7434 		.string	"cat4016_b_data"
 2770      3031 365F 
 2770      625F 6461 
 2770      7461 00
 2771 00fc 7903 0000 		.long	0x379
 2772 0100 6361 7434 		.string	"cat4016_b_clk"
 2772      3031 365F 
 2772      625F 636C 
 2772      6B00 
 2773 010e 9B03 0000 		.long	0x39b
 2774 0112 6E75 6D62 		.string	"numbers"
 2774      6572 7300 
 2775 011a BD03 0000 		.long	0x3bd
 2776 011e 6865 785F 		.string	"hex_numbers"
 2776      6E75 6D62 
 2776      6572 7300 
 2777 012a DF03 0000 		.long	0x3df
 2778 012e 6C65 7474 		.string	"letters"
 2778      6572 7300 
 2779 0136 F103 0000 		.long	0x3f1
 2780 013a 7370 6563 		.string	"special_up"
 2780      6961 6C5F 
 2780      7570 00
 2781 0145 0304 0000 		.long	0x403
 2782 0149 7370 6563 		.string	"special_down"
 2782      6961 6C5F 
 2782      646F 776E 
 2782      00
 2783 0156 2504 0000 		.long	0x425
 2784 015a 7370 6563 		.string	"special_updown"
 2784      6961 6C5F 
 2784      7570 646F 
 2784      776E 00
 2785 0169 0000 0000 		.long	0x0
 2786               		.section	.debug_aranges,"",@progbits
 2787 0000 1C00 0000 		.long	0x1c
 2788 0004 0200      		.word	0x2
 2789 0006 0000 0000 		.long	.Ldebug_info0
GAS LISTING C:\Users\alex\AppData\Local\Temp/ccyALXvz.s 			page 51


 2790 000a 04        		.byte	0x4
 2791 000b 00        		.byte	0x0
 2792 000c 0000      		.word	0x0
 2793 000e 0000      		.word	0x0
 2794 0010 0000 0000 		.long	.Ltext0
 2795 0014 A20B 0000 		.long	.Letext0-.Ltext0
 2796 0018 0000 0000 		.long	0x0
 2797 001c 0000 0000 		.long	0x0
 2798               		.section	.debug_line
 2799 0000 7004 0000 		.long	.LELT0-.LSLT0
 2800               	.LSLT0:
 2801 0004 0200      		.word	0x2
 2802 0006 5600 0000 		.long	.LELTP0-.LASLTP0
 2803               	.LASLTP0:
 2804 000a 01        		.byte	0x1
 2805 000b 01        		.byte	0x1
 2806 000c F6        		.byte	0xf6
 2807 000d F5        		.byte	0xf5
 2808 000e 0A        		.byte	0xa
 2809 000f 00        		.byte	0x0
 2810 0010 01        		.byte	0x1
 2811 0011 01        		.byte	0x1
 2812 0012 01        		.byte	0x1
 2813 0013 01        		.byte	0x1
 2814 0014 00        		.byte	0x0
 2815 0015 00        		.byte	0x0
 2816 0016 00        		.byte	0x0
 2817 0017 01        		.byte	0x1
 2818 0018 633A 2F77 		.ascii	"c:/winavr-20100110/lib/gcc/../../avr/include"
 2818      696E 6176 
 2818      722D 3230 
 2818      3130 3031 
 2818      3130 2F6C 
 2819 0044 00        		.byte	0
 2820 0045 00        		.byte	0x0
 2821 0046 6361 7434 		.string	"cat4016.c"
 2821      3031 362E 
 2821      6300 
 2822 0050 00        		.uleb128 0x0
 2823 0051 00        		.uleb128 0x0
 2824 0052 00        		.uleb128 0x0
 2825 0053 7374 6469 		.string	"stdint.h"
 2825      6E74 2E68 
 2825      00
 2826 005c 01        		.uleb128 0x1
 2827 005d 00        		.uleb128 0x0
 2828 005e 00        		.uleb128 0x0
 2829 005f 00        		.byte	0x0
 2830               	.LELTP0:
 2831 0060 00        		.byte	0x0
 2832 0061 05        		.uleb128 0x5
 2833 0062 02        		.byte	0x2
 2834 0063 0000 0000 		.long	.LM1
 2835 0067 97        		.byte	0x97
 2836 0068 00        		.byte	0x0
 2837 0069 05        		.uleb128 0x5
 2838 006a 02        		.byte	0x2
GAS LISTING C:\Users\alex\AppData\Local\Temp/ccyALXvz.s 			page 52


 2839 006b 0000 0000 		.long	.LM2
 2840 006f 17        		.byte	0x17
 2841 0070 00        		.byte	0x0
 2842 0071 05        		.uleb128 0x5
 2843 0072 02        		.byte	0x2
 2844 0073 0000 0000 		.long	.LM3
 2845 0077 15        		.byte	0x15
 2846 0078 00        		.byte	0x0
 2847 0079 05        		.uleb128 0x5
 2848 007a 02        		.byte	0x2
 2849 007b 0000 0000 		.long	.LM4
 2850 007f 15        		.byte	0x15
 2851 0080 00        		.byte	0x0
 2852 0081 05        		.uleb128 0x5
 2853 0082 02        		.byte	0x2
 2854 0083 0000 0000 		.long	.LM5
 2855 0087 15        		.byte	0x15
 2856 0088 00        		.byte	0x0
 2857 0089 05        		.uleb128 0x5
 2858 008a 02        		.byte	0x2
 2859 008b 0000 0000 		.long	.LM6
 2860 008f 15        		.byte	0x15
 2861 0090 00        		.byte	0x0
 2862 0091 05        		.uleb128 0x5
 2863 0092 02        		.byte	0x2
 2864 0093 0000 0000 		.long	.LM7
 2865 0097 15        		.byte	0x15
 2866 0098 00        		.byte	0x0
 2867 0099 05        		.uleb128 0x5
 2868 009a 02        		.byte	0x2
 2869 009b 0000 0000 		.long	.LM8
 2870 009f 15        		.byte	0x15
 2871 00a0 00        		.byte	0x0
 2872 00a1 05        		.uleb128 0x5
 2873 00a2 02        		.byte	0x2
 2874 00a3 0000 0000 		.long	.LM9
 2875 00a7 15        		.byte	0x15
 2876 00a8 00        		.byte	0x0
 2877 00a9 05        		.uleb128 0x5
 2878 00aa 02        		.byte	0x2
 2879 00ab 0000 0000 		.long	.LM10
 2880 00af 17        		.byte	0x17
 2881 00b0 00        		.byte	0x0
 2882 00b1 05        		.uleb128 0x5
 2883 00b2 02        		.byte	0x2
 2884 00b3 0000 0000 		.long	.LM11
 2885 00b7 15        		.byte	0x15
 2886 00b8 00        		.byte	0x0
 2887 00b9 05        		.uleb128 0x5
 2888 00ba 02        		.byte	0x2
 2889 00bb 0000 0000 		.long	.LM12
 2890 00bf 15        		.byte	0x15
 2891 00c0 00        		.byte	0x0
 2892 00c1 05        		.uleb128 0x5
 2893 00c2 02        		.byte	0x2
 2894 00c3 0000 0000 		.long	.LM13
 2895 00c7 15        		.byte	0x15
GAS LISTING C:\Users\alex\AppData\Local\Temp/ccyALXvz.s 			page 53


 2896 00c8 00        		.byte	0x0
 2897 00c9 05        		.uleb128 0x5
 2898 00ca 02        		.byte	0x2
 2899 00cb 0000 0000 		.long	.LM14
 2900 00cf 15        		.byte	0x15
 2901 00d0 00        		.byte	0x0
 2902 00d1 05        		.uleb128 0x5
 2903 00d2 02        		.byte	0x2
 2904 00d3 0000 0000 		.long	.LM15
 2905 00d7 16        		.byte	0x16
 2906 00d8 00        		.byte	0x0
 2907 00d9 05        		.uleb128 0x5
 2908 00da 02        		.byte	0x2
 2909 00db 0000 0000 		.long	.LM16
 2910 00df 15        		.byte	0x15
 2911 00e0 00        		.byte	0x0
 2912 00e1 05        		.uleb128 0x5
 2913 00e2 02        		.byte	0x2
 2914 00e3 0000 0000 		.long	.LM17
 2915 00e7 15        		.byte	0x15
 2916 00e8 00        		.byte	0x0
 2917 00e9 05        		.uleb128 0x5
 2918 00ea 02        		.byte	0x2
 2919 00eb 0000 0000 		.long	.LM18
 2920 00ef 15        		.byte	0x15
 2921 00f0 00        		.byte	0x0
 2922 00f1 05        		.uleb128 0x5
 2923 00f2 02        		.byte	0x2
 2924 00f3 0000 0000 		.long	.LM19
 2925 00f7 15        		.byte	0x15
 2926 00f8 00        		.byte	0x0
 2927 00f9 05        		.uleb128 0x5
 2928 00fa 02        		.byte	0x2
 2929 00fb 0000 0000 		.long	.LM20
 2930 00ff 16        		.byte	0x16
 2931 0100 00        		.byte	0x0
 2932 0101 05        		.uleb128 0x5
 2933 0102 02        		.byte	0x2
 2934 0103 0000 0000 		.long	.LM21
 2935 0107 15        		.byte	0x15
 2936 0108 00        		.byte	0x0
 2937 0109 05        		.uleb128 0x5
 2938 010a 02        		.byte	0x2
 2939 010b 0000 0000 		.long	.LM22
 2940 010f 15        		.byte	0x15
 2941 0110 00        		.byte	0x0
 2942 0111 05        		.uleb128 0x5
 2943 0112 02        		.byte	0x2
 2944 0113 0000 0000 		.long	.LM23
 2945 0117 15        		.byte	0x15
 2946 0118 00        		.byte	0x0
 2947 0119 05        		.uleb128 0x5
 2948 011a 02        		.byte	0x2
 2949 011b 0000 0000 		.long	.LM24
 2950 011f 15        		.byte	0x15
 2951 0120 00        		.byte	0x0
 2952 0121 05        		.uleb128 0x5
GAS LISTING C:\Users\alex\AppData\Local\Temp/ccyALXvz.s 			page 54


 2953 0122 02        		.byte	0x2
 2954 0123 0000 0000 		.long	.LM25
 2955 0127 16        		.byte	0x16
 2956 0128 00        		.byte	0x0
 2957 0129 05        		.uleb128 0x5
 2958 012a 02        		.byte	0x2
 2959 012b 0000 0000 		.long	.LM26
 2960 012f 15        		.byte	0x15
 2961 0130 00        		.byte	0x0
 2962 0131 05        		.uleb128 0x5
 2963 0132 02        		.byte	0x2
 2964 0133 0000 0000 		.long	.LM27
 2965 0137 15        		.byte	0x15
 2966 0138 00        		.byte	0x0
 2967 0139 05        		.uleb128 0x5
 2968 013a 02        		.byte	0x2
 2969 013b 0000 0000 		.long	.LM28
 2970 013f 15        		.byte	0x15
 2971 0140 00        		.byte	0x0
 2972 0141 05        		.uleb128 0x5
 2973 0142 02        		.byte	0x2
 2974 0143 0000 0000 		.long	.LM29
 2975 0147 15        		.byte	0x15
 2976 0148 00        		.byte	0x0
 2977 0149 05        		.uleb128 0x5
 2978 014a 02        		.byte	0x2
 2979 014b 0000 0000 		.long	.LM30
 2980 014f 16        		.byte	0x16
 2981 0150 00        		.byte	0x0
 2982 0151 05        		.uleb128 0x5
 2983 0152 02        		.byte	0x2
 2984 0153 0000 0000 		.long	.LM31
 2985 0157 15        		.byte	0x15
 2986 0158 00        		.byte	0x0
 2987 0159 05        		.uleb128 0x5
 2988 015a 02        		.byte	0x2
 2989 015b 0000 0000 		.long	.LM32
 2990 015f 15        		.byte	0x15
 2991 0160 00        		.byte	0x0
 2992 0161 05        		.uleb128 0x5
 2993 0162 02        		.byte	0x2
 2994 0163 0000 0000 		.long	.LM33
 2995 0167 1D        		.byte	0x1d
 2996 0168 00        		.byte	0x0
 2997 0169 05        		.uleb128 0x5
 2998 016a 02        		.byte	0x2
 2999 016b 0000 0000 		.long	.LM34
 3000 016f 1C        		.byte	0x1c
 3001 0170 00        		.byte	0x0
 3002 0171 05        		.uleb128 0x5
 3003 0172 02        		.byte	0x2
 3004 0173 0000 0000 		.long	.LM35
 3005 0177 15        		.byte	0x15
 3006 0178 00        		.byte	0x0
 3007 0179 05        		.uleb128 0x5
 3008 017a 02        		.byte	0x2
 3009 017b 0000 0000 		.long	.LM36
GAS LISTING C:\Users\alex\AppData\Local\Temp/ccyALXvz.s 			page 55


 3010 017f 15        		.byte	0x15
 3011 0180 00        		.byte	0x0
 3012 0181 05        		.uleb128 0x5
 3013 0182 02        		.byte	0x2
 3014 0183 0000 0000 		.long	.LM37
 3015 0187 16        		.byte	0x16
 3016 0188 00        		.byte	0x0
 3017 0189 05        		.uleb128 0x5
 3018 018a 02        		.byte	0x2
 3019 018b 0000 0000 		.long	.LM38
 3020 018f 15        		.byte	0x15
 3021 0190 00        		.byte	0x0
 3022 0191 05        		.uleb128 0x5
 3023 0192 02        		.byte	0x2
 3024 0193 0000 0000 		.long	.LM39
 3025 0197 15        		.byte	0x15
 3026 0198 00        		.byte	0x0
 3027 0199 05        		.uleb128 0x5
 3028 019a 02        		.byte	0x2
 3029 019b 0000 0000 		.long	.LM40
 3030 019f 15        		.byte	0x15
 3031 01a0 00        		.byte	0x0
 3032 01a1 05        		.uleb128 0x5
 3033 01a2 02        		.byte	0x2
 3034 01a3 0000 0000 		.long	.LM41
 3035 01a7 16        		.byte	0x16
 3036 01a8 00        		.byte	0x0
 3037 01a9 05        		.uleb128 0x5
 3038 01aa 02        		.byte	0x2
 3039 01ab 0000 0000 		.long	.LM42
 3040 01af 15        		.byte	0x15
 3041 01b0 00        		.byte	0x0
 3042 01b1 05        		.uleb128 0x5
 3043 01b2 02        		.byte	0x2
 3044 01b3 0000 0000 		.long	.LM43
 3045 01b7 15        		.byte	0x15
 3046 01b8 00        		.byte	0x0
 3047 01b9 05        		.uleb128 0x5
 3048 01ba 02        		.byte	0x2
 3049 01bb 0000 0000 		.long	.LM44
 3050 01bf 16        		.byte	0x16
 3051 01c0 00        		.byte	0x0
 3052 01c1 05        		.uleb128 0x5
 3053 01c2 02        		.byte	0x2
 3054 01c3 0000 0000 		.long	.LM45
 3055 01c7 16        		.byte	0x16
 3056 01c8 00        		.byte	0x0
 3057 01c9 05        		.uleb128 0x5
 3058 01ca 02        		.byte	0x2
 3059 01cb 0000 0000 		.long	.LM46
 3060 01cf 15        		.byte	0x15
 3061 01d0 00        		.byte	0x0
 3062 01d1 05        		.uleb128 0x5
 3063 01d2 02        		.byte	0x2
 3064 01d3 0000 0000 		.long	.LM47
 3065 01d7 18        		.byte	0x18
 3066 01d8 00        		.byte	0x0
GAS LISTING C:\Users\alex\AppData\Local\Temp/ccyALXvz.s 			page 56


 3067 01d9 05        		.uleb128 0x5
 3068 01da 02        		.byte	0x2
 3069 01db 0000 0000 		.long	.LM48
 3070 01df 18        		.byte	0x18
 3071 01e0 00        		.byte	0x0
 3072 01e1 05        		.uleb128 0x5
 3073 01e2 02        		.byte	0x2
 3074 01e3 0000 0000 		.long	.LM49
 3075 01e7 15        		.byte	0x15
 3076 01e8 00        		.byte	0x0
 3077 01e9 05        		.uleb128 0x5
 3078 01ea 02        		.byte	0x2
 3079 01eb 0000 0000 		.long	.LM50
 3080 01ef 15        		.byte	0x15
 3081 01f0 00        		.byte	0x0
 3082 01f1 05        		.uleb128 0x5
 3083 01f2 02        		.byte	0x2
 3084 01f3 0000 0000 		.long	.LM51
 3085 01f7 03        		.byte	0x3
 3086 01f8 73        		.sleb128 -13
 3087 01f9 01        		.byte	0x1
 3088 01fa 00        		.byte	0x0
 3089 01fb 05        		.uleb128 0x5
 3090 01fc 02        		.byte	0x2
 3091 01fd 0000 0000 		.long	.LM52
 3092 0201 24        		.byte	0x24
 3093 0202 00        		.byte	0x0
 3094 0203 05        		.uleb128 0x5
 3095 0204 02        		.byte	0x2
 3096 0205 0000 0000 		.long	.LM53
 3097 0209 15        		.byte	0x15
 3098 020a 00        		.byte	0x0
 3099 020b 05        		.uleb128 0x5
 3100 020c 02        		.byte	0x2
 3101 020d 0000 0000 		.long	.LM54
 3102 0211 15        		.byte	0x15
 3103 0212 00        		.byte	0x0
 3104 0213 05        		.uleb128 0x5
 3105 0214 02        		.byte	0x2
 3106 0215 0000 0000 		.long	.LM55
 3107 0219 1A        		.byte	0x1a
 3108 021a 00        		.byte	0x0
 3109 021b 05        		.uleb128 0x5
 3110 021c 02        		.byte	0x2
 3111 021d 0000 0000 		.long	.LM56
 3112 0221 19        		.byte	0x19
 3113 0222 00        		.byte	0x0
 3114 0223 05        		.uleb128 0x5
 3115 0224 02        		.byte	0x2
 3116 0225 0000 0000 		.long	.LM57
 3117 0229 15        		.byte	0x15
 3118 022a 00        		.byte	0x0
 3119 022b 05        		.uleb128 0x5
 3120 022c 02        		.byte	0x2
 3121 022d 0000 0000 		.long	.LM58
 3122 0231 15        		.byte	0x15
 3123 0232 00        		.byte	0x0
GAS LISTING C:\Users\alex\AppData\Local\Temp/ccyALXvz.s 			page 57


 3124 0233 05        		.uleb128 0x5
 3125 0234 02        		.byte	0x2
 3126 0235 0000 0000 		.long	.LM59
 3127 0239 15        		.byte	0x15
 3128 023a 00        		.byte	0x0
 3129 023b 05        		.uleb128 0x5
 3130 023c 02        		.byte	0x2
 3131 023d 0000 0000 		.long	.LM60
 3132 0241 17        		.byte	0x17
 3133 0242 00        		.byte	0x0
 3134 0243 05        		.uleb128 0x5
 3135 0244 02        		.byte	0x2
 3136 0245 0000 0000 		.long	.LM61
 3137 0249 16        		.byte	0x16
 3138 024a 00        		.byte	0x0
 3139 024b 05        		.uleb128 0x5
 3140 024c 02        		.byte	0x2
 3141 024d 0000 0000 		.long	.LM62
 3142 0251 15        		.byte	0x15
 3143 0252 00        		.byte	0x0
 3144 0253 05        		.uleb128 0x5
 3145 0254 02        		.byte	0x2
 3146 0255 0000 0000 		.long	.LM63
 3147 0259 15        		.byte	0x15
 3148 025a 00        		.byte	0x0
 3149 025b 05        		.uleb128 0x5
 3150 025c 02        		.byte	0x2
 3151 025d 0000 0000 		.long	.LM64
 3152 0261 15        		.byte	0x15
 3153 0262 00        		.byte	0x0
 3154 0263 05        		.uleb128 0x5
 3155 0264 02        		.byte	0x2
 3156 0265 0000 0000 		.long	.LM65
 3157 0269 16        		.byte	0x16
 3158 026a 00        		.byte	0x0
 3159 026b 05        		.uleb128 0x5
 3160 026c 02        		.byte	0x2
 3161 026d 0000 0000 		.long	.LM66
 3162 0271 15        		.byte	0x15
 3163 0272 00        		.byte	0x0
 3164 0273 05        		.uleb128 0x5
 3165 0274 02        		.byte	0x2
 3166 0275 0000 0000 		.long	.LM67
 3167 0279 15        		.byte	0x15
 3168 027a 00        		.byte	0x0
 3169 027b 05        		.uleb128 0x5
 3170 027c 02        		.byte	0x2
 3171 027d 0000 0000 		.long	.LM68
 3172 0281 15        		.byte	0x15
 3173 0282 00        		.byte	0x0
 3174 0283 05        		.uleb128 0x5
 3175 0284 02        		.byte	0x2
 3176 0285 0000 0000 		.long	.LM69
 3177 0289 16        		.byte	0x16
 3178 028a 00        		.byte	0x0
 3179 028b 05        		.uleb128 0x5
 3180 028c 02        		.byte	0x2
GAS LISTING C:\Users\alex\AppData\Local\Temp/ccyALXvz.s 			page 58


 3181 028d 0000 0000 		.long	.LM70
 3182 0291 15        		.byte	0x15
 3183 0292 00        		.byte	0x0
 3184 0293 05        		.uleb128 0x5
 3185 0294 02        		.byte	0x2
 3186 0295 0000 0000 		.long	.LM71
 3187 0299 15        		.byte	0x15
 3188 029a 00        		.byte	0x0
 3189 029b 05        		.uleb128 0x5
 3190 029c 02        		.byte	0x2
 3191 029d 0000 0000 		.long	.LM72
 3192 02a1 15        		.byte	0x15
 3193 02a2 00        		.byte	0x0
 3194 02a3 05        		.uleb128 0x5
 3195 02a4 02        		.byte	0x2
 3196 02a5 0000 0000 		.long	.LM73
 3197 02a9 16        		.byte	0x16
 3198 02aa 00        		.byte	0x0
 3199 02ab 05        		.uleb128 0x5
 3200 02ac 02        		.byte	0x2
 3201 02ad 0000 0000 		.long	.LM74
 3202 02b1 16        		.byte	0x16
 3203 02b2 00        		.byte	0x0
 3204 02b3 05        		.uleb128 0x5
 3205 02b4 02        		.byte	0x2
 3206 02b5 0000 0000 		.long	.LM75
 3207 02b9 16        		.byte	0x16
 3208 02ba 00        		.byte	0x0
 3209 02bb 05        		.uleb128 0x5
 3210 02bc 02        		.byte	0x2
 3211 02bd 0000 0000 		.long	.LM76
 3212 02c1 17        		.byte	0x17
 3213 02c2 00        		.byte	0x0
 3214 02c3 05        		.uleb128 0x5
 3215 02c4 02        		.byte	0x2
 3216 02c5 0000 0000 		.long	.LM77
 3217 02c9 19        		.byte	0x19
 3218 02ca 00        		.byte	0x0
 3219 02cb 05        		.uleb128 0x5
 3220 02cc 02        		.byte	0x2
 3221 02cd 0000 0000 		.long	.LM78
 3222 02d1 15        		.byte	0x15
 3223 02d2 00        		.byte	0x0
 3224 02d3 05        		.uleb128 0x5
 3225 02d4 02        		.byte	0x2
 3226 02d5 0000 0000 		.long	.LM79
 3227 02d9 15        		.byte	0x15
 3228 02da 00        		.byte	0x0
 3229 02db 05        		.uleb128 0x5
 3230 02dc 02        		.byte	0x2
 3231 02dd 0000 0000 		.long	.LM80
 3232 02e1 15        		.byte	0x15
 3233 02e2 00        		.byte	0x0
 3234 02e3 05        		.uleb128 0x5
 3235 02e4 02        		.byte	0x2
 3236 02e5 0000 0000 		.long	.LM81
 3237 02e9 15        		.byte	0x15
GAS LISTING C:\Users\alex\AppData\Local\Temp/ccyALXvz.s 			page 59


 3238 02ea 00        		.byte	0x0
 3239 02eb 05        		.uleb128 0x5
 3240 02ec 02        		.byte	0x2
 3241 02ed 0000 0000 		.long	.LM82
 3242 02f1 17        		.byte	0x17
 3243 02f2 00        		.byte	0x0
 3244 02f3 05        		.uleb128 0x5
 3245 02f4 02        		.byte	0x2
 3246 02f5 0000 0000 		.long	.LM83
 3247 02f9 15        		.byte	0x15
 3248 02fa 00        		.byte	0x0
 3249 02fb 05        		.uleb128 0x5
 3250 02fc 02        		.byte	0x2
 3251 02fd 0000 0000 		.long	.LM84
 3252 0301 15        		.byte	0x15
 3253 0302 00        		.byte	0x0
 3254 0303 05        		.uleb128 0x5
 3255 0304 02        		.byte	0x2
 3256 0305 0000 0000 		.long	.LM85
 3257 0309 18        		.byte	0x18
 3258 030a 00        		.byte	0x0
 3259 030b 05        		.uleb128 0x5
 3260 030c 02        		.byte	0x2
 3261 030d 0000 0000 		.long	.LM86
 3262 0311 15        		.byte	0x15
 3263 0312 00        		.byte	0x0
 3264 0313 05        		.uleb128 0x5
 3265 0314 02        		.byte	0x2
 3266 0315 0000 0000 		.long	.LM87
 3267 0319 15        		.byte	0x15
 3268 031a 00        		.byte	0x0
 3269 031b 05        		.uleb128 0x5
 3270 031c 02        		.byte	0x2
 3271 031d 0000 0000 		.long	.LM88
 3272 0321 16        		.byte	0x16
 3273 0322 00        		.byte	0x0
 3274 0323 05        		.uleb128 0x5
 3275 0324 02        		.byte	0x2
 3276 0325 0000 0000 		.long	.LM89
 3277 0329 15        		.byte	0x15
 3278 032a 00        		.byte	0x0
 3279 032b 05        		.uleb128 0x5
 3280 032c 02        		.byte	0x2
 3281 032d 0000 0000 		.long	.LM90
 3282 0331 15        		.byte	0x15
 3283 0332 00        		.byte	0x0
 3284 0333 05        		.uleb128 0x5
 3285 0334 02        		.byte	0x2
 3286 0335 0000 0000 		.long	.LM91
 3287 0339 15        		.byte	0x15
 3288 033a 00        		.byte	0x0
 3289 033b 05        		.uleb128 0x5
 3290 033c 02        		.byte	0x2
 3291 033d 0000 0000 		.long	.LM92
 3292 0341 18        		.byte	0x18
 3293 0342 00        		.byte	0x0
 3294 0343 05        		.uleb128 0x5
GAS LISTING C:\Users\alex\AppData\Local\Temp/ccyALXvz.s 			page 60


 3295 0344 02        		.byte	0x2
 3296 0345 0000 0000 		.long	.LM93
 3297 0349 15        		.byte	0x15
 3298 034a 00        		.byte	0x0
 3299 034b 05        		.uleb128 0x5
 3300 034c 02        		.byte	0x2
 3301 034d 0000 0000 		.long	.LM94
 3302 0351 15        		.byte	0x15
 3303 0352 00        		.byte	0x0
 3304 0353 05        		.uleb128 0x5
 3305 0354 02        		.byte	0x2
 3306 0355 0000 0000 		.long	.LM95
 3307 0359 15        		.byte	0x15
 3308 035a 00        		.byte	0x0
 3309 035b 05        		.uleb128 0x5
 3310 035c 02        		.byte	0x2
 3311 035d 0000 0000 		.long	.LM96
 3312 0361 17        		.byte	0x17
 3313 0362 00        		.byte	0x0
 3314 0363 05        		.uleb128 0x5
 3315 0364 02        		.byte	0x2
 3316 0365 0000 0000 		.long	.LM97
 3317 0369 15        		.byte	0x15
 3318 036a 00        		.byte	0x0
 3319 036b 05        		.uleb128 0x5
 3320 036c 02        		.byte	0x2
 3321 036d 0000 0000 		.long	.LM98
 3322 0371 15        		.byte	0x15
 3323 0372 00        		.byte	0x0
 3324 0373 05        		.uleb128 0x5
 3325 0374 02        		.byte	0x2
 3326 0375 0000 0000 		.long	.LM99
 3327 0379 15        		.byte	0x15
 3328 037a 00        		.byte	0x0
 3329 037b 05        		.uleb128 0x5
 3330 037c 02        		.byte	0x2
 3331 037d 0000 0000 		.long	.LM100
 3332 0381 16        		.byte	0x16
 3333 0382 00        		.byte	0x0
 3334 0383 05        		.uleb128 0x5
 3335 0384 02        		.byte	0x2
 3336 0385 0000 0000 		.long	.LM101
 3337 0389 16        		.byte	0x16
 3338 038a 00        		.byte	0x0
 3339 038b 05        		.uleb128 0x5
 3340 038c 02        		.byte	0x2
 3341 038d 0000 0000 		.long	.LM102
 3342 0391 16        		.byte	0x16
 3343 0392 00        		.byte	0x0
 3344 0393 05        		.uleb128 0x5
 3345 0394 02        		.byte	0x2
 3346 0395 0000 0000 		.long	.LM103
 3347 0399 18        		.byte	0x18
 3348 039a 00        		.byte	0x0
 3349 039b 05        		.uleb128 0x5
 3350 039c 02        		.byte	0x2
 3351 039d 0000 0000 		.long	.LM104
GAS LISTING C:\Users\alex\AppData\Local\Temp/ccyALXvz.s 			page 61


 3352 03a1 18        		.byte	0x18
 3353 03a2 00        		.byte	0x0
 3354 03a3 05        		.uleb128 0x5
 3355 03a4 02        		.byte	0x2
 3356 03a5 0000 0000 		.long	.LM105
 3357 03a9 15        		.byte	0x15
 3358 03aa 00        		.byte	0x0
 3359 03ab 05        		.uleb128 0x5
 3360 03ac 02        		.byte	0x2
 3361 03ad 0000 0000 		.long	.LM106
 3362 03b1 15        		.byte	0x15
 3363 03b2 00        		.byte	0x0
 3364 03b3 05        		.uleb128 0x5
 3365 03b4 02        		.byte	0x2
 3366 03b5 0000 0000 		.long	.LM107
 3367 03b9 15        		.byte	0x15
 3368 03ba 00        		.byte	0x0
 3369 03bb 05        		.uleb128 0x5
 3370 03bc 02        		.byte	0x2
 3371 03bd 0000 0000 		.long	.LM108
 3372 03c1 16        		.byte	0x16
 3373 03c2 00        		.byte	0x0
 3374 03c3 05        		.uleb128 0x5
 3375 03c4 02        		.byte	0x2
 3376 03c5 0000 0000 		.long	.LM109
 3377 03c9 15        		.byte	0x15
 3378 03ca 00        		.byte	0x0
 3379 03cb 05        		.uleb128 0x5
 3380 03cc 02        		.byte	0x2
 3381 03cd 0000 0000 		.long	.LM110
 3382 03d1 17        		.byte	0x17
 3383 03d2 00        		.byte	0x0
 3384 03d3 05        		.uleb128 0x5
 3385 03d4 02        		.byte	0x2
 3386 03d5 0000 0000 		.long	.LM111
 3387 03d9 15        		.byte	0x15
 3388 03da 00        		.byte	0x0
 3389 03db 05        		.uleb128 0x5
 3390 03dc 02        		.byte	0x2
 3391 03dd 0000 0000 		.long	.LM112
 3392 03e1 15        		.byte	0x15
 3393 03e2 00        		.byte	0x0
 3394 03e3 05        		.uleb128 0x5
 3395 03e4 02        		.byte	0x2
 3396 03e5 0000 0000 		.long	.LM113
 3397 03e9 15        		.byte	0x15
 3398 03ea 00        		.byte	0x0
 3399 03eb 05        		.uleb128 0x5
 3400 03ec 02        		.byte	0x2
 3401 03ed 0000 0000 		.long	.LM114
 3402 03f1 16        		.byte	0x16
 3403 03f2 00        		.byte	0x0
 3404 03f3 05        		.uleb128 0x5
 3405 03f4 02        		.byte	0x2
 3406 03f5 0000 0000 		.long	.LM115
 3407 03f9 15        		.byte	0x15
 3408 03fa 00        		.byte	0x0
GAS LISTING C:\Users\alex\AppData\Local\Temp/ccyALXvz.s 			page 62


 3409 03fb 05        		.uleb128 0x5
 3410 03fc 02        		.byte	0x2
 3411 03fd 0000 0000 		.long	.LM116
 3412 0401 17        		.byte	0x17
 3413 0402 00        		.byte	0x0
 3414 0403 05        		.uleb128 0x5
 3415 0404 02        		.byte	0x2
 3416 0405 0000 0000 		.long	.LM117
 3417 0409 15        		.byte	0x15
 3418 040a 00        		.byte	0x0
 3419 040b 05        		.uleb128 0x5
 3420 040c 02        		.byte	0x2
 3421 040d 0000 0000 		.long	.LM118
 3422 0411 15        		.byte	0x15
 3423 0412 00        		.byte	0x0
 3424 0413 05        		.uleb128 0x5
 3425 0414 02        		.byte	0x2
 3426 0415 0000 0000 		.long	.LM119
 3427 0419 15        		.byte	0x15
 3428 041a 00        		.byte	0x0
 3429 041b 05        		.uleb128 0x5
 3430 041c 02        		.byte	0x2
 3431 041d 0000 0000 		.long	.LM120
 3432 0421 16        		.byte	0x16
 3433 0422 00        		.byte	0x0
 3434 0423 05        		.uleb128 0x5
 3435 0424 02        		.byte	0x2
 3436 0425 0000 0000 		.long	.LM121
 3437 0429 15        		.byte	0x15
 3438 042a 00        		.byte	0x0
 3439 042b 05        		.uleb128 0x5
 3440 042c 02        		.byte	0x2
 3441 042d 0000 0000 		.long	.LM122
 3442 0431 17        		.byte	0x17
 3443 0432 00        		.byte	0x0
 3444 0433 05        		.uleb128 0x5
 3445 0434 02        		.byte	0x2
 3446 0435 0000 0000 		.long	.LM123
 3447 0439 15        		.byte	0x15
 3448 043a 00        		.byte	0x0
 3449 043b 05        		.uleb128 0x5
 3450 043c 02        		.byte	0x2
 3451 043d 0000 0000 		.long	.LM124
 3452 0441 15        		.byte	0x15
 3453 0442 00        		.byte	0x0
 3454 0443 05        		.uleb128 0x5
 3455 0444 02        		.byte	0x2
 3456 0445 0000 0000 		.long	.LM125
 3457 0449 15        		.byte	0x15
 3458 044a 00        		.byte	0x0
 3459 044b 05        		.uleb128 0x5
 3460 044c 02        		.byte	0x2
 3461 044d 0000 0000 		.long	.LM126
 3462 0451 16        		.byte	0x16
 3463 0452 00        		.byte	0x0
 3464 0453 05        		.uleb128 0x5
 3465 0454 02        		.byte	0x2
GAS LISTING C:\Users\alex\AppData\Local\Temp/ccyALXvz.s 			page 63


 3466 0455 0000 0000 		.long	.LM127
 3467 0459 15        		.byte	0x15
 3468 045a 00        		.byte	0x0
 3469 045b 05        		.uleb128 0x5
 3470 045c 02        		.byte	0x2
 3471 045d 0000 0000 		.long	.LM128
 3472 0461 17        		.byte	0x17
 3473 0462 00        		.byte	0x0
 3474 0463 05        		.uleb128 0x5
 3475 0464 02        		.byte	0x2
 3476 0465 0000 0000 		.long	.LM129
 3477 0469 16        		.byte	0x16
 3478 046a 00        		.byte	0x0
 3479 046b 05        		.uleb128 0x5
 3480 046c 02        		.byte	0x2
 3481 046d 0000 0000 		.long	.Letext0
 3482 0471 00        		.byte	0x0
 3483 0472 01        		.uleb128 0x1
 3484 0473 01        		.byte	0x1
 3485               	.LELT0:
 3486 0474 1600 0000 		.section	.debug_str,"MS",@progbits,1
 3486      0200 1000 
 3486      0000 0101 
 3486      FB0E 0A00 
 3486      0101 0101 
 3487               	.LASF41:
 3488 0000 474E 5520 		.string	"GNU C 4.3.3"
 3488      4320 342E 
 3488      332E 3300 
 3489               	.LASF42:
 3490 000c 6361 7434 		.string	"cat4016.c"
 3490      3031 362E 
 3490      6300 
 3491               	.LASF12:
 3492 0016 626C 6174 		.string	"blatch"
 3492      6368 00
 3493               	.LASF16:
 3494 001d 696E 6974 		.string	"init_cat4016"
 3494      5F63 6174 
 3494      3430 3136 
 3494      00
 3495               	.LASF30:
 3496 002a 6361 7434 		.string	"cat4016_p_clk"
 3496      3031 365F 
 3496      705F 636C 
 3496      6B00 
 3497               	.LASF35:
 3498 0038 6E75 6D62 		.string	"numbers"
 3498      6572 7300 
 3499               	.LASF32:
 3500 0040 6361 7434 		.string	"cat4016_b_latch"
 3500      3031 365F 
 3500      625F 6C61 
 3500      7463 6800 
 3501               	.LASF44:
 3502 0050 7569 6E74 		.string	"uint8_t"
 3502      385F 7400 
GAS LISTING C:\Users\alex\AppData\Local\Temp/ccyALXvz.s 			page 64


 3503               	.LASF39:
 3504 0058 7370 6563 		.string	"special_down"
 3504      6961 6C5F 
 3504      646F 776E 
 3504      00
 3505               	.LASF28:
 3506 0065 6361 7434 		.string	"cat4016_p_latch"
 3506      3031 365F 
 3506      705F 6C61 
 3506      7463 6800 
 3507               	.LASF5:
 3508 0075 6C6F 6E67 		.string	"long long int"
 3508      206C 6F6E 
 3508      6720 696E 
 3508      7400 
 3509               	.LASF37:
 3510 0083 6C65 7474 		.string	"letters"
 3510      6572 7300 
 3511               	.LASF20:
 3512 008b 7064 6174 		.string	"pdata"
 3512      6100 
 3513               	.LASF1:
 3514 0091 6C6F 6E67 		.string	"long int"
 3514      2069 6E74 
 3514      00
 3515               	.LASF23:
 3516 009a 6F72 6967 		.string	"orignum"
 3516      6E75 6D00 
 3517               	.LASF13:
 3518 00a2 6264 6174 		.string	"bdata"
 3518      6100 
 3519               	.LASF15:
 3520 00a8 7062 6C61 		.string	"pblank"
 3520      6E6B 00
 3521               	.LASF8:
 3522 00af 6C61 7463 		.string	"latch"
 3522      6800 
 3523               	.LASF3:
 3524 00b5 756E 7369 		.string	"unsigned char"
 3524      676E 6564 
 3524      2063 6861 
 3524      7200 
 3525               	.LASF18:
 3526 00c3 7063 6C6B 		.string	"pclk"
 3526      00
 3527               	.LASF21:
 3528 00c8 6361 7434 		.string	"cat4016_put_unumber"
 3528      3031 365F 
 3528      7075 745F 
 3528      756E 756D 
 3528      6265 7200 
 3529               	.LASF2:
 3530 00dc 7369 676E 		.string	"signed char"
 3530      6564 2063 
 3530      6861 7200 
 3531               	.LASF6:
 3532 00e8 6C6F 6E67 		.string	"long long unsigned int"
GAS LISTING C:\Users\alex\AppData\Local\Temp/ccyALXvz.s 			page 65


 3532      206C 6F6E 
 3532      6720 756E 
 3532      7369 676E 
 3532      6564 2069 
 3533               	.LASF0:
 3534 00ff 756E 7369 		.string	"unsigned int"
 3534      676E 6564 
 3534      2069 6E74 
 3534      00
 3535               	.LASF34:
 3536 010c 6361 7434 		.string	"cat4016_b_clk"
 3536      3031 365F 
 3536      625F 636C 
 3536      6B00 
 3537               	.LASF14:
 3538 011a 6262 6C61 		.string	"bblank"
 3538      6E6B 00
 3539               	.LASF25:
 3540 0121 6361 7434 		.string	"cat4016_put_txt"
 3540      3031 365F 
 3540      7075 745F 
 3540      7478 7400 
 3541               	.LASF26:
 3542 0131 6368 6172 		.string	"char"
 3542      00
 3543               	.LASF40:
 3544 0136 7370 6563 		.string	"special_updown"
 3544      6961 6C5F 
 3544      7570 646F 
 3544      776E 00
 3545               	.LASF9:
 3546 0145 6461 7461 		.string	"data"
 3546      00
 3547               	.LASF31:
 3548 014a 6361 7434 		.string	"cat4016_b_blank"
 3548      3031 365F 
 3548      625F 626C 
 3548      616E 6B00 
 3549               	.LASF29:
 3550 015a 6361 7434 		.string	"cat4016_p_data"
 3550      3031 365F 
 3550      705F 6461 
 3550      7461 00
 3551               	.LASF4:
 3552 0169 6C6F 6E67 		.string	"long unsigned int"
 3552      2075 6E73 
 3552      6967 6E65 
 3552      6420 696E 
 3552      7400 
 3553               	.LASF7:
 3554 017b 6368 6970 		.string	"chip"
 3554      00
 3555               	.LASF27:
 3556 0180 6361 7434 		.string	"cat4016_p_blank"
 3556      3031 365F 
 3556      705F 626C 
 3556      616E 6B00 
GAS LISTING C:\Users\alex\AppData\Local\Temp/ccyALXvz.s 			page 66


 3557               	.LASF33:
 3558 0190 6361 7434 		.string	"cat4016_b_data"
 3558      3031 365F 
 3558      625F 6461 
 3558      7461 00
 3559               	.LASF11:
 3560 019f 6263 6C6B 		.string	"bclk"
 3560      00
 3561               	.LASF36:
 3562 01a4 6865 785F 		.string	"hex_numbers"
 3562      6E75 6D62 
 3562      6572 7300 
 3563               	.LASF22:
 3564 01b0 6469 6769 		.string	"digit"
 3564      7400 
 3565               	.LASF43:
 3566 01b6 453A 5C61 		.string	"E:\\avr\\counter"
 3566      7672 5C63 
 3566      6F75 6E74 
 3566      6572 00
 3567               	.LASF38:
 3568 01c5 7370 6563 		.string	"special_up"
 3568      6961 6C5F 
 3568      7570 00
 3569               	.LASF17:
 3570 01d0 6361 7434 		.string	"cat4016_put4"
 3570      3031 365F 
 3570      7075 7434 
 3570      00
 3571               	.LASF10:
 3572 01dd 626C 616E 		.string	"blank"
 3572      6B00 
 3573               	.LASF24:
 3574 01e3 6361 7434 		.string	"cat4016_put_snumber"
 3574      3031 365F 
 3574      7075 745F 
 3574      736E 756D 
 3574      6265 7200 
 3575               	.LASF19:
 3576 01f7 706C 6174 		.string	"platch"
 3576      6368 00
 3577               	.global __do_copy_data
 3578               	.global __do_clear_bss
GAS LISTING C:\Users\alex\AppData\Local\Temp/ccyALXvz.s 			page 67


DEFINED SYMBOLS
                            *ABS*:00000000 cat4016.c
C:\Users\alex\AppData\Local\Temp/ccyALXvz.s:2      *ABS*:0000003f __SREG__
C:\Users\alex\AppData\Local\Temp/ccyALXvz.s:3      *ABS*:0000003e __SP_H__
C:\Users\alex\AppData\Local\Temp/ccyALXvz.s:4      *ABS*:0000003d __SP_L__
C:\Users\alex\AppData\Local\Temp/ccyALXvz.s:5      *ABS*:00000034 __CCP__
C:\Users\alex\AppData\Local\Temp/ccyALXvz.s:6      *ABS*:00000000 __tmp_reg__
C:\Users\alex\AppData\Local\Temp/ccyALXvz.s:7      *ABS*:00000001 __zero_reg__
C:\Users\alex\AppData\Local\Temp/ccyALXvz.s:20     .data:00000000 numbers
C:\Users\alex\AppData\Local\Temp/ccyALXvz.s:35     .data:0000000b hex_numbers
C:\Users\alex\AppData\Local\Temp/ccyALXvz.s:55     .data:0000001b letters
C:\Users\alex\AppData\Local\Temp/ccyALXvz.s:86     .data:00000036 special_up
C:\Users\alex\AppData\Local\Temp/ccyALXvz.s:95     .data:00000051 special_down
C:\Users\alex\AppData\Local\Temp/ccyALXvz.s:104    .data:0000006c special_updown
C:\Users\alex\AppData\Local\Temp/ccyALXvz.s:114    .text:00000000 init_cat4016
                            *COM*:00000014 cat4016_b_clk
                            *COM*:00000014 cat4016_b_data
                            *COM*:00000014 cat4016_b_latch
                            *COM*:00000014 cat4016_b_blank
                            *COM*:00000028 cat4016_p_clk
                            *COM*:00000028 cat4016_p_data
                            *COM*:00000028 cat4016_p_latch
                            *COM*:00000028 cat4016_p_blank
C:\Users\alex\AppData\Local\Temp/ccyALXvz.s:688    .text:0000040a cat4016_put4
C:\Users\alex\AppData\Local\Temp/ccyALXvz.s:926    .text:000005a0 cat4016_put_unumber
C:\Users\alex\AppData\Local\Temp/ccyALXvz.s:1186   .text:0000075a cat4016_put_snumber
C:\Users\alex\AppData\Local\Temp/ccyALXvz.s:1497   .text:0000096c cat4016_put_txt

UNDEFINED SYMBOLS
__do_copy_data
__do_clear_bss
