GAS LISTING C:\Users\alex\AppData\Local\Temp/ccg1WVlq.s 			page 1


   1               		.file	"keypad.c"
   2               	__SREG__ = 0x3f
   3               	__SP_H__ = 0x3e
   4               	__SP_L__ = 0x3d
   5               	__CCP__  = 0x34
   6               	__tmp_reg__ = 0
   7               	__zero_reg__ = 1
   8               		.section	.debug_abbrev,"",@progbits
   9               	.Ldebug_abbrev0:
  10               		.section	.debug_info,"",@progbits
  11               	.Ldebug_info0:
  12               		.section	.debug_line,"",@progbits
  13               	.Ldebug_line0:
  14               		.text
  15               	.Ltext0:
  16               	.global	getc_3x4_keypad
  17               		.type	getc_3x4_keypad, @function
  18               	getc_3x4_keypad:
  19               	.LFB2:
  20               	.LM1:
  21 0000 DF93      		push r29
  22 0002 CF93      		push r28
  23 0004 0F92      		push __tmp_reg__
  24 0006 CDB7      		in r28,__SP_L__
  25 0008 DEB7      		in r29,__SP_H__
  26               	/* prologue: function */
  27               	/* frame size = 1 */
  28               	.LM2:
  29 000a 82E1      		ldi r24,lo8(18)
  30 000c 8983      		std Y+1,r24
  31               	.LM3:
  32 000e E6E3      		ldi r30,lo8(54)
  33 0010 F0E0      		ldi r31,hi8(54)
  34 0012 8081      		ld r24,Z
  35 0014 8983      		std Y+1,r24
  36               	.LM4:
  37 0016 8981      		ldd r24,Y+1
  38               	/* epilogue start */
  39               	.LM5:
  40 0018 0F90      		pop __tmp_reg__
  41 001a CF91      		pop r28
  42 001c DF91      		pop r29
  43 001e 0895      		ret
  44               	.LFE2:
  45               		.size	getc_3x4_keypad, .-getc_3x4_keypad
  46               	.global	init_4x4_keypad
  47               		.type	init_4x4_keypad, @function
  48               	init_4x4_keypad:
  49               	.LFB3:
  50               	.LM6:
  51 0020 AF92      		push r10
  52 0022 CF92      		push r12
  53 0024 EF92      		push r14
  54 0026 0F93      		push r16
  55 0028 DF93      		push r29
  56 002a CF93      		push r28
  57 002c CDB7      		in r28,__SP_L__
GAS LISTING C:\Users\alex\AppData\Local\Temp/ccg1WVlq.s 			page 2


  58 002e DEB7      		in r29,__SP_H__
  59 0030 6497      		sbiw r28,20
  60 0032 0FB6      		in __tmp_reg__,__SREG__
  61 0034 F894      		cli
  62 0036 DEBF      		out __SP_H__,r29
  63 0038 0FBE      		out __SREG__,__tmp_reg__
  64 003a CDBF      		out __SP_L__,r28
  65               	/* prologue: function */
  66               	/* frame size = 20 */
  67 003c 8D87      		std Y+13,r24
  68 003e 6E87      		std Y+14,r22
  69 0040 4F87      		std Y+15,r20
  70 0042 288B      		std Y+16,r18
  71 0044 098B      		std Y+17,r16
  72 0046 EA8A      		std Y+18,r14
  73 0048 CB8A      		std Y+19,r12
  74 004a AC8A      		std Y+20,r10
  75               	.LM7:
  76 004c 8D85      		ldd r24,Y+13
  77 004e 882F      		mov r24,r24
  78 0050 90E0      		ldi r25,lo8(0)
  79 0052 9C01      		movw r18,r24
  80 0054 2F70      		andi r18,lo8(15)
  81 0056 3070      		andi r19,hi8(15)
  82 0058 81E0      		ldi r24,lo8(1)
  83 005a 90E0      		ldi r25,hi8(1)
  84 005c 00C0      		rjmp 2f
  85 005e 880F      	1:	lsl r24
  86 0060 991F      		rol r25
  87 0062 2A95      	2:	dec r18
  88 0064 02F4      		brpl 1b
  89 0066 8A87      		std Y+10,r24
  90               	.LM8:
  91 0068 8A85      		ldd r24,Y+10
  92 006a 8093 0000 		sts bkeypad_4x4_in,r24
  93               	.LM9:
  94 006e 8E85      		ldd r24,Y+14
  95 0070 882F      		mov r24,r24
  96 0072 90E0      		ldi r25,lo8(0)
  97 0074 9C01      		movw r18,r24
  98 0076 2F70      		andi r18,lo8(15)
  99 0078 3070      		andi r19,hi8(15)
 100 007a 81E0      		ldi r24,lo8(1)
 101 007c 90E0      		ldi r25,hi8(1)
 102 007e 00C0      		rjmp 2f
 103 0080 880F      	1:	lsl r24
 104 0082 991F      		rol r25
 105 0084 2A95      	2:	dec r18
 106 0086 02F4      		brpl 1b
 107 0088 8987      		std Y+9,r24
 108               	.LM10:
 109 008a 8985      		ldd r24,Y+9
 110 008c 8093 0000 		sts bkeypad_4x4_in+1,r24
 111               	.LM11:
 112 0090 8F85      		ldd r24,Y+15
 113 0092 882F      		mov r24,r24
 114 0094 90E0      		ldi r25,lo8(0)
GAS LISTING C:\Users\alex\AppData\Local\Temp/ccg1WVlq.s 			page 3


 115 0096 9C01      		movw r18,r24
 116 0098 2F70      		andi r18,lo8(15)
 117 009a 3070      		andi r19,hi8(15)
 118 009c 81E0      		ldi r24,lo8(1)
 119 009e 90E0      		ldi r25,hi8(1)
 120 00a0 00C0      		rjmp 2f
 121 00a2 880F      	1:	lsl r24
 122 00a4 991F      		rol r25
 123 00a6 2A95      	2:	dec r18
 124 00a8 02F4      		brpl 1b
 125 00aa 8887      		std Y+8,r24
 126               	.LM12:
 127 00ac 8885      		ldd r24,Y+8
 128 00ae 8093 0000 		sts bkeypad_4x4_in+2,r24
 129               	.LM13:
 130 00b2 8889      		ldd r24,Y+16
 131 00b4 882F      		mov r24,r24
 132 00b6 90E0      		ldi r25,lo8(0)
 133 00b8 9C01      		movw r18,r24
 134 00ba 2F70      		andi r18,lo8(15)
 135 00bc 3070      		andi r19,hi8(15)
 136 00be 81E0      		ldi r24,lo8(1)
 137 00c0 90E0      		ldi r25,hi8(1)
 138 00c2 022E      		mov r0,r18
 139 00c4 00C0      		rjmp 2f
 140 00c6 880F      	1:	lsl r24
 141 00c8 991F      		rol r25
 142 00ca 0A94      	2:	dec r0
 143 00cc 02F4      		brpl 1b
 144 00ce 8F83      		std Y+7,r24
 145               	.LM14:
 146 00d0 8F81      		ldd r24,Y+7
 147 00d2 8093 0000 		sts bkeypad_4x4_in+3,r24
 148               	.LM15:
 149 00d6 8D85      		ldd r24,Y+13
 150 00d8 807F      		andi r24,lo8(-16)
 151 00da 8D87      		std Y+13,r24
 152               	.LM16:
 153 00dc 8D85      		ldd r24,Y+13
 154 00de 8823      		tst r24
 155 00e0 01F4      		brne .L4
 156 00e2 89E3      		ldi r24,lo8(57)
 157 00e4 90E0      		ldi r25,hi8(57)
 158 00e6 9093 0000 		sts (pkeypad_4x4_in)+1,r25
 159 00ea 8093 0000 		sts pkeypad_4x4_in,r24
 160 00ee AAE3      		ldi r26,lo8(58)
 161 00f0 B0E0      		ldi r27,hi8(58)
 162 00f2 EAE3      		ldi r30,lo8(58)
 163 00f4 F0E0      		ldi r31,hi8(58)
 164 00f6 8081      		ld r24,Z
 165 00f8 982F      		mov r25,r24
 166 00fa 8A85      		ldd r24,Y+10
 167 00fc 8095      		com r24
 168 00fe 8923      		and r24,r25
 169 0100 8C93      		st X,r24
 170 0102 ABE3      		ldi r26,lo8(59)
 171 0104 B0E0      		ldi r27,hi8(59)
GAS LISTING C:\Users\alex\AppData\Local\Temp/ccg1WVlq.s 			page 4


 172 0106 EBE3      		ldi r30,lo8(59)
 173 0108 F0E0      		ldi r31,hi8(59)
 174 010a 9081      		ld r25,Z
 175 010c 8A85      		ldd r24,Y+10
 176 010e 892B      		or r24,r25
 177 0110 8C93      		st X,r24
 178               	.L4:
 179               	.LM17:
 180 0112 8D85      		ldd r24,Y+13
 181 0114 8031      		cpi r24,lo8(16)
 182 0116 01F4      		brne .L5
 183 0118 86E3      		ldi r24,lo8(54)
 184 011a 90E0      		ldi r25,hi8(54)
 185 011c 9093 0000 		sts (pkeypad_4x4_in)+1,r25
 186 0120 8093 0000 		sts pkeypad_4x4_in,r24
 187 0124 A7E3      		ldi r26,lo8(55)
 188 0126 B0E0      		ldi r27,hi8(55)
 189 0128 E7E3      		ldi r30,lo8(55)
 190 012a F0E0      		ldi r31,hi8(55)
 191 012c 8081      		ld r24,Z
 192 012e 982F      		mov r25,r24
 193 0130 8A85      		ldd r24,Y+10
 194 0132 8095      		com r24
 195 0134 8923      		and r24,r25
 196 0136 8C93      		st X,r24
 197 0138 A8E3      		ldi r26,lo8(56)
 198 013a B0E0      		ldi r27,hi8(56)
 199 013c E8E3      		ldi r30,lo8(56)
 200 013e F0E0      		ldi r31,hi8(56)
 201 0140 9081      		ld r25,Z
 202 0142 8A85      		ldd r24,Y+10
 203 0144 892B      		or r24,r25
 204 0146 8C93      		st X,r24
 205               	.L5:
 206               	.LM18:
 207 0148 8D85      		ldd r24,Y+13
 208 014a 8032      		cpi r24,lo8(32)
 209 014c 01F4      		brne .L6
 210 014e 83E3      		ldi r24,lo8(51)
 211 0150 90E0      		ldi r25,hi8(51)
 212 0152 9093 0000 		sts (pkeypad_4x4_in)+1,r25
 213 0156 8093 0000 		sts pkeypad_4x4_in,r24
 214 015a A4E3      		ldi r26,lo8(52)
 215 015c B0E0      		ldi r27,hi8(52)
 216 015e E4E3      		ldi r30,lo8(52)
 217 0160 F0E0      		ldi r31,hi8(52)
 218 0162 8081      		ld r24,Z
 219 0164 982F      		mov r25,r24
 220 0166 8A85      		ldd r24,Y+10
 221 0168 8095      		com r24
 222 016a 8923      		and r24,r25
 223 016c 8C93      		st X,r24
 224 016e A5E3      		ldi r26,lo8(53)
 225 0170 B0E0      		ldi r27,hi8(53)
 226 0172 E5E3      		ldi r30,lo8(53)
 227 0174 F0E0      		ldi r31,hi8(53)
 228 0176 9081      		ld r25,Z
GAS LISTING C:\Users\alex\AppData\Local\Temp/ccg1WVlq.s 			page 5


 229 0178 8A85      		ldd r24,Y+10
 230 017a 892B      		or r24,r25
 231 017c 8C93      		st X,r24
 232               	.L6:
 233               	.LM19:
 234 017e 8D85      		ldd r24,Y+13
 235 0180 8033      		cpi r24,lo8(48)
 236 0182 01F4      		brne .L7
 237 0184 80E3      		ldi r24,lo8(48)
 238 0186 90E0      		ldi r25,hi8(48)
 239 0188 9093 0000 		sts (pkeypad_4x4_in)+1,r25
 240 018c 8093 0000 		sts pkeypad_4x4_in,r24
 241 0190 A1E3      		ldi r26,lo8(49)
 242 0192 B0E0      		ldi r27,hi8(49)
 243 0194 E1E3      		ldi r30,lo8(49)
 244 0196 F0E0      		ldi r31,hi8(49)
 245 0198 8081      		ld r24,Z
 246 019a 982F      		mov r25,r24
 247 019c 8A85      		ldd r24,Y+10
 248 019e 8095      		com r24
 249 01a0 8923      		and r24,r25
 250 01a2 8C93      		st X,r24
 251 01a4 A2E3      		ldi r26,lo8(50)
 252 01a6 B0E0      		ldi r27,hi8(50)
 253 01a8 E2E3      		ldi r30,lo8(50)
 254 01aa F0E0      		ldi r31,hi8(50)
 255 01ac 9081      		ld r25,Z
 256 01ae 8A85      		ldd r24,Y+10
 257 01b0 892B      		or r24,r25
 258 01b2 8C93      		st X,r24
 259               	.L7:
 260               	.LM20:
 261 01b4 8E85      		ldd r24,Y+14
 262 01b6 807F      		andi r24,lo8(-16)
 263 01b8 8E87      		std Y+14,r24
 264               	.LM21:
 265 01ba 8E85      		ldd r24,Y+14
 266 01bc 8823      		tst r24
 267 01be 01F4      		brne .L8
 268 01c0 89E3      		ldi r24,lo8(57)
 269 01c2 90E0      		ldi r25,hi8(57)
 270 01c4 9093 0000 		sts (pkeypad_4x4_in+2)+1,r25
 271 01c8 8093 0000 		sts pkeypad_4x4_in+2,r24
 272 01cc AAE3      		ldi r26,lo8(58)
 273 01ce B0E0      		ldi r27,hi8(58)
 274 01d0 EAE3      		ldi r30,lo8(58)
 275 01d2 F0E0      		ldi r31,hi8(58)
 276 01d4 8081      		ld r24,Z
 277 01d6 982F      		mov r25,r24
 278 01d8 8985      		ldd r24,Y+9
 279 01da 8095      		com r24
 280 01dc 8923      		and r24,r25
 281 01de 8C93      		st X,r24
 282 01e0 ABE3      		ldi r26,lo8(59)
 283 01e2 B0E0      		ldi r27,hi8(59)
 284 01e4 EBE3      		ldi r30,lo8(59)
 285 01e6 F0E0      		ldi r31,hi8(59)
GAS LISTING C:\Users\alex\AppData\Local\Temp/ccg1WVlq.s 			page 6


 286 01e8 9081      		ld r25,Z
 287 01ea 8985      		ldd r24,Y+9
 288 01ec 892B      		or r24,r25
 289 01ee 8C93      		st X,r24
 290               	.L8:
 291               	.LM22:
 292 01f0 8E85      		ldd r24,Y+14
 293 01f2 8031      		cpi r24,lo8(16)
 294 01f4 01F4      		brne .L9
 295 01f6 86E3      		ldi r24,lo8(54)
 296 01f8 90E0      		ldi r25,hi8(54)
 297 01fa 9093 0000 		sts (pkeypad_4x4_in+2)+1,r25
 298 01fe 8093 0000 		sts pkeypad_4x4_in+2,r24
 299 0202 A7E3      		ldi r26,lo8(55)
 300 0204 B0E0      		ldi r27,hi8(55)
 301 0206 E7E3      		ldi r30,lo8(55)
 302 0208 F0E0      		ldi r31,hi8(55)
 303 020a 8081      		ld r24,Z
 304 020c 982F      		mov r25,r24
 305 020e 8985      		ldd r24,Y+9
 306 0210 8095      		com r24
 307 0212 8923      		and r24,r25
 308 0214 8C93      		st X,r24
 309 0216 A8E3      		ldi r26,lo8(56)
 310 0218 B0E0      		ldi r27,hi8(56)
 311 021a E8E3      		ldi r30,lo8(56)
 312 021c F0E0      		ldi r31,hi8(56)
 313 021e 9081      		ld r25,Z
 314 0220 8985      		ldd r24,Y+9
 315 0222 892B      		or r24,r25
 316 0224 8C93      		st X,r24
 317               	.L9:
 318               	.LM23:
 319 0226 8E85      		ldd r24,Y+14
 320 0228 8032      		cpi r24,lo8(32)
 321 022a 01F4      		brne .L10
 322 022c 83E3      		ldi r24,lo8(51)
 323 022e 90E0      		ldi r25,hi8(51)
 324 0230 9093 0000 		sts (pkeypad_4x4_in+2)+1,r25
 325 0234 8093 0000 		sts pkeypad_4x4_in+2,r24
 326 0238 A4E3      		ldi r26,lo8(52)
 327 023a B0E0      		ldi r27,hi8(52)
 328 023c E4E3      		ldi r30,lo8(52)
 329 023e F0E0      		ldi r31,hi8(52)
 330 0240 8081      		ld r24,Z
 331 0242 982F      		mov r25,r24
 332 0244 8985      		ldd r24,Y+9
 333 0246 8095      		com r24
 334 0248 8923      		and r24,r25
 335 024a 8C93      		st X,r24
 336 024c A5E3      		ldi r26,lo8(53)
 337 024e B0E0      		ldi r27,hi8(53)
 338 0250 E5E3      		ldi r30,lo8(53)
 339 0252 F0E0      		ldi r31,hi8(53)
 340 0254 9081      		ld r25,Z
 341 0256 8985      		ldd r24,Y+9
 342 0258 892B      		or r24,r25
GAS LISTING C:\Users\alex\AppData\Local\Temp/ccg1WVlq.s 			page 7


 343 025a 8C93      		st X,r24
 344               	.L10:
 345               	.LM24:
 346 025c 8E85      		ldd r24,Y+14
 347 025e 8033      		cpi r24,lo8(48)
 348 0260 01F4      		brne .L11
 349 0262 80E3      		ldi r24,lo8(48)
 350 0264 90E0      		ldi r25,hi8(48)
 351 0266 9093 0000 		sts (pkeypad_4x4_in+2)+1,r25
 352 026a 8093 0000 		sts pkeypad_4x4_in+2,r24
 353 026e A1E3      		ldi r26,lo8(49)
 354 0270 B0E0      		ldi r27,hi8(49)
 355 0272 E1E3      		ldi r30,lo8(49)
 356 0274 F0E0      		ldi r31,hi8(49)
 357 0276 8081      		ld r24,Z
 358 0278 982F      		mov r25,r24
 359 027a 8985      		ldd r24,Y+9
 360 027c 8095      		com r24
 361 027e 8923      		and r24,r25
 362 0280 8C93      		st X,r24
 363 0282 A2E3      		ldi r26,lo8(50)
 364 0284 B0E0      		ldi r27,hi8(50)
 365 0286 E2E3      		ldi r30,lo8(50)
 366 0288 F0E0      		ldi r31,hi8(50)
 367 028a 9081      		ld r25,Z
 368 028c 8985      		ldd r24,Y+9
 369 028e 892B      		or r24,r25
 370 0290 8C93      		st X,r24
 371               	.L11:
 372               	.LM25:
 373 0292 8F85      		ldd r24,Y+15
 374 0294 807F      		andi r24,lo8(-16)
 375 0296 8F87      		std Y+15,r24
 376               	.LM26:
 377 0298 8F85      		ldd r24,Y+15
 378 029a 8823      		tst r24
 379 029c 01F4      		brne .L12
 380 029e 89E3      		ldi r24,lo8(57)
 381 02a0 90E0      		ldi r25,hi8(57)
 382 02a2 9093 0000 		sts (pkeypad_4x4_in+4)+1,r25
 383 02a6 8093 0000 		sts pkeypad_4x4_in+4,r24
 384 02aa AAE3      		ldi r26,lo8(58)
 385 02ac B0E0      		ldi r27,hi8(58)
 386 02ae EAE3      		ldi r30,lo8(58)
 387 02b0 F0E0      		ldi r31,hi8(58)
 388 02b2 8081      		ld r24,Z
 389 02b4 982F      		mov r25,r24
 390 02b6 8885      		ldd r24,Y+8
 391 02b8 8095      		com r24
 392 02ba 8923      		and r24,r25
 393 02bc 8C93      		st X,r24
 394 02be ABE3      		ldi r26,lo8(59)
 395 02c0 B0E0      		ldi r27,hi8(59)
 396 02c2 EBE3      		ldi r30,lo8(59)
 397 02c4 F0E0      		ldi r31,hi8(59)
 398 02c6 9081      		ld r25,Z
 399 02c8 8885      		ldd r24,Y+8
GAS LISTING C:\Users\alex\AppData\Local\Temp/ccg1WVlq.s 			page 8


 400 02ca 892B      		or r24,r25
 401 02cc 8C93      		st X,r24
 402               	.L12:
 403               	.LM27:
 404 02ce 8F85      		ldd r24,Y+15
 405 02d0 8031      		cpi r24,lo8(16)
 406 02d2 01F4      		brne .L13
 407 02d4 86E3      		ldi r24,lo8(54)
 408 02d6 90E0      		ldi r25,hi8(54)
 409 02d8 9093 0000 		sts (pkeypad_4x4_in+4)+1,r25
 410 02dc 8093 0000 		sts pkeypad_4x4_in+4,r24
 411 02e0 A7E3      		ldi r26,lo8(55)
 412 02e2 B0E0      		ldi r27,hi8(55)
 413 02e4 E7E3      		ldi r30,lo8(55)
 414 02e6 F0E0      		ldi r31,hi8(55)
 415 02e8 8081      		ld r24,Z
 416 02ea 982F      		mov r25,r24
 417 02ec 8885      		ldd r24,Y+8
 418 02ee 8095      		com r24
 419 02f0 8923      		and r24,r25
 420 02f2 8C93      		st X,r24
 421 02f4 A8E3      		ldi r26,lo8(56)
 422 02f6 B0E0      		ldi r27,hi8(56)
 423 02f8 E8E3      		ldi r30,lo8(56)
 424 02fa F0E0      		ldi r31,hi8(56)
 425 02fc 9081      		ld r25,Z
 426 02fe 8885      		ldd r24,Y+8
 427 0300 892B      		or r24,r25
 428 0302 8C93      		st X,r24
 429               	.L13:
 430               	.LM28:
 431 0304 8F85      		ldd r24,Y+15
 432 0306 8032      		cpi r24,lo8(32)
 433 0308 01F4      		brne .L14
 434 030a 83E3      		ldi r24,lo8(51)
 435 030c 90E0      		ldi r25,hi8(51)
 436 030e 9093 0000 		sts (pkeypad_4x4_in+4)+1,r25
 437 0312 8093 0000 		sts pkeypad_4x4_in+4,r24
 438 0316 A4E3      		ldi r26,lo8(52)
 439 0318 B0E0      		ldi r27,hi8(52)
 440 031a E4E3      		ldi r30,lo8(52)
 441 031c F0E0      		ldi r31,hi8(52)
 442 031e 8081      		ld r24,Z
 443 0320 982F      		mov r25,r24
 444 0322 8885      		ldd r24,Y+8
 445 0324 8095      		com r24
 446 0326 8923      		and r24,r25
 447 0328 8C93      		st X,r24
 448 032a A5E3      		ldi r26,lo8(53)
 449 032c B0E0      		ldi r27,hi8(53)
 450 032e E5E3      		ldi r30,lo8(53)
 451 0330 F0E0      		ldi r31,hi8(53)
 452 0332 9081      		ld r25,Z
 453 0334 8885      		ldd r24,Y+8
 454 0336 892B      		or r24,r25
 455 0338 8C93      		st X,r24
 456               	.L14:
GAS LISTING C:\Users\alex\AppData\Local\Temp/ccg1WVlq.s 			page 9


 457               	.LM29:
 458 033a 8F85      		ldd r24,Y+15
 459 033c 8033      		cpi r24,lo8(48)
 460 033e 01F4      		brne .L15
 461 0340 80E3      		ldi r24,lo8(48)
 462 0342 90E0      		ldi r25,hi8(48)
 463 0344 9093 0000 		sts (pkeypad_4x4_in+4)+1,r25
 464 0348 8093 0000 		sts pkeypad_4x4_in+4,r24
 465 034c A1E3      		ldi r26,lo8(49)
 466 034e B0E0      		ldi r27,hi8(49)
 467 0350 E1E3      		ldi r30,lo8(49)
 468 0352 F0E0      		ldi r31,hi8(49)
 469 0354 8081      		ld r24,Z
 470 0356 982F      		mov r25,r24
 471 0358 8885      		ldd r24,Y+8
 472 035a 8095      		com r24
 473 035c 8923      		and r24,r25
 474 035e 8C93      		st X,r24
 475 0360 A2E3      		ldi r26,lo8(50)
 476 0362 B0E0      		ldi r27,hi8(50)
 477 0364 E2E3      		ldi r30,lo8(50)
 478 0366 F0E0      		ldi r31,hi8(50)
 479 0368 9081      		ld r25,Z
 480 036a 8885      		ldd r24,Y+8
 481 036c 892B      		or r24,r25
 482 036e 8C93      		st X,r24
 483               	.L15:
 484               	.LM30:
 485 0370 8889      		ldd r24,Y+16
 486 0372 807F      		andi r24,lo8(-16)
 487 0374 888B      		std Y+16,r24
 488               	.LM31:
 489 0376 8889      		ldd r24,Y+16
 490 0378 8823      		tst r24
 491 037a 01F4      		brne .L16
 492 037c 89E3      		ldi r24,lo8(57)
 493 037e 90E0      		ldi r25,hi8(57)
 494 0380 9093 0000 		sts (pkeypad_4x4_in+6)+1,r25
 495 0384 8093 0000 		sts pkeypad_4x4_in+6,r24
 496 0388 AAE3      		ldi r26,lo8(58)
 497 038a B0E0      		ldi r27,hi8(58)
 498 038c EAE3      		ldi r30,lo8(58)
 499 038e F0E0      		ldi r31,hi8(58)
 500 0390 8081      		ld r24,Z
 501 0392 982F      		mov r25,r24
 502 0394 8F81      		ldd r24,Y+7
 503 0396 8095      		com r24
 504 0398 8923      		and r24,r25
 505 039a 8C93      		st X,r24
 506 039c ABE3      		ldi r26,lo8(59)
 507 039e B0E0      		ldi r27,hi8(59)
 508 03a0 EBE3      		ldi r30,lo8(59)
 509 03a2 F0E0      		ldi r31,hi8(59)
 510 03a4 9081      		ld r25,Z
 511 03a6 8F81      		ldd r24,Y+7
 512 03a8 892B      		or r24,r25
 513 03aa 8C93      		st X,r24
GAS LISTING C:\Users\alex\AppData\Local\Temp/ccg1WVlq.s 			page 10


 514               	.L16:
 515               	.LM32:
 516 03ac 8889      		ldd r24,Y+16
 517 03ae 8031      		cpi r24,lo8(16)
 518 03b0 01F4      		brne .L17
 519 03b2 86E3      		ldi r24,lo8(54)
 520 03b4 90E0      		ldi r25,hi8(54)
 521 03b6 9093 0000 		sts (pkeypad_4x4_in+6)+1,r25
 522 03ba 8093 0000 		sts pkeypad_4x4_in+6,r24
 523 03be A7E3      		ldi r26,lo8(55)
 524 03c0 B0E0      		ldi r27,hi8(55)
 525 03c2 E7E3      		ldi r30,lo8(55)
 526 03c4 F0E0      		ldi r31,hi8(55)
 527 03c6 8081      		ld r24,Z
 528 03c8 982F      		mov r25,r24
 529 03ca 8F81      		ldd r24,Y+7
 530 03cc 8095      		com r24
 531 03ce 8923      		and r24,r25
 532 03d0 8C93      		st X,r24
 533 03d2 A8E3      		ldi r26,lo8(56)
 534 03d4 B0E0      		ldi r27,hi8(56)
 535 03d6 E8E3      		ldi r30,lo8(56)
 536 03d8 F0E0      		ldi r31,hi8(56)
 537 03da 9081      		ld r25,Z
 538 03dc 8F81      		ldd r24,Y+7
 539 03de 892B      		or r24,r25
 540 03e0 8C93      		st X,r24
 541               	.L17:
 542               	.LM33:
 543 03e2 8889      		ldd r24,Y+16
 544 03e4 8032      		cpi r24,lo8(32)
 545 03e6 01F4      		brne .L18
 546 03e8 83E3      		ldi r24,lo8(51)
 547 03ea 90E0      		ldi r25,hi8(51)
 548 03ec 9093 0000 		sts (pkeypad_4x4_in+6)+1,r25
 549 03f0 8093 0000 		sts pkeypad_4x4_in+6,r24
 550 03f4 A4E3      		ldi r26,lo8(52)
 551 03f6 B0E0      		ldi r27,hi8(52)
 552 03f8 E4E3      		ldi r30,lo8(52)
 553 03fa F0E0      		ldi r31,hi8(52)
 554 03fc 8081      		ld r24,Z
 555 03fe 982F      		mov r25,r24
 556 0400 8F81      		ldd r24,Y+7
 557 0402 8095      		com r24
 558 0404 8923      		and r24,r25
 559 0406 8C93      		st X,r24
 560 0408 A5E3      		ldi r26,lo8(53)
 561 040a B0E0      		ldi r27,hi8(53)
 562 040c E5E3      		ldi r30,lo8(53)
 563 040e F0E0      		ldi r31,hi8(53)
 564 0410 9081      		ld r25,Z
 565 0412 8F81      		ldd r24,Y+7
 566 0414 892B      		or r24,r25
 567 0416 8C93      		st X,r24
 568               	.L18:
 569               	.LM34:
 570 0418 8889      		ldd r24,Y+16
GAS LISTING C:\Users\alex\AppData\Local\Temp/ccg1WVlq.s 			page 11


 571 041a 8033      		cpi r24,lo8(48)
 572 041c 01F4      		brne .L19
 573 041e 80E3      		ldi r24,lo8(48)
 574 0420 90E0      		ldi r25,hi8(48)
 575 0422 9093 0000 		sts (pkeypad_4x4_in+6)+1,r25
 576 0426 8093 0000 		sts pkeypad_4x4_in+6,r24
 577 042a A1E3      		ldi r26,lo8(49)
 578 042c B0E0      		ldi r27,hi8(49)
 579 042e E1E3      		ldi r30,lo8(49)
 580 0430 F0E0      		ldi r31,hi8(49)
 581 0432 8081      		ld r24,Z
 582 0434 982F      		mov r25,r24
 583 0436 8F81      		ldd r24,Y+7
 584 0438 8095      		com r24
 585 043a 8923      		and r24,r25
 586 043c 8C93      		st X,r24
 587 043e A2E3      		ldi r26,lo8(50)
 588 0440 B0E0      		ldi r27,hi8(50)
 589 0442 E2E3      		ldi r30,lo8(50)
 590 0444 F0E0      		ldi r31,hi8(50)
 591 0446 9081      		ld r25,Z
 592 0448 8F81      		ldd r24,Y+7
 593 044a 892B      		or r24,r25
 594 044c 8C93      		st X,r24
 595               	.L19:
 596               	.LM35:
 597 044e 8989      		ldd r24,Y+17
 598 0450 882F      		mov r24,r24
 599 0452 90E0      		ldi r25,lo8(0)
 600 0454 9C01      		movw r18,r24
 601 0456 2F70      		andi r18,lo8(15)
 602 0458 3070      		andi r19,hi8(15)
 603 045a 81E0      		ldi r24,lo8(1)
 604 045c 90E0      		ldi r25,hi8(1)
 605 045e 00C0      		rjmp 2f
 606 0460 880F      	1:	lsl r24
 607 0462 991F      		rol r25
 608 0464 2A95      	2:	dec r18
 609 0466 02F4      		brpl 1b
 610 0468 8E83      		std Y+6,r24
 611               	.LM36:
 612 046a 8E81      		ldd r24,Y+6
 613 046c 8093 0000 		sts bkeypad_4x4_out,r24
 614               	.LM37:
 615 0470 8A89      		ldd r24,Y+18
 616 0472 882F      		mov r24,r24
 617 0474 90E0      		ldi r25,lo8(0)
 618 0476 9C01      		movw r18,r24
 619 0478 2F70      		andi r18,lo8(15)
 620 047a 3070      		andi r19,hi8(15)
 621 047c 81E0      		ldi r24,lo8(1)
 622 047e 90E0      		ldi r25,hi8(1)
 623 0480 00C0      		rjmp 2f
 624 0482 880F      	1:	lsl r24
 625 0484 991F      		rol r25
 626 0486 2A95      	2:	dec r18
 627 0488 02F4      		brpl 1b
GAS LISTING C:\Users\alex\AppData\Local\Temp/ccg1WVlq.s 			page 12


 628 048a 8D83      		std Y+5,r24
 629               	.LM38:
 630 048c 8D81      		ldd r24,Y+5
 631 048e 8093 0000 		sts bkeypad_4x4_out+1,r24
 632               	.LM39:
 633 0492 8B89      		ldd r24,Y+19
 634 0494 882F      		mov r24,r24
 635 0496 90E0      		ldi r25,lo8(0)
 636 0498 9C01      		movw r18,r24
 637 049a 2F70      		andi r18,lo8(15)
 638 049c 3070      		andi r19,hi8(15)
 639 049e 81E0      		ldi r24,lo8(1)
 640 04a0 90E0      		ldi r25,hi8(1)
 641 04a2 00C0      		rjmp 2f
 642 04a4 880F      	1:	lsl r24
 643 04a6 991F      		rol r25
 644 04a8 2A95      	2:	dec r18
 645 04aa 02F4      		brpl 1b
 646 04ac 8C83      		std Y+4,r24
 647               	.LM40:
 648 04ae 8C81      		ldd r24,Y+4
 649 04b0 8093 0000 		sts bkeypad_4x4_out+2,r24
 650               	.LM41:
 651 04b4 8C89      		ldd r24,Y+20
 652 04b6 882F      		mov r24,r24
 653 04b8 90E0      		ldi r25,lo8(0)
 654 04ba 9C01      		movw r18,r24
 655 04bc 2F70      		andi r18,lo8(15)
 656 04be 3070      		andi r19,hi8(15)
 657 04c0 81E0      		ldi r24,lo8(1)
 658 04c2 90E0      		ldi r25,hi8(1)
 659 04c4 022E      		mov r0,r18
 660 04c6 00C0      		rjmp 2f
 661 04c8 880F      	1:	lsl r24
 662 04ca 991F      		rol r25
 663 04cc 0A94      	2:	dec r0
 664 04ce 02F4      		brpl 1b
 665 04d0 8B83      		std Y+3,r24
 666               	.LM42:
 667 04d2 8B81      		ldd r24,Y+3
 668 04d4 8093 0000 		sts bkeypad_4x4_out+3,r24
 669               	.LM43:
 670 04d8 8989      		ldd r24,Y+17
 671 04da 807F      		andi r24,lo8(-16)
 672 04dc 898B      		std Y+17,r24
 673               	.LM44:
 674 04de 8989      		ldd r24,Y+17
 675 04e0 8823      		tst r24
 676 04e2 01F4      		brne .L20
 677 04e4 8BE3      		ldi r24,lo8(59)
 678 04e6 90E0      		ldi r25,hi8(59)
 679 04e8 9093 0000 		sts (pkeypad_4x4_out)+1,r25
 680 04ec 8093 0000 		sts pkeypad_4x4_out,r24
 681 04f0 AAE3      		ldi r26,lo8(58)
 682 04f2 B0E0      		ldi r27,hi8(58)
 683 04f4 EAE3      		ldi r30,lo8(58)
 684 04f6 F0E0      		ldi r31,hi8(58)
GAS LISTING C:\Users\alex\AppData\Local\Temp/ccg1WVlq.s 			page 13


 685 04f8 9081      		ld r25,Z
 686 04fa 8E81      		ldd r24,Y+6
 687 04fc 892B      		or r24,r25
 688 04fe 8C93      		st X,r24
 689               	.L20:
 690               	.LM45:
 691 0500 8989      		ldd r24,Y+17
 692 0502 8031      		cpi r24,lo8(16)
 693 0504 01F4      		brne .L21
 694 0506 88E3      		ldi r24,lo8(56)
 695 0508 90E0      		ldi r25,hi8(56)
 696 050a 9093 0000 		sts (pkeypad_4x4_out)+1,r25
 697 050e 8093 0000 		sts pkeypad_4x4_out,r24
 698 0512 A7E3      		ldi r26,lo8(55)
 699 0514 B0E0      		ldi r27,hi8(55)
 700 0516 E7E3      		ldi r30,lo8(55)
 701 0518 F0E0      		ldi r31,hi8(55)
 702 051a 9081      		ld r25,Z
 703 051c 8E81      		ldd r24,Y+6
 704 051e 892B      		or r24,r25
 705 0520 8C93      		st X,r24
 706               	.L21:
 707               	.LM46:
 708 0522 8989      		ldd r24,Y+17
 709 0524 8032      		cpi r24,lo8(32)
 710 0526 01F4      		brne .L22
 711 0528 85E3      		ldi r24,lo8(53)
 712 052a 90E0      		ldi r25,hi8(53)
 713 052c 9093 0000 		sts (pkeypad_4x4_out)+1,r25
 714 0530 8093 0000 		sts pkeypad_4x4_out,r24
 715 0534 A4E3      		ldi r26,lo8(52)
 716 0536 B0E0      		ldi r27,hi8(52)
 717 0538 E4E3      		ldi r30,lo8(52)
 718 053a F0E0      		ldi r31,hi8(52)
 719 053c 9081      		ld r25,Z
 720 053e 8E81      		ldd r24,Y+6
 721 0540 892B      		or r24,r25
 722 0542 8C93      		st X,r24
 723               	.L22:
 724               	.LM47:
 725 0544 8989      		ldd r24,Y+17
 726 0546 8033      		cpi r24,lo8(48)
 727 0548 01F4      		brne .L23
 728 054a 82E3      		ldi r24,lo8(50)
 729 054c 90E0      		ldi r25,hi8(50)
 730 054e 9093 0000 		sts (pkeypad_4x4_out)+1,r25
 731 0552 8093 0000 		sts pkeypad_4x4_out,r24
 732 0556 A1E3      		ldi r26,lo8(49)
 733 0558 B0E0      		ldi r27,hi8(49)
 734 055a E1E3      		ldi r30,lo8(49)
 735 055c F0E0      		ldi r31,hi8(49)
 736 055e 9081      		ld r25,Z
 737 0560 8E81      		ldd r24,Y+6
 738 0562 892B      		or r24,r25
 739 0564 8C93      		st X,r24
 740               	.L23:
 741               	.LM48:
GAS LISTING C:\Users\alex\AppData\Local\Temp/ccg1WVlq.s 			page 14


 742 0566 8A89      		ldd r24,Y+18
 743 0568 807F      		andi r24,lo8(-16)
 744 056a 8A8B      		std Y+18,r24
 745               	.LM49:
 746 056c 8A89      		ldd r24,Y+18
 747 056e 8823      		tst r24
 748 0570 01F4      		brne .L24
 749 0572 8BE3      		ldi r24,lo8(59)
 750 0574 90E0      		ldi r25,hi8(59)
 751 0576 9093 0000 		sts (pkeypad_4x4_out+2)+1,r25
 752 057a 8093 0000 		sts pkeypad_4x4_out+2,r24
 753 057e AAE3      		ldi r26,lo8(58)
 754 0580 B0E0      		ldi r27,hi8(58)
 755 0582 EAE3      		ldi r30,lo8(58)
 756 0584 F0E0      		ldi r31,hi8(58)
 757 0586 9081      		ld r25,Z
 758 0588 8D81      		ldd r24,Y+5
 759 058a 892B      		or r24,r25
 760 058c 8C93      		st X,r24
 761               	.L24:
 762               	.LM50:
 763 058e 8A89      		ldd r24,Y+18
 764 0590 8031      		cpi r24,lo8(16)
 765 0592 01F4      		brne .L25
 766 0594 88E3      		ldi r24,lo8(56)
 767 0596 90E0      		ldi r25,hi8(56)
 768 0598 9093 0000 		sts (pkeypad_4x4_out+2)+1,r25
 769 059c 8093 0000 		sts pkeypad_4x4_out+2,r24
 770 05a0 A7E3      		ldi r26,lo8(55)
 771 05a2 B0E0      		ldi r27,hi8(55)
 772 05a4 E7E3      		ldi r30,lo8(55)
 773 05a6 F0E0      		ldi r31,hi8(55)
 774 05a8 9081      		ld r25,Z
 775 05aa 8D81      		ldd r24,Y+5
 776 05ac 892B      		or r24,r25
 777 05ae 8C93      		st X,r24
 778               	.L25:
 779               	.LM51:
 780 05b0 8A89      		ldd r24,Y+18
 781 05b2 8032      		cpi r24,lo8(32)
 782 05b4 01F4      		brne .L26
 783 05b6 85E3      		ldi r24,lo8(53)
 784 05b8 90E0      		ldi r25,hi8(53)
 785 05ba 9093 0000 		sts (pkeypad_4x4_out+2)+1,r25
 786 05be 8093 0000 		sts pkeypad_4x4_out+2,r24
 787 05c2 A4E3      		ldi r26,lo8(52)
 788 05c4 B0E0      		ldi r27,hi8(52)
 789 05c6 E4E3      		ldi r30,lo8(52)
 790 05c8 F0E0      		ldi r31,hi8(52)
 791 05ca 9081      		ld r25,Z
 792 05cc 8D81      		ldd r24,Y+5
 793 05ce 892B      		or r24,r25
 794 05d0 8C93      		st X,r24
 795               	.L26:
 796               	.LM52:
 797 05d2 8A89      		ldd r24,Y+18
 798 05d4 8033      		cpi r24,lo8(48)
GAS LISTING C:\Users\alex\AppData\Local\Temp/ccg1WVlq.s 			page 15


 799 05d6 01F4      		brne .L27
 800 05d8 82E3      		ldi r24,lo8(50)
 801 05da 90E0      		ldi r25,hi8(50)
 802 05dc 9093 0000 		sts (pkeypad_4x4_out+2)+1,r25
 803 05e0 8093 0000 		sts pkeypad_4x4_out+2,r24
 804 05e4 A1E3      		ldi r26,lo8(49)
 805 05e6 B0E0      		ldi r27,hi8(49)
 806 05e8 E1E3      		ldi r30,lo8(49)
 807 05ea F0E0      		ldi r31,hi8(49)
 808 05ec 9081      		ld r25,Z
 809 05ee 8D81      		ldd r24,Y+5
 810 05f0 892B      		or r24,r25
 811 05f2 8C93      		st X,r24
 812               	.L27:
 813               	.LM53:
 814 05f4 8B89      		ldd r24,Y+19
 815 05f6 807F      		andi r24,lo8(-16)
 816 05f8 8B8B      		std Y+19,r24
 817               	.LM54:
 818 05fa 8B89      		ldd r24,Y+19
 819 05fc 8823      		tst r24
 820 05fe 01F4      		brne .L28
 821 0600 8BE3      		ldi r24,lo8(59)
 822 0602 90E0      		ldi r25,hi8(59)
 823 0604 9093 0000 		sts (pkeypad_4x4_out+4)+1,r25
 824 0608 8093 0000 		sts pkeypad_4x4_out+4,r24
 825 060c AAE3      		ldi r26,lo8(58)
 826 060e B0E0      		ldi r27,hi8(58)
 827 0610 EAE3      		ldi r30,lo8(58)
 828 0612 F0E0      		ldi r31,hi8(58)
 829 0614 9081      		ld r25,Z
 830 0616 8C81      		ldd r24,Y+4
 831 0618 892B      		or r24,r25
 832 061a 8C93      		st X,r24
 833               	.L28:
 834               	.LM55:
 835 061c 8B89      		ldd r24,Y+19
 836 061e 8031      		cpi r24,lo8(16)
 837 0620 01F4      		brne .L29
 838 0622 88E3      		ldi r24,lo8(56)
 839 0624 90E0      		ldi r25,hi8(56)
 840 0626 9093 0000 		sts (pkeypad_4x4_out+4)+1,r25
 841 062a 8093 0000 		sts pkeypad_4x4_out+4,r24
 842 062e A7E3      		ldi r26,lo8(55)
 843 0630 B0E0      		ldi r27,hi8(55)
 844 0632 E7E3      		ldi r30,lo8(55)
 845 0634 F0E0      		ldi r31,hi8(55)
 846 0636 9081      		ld r25,Z
 847 0638 8C81      		ldd r24,Y+4
 848 063a 892B      		or r24,r25
 849 063c 8C93      		st X,r24
 850               	.L29:
 851               	.LM56:
 852 063e 8B89      		ldd r24,Y+19
 853 0640 8032      		cpi r24,lo8(32)
 854 0642 01F4      		brne .L30
 855 0644 85E3      		ldi r24,lo8(53)
GAS LISTING C:\Users\alex\AppData\Local\Temp/ccg1WVlq.s 			page 16


 856 0646 90E0      		ldi r25,hi8(53)
 857 0648 9093 0000 		sts (pkeypad_4x4_out+4)+1,r25
 858 064c 8093 0000 		sts pkeypad_4x4_out+4,r24
 859 0650 A4E3      		ldi r26,lo8(52)
 860 0652 B0E0      		ldi r27,hi8(52)
 861 0654 E4E3      		ldi r30,lo8(52)
 862 0656 F0E0      		ldi r31,hi8(52)
 863 0658 9081      		ld r25,Z
 864 065a 8C81      		ldd r24,Y+4
 865 065c 892B      		or r24,r25
 866 065e 8C93      		st X,r24
 867               	.L30:
 868               	.LM57:
 869 0660 8B89      		ldd r24,Y+19
 870 0662 8033      		cpi r24,lo8(48)
 871 0664 01F4      		brne .L31
 872 0666 82E3      		ldi r24,lo8(50)
 873 0668 90E0      		ldi r25,hi8(50)
 874 066a 9093 0000 		sts (pkeypad_4x4_out+4)+1,r25
 875 066e 8093 0000 		sts pkeypad_4x4_out+4,r24
 876 0672 A1E3      		ldi r26,lo8(49)
 877 0674 B0E0      		ldi r27,hi8(49)
 878 0676 E1E3      		ldi r30,lo8(49)
 879 0678 F0E0      		ldi r31,hi8(49)
 880 067a 9081      		ld r25,Z
 881 067c 8C81      		ldd r24,Y+4
 882 067e 892B      		or r24,r25
 883 0680 8C93      		st X,r24
 884               	.L31:
 885               	.LM58:
 886 0682 8C89      		ldd r24,Y+20
 887 0684 807F      		andi r24,lo8(-16)
 888 0686 8C8B      		std Y+20,r24
 889               	.LM59:
 890 0688 8C89      		ldd r24,Y+20
 891 068a 8823      		tst r24
 892 068c 01F4      		brne .L32
 893 068e 8BE3      		ldi r24,lo8(59)
 894 0690 90E0      		ldi r25,hi8(59)
 895 0692 9093 0000 		sts (pkeypad_4x4_out+6)+1,r25
 896 0696 8093 0000 		sts pkeypad_4x4_out+6,r24
 897 069a AAE3      		ldi r26,lo8(58)
 898 069c B0E0      		ldi r27,hi8(58)
 899 069e EAE3      		ldi r30,lo8(58)
 900 06a0 F0E0      		ldi r31,hi8(58)
 901 06a2 9081      		ld r25,Z
 902 06a4 8B81      		ldd r24,Y+3
 903 06a6 892B      		or r24,r25
 904 06a8 8C93      		st X,r24
 905               	.L32:
 906               	.LM60:
 907 06aa 8C89      		ldd r24,Y+20
 908 06ac 8031      		cpi r24,lo8(16)
 909 06ae 01F4      		brne .L33
 910 06b0 88E3      		ldi r24,lo8(56)
 911 06b2 90E0      		ldi r25,hi8(56)
 912 06b4 9093 0000 		sts (pkeypad_4x4_out+6)+1,r25
GAS LISTING C:\Users\alex\AppData\Local\Temp/ccg1WVlq.s 			page 17


 913 06b8 8093 0000 		sts pkeypad_4x4_out+6,r24
 914 06bc A7E3      		ldi r26,lo8(55)
 915 06be B0E0      		ldi r27,hi8(55)
 916 06c0 E7E3      		ldi r30,lo8(55)
 917 06c2 F0E0      		ldi r31,hi8(55)
 918 06c4 9081      		ld r25,Z
 919 06c6 8B81      		ldd r24,Y+3
 920 06c8 892B      		or r24,r25
 921 06ca 8C93      		st X,r24
 922               	.L33:
 923               	.LM61:
 924 06cc 8C89      		ldd r24,Y+20
 925 06ce 8032      		cpi r24,lo8(32)
 926 06d0 01F4      		brne .L34
 927 06d2 85E3      		ldi r24,lo8(53)
 928 06d4 90E0      		ldi r25,hi8(53)
 929 06d6 9093 0000 		sts (pkeypad_4x4_out+6)+1,r25
 930 06da 8093 0000 		sts pkeypad_4x4_out+6,r24
 931 06de A4E3      		ldi r26,lo8(52)
 932 06e0 B0E0      		ldi r27,hi8(52)
 933 06e2 E4E3      		ldi r30,lo8(52)
 934 06e4 F0E0      		ldi r31,hi8(52)
 935 06e6 9081      		ld r25,Z
 936 06e8 8B81      		ldd r24,Y+3
 937 06ea 892B      		or r24,r25
 938 06ec 8C93      		st X,r24
 939               	.L34:
 940               	.LM62:
 941 06ee 8C89      		ldd r24,Y+20
 942 06f0 8033      		cpi r24,lo8(48)
 943 06f2 01F4      		brne .L35
 944 06f4 82E3      		ldi r24,lo8(50)
 945 06f6 90E0      		ldi r25,hi8(50)
 946 06f8 9093 0000 		sts (pkeypad_4x4_out+6)+1,r25
 947 06fc 8093 0000 		sts pkeypad_4x4_out+6,r24
 948 0700 A1E3      		ldi r26,lo8(49)
 949 0702 B0E0      		ldi r27,hi8(49)
 950 0704 E1E3      		ldi r30,lo8(49)
 951 0706 F0E0      		ldi r31,hi8(49)
 952 0708 9081      		ld r25,Z
 953 070a 8B81      		ldd r24,Y+3
 954 070c 892B      		or r24,r25
 955 070e 8C93      		st X,r24
 956               	.L35:
 957               	.LM63:
 958 0710 1C86      		std Y+12,__zero_reg__
 959 0712 00C0      		rjmp .L36
 960               	.L37:
 961               	.LM64:
 962 0714 8C85      		ldd r24,Y+12
 963 0716 882F      		mov r24,r24
 964 0718 90E0      		ldi r25,lo8(0)
 965 071a 880F      		lsl r24
 966 071c 991F      		rol r25
 967 071e FC01      		movw r30,r24
 968 0720 E050      		subi r30,lo8(-(pkeypad_4x4_out))
 969 0722 F040      		sbci r31,hi8(-(pkeypad_4x4_out))
GAS LISTING C:\Users\alex\AppData\Local\Temp/ccg1WVlq.s 			page 18


 970 0724 8081      		ld r24,Z
 971 0726 9181      		ldd r25,Z+1
 972 0728 9A83      		std Y+2,r25
 973 072a 8983      		std Y+1,r24
 974               	.LM65:
 975 072c 8C85      		ldd r24,Y+12
 976 072e 882F      		mov r24,r24
 977 0730 90E0      		ldi r25,lo8(0)
 978 0732 FC01      		movw r30,r24
 979 0734 E050      		subi r30,lo8(-(bkeypad_4x4_out))
 980 0736 F040      		sbci r31,hi8(-(bkeypad_4x4_out))
 981 0738 8081      		ld r24,Z
 982 073a 8B87      		std Y+11,r24
 983               	.LM66:
 984 073c E981      		ldd r30,Y+1
 985 073e FA81      		ldd r31,Y+2
 986 0740 9081      		ld r25,Z
 987 0742 8B85      		ldd r24,Y+11
 988 0744 892B      		or r24,r25
 989 0746 E981      		ldd r30,Y+1
 990 0748 FA81      		ldd r31,Y+2
 991 074a 8083      		st Z,r24
 992               	.LM67:
 993 074c 8C85      		ldd r24,Y+12
 994 074e 8F5F      		subi r24,lo8(-(1))
 995 0750 8C87      		std Y+12,r24
 996               	.L36:
 997 0752 8C85      		ldd r24,Y+12
 998 0754 8430      		cpi r24,lo8(4)
 999 0756 00F0      		brlo .L37
 1000               	.LM68:
 1001 0758 EAE3      		ldi r30,lo8(58)
 1002 075a F0E0      		ldi r31,hi8(58)
 1003 075c 80EF      		ldi r24,lo8(-16)
 1004 075e 8083      		st Z,r24
 1005               	.LM69:
 1006 0760 EBE3      		ldi r30,lo8(59)
 1007 0762 F0E0      		ldi r31,hi8(59)
 1008 0764 8FE0      		ldi r24,lo8(15)
 1009 0766 8083      		st Z,r24
 1010               	/* epilogue start */
 1011               	.LM70:
 1012 0768 6496      		adiw r28,20
 1013 076a 0FB6      		in __tmp_reg__,__SREG__
 1014 076c F894      		cli
 1015 076e DEBF      		out __SP_H__,r29
 1016 0770 0FBE      		out __SREG__,__tmp_reg__
 1017 0772 CDBF      		out __SP_L__,r28
 1018 0774 CF91      		pop r28
 1019 0776 DF91      		pop r29
 1020 0778 0F91      		pop r16
 1021 077a EF90      		pop r14
 1022 077c CF90      		pop r12
 1023 077e AF90      		pop r10
 1024 0780 0895      		ret
 1025               	.LFE3:
 1026               		.size	init_4x4_keypad, .-init_4x4_keypad
GAS LISTING C:\Users\alex\AppData\Local\Temp/ccg1WVlq.s 			page 19


 1027               	.global	getc_4x4_keypad
 1028               		.type	getc_4x4_keypad, @function
 1029               	getc_4x4_keypad:
 1030               	.LFB4:
 1031               	.LM71:
 1032 0782 DF93      		push r29
 1033 0784 CF93      		push r28
 1034 0786 CDB7      		in r28,__SP_L__
 1035 0788 DEB7      		in r29,__SP_H__
 1036 078a 2997      		sbiw r28,9
 1037 078c 0FB6      		in __tmp_reg__,__SREG__
 1038 078e F894      		cli
 1039 0790 DEBF      		out __SP_H__,r29
 1040 0792 0FBE      		out __SREG__,__tmp_reg__
 1041 0794 CDBF      		out __SP_L__,r28
 1042               	/* prologue: function */
 1043               	/* frame size = 9 */
 1044               	.LM72:
 1045 0796 80E1      		ldi r24,lo8(16)
 1046 0798 8F83      		std Y+7,r24
 1047               	.LM73:
 1048 079a 1E82      		std Y+6,__zero_reg__
 1049 079c 00C0      		rjmp .L40
 1050               	.L44:
 1051               	.LM74:
 1052 079e 8E81      		ldd r24,Y+6
 1053 07a0 882F      		mov r24,r24
 1054 07a2 90E0      		ldi r25,lo8(0)
 1055 07a4 880F      		lsl r24
 1056 07a6 991F      		rol r25
 1057 07a8 FC01      		movw r30,r24
 1058 07aa E050      		subi r30,lo8(-(pkeypad_4x4_out))
 1059 07ac F040      		sbci r31,hi8(-(pkeypad_4x4_out))
 1060 07ae 8081      		ld r24,Z
 1061 07b0 9181      		ldd r25,Z+1
 1062 07b2 9C83      		std Y+4,r25
 1063 07b4 8B83      		std Y+3,r24
 1064               	.LM75:
 1065 07b6 8E81      		ldd r24,Y+6
 1066 07b8 882F      		mov r24,r24
 1067 07ba 90E0      		ldi r25,lo8(0)
 1068 07bc FC01      		movw r30,r24
 1069 07be E050      		subi r30,lo8(-(bkeypad_4x4_out))
 1070 07c0 F040      		sbci r31,hi8(-(bkeypad_4x4_out))
 1071 07c2 8081      		ld r24,Z
 1072 07c4 8987      		std Y+9,r24
 1073               	.LM76:
 1074 07c6 EB81      		ldd r30,Y+3
 1075 07c8 FC81      		ldd r31,Y+4
 1076 07ca 8081      		ld r24,Z
 1077 07cc 982F      		mov r25,r24
 1078 07ce 8985      		ldd r24,Y+9
 1079 07d0 8095      		com r24
 1080 07d2 8923      		and r24,r25
 1081 07d4 EB81      		ldd r30,Y+3
 1082 07d6 FC81      		ldd r31,Y+4
 1083 07d8 8083      		st Z,r24
GAS LISTING C:\Users\alex\AppData\Local\Temp/ccg1WVlq.s 			page 20


 1084               	.LM77:
 1085 07da 1D82      		std Y+5,__zero_reg__
 1086 07dc 00C0      		rjmp .L41
 1087               	.L43:
 1088               	.LM78:
 1089 07de 8D81      		ldd r24,Y+5
 1090 07e0 882F      		mov r24,r24
 1091 07e2 90E0      		ldi r25,lo8(0)
 1092 07e4 880F      		lsl r24
 1093 07e6 991F      		rol r25
 1094 07e8 FC01      		movw r30,r24
 1095 07ea E050      		subi r30,lo8(-(pkeypad_4x4_in))
 1096 07ec F040      		sbci r31,hi8(-(pkeypad_4x4_in))
 1097 07ee 8081      		ld r24,Z
 1098 07f0 9181      		ldd r25,Z+1
 1099 07f2 9A83      		std Y+2,r25
 1100 07f4 8983      		std Y+1,r24
 1101               	.LM79:
 1102 07f6 8D81      		ldd r24,Y+5
 1103 07f8 882F      		mov r24,r24
 1104 07fa 90E0      		ldi r25,lo8(0)
 1105 07fc FC01      		movw r30,r24
 1106 07fe E050      		subi r30,lo8(-(bkeypad_4x4_in))
 1107 0800 F040      		sbci r31,hi8(-(bkeypad_4x4_in))
 1108 0802 8081      		ld r24,Z
 1109 0804 8887      		std Y+8,r24
 1110               	.LM80:
 1111 0806 E981      		ldd r30,Y+1
 1112 0808 FA81      		ldd r31,Y+2
 1113 080a 9081      		ld r25,Z
 1114 080c 8885      		ldd r24,Y+8
 1115 080e 8923      		and r24,r25
 1116 0810 8823      		tst r24
 1117 0812 01F4      		brne .L42
 1118 0814 9E81      		ldd r25,Y+6
 1119 0816 8E81      		ldd r24,Y+6
 1120 0818 980F      		add r25,r24
 1121 081a 8E81      		ldd r24,Y+6
 1122 081c 980F      		add r25,r24
 1123 081e 8E81      		ldd r24,Y+6
 1124 0820 980F      		add r25,r24
 1125 0822 8D81      		ldd r24,Y+5
 1126 0824 890F      		add r24,r25
 1127 0826 8F83      		std Y+7,r24
 1128               	.L42:
 1129               	.LM81:
 1130 0828 8D81      		ldd r24,Y+5
 1131 082a 8F5F      		subi r24,lo8(-(1))
 1132 082c 8D83      		std Y+5,r24
 1133               	.L41:
 1134 082e 8D81      		ldd r24,Y+5
 1135 0830 8430      		cpi r24,lo8(4)
 1136 0832 00F0      		brlo .L43
 1137               	.LM82:
 1138 0834 EB81      		ldd r30,Y+3
 1139 0836 FC81      		ldd r31,Y+4
 1140 0838 9081      		ld r25,Z
GAS LISTING C:\Users\alex\AppData\Local\Temp/ccg1WVlq.s 			page 21


 1141 083a 8985      		ldd r24,Y+9
 1142 083c 892B      		or r24,r25
 1143 083e EB81      		ldd r30,Y+3
 1144 0840 FC81      		ldd r31,Y+4
 1145 0842 8083      		st Z,r24
 1146               	.LM83:
 1147 0844 8E81      		ldd r24,Y+6
 1148 0846 8F5F      		subi r24,lo8(-(1))
 1149 0848 8E83      		std Y+6,r24
 1150               	.L40:
 1151 084a 8E81      		ldd r24,Y+6
 1152 084c 8430      		cpi r24,lo8(4)
 1153 084e 00F4      		brsh .+2
 1154 0850 00C0      		rjmp .L44
 1155               	.LM84:
 1156 0852 8F81      		ldd r24,Y+7
 1157               	/* epilogue start */
 1158               	.LM85:
 1159 0854 2996      		adiw r28,9
 1160 0856 0FB6      		in __tmp_reg__,__SREG__
 1161 0858 F894      		cli
 1162 085a DEBF      		out __SP_H__,r29
 1163 085c 0FBE      		out __SREG__,__tmp_reg__
 1164 085e CDBF      		out __SP_L__,r28
 1165 0860 CF91      		pop r28
 1166 0862 DF91      		pop r29
 1167 0864 0895      		ret
 1168               	.LFE4:
 1169               		.size	getc_4x4_keypad, .-getc_4x4_keypad
 1170               		.comm pkeypad_4x4_out,10,1
 1171               		.comm pkeypad_4x4_in,10,1
 1172               		.comm bkeypad_4x4_out,5,1
 1173               		.comm bkeypad_4x4_in,5,1
 1174               		.section	.debug_frame,"",@progbits
 1175               	.Lframe0:
 1176 0000 0C00 0000 		.long	.LECIE0-.LSCIE0
 1177               	.LSCIE0:
 1178 0004 FFFF FFFF 		.long	0xffffffff
 1179 0008 01        		.byte	0x1
 1180 0009 00        		.string	""
 1181 000a 01        		.uleb128 0x1
 1182 000b 7F        		.sleb128 -1
 1183 000c 24        		.byte	0x24
 1184 000d 0C        		.byte	0xc
 1185 000e 20        		.uleb128 0x20
 1186 000f 00        		.uleb128 0x0
 1187               		.p2align	2
 1188               	.LECIE0:
 1189               	.LSFDE0:
 1190 0010 0C00 0000 		.long	.LEFDE0-.LASFDE0
 1191               	.LASFDE0:
 1192 0014 0000 0000 		.long	.Lframe0
 1193 0018 0000 0000 		.long	.LFB2
 1194 001c 2000 0000 		.long	.LFE2-.LFB2
 1195               		.p2align	2
 1196               	.LEFDE0:
 1197               	.LSFDE2:
GAS LISTING C:\Users\alex\AppData\Local\Temp/ccg1WVlq.s 			page 22


 1198 0020 0C00 0000 		.long	.LEFDE2-.LASFDE2
 1199               	.LASFDE2:
 1200 0024 0000 0000 		.long	.Lframe0
 1201 0028 0000 0000 		.long	.LFB3
 1202 002c 6207 0000 		.long	.LFE3-.LFB3
 1203               		.p2align	2
 1204               	.LEFDE2:
 1205               	.LSFDE4:
 1206 0030 0C00 0000 		.long	.LEFDE4-.LASFDE4
 1207               	.LASFDE4:
 1208 0034 0000 0000 		.long	.Lframe0
 1209 0038 0000 0000 		.long	.LFB4
 1210 003c E400 0000 		.long	.LFE4-.LFB4
 1211               		.p2align	2
 1212               	.LEFDE4:
 1213               		.text
 1214               	.Letext0:
 1215               		.section	.debug_info
 1216 0000 A002 0000 		.long	0x2a0
 1217 0004 0200      		.word	0x2
 1218 0006 0000 0000 		.long	.Ldebug_abbrev0
 1219 000a 04        		.byte	0x4
 1220 000b 01        		.uleb128 0x1
 1221 000c 0000 0000 		.long	.LASF27
 1222 0010 01        		.byte	0x1
 1223 0011 0000 0000 		.long	.LASF28
 1224 0015 0000 0000 		.long	.LASF29
 1225 0019 0000 0000 		.long	.Ltext0
 1226 001d 0000 0000 		.long	.Letext0
 1227 0021 0000 0000 		.long	.Ldebug_line0
 1228 0025 02        		.uleb128 0x2
 1229 0026 01        		.byte	0x1
 1230 0027 06        		.byte	0x6
 1231 0028 0000 0000 		.long	.LASF0
 1232 002c 03        		.uleb128 0x3
 1233 002d 0000 0000 		.long	.LASF30
 1234 0031 02        		.byte	0x2
 1235 0032 7A        		.byte	0x7a
 1236 0033 3700 0000 		.long	0x37
 1237 0037 02        		.uleb128 0x2
 1238 0038 01        		.byte	0x1
 1239 0039 08        		.byte	0x8
 1240 003a 0000 0000 		.long	.LASF1
 1241 003e 04        		.uleb128 0x4
 1242 003f 02        		.byte	0x2
 1243 0040 05        		.byte	0x5
 1244 0041 696E 7400 		.string	"int"
 1245 0045 02        		.uleb128 0x2
 1246 0046 02        		.byte	0x2
 1247 0047 07        		.byte	0x7
 1248 0048 0000 0000 		.long	.LASF2
 1249 004c 02        		.uleb128 0x2
 1250 004d 04        		.byte	0x4
 1251 004e 05        		.byte	0x5
 1252 004f 0000 0000 		.long	.LASF3
 1253 0053 02        		.uleb128 0x2
 1254 0054 04        		.byte	0x4
GAS LISTING C:\Users\alex\AppData\Local\Temp/ccg1WVlq.s 			page 23


 1255 0055 07        		.byte	0x7
 1256 0056 0000 0000 		.long	.LASF4
 1257 005a 02        		.uleb128 0x2
 1258 005b 08        		.byte	0x8
 1259 005c 05        		.byte	0x5
 1260 005d 0000 0000 		.long	.LASF5
 1261 0061 02        		.uleb128 0x2
 1262 0062 08        		.byte	0x8
 1263 0063 07        		.byte	0x7
 1264 0064 0000 0000 		.long	.LASF6
 1265 0068 05        		.uleb128 0x5
 1266 0069 01        		.byte	0x1
 1267 006a 0000 0000 		.long	.LASF21
 1268 006e 01        		.byte	0x1
 1269 006f 1F        		.byte	0x1f
 1270 0070 01        		.byte	0x1
 1271 0071 2C00 0000 		.long	0x2c
 1272 0075 0000 0000 		.long	.LFB2
 1273 0079 0000 0000 		.long	.LFE2
 1274 007d 02        		.byte	0x2
 1275 007e 90        		.byte	0x90
 1276 007f 20        		.uleb128 0x20
 1277 0080 9100 0000 		.long	0x91
 1278 0084 06        		.uleb128 0x6
 1279 0085 6300      		.string	"c"
 1280 0087 01        		.byte	0x1
 1281 0088 20        		.byte	0x20
 1282 0089 2C00 0000 		.long	0x2c
 1283 008d 02        		.byte	0x2
 1284 008e 8C        		.byte	0x8c
 1285 008f 01        		.sleb128 1
 1286 0090 00        		.byte	0x0
 1287 0091 07        		.uleb128 0x7
 1288 0092 01        		.byte	0x1
 1289 0093 0000 0000 		.long	.LASF31
 1290 0097 01        		.byte	0x1
 1291 0098 28        		.byte	0x28
 1292 0099 01        		.byte	0x1
 1293 009a 0000 0000 		.long	.LFB3
 1294 009e 0000 0000 		.long	.LFE3
 1295 00a2 02        		.byte	0x2
 1296 00a3 90        		.byte	0x90
 1297 00a4 20        		.uleb128 0x20
 1298 00a5 B201 0000 		.long	0x1b2
 1299 00a9 08        		.uleb128 0x8
 1300 00aa 696E 3100 		.string	"in1"
 1301 00ae 01        		.byte	0x1
 1302 00af 26        		.byte	0x26
 1303 00b0 2C00 0000 		.long	0x2c
 1304 00b4 02        		.byte	0x2
 1305 00b5 8C        		.byte	0x8c
 1306 00b6 0D        		.sleb128 13
 1307 00b7 08        		.uleb128 0x8
 1308 00b8 696E 3200 		.string	"in2"
 1309 00bc 01        		.byte	0x1
 1310 00bd 26        		.byte	0x26
 1311 00be 2C00 0000 		.long	0x2c
GAS LISTING C:\Users\alex\AppData\Local\Temp/ccg1WVlq.s 			page 24


 1312 00c2 02        		.byte	0x2
 1313 00c3 8C        		.byte	0x8c
 1314 00c4 0E        		.sleb128 14
 1315 00c5 08        		.uleb128 0x8
 1316 00c6 696E 3300 		.string	"in3"
 1317 00ca 01        		.byte	0x1
 1318 00cb 26        		.byte	0x26
 1319 00cc 2C00 0000 		.long	0x2c
 1320 00d0 02        		.byte	0x2
 1321 00d1 8C        		.byte	0x8c
 1322 00d2 0F        		.sleb128 15
 1323 00d3 08        		.uleb128 0x8
 1324 00d4 696E 3400 		.string	"in4"
 1325 00d8 01        		.byte	0x1
 1326 00d9 26        		.byte	0x26
 1327 00da 2C00 0000 		.long	0x2c
 1328 00de 02        		.byte	0x2
 1329 00df 8C        		.byte	0x8c
 1330 00e0 10        		.sleb128 16
 1331 00e1 09        		.uleb128 0x9
 1332 00e2 0000 0000 		.long	.LASF7
 1333 00e6 01        		.byte	0x1
 1334 00e7 27        		.byte	0x27
 1335 00e8 2C00 0000 		.long	0x2c
 1336 00ec 02        		.byte	0x2
 1337 00ed 8C        		.byte	0x8c
 1338 00ee 11        		.sleb128 17
 1339 00ef 09        		.uleb128 0x9
 1340 00f0 0000 0000 		.long	.LASF8
 1341 00f4 01        		.byte	0x1
 1342 00f5 27        		.byte	0x27
 1343 00f6 2C00 0000 		.long	0x2c
 1344 00fa 02        		.byte	0x2
 1345 00fb 8C        		.byte	0x8c
 1346 00fc 12        		.sleb128 18
 1347 00fd 09        		.uleb128 0x9
 1348 00fe 0000 0000 		.long	.LASF9
 1349 0102 01        		.byte	0x1
 1350 0103 27        		.byte	0x27
 1351 0104 2C00 0000 		.long	0x2c
 1352 0108 02        		.byte	0x2
 1353 0109 8C        		.byte	0x8c
 1354 010a 13        		.sleb128 19
 1355 010b 09        		.uleb128 0x9
 1356 010c 0000 0000 		.long	.LASF10
 1357 0110 01        		.byte	0x1
 1358 0111 27        		.byte	0x27
 1359 0112 2C00 0000 		.long	0x2c
 1360 0116 02        		.byte	0x2
 1361 0117 8C        		.byte	0x8c
 1362 0118 14        		.sleb128 20
 1363 0119 0A        		.uleb128 0xa
 1364 011a 0000 0000 		.long	.LASF11
 1365 011e 01        		.byte	0x1
 1366 011f 2A        		.byte	0x2a
 1367 0120 2C00 0000 		.long	0x2c
 1368 0124 02        		.byte	0x2
GAS LISTING C:\Users\alex\AppData\Local\Temp/ccg1WVlq.s 			page 25


 1369 0125 8C        		.byte	0x8c
 1370 0126 0A        		.sleb128 10
 1371 0127 0A        		.uleb128 0xa
 1372 0128 0000 0000 		.long	.LASF12
 1373 012c 01        		.byte	0x1
 1374 012d 2A        		.byte	0x2a
 1375 012e 2C00 0000 		.long	0x2c
 1376 0132 02        		.byte	0x2
 1377 0133 8C        		.byte	0x8c
 1378 0134 09        		.sleb128 9
 1379 0135 0A        		.uleb128 0xa
 1380 0136 0000 0000 		.long	.LASF13
 1381 013a 01        		.byte	0x1
 1382 013b 2A        		.byte	0x2a
 1383 013c 2C00 0000 		.long	0x2c
 1384 0140 02        		.byte	0x2
 1385 0141 8C        		.byte	0x8c
 1386 0142 08        		.sleb128 8
 1387 0143 0A        		.uleb128 0xa
 1388 0144 0000 0000 		.long	.LASF14
 1389 0148 01        		.byte	0x1
 1390 0149 2A        		.byte	0x2a
 1391 014a 2C00 0000 		.long	0x2c
 1392 014e 02        		.byte	0x2
 1393 014f 8C        		.byte	0x8c
 1394 0150 07        		.sleb128 7
 1395 0151 0A        		.uleb128 0xa
 1396 0152 0000 0000 		.long	.LASF15
 1397 0156 01        		.byte	0x1
 1398 0157 2A        		.byte	0x2a
 1399 0158 2C00 0000 		.long	0x2c
 1400 015c 02        		.byte	0x2
 1401 015d 8C        		.byte	0x8c
 1402 015e 06        		.sleb128 6
 1403 015f 0A        		.uleb128 0xa
 1404 0160 0000 0000 		.long	.LASF16
 1405 0164 01        		.byte	0x1
 1406 0165 2A        		.byte	0x2a
 1407 0166 2C00 0000 		.long	0x2c
 1408 016a 02        		.byte	0x2
 1409 016b 8C        		.byte	0x8c
 1410 016c 05        		.sleb128 5
 1411 016d 0A        		.uleb128 0xa
 1412 016e 0000 0000 		.long	.LASF17
 1413 0172 01        		.byte	0x1
 1414 0173 2A        		.byte	0x2a
 1415 0174 2C00 0000 		.long	0x2c
 1416 0178 02        		.byte	0x2
 1417 0179 8C        		.byte	0x8c
 1418 017a 04        		.sleb128 4
 1419 017b 0A        		.uleb128 0xa
 1420 017c 0000 0000 		.long	.LASF18
 1421 0180 01        		.byte	0x1
 1422 0181 2A        		.byte	0x2a
 1423 0182 2C00 0000 		.long	0x2c
 1424 0186 02        		.byte	0x2
 1425 0187 8C        		.byte	0x8c
GAS LISTING C:\Users\alex\AppData\Local\Temp/ccg1WVlq.s 			page 26


 1426 0188 03        		.sleb128 3
 1427 0189 0A        		.uleb128 0xa
 1428 018a 0000 0000 		.long	.LASF19
 1429 018e 01        		.byte	0x1
 1430 018f 2B        		.byte	0x2b
 1431 0190 B201 0000 		.long	0x1b2
 1432 0194 02        		.byte	0x2
 1433 0195 8C        		.byte	0x8c
 1434 0196 0B        		.sleb128 11
 1435 0197 06        		.uleb128 0x6
 1436 0198 6900      		.string	"i"
 1437 019a 01        		.byte	0x1
 1438 019b 2B        		.byte	0x2b
 1439 019c B201 0000 		.long	0x1b2
 1440 01a0 02        		.byte	0x2
 1441 01a1 8C        		.byte	0x8c
 1442 01a2 0C        		.sleb128 12
 1443 01a3 0A        		.uleb128 0xa
 1444 01a4 0000 0000 		.long	.LASF20
 1445 01a8 01        		.byte	0x1
 1446 01a9 2C        		.byte	0x2c
 1447 01aa B701 0000 		.long	0x1b7
 1448 01ae 02        		.byte	0x2
 1449 01af 8C        		.byte	0x8c
 1450 01b0 01        		.sleb128 1
 1451 01b1 00        		.byte	0x0
 1452 01b2 0B        		.uleb128 0xb
 1453 01b3 2C00 0000 		.long	0x2c
 1454 01b7 0C        		.uleb128 0xc
 1455 01b8 02        		.byte	0x2
 1456 01b9 B201 0000 		.long	0x1b2
 1457 01bd 05        		.uleb128 0x5
 1458 01be 01        		.byte	0x1
 1459 01bf 0000 0000 		.long	.LASF22
 1460 01c3 01        		.byte	0x1
 1461 01c4 81        		.byte	0x81
 1462 01c5 01        		.byte	0x1
 1463 01c6 2C00 0000 		.long	0x2c
 1464 01ca 0000 0000 		.long	.LFB4
 1465 01ce 0000 0000 		.long	.LFE4
 1466 01d2 02        		.byte	0x2
 1467 01d3 90        		.byte	0x90
 1468 01d4 20        		.uleb128 0x20
 1469 01d5 3802 0000 		.long	0x238
 1470 01d9 0A        		.uleb128 0xa
 1471 01da 0000 0000 		.long	.LASF19
 1472 01de 01        		.byte	0x1
 1473 01df 81        		.byte	0x81
 1474 01e0 2C00 0000 		.long	0x2c
 1475 01e4 02        		.byte	0x2
 1476 01e5 8C        		.byte	0x8c
 1477 01e6 09        		.sleb128 9
 1478 01e7 06        		.uleb128 0x6
 1479 01e8 6269 6E00 		.string	"bin"
 1480 01ec 01        		.byte	0x1
 1481 01ed 81        		.byte	0x81
 1482 01ee 2C00 0000 		.long	0x2c
GAS LISTING C:\Users\alex\AppData\Local\Temp/ccg1WVlq.s 			page 27


 1483 01f2 02        		.byte	0x2
 1484 01f3 8C        		.byte	0x8c
 1485 01f4 08        		.sleb128 8
 1486 01f5 06        		.uleb128 0x6
 1487 01f6 6B65 7900 		.string	"key"
 1488 01fa 01        		.byte	0x1
 1489 01fb 81        		.byte	0x81
 1490 01fc 2C00 0000 		.long	0x2c
 1491 0200 02        		.byte	0x2
 1492 0201 8C        		.byte	0x8c
 1493 0202 07        		.sleb128 7
 1494 0203 06        		.uleb128 0x6
 1495 0204 6900      		.string	"i"
 1496 0206 01        		.byte	0x1
 1497 0207 81        		.byte	0x81
 1498 0208 2C00 0000 		.long	0x2c
 1499 020c 02        		.byte	0x2
 1500 020d 8C        		.byte	0x8c
 1501 020e 06        		.sleb128 6
 1502 020f 06        		.uleb128 0x6
 1503 0210 6A00      		.string	"j"
 1504 0212 01        		.byte	0x1
 1505 0213 81        		.byte	0x81
 1506 0214 2C00 0000 		.long	0x2c
 1507 0218 02        		.byte	0x2
 1508 0219 8C        		.byte	0x8c
 1509 021a 05        		.sleb128 5
 1510 021b 0A        		.uleb128 0xa
 1511 021c 0000 0000 		.long	.LASF20
 1512 0220 01        		.byte	0x1
 1513 0221 82        		.byte	0x82
 1514 0222 B701 0000 		.long	0x1b7
 1515 0226 02        		.byte	0x2
 1516 0227 8C        		.byte	0x8c
 1517 0228 03        		.sleb128 3
 1518 0229 06        		.uleb128 0x6
 1519 022a 7069 6E00 		.string	"pin"
 1520 022e 01        		.byte	0x1
 1521 022f 82        		.byte	0x82
 1522 0230 B701 0000 		.long	0x1b7
 1523 0234 02        		.byte	0x2
 1524 0235 8C        		.byte	0x8c
 1525 0236 01        		.sleb128 1
 1526 0237 00        		.byte	0x0
 1527 0238 0D        		.uleb128 0xd
 1528 0239 B701 0000 		.long	0x1b7
 1529 023d 4802 0000 		.long	0x248
 1530 0241 0E        		.uleb128 0xe
 1531 0242 4802 0000 		.long	0x248
 1532 0246 04        		.byte	0x4
 1533 0247 00        		.byte	0x0
 1534 0248 0F        		.uleb128 0xf
 1535 0249 02        		.byte	0x2
 1536 024a 07        		.byte	0x7
 1537 024b 10        		.uleb128 0x10
 1538 024c 0000 0000 		.long	.LASF23
 1539 0250 01        		.byte	0x1
GAS LISTING C:\Users\alex\AppData\Local\Temp/ccg1WVlq.s 			page 28


 1540 0251 15        		.byte	0x15
 1541 0252 3802 0000 		.long	0x238
 1542 0256 01        		.byte	0x1
 1543 0257 05        		.byte	0x5
 1544 0258 03        		.byte	0x3
 1545 0259 0000 0000 		.long	pkeypad_4x4_out
 1546 025d 10        		.uleb128 0x10
 1547 025e 0000 0000 		.long	.LASF24
 1548 0262 01        		.byte	0x1
 1549 0263 16        		.byte	0x16
 1550 0264 3802 0000 		.long	0x238
 1551 0268 01        		.byte	0x1
 1552 0269 05        		.byte	0x5
 1553 026a 03        		.byte	0x3
 1554 026b 0000 0000 		.long	pkeypad_4x4_in
 1555 026f 0D        		.uleb128 0xd
 1556 0270 2C00 0000 		.long	0x2c
 1557 0274 7F02 0000 		.long	0x27f
 1558 0278 0E        		.uleb128 0xe
 1559 0279 4802 0000 		.long	0x248
 1560 027d 04        		.byte	0x4
 1561 027e 00        		.byte	0x0
 1562 027f 10        		.uleb128 0x10
 1563 0280 0000 0000 		.long	.LASF25
 1564 0284 01        		.byte	0x1
 1565 0285 18        		.byte	0x18
 1566 0286 6F02 0000 		.long	0x26f
 1567 028a 01        		.byte	0x1
 1568 028b 05        		.byte	0x5
 1569 028c 03        		.byte	0x3
 1570 028d 0000 0000 		.long	bkeypad_4x4_out
 1571 0291 10        		.uleb128 0x10
 1572 0292 0000 0000 		.long	.LASF26
 1573 0296 01        		.byte	0x1
 1574 0297 19        		.byte	0x19
 1575 0298 6F02 0000 		.long	0x26f
 1576 029c 01        		.byte	0x1
 1577 029d 05        		.byte	0x5
 1578 029e 03        		.byte	0x3
 1579 029f 0000 0000 		.long	bkeypad_4x4_in
 1580 02a3 00        		.byte	0x0
 1581               		.section	.debug_abbrev
 1582 0000 01        		.uleb128 0x1
 1583 0001 11        		.uleb128 0x11
 1584 0002 01        		.byte	0x1
 1585 0003 25        		.uleb128 0x25
 1586 0004 0E        		.uleb128 0xe
 1587 0005 13        		.uleb128 0x13
 1588 0006 0B        		.uleb128 0xb
 1589 0007 03        		.uleb128 0x3
 1590 0008 0E        		.uleb128 0xe
 1591 0009 1B        		.uleb128 0x1b
 1592 000a 0E        		.uleb128 0xe
 1593 000b 11        		.uleb128 0x11
 1594 000c 01        		.uleb128 0x1
 1595 000d 12        		.uleb128 0x12
 1596 000e 01        		.uleb128 0x1
GAS LISTING C:\Users\alex\AppData\Local\Temp/ccg1WVlq.s 			page 29


 1597 000f 10        		.uleb128 0x10
 1598 0010 06        		.uleb128 0x6
 1599 0011 00        		.byte	0x0
 1600 0012 00        		.byte	0x0
 1601 0013 02        		.uleb128 0x2
 1602 0014 24        		.uleb128 0x24
 1603 0015 00        		.byte	0x0
 1604 0016 0B        		.uleb128 0xb
 1605 0017 0B        		.uleb128 0xb
 1606 0018 3E        		.uleb128 0x3e
 1607 0019 0B        		.uleb128 0xb
 1608 001a 03        		.uleb128 0x3
 1609 001b 0E        		.uleb128 0xe
 1610 001c 00        		.byte	0x0
 1611 001d 00        		.byte	0x0
 1612 001e 03        		.uleb128 0x3
 1613 001f 16        		.uleb128 0x16
 1614 0020 00        		.byte	0x0
 1615 0021 03        		.uleb128 0x3
 1616 0022 0E        		.uleb128 0xe
 1617 0023 3A        		.uleb128 0x3a
 1618 0024 0B        		.uleb128 0xb
 1619 0025 3B        		.uleb128 0x3b
 1620 0026 0B        		.uleb128 0xb
 1621 0027 49        		.uleb128 0x49
 1622 0028 13        		.uleb128 0x13
 1623 0029 00        		.byte	0x0
 1624 002a 00        		.byte	0x0
 1625 002b 04        		.uleb128 0x4
 1626 002c 24        		.uleb128 0x24
 1627 002d 00        		.byte	0x0
 1628 002e 0B        		.uleb128 0xb
 1629 002f 0B        		.uleb128 0xb
 1630 0030 3E        		.uleb128 0x3e
 1631 0031 0B        		.uleb128 0xb
 1632 0032 03        		.uleb128 0x3
 1633 0033 08        		.uleb128 0x8
 1634 0034 00        		.byte	0x0
 1635 0035 00        		.byte	0x0
 1636 0036 05        		.uleb128 0x5
 1637 0037 2E        		.uleb128 0x2e
 1638 0038 01        		.byte	0x1
 1639 0039 3F        		.uleb128 0x3f
 1640 003a 0C        		.uleb128 0xc
 1641 003b 03        		.uleb128 0x3
 1642 003c 0E        		.uleb128 0xe
 1643 003d 3A        		.uleb128 0x3a
 1644 003e 0B        		.uleb128 0xb
 1645 003f 3B        		.uleb128 0x3b
 1646 0040 0B        		.uleb128 0xb
 1647 0041 27        		.uleb128 0x27
 1648 0042 0C        		.uleb128 0xc
 1649 0043 49        		.uleb128 0x49
 1650 0044 13        		.uleb128 0x13
 1651 0045 11        		.uleb128 0x11
 1652 0046 01        		.uleb128 0x1
 1653 0047 12        		.uleb128 0x12
GAS LISTING C:\Users\alex\AppData\Local\Temp/ccg1WVlq.s 			page 30


 1654 0048 01        		.uleb128 0x1
 1655 0049 40        		.uleb128 0x40
 1656 004a 0A        		.uleb128 0xa
 1657 004b 01        		.uleb128 0x1
 1658 004c 13        		.uleb128 0x13
 1659 004d 00        		.byte	0x0
 1660 004e 00        		.byte	0x0
 1661 004f 06        		.uleb128 0x6
 1662 0050 34        		.uleb128 0x34
 1663 0051 00        		.byte	0x0
 1664 0052 03        		.uleb128 0x3
 1665 0053 08        		.uleb128 0x8
 1666 0054 3A        		.uleb128 0x3a
 1667 0055 0B        		.uleb128 0xb
 1668 0056 3B        		.uleb128 0x3b
 1669 0057 0B        		.uleb128 0xb
 1670 0058 49        		.uleb128 0x49
 1671 0059 13        		.uleb128 0x13
 1672 005a 02        		.uleb128 0x2
 1673 005b 0A        		.uleb128 0xa
 1674 005c 00        		.byte	0x0
 1675 005d 00        		.byte	0x0
 1676 005e 07        		.uleb128 0x7
 1677 005f 2E        		.uleb128 0x2e
 1678 0060 01        		.byte	0x1
 1679 0061 3F        		.uleb128 0x3f
 1680 0062 0C        		.uleb128 0xc
 1681 0063 03        		.uleb128 0x3
 1682 0064 0E        		.uleb128 0xe
 1683 0065 3A        		.uleb128 0x3a
 1684 0066 0B        		.uleb128 0xb
 1685 0067 3B        		.uleb128 0x3b
 1686 0068 0B        		.uleb128 0xb
 1687 0069 27        		.uleb128 0x27
 1688 006a 0C        		.uleb128 0xc
 1689 006b 11        		.uleb128 0x11
 1690 006c 01        		.uleb128 0x1
 1691 006d 12        		.uleb128 0x12
 1692 006e 01        		.uleb128 0x1
 1693 006f 40        		.uleb128 0x40
 1694 0070 0A        		.uleb128 0xa
 1695 0071 01        		.uleb128 0x1
 1696 0072 13        		.uleb128 0x13
 1697 0073 00        		.byte	0x0
 1698 0074 00        		.byte	0x0
 1699 0075 08        		.uleb128 0x8
 1700 0076 05        		.uleb128 0x5
 1701 0077 00        		.byte	0x0
 1702 0078 03        		.uleb128 0x3
 1703 0079 08        		.uleb128 0x8
 1704 007a 3A        		.uleb128 0x3a
 1705 007b 0B        		.uleb128 0xb
 1706 007c 3B        		.uleb128 0x3b
 1707 007d 0B        		.uleb128 0xb
 1708 007e 49        		.uleb128 0x49
 1709 007f 13        		.uleb128 0x13
 1710 0080 02        		.uleb128 0x2
GAS LISTING C:\Users\alex\AppData\Local\Temp/ccg1WVlq.s 			page 31


 1711 0081 0A        		.uleb128 0xa
 1712 0082 00        		.byte	0x0
 1713 0083 00        		.byte	0x0
 1714 0084 09        		.uleb128 0x9
 1715 0085 05        		.uleb128 0x5
 1716 0086 00        		.byte	0x0
 1717 0087 03        		.uleb128 0x3
 1718 0088 0E        		.uleb128 0xe
 1719 0089 3A        		.uleb128 0x3a
 1720 008a 0B        		.uleb128 0xb
 1721 008b 3B        		.uleb128 0x3b
 1722 008c 0B        		.uleb128 0xb
 1723 008d 49        		.uleb128 0x49
 1724 008e 13        		.uleb128 0x13
 1725 008f 02        		.uleb128 0x2
 1726 0090 0A        		.uleb128 0xa
 1727 0091 00        		.byte	0x0
 1728 0092 00        		.byte	0x0
 1729 0093 0A        		.uleb128 0xa
 1730 0094 34        		.uleb128 0x34
 1731 0095 00        		.byte	0x0
 1732 0096 03        		.uleb128 0x3
 1733 0097 0E        		.uleb128 0xe
 1734 0098 3A        		.uleb128 0x3a
 1735 0099 0B        		.uleb128 0xb
 1736 009a 3B        		.uleb128 0x3b
 1737 009b 0B        		.uleb128 0xb
 1738 009c 49        		.uleb128 0x49
 1739 009d 13        		.uleb128 0x13
 1740 009e 02        		.uleb128 0x2
 1741 009f 0A        		.uleb128 0xa
 1742 00a0 00        		.byte	0x0
 1743 00a1 00        		.byte	0x0
 1744 00a2 0B        		.uleb128 0xb
 1745 00a3 35        		.uleb128 0x35
 1746 00a4 00        		.byte	0x0
 1747 00a5 49        		.uleb128 0x49
 1748 00a6 13        		.uleb128 0x13
 1749 00a7 00        		.byte	0x0
 1750 00a8 00        		.byte	0x0
 1751 00a9 0C        		.uleb128 0xc
 1752 00aa 0F        		.uleb128 0xf
 1753 00ab 00        		.byte	0x0
 1754 00ac 0B        		.uleb128 0xb
 1755 00ad 0B        		.uleb128 0xb
 1756 00ae 49        		.uleb128 0x49
 1757 00af 13        		.uleb128 0x13
 1758 00b0 00        		.byte	0x0
 1759 00b1 00        		.byte	0x0
 1760 00b2 0D        		.uleb128 0xd
 1761 00b3 01        		.uleb128 0x1
 1762 00b4 01        		.byte	0x1
 1763 00b5 49        		.uleb128 0x49
 1764 00b6 13        		.uleb128 0x13
 1765 00b7 01        		.uleb128 0x1
 1766 00b8 13        		.uleb128 0x13
 1767 00b9 00        		.byte	0x0
GAS LISTING C:\Users\alex\AppData\Local\Temp/ccg1WVlq.s 			page 32


 1768 00ba 00        		.byte	0x0
 1769 00bb 0E        		.uleb128 0xe
 1770 00bc 21        		.uleb128 0x21
 1771 00bd 00        		.byte	0x0
 1772 00be 49        		.uleb128 0x49
 1773 00bf 13        		.uleb128 0x13
 1774 00c0 2F        		.uleb128 0x2f
 1775 00c1 0B        		.uleb128 0xb
 1776 00c2 00        		.byte	0x0
 1777 00c3 00        		.byte	0x0
 1778 00c4 0F        		.uleb128 0xf
 1779 00c5 24        		.uleb128 0x24
 1780 00c6 00        		.byte	0x0
 1781 00c7 0B        		.uleb128 0xb
 1782 00c8 0B        		.uleb128 0xb
 1783 00c9 3E        		.uleb128 0x3e
 1784 00ca 0B        		.uleb128 0xb
 1785 00cb 00        		.byte	0x0
 1786 00cc 00        		.byte	0x0
 1787 00cd 10        		.uleb128 0x10
 1788 00ce 34        		.uleb128 0x34
 1789 00cf 00        		.byte	0x0
 1790 00d0 03        		.uleb128 0x3
 1791 00d1 0E        		.uleb128 0xe
 1792 00d2 3A        		.uleb128 0x3a
 1793 00d3 0B        		.uleb128 0xb
 1794 00d4 3B        		.uleb128 0x3b
 1795 00d5 0B        		.uleb128 0xb
 1796 00d6 49        		.uleb128 0x49
 1797 00d7 13        		.uleb128 0x13
 1798 00d8 3F        		.uleb128 0x3f
 1799 00d9 0C        		.uleb128 0xc
 1800 00da 02        		.uleb128 0x2
 1801 00db 0A        		.uleb128 0xa
 1802 00dc 00        		.byte	0x0
 1803 00dd 00        		.byte	0x0
 1804 00de 00        		.byte	0x0
 1805               		.section	.debug_pubnames,"",@progbits
 1806 0000 9800 0000 		.long	0x98
 1807 0004 0200      		.word	0x2
 1808 0006 0000 0000 		.long	.Ldebug_info0
 1809 000a A402 0000 		.long	0x2a4
 1810 000e 6800 0000 		.long	0x68
 1811 0012 6765 7463 		.string	"getc_3x4_keypad"
 1811      5F33 7834 
 1811      5F6B 6579 
 1811      7061 6400 
 1812 0022 9100 0000 		.long	0x91
 1813 0026 696E 6974 		.string	"init_4x4_keypad"
 1813      5F34 7834 
 1813      5F6B 6579 
 1813      7061 6400 
 1814 0036 BD01 0000 		.long	0x1bd
 1815 003a 6765 7463 		.string	"getc_4x4_keypad"
 1815      5F34 7834 
 1815      5F6B 6579 
 1815      7061 6400 
GAS LISTING C:\Users\alex\AppData\Local\Temp/ccg1WVlq.s 			page 33


 1816 004a 4B02 0000 		.long	0x24b
 1817 004e 706B 6579 		.string	"pkeypad_4x4_out"
 1817      7061 645F 
 1817      3478 345F 
 1817      6F75 7400 
 1818 005e 5D02 0000 		.long	0x25d
 1819 0062 706B 6579 		.string	"pkeypad_4x4_in"
 1819      7061 645F 
 1819      3478 345F 
 1819      696E 00
 1820 0071 7F02 0000 		.long	0x27f
 1821 0075 626B 6579 		.string	"bkeypad_4x4_out"
 1821      7061 645F 
 1821      3478 345F 
 1821      6F75 7400 
 1822 0085 9102 0000 		.long	0x291
 1823 0089 626B 6579 		.string	"bkeypad_4x4_in"
 1823      7061 645F 
 1823      3478 345F 
 1823      696E 00
 1824 0098 0000 0000 		.long	0x0
 1825               		.section	.debug_aranges,"",@progbits
 1826 0000 1C00 0000 		.long	0x1c
 1827 0004 0200      		.word	0x2
 1828 0006 0000 0000 		.long	.Ldebug_info0
 1829 000a 04        		.byte	0x4
 1830 000b 00        		.byte	0x0
 1831 000c 0000      		.word	0x0
 1832 000e 0000      		.word	0x0
 1833 0010 0000 0000 		.long	.Ltext0
 1834 0014 6608 0000 		.long	.Letext0-.Ltext0
 1835 0018 0000 0000 		.long	0x0
 1836 001c 0000 0000 		.long	0x0
 1837               		.section	.debug_line
 1838 0000 0F03 0000 		.long	.LELT0-.LSLT0
 1839               	.LSLT0:
 1840 0004 0200      		.word	0x2
 1841 0006 5500 0000 		.long	.LELTP0-.LASLTP0
 1842               	.LASLTP0:
 1843 000a 01        		.byte	0x1
 1844 000b 01        		.byte	0x1
 1845 000c F6        		.byte	0xf6
 1846 000d F5        		.byte	0xf5
 1847 000e 0A        		.byte	0xa
 1848 000f 00        		.byte	0x0
 1849 0010 01        		.byte	0x1
 1850 0011 01        		.byte	0x1
 1851 0012 01        		.byte	0x1
 1852 0013 01        		.byte	0x1
 1853 0014 00        		.byte	0x0
 1854 0015 00        		.byte	0x0
 1855 0016 00        		.byte	0x0
 1856 0017 01        		.byte	0x1
 1857 0018 633A 2F77 		.ascii	"c:/winavr-20100110/lib/gcc/../../avr/include"
 1857      696E 6176 
 1857      722D 3230 
 1857      3130 3031 
GAS LISTING C:\Users\alex\AppData\Local\Temp/ccg1WVlq.s 			page 34


 1857      3130 2F6C 
 1858 0044 00        		.byte	0
 1859 0045 00        		.byte	0x0
 1860 0046 6B65 7970 		.string	"keypad.c"
 1860      6164 2E63 
 1860      00
 1861 004f 00        		.uleb128 0x0
 1862 0050 00        		.uleb128 0x0
 1863 0051 00        		.uleb128 0x0
 1864 0052 7374 6469 		.string	"stdint.h"
 1864      6E74 2E68 
 1864      00
 1865 005b 01        		.uleb128 0x1
 1866 005c 00        		.uleb128 0x0
 1867 005d 00        		.uleb128 0x0
 1868 005e 00        		.byte	0x0
 1869               	.LELTP0:
 1870 005f 00        		.byte	0x0
 1871 0060 05        		.uleb128 0x5
 1872 0061 02        		.byte	0x2
 1873 0062 0000 0000 		.long	.LM1
 1874 0066 32        		.byte	0x32
 1875 0067 00        		.byte	0x0
 1876 0068 05        		.uleb128 0x5
 1877 0069 02        		.byte	0x2
 1878 006a 0000 0000 		.long	.LM2
 1879 006e 15        		.byte	0x15
 1880 006f 00        		.byte	0x0
 1881 0070 05        		.uleb128 0x5
 1882 0071 02        		.byte	0x2
 1883 0072 0000 0000 		.long	.LM3
 1884 0076 16        		.byte	0x16
 1885 0077 00        		.byte	0x0
 1886 0078 05        		.uleb128 0x5
 1887 0079 02        		.byte	0x2
 1888 007a 0000 0000 		.long	.LM4
 1889 007e 15        		.byte	0x15
 1890 007f 00        		.byte	0x0
 1891 0080 05        		.uleb128 0x5
 1892 0081 02        		.byte	0x2
 1893 0082 0000 0000 		.long	.LM5
 1894 0086 15        		.byte	0x15
 1895 0087 00        		.byte	0x0
 1896 0088 05        		.uleb128 0x5
 1897 0089 02        		.byte	0x2
 1898 008a 0000 0000 		.long	.LM6
 1899 008e 18        		.byte	0x18
 1900 008f 00        		.byte	0x0
 1901 0090 05        		.uleb128 0x5
 1902 0091 02        		.byte	0x2
 1903 0092 0000 0000 		.long	.LM7
 1904 0096 1A        		.byte	0x1a
 1905 0097 00        		.byte	0x0
 1906 0098 05        		.uleb128 0x5
 1907 0099 02        		.byte	0x2
 1908 009a 0000 0000 		.long	.LM8
 1909 009e 15        		.byte	0x15
GAS LISTING C:\Users\alex\AppData\Local\Temp/ccg1WVlq.s 			page 35


 1910 009f 00        		.byte	0x0
 1911 00a0 05        		.uleb128 0x5
 1912 00a1 02        		.byte	0x2
 1913 00a2 0000 0000 		.long	.LM9
 1914 00a6 15        		.byte	0x15
 1915 00a7 00        		.byte	0x0
 1916 00a8 05        		.uleb128 0x5
 1917 00a9 02        		.byte	0x2
 1918 00aa 0000 0000 		.long	.LM10
 1919 00ae 15        		.byte	0x15
 1920 00af 00        		.byte	0x0
 1921 00b0 05        		.uleb128 0x5
 1922 00b1 02        		.byte	0x2
 1923 00b2 0000 0000 		.long	.LM11
 1924 00b6 15        		.byte	0x15
 1925 00b7 00        		.byte	0x0
 1926 00b8 05        		.uleb128 0x5
 1927 00b9 02        		.byte	0x2
 1928 00ba 0000 0000 		.long	.LM12
 1929 00be 15        		.byte	0x15
 1930 00bf 00        		.byte	0x0
 1931 00c0 05        		.uleb128 0x5
 1932 00c1 02        		.byte	0x2
 1933 00c2 0000 0000 		.long	.LM13
 1934 00c6 15        		.byte	0x15
 1935 00c7 00        		.byte	0x0
 1936 00c8 05        		.uleb128 0x5
 1937 00c9 02        		.byte	0x2
 1938 00ca 0000 0000 		.long	.LM14
 1939 00ce 15        		.byte	0x15
 1940 00cf 00        		.byte	0x0
 1941 00d0 05        		.uleb128 0x5
 1942 00d1 02        		.byte	0x2
 1943 00d2 0000 0000 		.long	.LM15
 1944 00d6 16        		.byte	0x16
 1945 00d7 00        		.byte	0x0
 1946 00d8 05        		.uleb128 0x5
 1947 00d9 02        		.byte	0x2
 1948 00da 0000 0000 		.long	.LM16
 1949 00de 15        		.byte	0x15
 1950 00df 00        		.byte	0x0
 1951 00e0 05        		.uleb128 0x5
 1952 00e1 02        		.byte	0x2
 1953 00e2 0000 0000 		.long	.LM17
 1954 00e6 15        		.byte	0x15
 1955 00e7 00        		.byte	0x0
 1956 00e8 05        		.uleb128 0x5
 1957 00e9 02        		.byte	0x2
 1958 00ea 0000 0000 		.long	.LM18
 1959 00ee 15        		.byte	0x15
 1960 00ef 00        		.byte	0x0
 1961 00f0 05        		.uleb128 0x5
 1962 00f1 02        		.byte	0x2
 1963 00f2 0000 0000 		.long	.LM19
 1964 00f6 15        		.byte	0x15
 1965 00f7 00        		.byte	0x0
 1966 00f8 05        		.uleb128 0x5
GAS LISTING C:\Users\alex\AppData\Local\Temp/ccg1WVlq.s 			page 36


 1967 00f9 02        		.byte	0x2
 1968 00fa 0000 0000 		.long	.LM20
 1969 00fe 16        		.byte	0x16
 1970 00ff 00        		.byte	0x0
 1971 0100 05        		.uleb128 0x5
 1972 0101 02        		.byte	0x2
 1973 0102 0000 0000 		.long	.LM21
 1974 0106 15        		.byte	0x15
 1975 0107 00        		.byte	0x0
 1976 0108 05        		.uleb128 0x5
 1977 0109 02        		.byte	0x2
 1978 010a 0000 0000 		.long	.LM22
 1979 010e 15        		.byte	0x15
 1980 010f 00        		.byte	0x0
 1981 0110 05        		.uleb128 0x5
 1982 0111 02        		.byte	0x2
 1983 0112 0000 0000 		.long	.LM23
 1984 0116 15        		.byte	0x15
 1985 0117 00        		.byte	0x0
 1986 0118 05        		.uleb128 0x5
 1987 0119 02        		.byte	0x2
 1988 011a 0000 0000 		.long	.LM24
 1989 011e 15        		.byte	0x15
 1990 011f 00        		.byte	0x0
 1991 0120 05        		.uleb128 0x5
 1992 0121 02        		.byte	0x2
 1993 0122 0000 0000 		.long	.LM25
 1994 0126 16        		.byte	0x16
 1995 0127 00        		.byte	0x0
 1996 0128 05        		.uleb128 0x5
 1997 0129 02        		.byte	0x2
 1998 012a 0000 0000 		.long	.LM26
 1999 012e 15        		.byte	0x15
 2000 012f 00        		.byte	0x0
 2001 0130 05        		.uleb128 0x5
 2002 0131 02        		.byte	0x2
 2003 0132 0000 0000 		.long	.LM27
 2004 0136 15        		.byte	0x15
 2005 0137 00        		.byte	0x0
 2006 0138 05        		.uleb128 0x5
 2007 0139 02        		.byte	0x2
 2008 013a 0000 0000 		.long	.LM28
 2009 013e 15        		.byte	0x15
 2010 013f 00        		.byte	0x0
 2011 0140 05        		.uleb128 0x5
 2012 0141 02        		.byte	0x2
 2013 0142 0000 0000 		.long	.LM29
 2014 0146 15        		.byte	0x15
 2015 0147 00        		.byte	0x0
 2016 0148 05        		.uleb128 0x5
 2017 0149 02        		.byte	0x2
 2018 014a 0000 0000 		.long	.LM30
 2019 014e 16        		.byte	0x16
 2020 014f 00        		.byte	0x0
 2021 0150 05        		.uleb128 0x5
 2022 0151 02        		.byte	0x2
 2023 0152 0000 0000 		.long	.LM31
GAS LISTING C:\Users\alex\AppData\Local\Temp/ccg1WVlq.s 			page 37


 2024 0156 15        		.byte	0x15
 2025 0157 00        		.byte	0x0
 2026 0158 05        		.uleb128 0x5
 2027 0159 02        		.byte	0x2
 2028 015a 0000 0000 		.long	.LM32
 2029 015e 15        		.byte	0x15
 2030 015f 00        		.byte	0x0
 2031 0160 05        		.uleb128 0x5
 2032 0161 02        		.byte	0x2
 2033 0162 0000 0000 		.long	.LM33
 2034 0166 15        		.byte	0x15
 2035 0167 00        		.byte	0x0
 2036 0168 05        		.uleb128 0x5
 2037 0169 02        		.byte	0x2
 2038 016a 0000 0000 		.long	.LM34
 2039 016e 15        		.byte	0x15
 2040 016f 00        		.byte	0x0
 2041 0170 05        		.uleb128 0x5
 2042 0171 02        		.byte	0x2
 2043 0172 0000 0000 		.long	.LM35
 2044 0176 17        		.byte	0x17
 2045 0177 00        		.byte	0x0
 2046 0178 05        		.uleb128 0x5
 2047 0179 02        		.byte	0x2
 2048 017a 0000 0000 		.long	.LM36
 2049 017e 15        		.byte	0x15
 2050 017f 00        		.byte	0x0
 2051 0180 05        		.uleb128 0x5
 2052 0181 02        		.byte	0x2
 2053 0182 0000 0000 		.long	.LM37
 2054 0186 15        		.byte	0x15
 2055 0187 00        		.byte	0x0
 2056 0188 05        		.uleb128 0x5
 2057 0189 02        		.byte	0x2
 2058 018a 0000 0000 		.long	.LM38
 2059 018e 15        		.byte	0x15
 2060 018f 00        		.byte	0x0
 2061 0190 05        		.uleb128 0x5
 2062 0191 02        		.byte	0x2
 2063 0192 0000 0000 		.long	.LM39
 2064 0196 15        		.byte	0x15
 2065 0197 00        		.byte	0x0
 2066 0198 05        		.uleb128 0x5
 2067 0199 02        		.byte	0x2
 2068 019a 0000 0000 		.long	.LM40
 2069 019e 15        		.byte	0x15
 2070 019f 00        		.byte	0x0
 2071 01a0 05        		.uleb128 0x5
 2072 01a1 02        		.byte	0x2
 2073 01a2 0000 0000 		.long	.LM41
 2074 01a6 15        		.byte	0x15
 2075 01a7 00        		.byte	0x0
 2076 01a8 05        		.uleb128 0x5
 2077 01a9 02        		.byte	0x2
 2078 01aa 0000 0000 		.long	.LM42
 2079 01ae 15        		.byte	0x15
 2080 01af 00        		.byte	0x0
GAS LISTING C:\Users\alex\AppData\Local\Temp/ccg1WVlq.s 			page 38


 2081 01b0 05        		.uleb128 0x5
 2082 01b1 02        		.byte	0x2
 2083 01b2 0000 0000 		.long	.LM43
 2084 01b6 16        		.byte	0x16
 2085 01b7 00        		.byte	0x0
 2086 01b8 05        		.uleb128 0x5
 2087 01b9 02        		.byte	0x2
 2088 01ba 0000 0000 		.long	.LM44
 2089 01be 15        		.byte	0x15
 2090 01bf 00        		.byte	0x0
 2091 01c0 05        		.uleb128 0x5
 2092 01c1 02        		.byte	0x2
 2093 01c2 0000 0000 		.long	.LM45
 2094 01c6 15        		.byte	0x15
 2095 01c7 00        		.byte	0x0
 2096 01c8 05        		.uleb128 0x5
 2097 01c9 02        		.byte	0x2
 2098 01ca 0000 0000 		.long	.LM46
 2099 01ce 15        		.byte	0x15
 2100 01cf 00        		.byte	0x0
 2101 01d0 05        		.uleb128 0x5
 2102 01d1 02        		.byte	0x2
 2103 01d2 0000 0000 		.long	.LM47
 2104 01d6 15        		.byte	0x15
 2105 01d7 00        		.byte	0x0
 2106 01d8 05        		.uleb128 0x5
 2107 01d9 02        		.byte	0x2
 2108 01da 0000 0000 		.long	.LM48
 2109 01de 16        		.byte	0x16
 2110 01df 00        		.byte	0x0
 2111 01e0 05        		.uleb128 0x5
 2112 01e1 02        		.byte	0x2
 2113 01e2 0000 0000 		.long	.LM49
 2114 01e6 15        		.byte	0x15
 2115 01e7 00        		.byte	0x0
 2116 01e8 05        		.uleb128 0x5
 2117 01e9 02        		.byte	0x2
 2118 01ea 0000 0000 		.long	.LM50
 2119 01ee 15        		.byte	0x15
 2120 01ef 00        		.byte	0x0
 2121 01f0 05        		.uleb128 0x5
 2122 01f1 02        		.byte	0x2
 2123 01f2 0000 0000 		.long	.LM51
 2124 01f6 15        		.byte	0x15
 2125 01f7 00        		.byte	0x0
 2126 01f8 05        		.uleb128 0x5
 2127 01f9 02        		.byte	0x2
 2128 01fa 0000 0000 		.long	.LM52
 2129 01fe 15        		.byte	0x15
 2130 01ff 00        		.byte	0x0
 2131 0200 05        		.uleb128 0x5
 2132 0201 02        		.byte	0x2
 2133 0202 0000 0000 		.long	.LM53
 2134 0206 16        		.byte	0x16
 2135 0207 00        		.byte	0x0
 2136 0208 05        		.uleb128 0x5
 2137 0209 02        		.byte	0x2
GAS LISTING C:\Users\alex\AppData\Local\Temp/ccg1WVlq.s 			page 39


 2138 020a 0000 0000 		.long	.LM54
 2139 020e 15        		.byte	0x15
 2140 020f 00        		.byte	0x0
 2141 0210 05        		.uleb128 0x5
 2142 0211 02        		.byte	0x2
 2143 0212 0000 0000 		.long	.LM55
 2144 0216 15        		.byte	0x15
 2145 0217 00        		.byte	0x0
 2146 0218 05        		.uleb128 0x5
 2147 0219 02        		.byte	0x2
 2148 021a 0000 0000 		.long	.LM56
 2149 021e 15        		.byte	0x15
 2150 021f 00        		.byte	0x0
 2151 0220 05        		.uleb128 0x5
 2152 0221 02        		.byte	0x2
 2153 0222 0000 0000 		.long	.LM57
 2154 0226 15        		.byte	0x15
 2155 0227 00        		.byte	0x0
 2156 0228 05        		.uleb128 0x5
 2157 0229 02        		.byte	0x2
 2158 022a 0000 0000 		.long	.LM58
 2159 022e 16        		.byte	0x16
 2160 022f 00        		.byte	0x0
 2161 0230 05        		.uleb128 0x5
 2162 0231 02        		.byte	0x2
 2163 0232 0000 0000 		.long	.LM59
 2164 0236 15        		.byte	0x15
 2165 0237 00        		.byte	0x0
 2166 0238 05        		.uleb128 0x5
 2167 0239 02        		.byte	0x2
 2168 023a 0000 0000 		.long	.LM60
 2169 023e 15        		.byte	0x15
 2170 023f 00        		.byte	0x0
 2171 0240 05        		.uleb128 0x5
 2172 0241 02        		.byte	0x2
 2173 0242 0000 0000 		.long	.LM61
 2174 0246 15        		.byte	0x15
 2175 0247 00        		.byte	0x0
 2176 0248 05        		.uleb128 0x5
 2177 0249 02        		.byte	0x2
 2178 024a 0000 0000 		.long	.LM62
 2179 024e 15        		.byte	0x15
 2180 024f 00        		.byte	0x0
 2181 0250 05        		.uleb128 0x5
 2182 0251 02        		.byte	0x2
 2183 0252 0000 0000 		.long	.LM63
 2184 0256 16        		.byte	0x16
 2185 0257 00        		.byte	0x0
 2186 0258 05        		.uleb128 0x5
 2187 0259 02        		.byte	0x2
 2188 025a 0000 0000 		.long	.LM64
 2189 025e 15        		.byte	0x15
 2190 025f 00        		.byte	0x0
 2191 0260 05        		.uleb128 0x5
 2192 0261 02        		.byte	0x2
 2193 0262 0000 0000 		.long	.LM65
 2194 0266 15        		.byte	0x15
GAS LISTING C:\Users\alex\AppData\Local\Temp/ccg1WVlq.s 			page 40


 2195 0267 00        		.byte	0x0
 2196 0268 05        		.uleb128 0x5
 2197 0269 02        		.byte	0x2
 2198 026a 0000 0000 		.long	.LM66
 2199 026e 15        		.byte	0x15
 2200 026f 00        		.byte	0x0
 2201 0270 05        		.uleb128 0x5
 2202 0271 02        		.byte	0x2
 2203 0272 0000 0000 		.long	.LM67
 2204 0276 11        		.byte	0x11
 2205 0277 00        		.byte	0x0
 2206 0278 05        		.uleb128 0x5
 2207 0279 02        		.byte	0x2
 2208 027a 0000 0000 		.long	.LM68
 2209 027e 1A        		.byte	0x1a
 2210 027f 00        		.byte	0x0
 2211 0280 05        		.uleb128 0x5
 2212 0281 02        		.byte	0x2
 2213 0282 0000 0000 		.long	.LM69
 2214 0286 15        		.byte	0x15
 2215 0287 00        		.byte	0x0
 2216 0288 05        		.uleb128 0x5
 2217 0289 02        		.byte	0x2
 2218 028a 0000 0000 		.long	.LM70
 2219 028e 15        		.byte	0x15
 2220 028f 00        		.byte	0x0
 2221 0290 05        		.uleb128 0x5
 2222 0291 02        		.byte	0x2
 2223 0292 0000 0000 		.long	.LM71
 2224 0296 1C        		.byte	0x1c
 2225 0297 00        		.byte	0x0
 2226 0298 05        		.uleb128 0x5
 2227 0299 02        		.byte	0x2
 2228 029a 0000 0000 		.long	.LM72
 2229 029e 17        		.byte	0x17
 2230 029f 00        		.byte	0x0
 2231 02a0 05        		.uleb128 0x5
 2232 02a1 02        		.byte	0x2
 2233 02a2 0000 0000 		.long	.LM73
 2234 02a6 15        		.byte	0x15
 2235 02a7 00        		.byte	0x0
 2236 02a8 05        		.uleb128 0x5
 2237 02a9 02        		.byte	0x2
 2238 02aa 0000 0000 		.long	.LM74
 2239 02ae 15        		.byte	0x15
 2240 02af 00        		.byte	0x0
 2241 02b0 05        		.uleb128 0x5
 2242 02b1 02        		.byte	0x2
 2243 02b2 0000 0000 		.long	.LM75
 2244 02b6 15        		.byte	0x15
 2245 02b7 00        		.byte	0x0
 2246 02b8 05        		.uleb128 0x5
 2247 02b9 02        		.byte	0x2
 2248 02ba 0000 0000 		.long	.LM76
 2249 02be 15        		.byte	0x15
 2250 02bf 00        		.byte	0x0
 2251 02c0 05        		.uleb128 0x5
GAS LISTING C:\Users\alex\AppData\Local\Temp/ccg1WVlq.s 			page 41


 2252 02c1 02        		.byte	0x2
 2253 02c2 0000 0000 		.long	.LM77
 2254 02c6 16        		.byte	0x16
 2255 02c7 00        		.byte	0x0
 2256 02c8 05        		.uleb128 0x5
 2257 02c9 02        		.byte	0x2
 2258 02ca 0000 0000 		.long	.LM78
 2259 02ce 15        		.byte	0x15
 2260 02cf 00        		.byte	0x0
 2261 02d0 05        		.uleb128 0x5
 2262 02d1 02        		.byte	0x2
 2263 02d2 0000 0000 		.long	.LM79
 2264 02d6 15        		.byte	0x15
 2265 02d7 00        		.byte	0x0
 2266 02d8 05        		.uleb128 0x5
 2267 02d9 02        		.byte	0x2
 2268 02da 0000 0000 		.long	.LM80
 2269 02de 15        		.byte	0x15
 2270 02df 00        		.byte	0x0
 2271 02e0 05        		.uleb128 0x5
 2272 02e1 02        		.byte	0x2
 2273 02e2 0000 0000 		.long	.LM81
 2274 02e6 11        		.byte	0x11
 2275 02e7 00        		.byte	0x0
 2276 02e8 05        		.uleb128 0x5
 2277 02e9 02        		.byte	0x2
 2278 02ea 0000 0000 		.long	.LM82
 2279 02ee 1A        		.byte	0x1a
 2280 02ef 00        		.byte	0x0
 2281 02f0 05        		.uleb128 0x5
 2282 02f1 02        		.byte	0x2
 2283 02f2 0000 0000 		.long	.LM83
 2284 02f6 03        		.byte	0x3
 2285 02f7 75        		.sleb128 -11
 2286 02f8 01        		.byte	0x1
 2287 02f9 00        		.byte	0x0
 2288 02fa 05        		.uleb128 0x5
 2289 02fb 02        		.byte	0x2
 2290 02fc 0000 0000 		.long	.LM84
 2291 0300 22        		.byte	0x22
 2292 0301 00        		.byte	0x0
 2293 0302 05        		.uleb128 0x5
 2294 0303 02        		.byte	0x2
 2295 0304 0000 0000 		.long	.LM85
 2296 0308 15        		.byte	0x15
 2297 0309 00        		.byte	0x0
 2298 030a 05        		.uleb128 0x5
 2299 030b 02        		.byte	0x2
 2300 030c 0000 0000 		.long	.Letext0
 2301 0310 00        		.byte	0x0
 2302 0311 01        		.uleb128 0x1
 2303 0312 01        		.byte	0x1
 2304               	.LELT0:
 2305 0313 1600 0000 		.section	.debug_str,"MS",@progbits,1
 2305      0200 1000 
 2305      0000 0101 
 2305      FB0E 0A00 
GAS LISTING C:\Users\alex\AppData\Local\Temp/ccg1WVlq.s 			page 42


 2305      0101 0101 
 2306               	.LASF28:
 2307 0000 6B65 7970 		.string	"keypad.c"
 2307      6164 2E63 
 2307      00
 2308               	.LASF22:
 2309 0009 6765 7463 		.string	"getc_4x4_keypad"
 2309      5F34 7834 
 2309      5F6B 6579 
 2309      7061 6400 
 2310               	.LASF11:
 2311 0019 6269 6E31 		.string	"bin1"
 2311      00
 2312               	.LASF12:
 2313 001e 6269 6E32 		.string	"bin2"
 2313      00
 2314               	.LASF13:
 2315 0023 6269 6E33 		.string	"bin3"
 2315      00
 2316               	.LASF14:
 2317 0028 6269 6E34 		.string	"bin4"
 2317      00
 2318               	.LASF10:
 2319 002d 6F75 7434 		.string	"out4"
 2319      00
 2320               	.LASF7:
 2321 0032 6F75 7431 		.string	"out1"
 2321      00
 2322               	.LASF8:
 2323 0037 6F75 7432 		.string	"out2"
 2323      00
 2324               	.LASF9:
 2325 003c 6F75 7433 		.string	"out3"
 2325      00
 2326               	.LASF21:
 2327 0041 6765 7463 		.string	"getc_3x4_keypad"
 2327      5F33 7834 
 2327      5F6B 6579 
 2327      7061 6400 
 2328               	.LASF1:
 2329 0051 756E 7369 		.string	"unsigned char"
 2329      676E 6564 
 2329      2063 6861 
 2329      7200 
 2330               	.LASF4:
 2331 005f 6C6F 6E67 		.string	"long unsigned int"
 2331      2075 6E73 
 2331      6967 6E65 
 2331      6420 696E 
 2331      7400 
 2332               	.LASF19:
 2333 0071 626F 7574 		.string	"bout"
 2333      00
 2334               	.LASF27:
 2335 0076 474E 5520 		.string	"GNU C 4.3.3"
 2335      4320 342E 
 2335      332E 3300 
GAS LISTING C:\Users\alex\AppData\Local\Temp/ccg1WVlq.s 			page 43


 2336               	.LASF29:
 2337 0082 453A 5C61 		.string	"E:\\avr\\counter"
 2337      7672 5C63 
 2337      6F75 6E74 
 2337      6572 00
 2338               	.LASF15:
 2339 0091 626F 7574 		.string	"bout1"
 2339      3100 
 2340               	.LASF16:
 2341 0097 626F 7574 		.string	"bout2"
 2341      3200 
 2342               	.LASF17:
 2343 009d 626F 7574 		.string	"bout3"
 2343      3300 
 2344               	.LASF18:
 2345 00a3 626F 7574 		.string	"bout4"
 2345      3400 
 2346               	.LASF24:
 2347 00a9 706B 6579 		.string	"pkeypad_4x4_in"
 2347      7061 645F 
 2347      3478 345F 
 2347      696E 00
 2348               	.LASF2:
 2349 00b8 756E 7369 		.string	"unsigned int"
 2349      676E 6564 
 2349      2069 6E74 
 2349      00
 2350               	.LASF6:
 2351 00c5 6C6F 6E67 		.string	"long long unsigned int"
 2351      206C 6F6E 
 2351      6720 756E 
 2351      7369 676E 
 2351      6564 2069 
 2352               	.LASF30:
 2353 00dc 7569 6E74 		.string	"uint8_t"
 2353      385F 7400 
 2354               	.LASF5:
 2355 00e4 6C6F 6E67 		.string	"long long int"
 2355      206C 6F6E 
 2355      6720 696E 
 2355      7400 
 2356               	.LASF26:
 2357 00f2 626B 6579 		.string	"bkeypad_4x4_in"
 2357      7061 645F 
 2357      3478 345F 
 2357      696E 00
 2358               	.LASF23:
 2359 0101 706B 6579 		.string	"pkeypad_4x4_out"
 2359      7061 645F 
 2359      3478 345F 
 2359      6F75 7400 
 2360               	.LASF3:
 2361 0111 6C6F 6E67 		.string	"long int"
 2361      2069 6E74 
 2361      00
 2362               	.LASF31:
 2363 011a 696E 6974 		.string	"init_4x4_keypad"
GAS LISTING C:\Users\alex\AppData\Local\Temp/ccg1WVlq.s 			page 44


 2363      5F34 7834 
 2363      5F6B 6579 
 2363      7061 6400 
 2364               	.LASF0:
 2365 012a 7369 676E 		.string	"signed char"
 2365      6564 2063 
 2365      6861 7200 
 2366               	.LASF20:
 2367 0136 706F 7574 		.string	"pout"
 2367      00
 2368               	.LASF25:
 2369 013b 626B 6579 		.string	"bkeypad_4x4_out"
 2369      7061 645F 
 2369      3478 345F 
 2369      6F75 7400 
 2370               	.global __do_clear_bss
GAS LISTING C:\Users\alex\AppData\Local\Temp/ccg1WVlq.s 			page 45


DEFINED SYMBOLS
                            *ABS*:00000000 keypad.c
C:\Users\alex\AppData\Local\Temp/ccg1WVlq.s:2      *ABS*:0000003f __SREG__
C:\Users\alex\AppData\Local\Temp/ccg1WVlq.s:3      *ABS*:0000003e __SP_H__
C:\Users\alex\AppData\Local\Temp/ccg1WVlq.s:4      *ABS*:0000003d __SP_L__
C:\Users\alex\AppData\Local\Temp/ccg1WVlq.s:5      *ABS*:00000034 __CCP__
C:\Users\alex\AppData\Local\Temp/ccg1WVlq.s:6      *ABS*:00000000 __tmp_reg__
C:\Users\alex\AppData\Local\Temp/ccg1WVlq.s:7      *ABS*:00000001 __zero_reg__
C:\Users\alex\AppData\Local\Temp/ccg1WVlq.s:18     .text:00000000 getc_3x4_keypad
C:\Users\alex\AppData\Local\Temp/ccg1WVlq.s:48     .text:00000020 init_4x4_keypad
                            *COM*:00000005 bkeypad_4x4_in
                            *COM*:0000000a pkeypad_4x4_in
                            *COM*:00000005 bkeypad_4x4_out
                            *COM*:0000000a pkeypad_4x4_out
C:\Users\alex\AppData\Local\Temp/ccg1WVlq.s:1029   .text:00000782 getc_4x4_keypad

UNDEFINED SYMBOLS
__do_clear_bss
