GAS LISTING C:\Users\alex\AppData\Local\Temp/ccz8HDSg.s 			page 1


   1               		.file	"pga2311.c"
   2               	__SREG__ = 0x3f
   3               	__SP_H__ = 0x3e
   4               	__SP_L__ = 0x3d
   5               	__CCP__  = 0x34
   6               	__tmp_reg__ = 0
   7               	__zero_reg__ = 1
   8               		.section	.debug_abbrev,"",@progbits
   9               	.Ldebug_abbrev0:
  10               		.section	.debug_info,"",@progbits
  11               	.Ldebug_info0:
  12               		.section	.debug_line,"",@progbits
  13               	.Ldebug_line0:
  14               		.text
  15               	.Ltext0:
  16               	.global	pga2311_setup
  17               		.type	pga2311_setup, @function
  18               	pga2311_setup:
  19               	.LFB2:
  20               	.LM1:
  21 0000 EF92      		push r14
  22 0002 0F93      		push r16
  23 0004 DF93      		push r29
  24 0006 CF93      		push r28
  25 0008 CDB7      		in r28,__SP_L__
  26 000a DEB7      		in r29,__SP_H__
  27 000c 2F97      		sbiw r28,15
  28 000e 0FB6      		in __tmp_reg__,__SREG__
  29 0010 F894      		cli
  30 0012 DEBF      		out __SP_H__,r29
  31 0014 0FBE      		out __SREG__,__tmp_reg__
  32 0016 CDBF      		out __SP_L__,r28
  33               	/* prologue: function */
  34               	/* frame size = 15 */
  35 0018 8A87      		std Y+10,r24
  36 001a 6B87      		std Y+11,r22
  37 001c 4C87      		std Y+12,r20
  38 001e 2D87      		std Y+13,r18
  39 0020 0E87      		std Y+14,r16
  40 0022 EF86      		std Y+15,r14
  41               	.LM2:
  42 0024 8B85      		ldd r24,Y+11
  43 0026 882F      		mov r24,r24
  44 0028 90E0      		ldi r25,lo8(0)
  45 002a 9C01      		movw r18,r24
  46 002c 2F70      		andi r18,lo8(15)
  47 002e 3070      		andi r19,hi8(15)
  48 0030 81E0      		ldi r24,lo8(1)
  49 0032 90E0      		ldi r25,hi8(1)
  50 0034 00C0      		rjmp 2f
  51 0036 880F      	1:	lsl r24
  52 0038 991F      		rol r25
  53 003a 2A95      	2:	dec r18
  54 003c 02F4      		brpl 1b
  55 003e 8987      		std Y+9,r24
  56               	.LM3:
  57 0040 8A85      		ldd r24,Y+10
GAS LISTING C:\Users\alex\AppData\Local\Temp/ccz8HDSg.s 			page 2


  58 0042 882F      		mov r24,r24
  59 0044 90E0      		ldi r25,lo8(0)
  60 0046 FC01      		movw r30,r24
  61 0048 E050      		subi r30,lo8(-(pga2311_b_zcen))
  62 004a F040      		sbci r31,hi8(-(pga2311_b_zcen))
  63 004c 8985      		ldd r24,Y+9
  64 004e 8083      		st Z,r24
  65               	.LM4:
  66 0050 8C85      		ldd r24,Y+12
  67 0052 882F      		mov r24,r24
  68 0054 90E0      		ldi r25,lo8(0)
  69 0056 9C01      		movw r18,r24
  70 0058 2F70      		andi r18,lo8(15)
  71 005a 3070      		andi r19,hi8(15)
  72 005c 81E0      		ldi r24,lo8(1)
  73 005e 90E0      		ldi r25,hi8(1)
  74 0060 00C0      		rjmp 2f
  75 0062 880F      	1:	lsl r24
  76 0064 991F      		rol r25
  77 0066 2A95      	2:	dec r18
  78 0068 02F4      		brpl 1b
  79 006a 8F83      		std Y+7,r24
  80               	.LM5:
  81 006c 8A85      		ldd r24,Y+10
  82 006e 882F      		mov r24,r24
  83 0070 90E0      		ldi r25,lo8(0)
  84 0072 FC01      		movw r30,r24
  85 0074 E050      		subi r30,lo8(-(pga2311_b_cs))
  86 0076 F040      		sbci r31,hi8(-(pga2311_b_cs))
  87 0078 8F81      		ldd r24,Y+7
  88 007a 8083      		st Z,r24
  89               	.LM6:
  90 007c 8D85      		ldd r24,Y+13
  91 007e 882F      		mov r24,r24
  92 0080 90E0      		ldi r25,lo8(0)
  93 0082 9C01      		movw r18,r24
  94 0084 2F70      		andi r18,lo8(15)
  95 0086 3070      		andi r19,hi8(15)
  96 0088 81E0      		ldi r24,lo8(1)
  97 008a 90E0      		ldi r25,hi8(1)
  98 008c 00C0      		rjmp 2f
  99 008e 880F      	1:	lsl r24
 100 0090 991F      		rol r25
 101 0092 2A95      	2:	dec r18
 102 0094 02F4      		brpl 1b
 103 0096 8887      		std Y+8,r24
 104               	.LM7:
 105 0098 8A85      		ldd r24,Y+10
 106 009a 882F      		mov r24,r24
 107 009c 90E0      		ldi r25,lo8(0)
 108 009e FC01      		movw r30,r24
 109 00a0 E050      		subi r30,lo8(-(pga2311_b_sdi))
 110 00a2 F040      		sbci r31,hi8(-(pga2311_b_sdi))
 111 00a4 8885      		ldd r24,Y+8
 112 00a6 8083      		st Z,r24
 113               	.LM8:
 114 00a8 8E85      		ldd r24,Y+14
GAS LISTING C:\Users\alex\AppData\Local\Temp/ccz8HDSg.s 			page 3


 115 00aa 882F      		mov r24,r24
 116 00ac 90E0      		ldi r25,lo8(0)
 117 00ae 9C01      		movw r18,r24
 118 00b0 2F70      		andi r18,lo8(15)
 119 00b2 3070      		andi r19,hi8(15)
 120 00b4 81E0      		ldi r24,lo8(1)
 121 00b6 90E0      		ldi r25,hi8(1)
 122 00b8 00C0      		rjmp 2f
 123 00ba 880F      	1:	lsl r24
 124 00bc 991F      		rol r25
 125 00be 2A95      	2:	dec r18
 126 00c0 02F4      		brpl 1b
 127 00c2 8E83      		std Y+6,r24
 128               	.LM9:
 129 00c4 8A85      		ldd r24,Y+10
 130 00c6 882F      		mov r24,r24
 131 00c8 90E0      		ldi r25,lo8(0)
 132 00ca FC01      		movw r30,r24
 133 00cc E050      		subi r30,lo8(-(pga2311_b_clk))
 134 00ce F040      		sbci r31,hi8(-(pga2311_b_clk))
 135 00d0 8E81      		ldd r24,Y+6
 136 00d2 8083      		st Z,r24
 137               	.LM10:
 138 00d4 8F85      		ldd r24,Y+15
 139 00d6 882F      		mov r24,r24
 140 00d8 90E0      		ldi r25,lo8(0)
 141 00da 9C01      		movw r18,r24
 142 00dc 2F70      		andi r18,lo8(15)
 143 00de 3070      		andi r19,hi8(15)
 144 00e0 81E0      		ldi r24,lo8(1)
 145 00e2 90E0      		ldi r25,hi8(1)
 146 00e4 022E      		mov r0,r18
 147 00e6 00C0      		rjmp 2f
 148 00e8 880F      	1:	lsl r24
 149 00ea 991F      		rol r25
 150 00ec 0A94      	2:	dec r0
 151 00ee 02F4      		brpl 1b
 152 00f0 8D83      		std Y+5,r24
 153               	.LM11:
 154 00f2 8A85      		ldd r24,Y+10
 155 00f4 882F      		mov r24,r24
 156 00f6 90E0      		ldi r25,lo8(0)
 157 00f8 FC01      		movw r30,r24
 158 00fa E050      		subi r30,lo8(-(pga2311_b_mute))
 159 00fc F040      		sbci r31,hi8(-(pga2311_b_mute))
 160 00fe 8D81      		ldd r24,Y+5
 161 0100 8083      		st Z,r24
 162               	.LM12:
 163 0102 8B85      		ldd r24,Y+11
 164 0104 807F      		andi r24,lo8(-16)
 165 0106 8B87      		std Y+11,r24
 166               	.LM13:
 167 0108 8B85      		ldd r24,Y+11
 168 010a 8823      		tst r24
 169 010c 01F4      		brne .L2
 170 010e 8A85      		ldd r24,Y+10
 171 0110 882F      		mov r24,r24
GAS LISTING C:\Users\alex\AppData\Local\Temp/ccz8HDSg.s 			page 4


 172 0112 90E0      		ldi r25,lo8(0)
 173 0114 880F      		lsl r24
 174 0116 991F      		rol r25
 175 0118 FC01      		movw r30,r24
 176 011a E050      		subi r30,lo8(-(pga2311_p_zcen))
 177 011c F040      		sbci r31,hi8(-(pga2311_p_zcen))
 178 011e 8BE3      		ldi r24,lo8(59)
 179 0120 90E0      		ldi r25,hi8(59)
 180 0122 9183      		std Z+1,r25
 181 0124 8083      		st Z,r24
 182 0126 AAE3      		ldi r26,lo8(58)
 183 0128 B0E0      		ldi r27,hi8(58)
 184 012a EAE3      		ldi r30,lo8(58)
 185 012c F0E0      		ldi r31,hi8(58)
 186 012e 9081      		ld r25,Z
 187 0130 8985      		ldd r24,Y+9
 188 0132 892B      		or r24,r25
 189 0134 8C93      		st X,r24
 190               	.L2:
 191               	.LM14:
 192 0136 8B85      		ldd r24,Y+11
 193 0138 8031      		cpi r24,lo8(16)
 194 013a 01F4      		brne .L3
 195 013c 8A85      		ldd r24,Y+10
 196 013e 882F      		mov r24,r24
 197 0140 90E0      		ldi r25,lo8(0)
 198 0142 880F      		lsl r24
 199 0144 991F      		rol r25
 200 0146 FC01      		movw r30,r24
 201 0148 E050      		subi r30,lo8(-(pga2311_p_zcen))
 202 014a F040      		sbci r31,hi8(-(pga2311_p_zcen))
 203 014c 88E3      		ldi r24,lo8(56)
 204 014e 90E0      		ldi r25,hi8(56)
 205 0150 9183      		std Z+1,r25
 206 0152 8083      		st Z,r24
 207 0154 A7E3      		ldi r26,lo8(55)
 208 0156 B0E0      		ldi r27,hi8(55)
 209 0158 E7E3      		ldi r30,lo8(55)
 210 015a F0E0      		ldi r31,hi8(55)
 211 015c 9081      		ld r25,Z
 212 015e 8985      		ldd r24,Y+9
 213 0160 892B      		or r24,r25
 214 0162 8C93      		st X,r24
 215               	.L3:
 216               	.LM15:
 217 0164 8B85      		ldd r24,Y+11
 218 0166 8032      		cpi r24,lo8(32)
 219 0168 01F4      		brne .L4
 220 016a 8A85      		ldd r24,Y+10
 221 016c 882F      		mov r24,r24
 222 016e 90E0      		ldi r25,lo8(0)
 223 0170 880F      		lsl r24
 224 0172 991F      		rol r25
 225 0174 FC01      		movw r30,r24
 226 0176 E050      		subi r30,lo8(-(pga2311_p_zcen))
 227 0178 F040      		sbci r31,hi8(-(pga2311_p_zcen))
 228 017a 85E3      		ldi r24,lo8(53)
GAS LISTING C:\Users\alex\AppData\Local\Temp/ccz8HDSg.s 			page 5


 229 017c 90E0      		ldi r25,hi8(53)
 230 017e 9183      		std Z+1,r25
 231 0180 8083      		st Z,r24
 232 0182 A4E3      		ldi r26,lo8(52)
 233 0184 B0E0      		ldi r27,hi8(52)
 234 0186 E4E3      		ldi r30,lo8(52)
 235 0188 F0E0      		ldi r31,hi8(52)
 236 018a 9081      		ld r25,Z
 237 018c 8985      		ldd r24,Y+9
 238 018e 892B      		or r24,r25
 239 0190 8C93      		st X,r24
 240               	.L4:
 241               	.LM16:
 242 0192 8B85      		ldd r24,Y+11
 243 0194 8033      		cpi r24,lo8(48)
 244 0196 01F4      		brne .L5
 245 0198 8A85      		ldd r24,Y+10
 246 019a 882F      		mov r24,r24
 247 019c 90E0      		ldi r25,lo8(0)
 248 019e 880F      		lsl r24
 249 01a0 991F      		rol r25
 250 01a2 FC01      		movw r30,r24
 251 01a4 E050      		subi r30,lo8(-(pga2311_p_zcen))
 252 01a6 F040      		sbci r31,hi8(-(pga2311_p_zcen))
 253 01a8 82E3      		ldi r24,lo8(50)
 254 01aa 90E0      		ldi r25,hi8(50)
 255 01ac 9183      		std Z+1,r25
 256 01ae 8083      		st Z,r24
 257 01b0 A1E3      		ldi r26,lo8(49)
 258 01b2 B0E0      		ldi r27,hi8(49)
 259 01b4 E1E3      		ldi r30,lo8(49)
 260 01b6 F0E0      		ldi r31,hi8(49)
 261 01b8 9081      		ld r25,Z
 262 01ba 8985      		ldd r24,Y+9
 263 01bc 892B      		or r24,r25
 264 01be 8C93      		st X,r24
 265               	.L5:
 266               	.LM17:
 267 01c0 8A85      		ldd r24,Y+10
 268 01c2 882F      		mov r24,r24
 269 01c4 90E0      		ldi r25,lo8(0)
 270 01c6 880F      		lsl r24
 271 01c8 991F      		rol r25
 272 01ca FC01      		movw r30,r24
 273 01cc E050      		subi r30,lo8(-(pga2311_p_zcen))
 274 01ce F040      		sbci r31,hi8(-(pga2311_p_zcen))
 275 01d0 8081      		ld r24,Z
 276 01d2 9181      		ldd r25,Z+1
 277 01d4 9C83      		std Y+4,r25
 278 01d6 8B83      		std Y+3,r24
 279               	.LM18:
 280 01d8 8C85      		ldd r24,Y+12
 281 01da 807F      		andi r24,lo8(-16)
 282 01dc 8C87      		std Y+12,r24
 283               	.LM19:
 284 01de 8C85      		ldd r24,Y+12
 285 01e0 8823      		tst r24
GAS LISTING C:\Users\alex\AppData\Local\Temp/ccz8HDSg.s 			page 6


 286 01e2 01F4      		brne .L6
 287 01e4 8A85      		ldd r24,Y+10
 288 01e6 882F      		mov r24,r24
 289 01e8 90E0      		ldi r25,lo8(0)
 290 01ea 880F      		lsl r24
 291 01ec 991F      		rol r25
 292 01ee FC01      		movw r30,r24
 293 01f0 E050      		subi r30,lo8(-(pga2311_p_cs))
 294 01f2 F040      		sbci r31,hi8(-(pga2311_p_cs))
 295 01f4 8BE3      		ldi r24,lo8(59)
 296 01f6 90E0      		ldi r25,hi8(59)
 297 01f8 9183      		std Z+1,r25
 298 01fa 8083      		st Z,r24
 299 01fc AAE3      		ldi r26,lo8(58)
 300 01fe B0E0      		ldi r27,hi8(58)
 301 0200 EAE3      		ldi r30,lo8(58)
 302 0202 F0E0      		ldi r31,hi8(58)
 303 0204 9081      		ld r25,Z
 304 0206 8F81      		ldd r24,Y+7
 305 0208 892B      		or r24,r25
 306 020a 8C93      		st X,r24
 307               	.L6:
 308               	.LM20:
 309 020c 8C85      		ldd r24,Y+12
 310 020e 8031      		cpi r24,lo8(16)
 311 0210 01F4      		brne .L7
 312 0212 8A85      		ldd r24,Y+10
 313 0214 882F      		mov r24,r24
 314 0216 90E0      		ldi r25,lo8(0)
 315 0218 880F      		lsl r24
 316 021a 991F      		rol r25
 317 021c FC01      		movw r30,r24
 318 021e E050      		subi r30,lo8(-(pga2311_p_cs))
 319 0220 F040      		sbci r31,hi8(-(pga2311_p_cs))
 320 0222 88E3      		ldi r24,lo8(56)
 321 0224 90E0      		ldi r25,hi8(56)
 322 0226 9183      		std Z+1,r25
 323 0228 8083      		st Z,r24
 324 022a A7E3      		ldi r26,lo8(55)
 325 022c B0E0      		ldi r27,hi8(55)
 326 022e E7E3      		ldi r30,lo8(55)
 327 0230 F0E0      		ldi r31,hi8(55)
 328 0232 9081      		ld r25,Z
 329 0234 8F81      		ldd r24,Y+7
 330 0236 892B      		or r24,r25
 331 0238 8C93      		st X,r24
 332               	.L7:
 333               	.LM21:
 334 023a 8C85      		ldd r24,Y+12
 335 023c 8032      		cpi r24,lo8(32)
 336 023e 01F4      		brne .L8
 337 0240 8A85      		ldd r24,Y+10
 338 0242 882F      		mov r24,r24
 339 0244 90E0      		ldi r25,lo8(0)
 340 0246 880F      		lsl r24
 341 0248 991F      		rol r25
 342 024a FC01      		movw r30,r24
GAS LISTING C:\Users\alex\AppData\Local\Temp/ccz8HDSg.s 			page 7


 343 024c E050      		subi r30,lo8(-(pga2311_p_cs))
 344 024e F040      		sbci r31,hi8(-(pga2311_p_cs))
 345 0250 85E3      		ldi r24,lo8(53)
 346 0252 90E0      		ldi r25,hi8(53)
 347 0254 9183      		std Z+1,r25
 348 0256 8083      		st Z,r24
 349 0258 A4E3      		ldi r26,lo8(52)
 350 025a B0E0      		ldi r27,hi8(52)
 351 025c E4E3      		ldi r30,lo8(52)
 352 025e F0E0      		ldi r31,hi8(52)
 353 0260 9081      		ld r25,Z
 354 0262 8F81      		ldd r24,Y+7
 355 0264 892B      		or r24,r25
 356 0266 8C93      		st X,r24
 357               	.L8:
 358               	.LM22:
 359 0268 8C85      		ldd r24,Y+12
 360 026a 8033      		cpi r24,lo8(48)
 361 026c 01F4      		brne .L9
 362 026e 8A85      		ldd r24,Y+10
 363 0270 882F      		mov r24,r24
 364 0272 90E0      		ldi r25,lo8(0)
 365 0274 880F      		lsl r24
 366 0276 991F      		rol r25
 367 0278 FC01      		movw r30,r24
 368 027a E050      		subi r30,lo8(-(pga2311_p_cs))
 369 027c F040      		sbci r31,hi8(-(pga2311_p_cs))
 370 027e 82E3      		ldi r24,lo8(50)
 371 0280 90E0      		ldi r25,hi8(50)
 372 0282 9183      		std Z+1,r25
 373 0284 8083      		st Z,r24
 374 0286 A1E3      		ldi r26,lo8(49)
 375 0288 B0E0      		ldi r27,hi8(49)
 376 028a E1E3      		ldi r30,lo8(49)
 377 028c F0E0      		ldi r31,hi8(49)
 378 028e 9081      		ld r25,Z
 379 0290 8F81      		ldd r24,Y+7
 380 0292 892B      		or r24,r25
 381 0294 8C93      		st X,r24
 382               	.L9:
 383               	.LM23:
 384 0296 8D85      		ldd r24,Y+13
 385 0298 807F      		andi r24,lo8(-16)
 386 029a 8D87      		std Y+13,r24
 387               	.LM24:
 388 029c 8D85      		ldd r24,Y+13
 389 029e 8823      		tst r24
 390 02a0 01F4      		brne .L10
 391 02a2 8A85      		ldd r24,Y+10
 392 02a4 882F      		mov r24,r24
 393 02a6 90E0      		ldi r25,lo8(0)
 394 02a8 880F      		lsl r24
 395 02aa 991F      		rol r25
 396 02ac FC01      		movw r30,r24
 397 02ae E050      		subi r30,lo8(-(pga2311_p_sdi))
 398 02b0 F040      		sbci r31,hi8(-(pga2311_p_sdi))
 399 02b2 8BE3      		ldi r24,lo8(59)
GAS LISTING C:\Users\alex\AppData\Local\Temp/ccz8HDSg.s 			page 8


 400 02b4 90E0      		ldi r25,hi8(59)
 401 02b6 9183      		std Z+1,r25
 402 02b8 8083      		st Z,r24
 403 02ba AAE3      		ldi r26,lo8(58)
 404 02bc B0E0      		ldi r27,hi8(58)
 405 02be EAE3      		ldi r30,lo8(58)
 406 02c0 F0E0      		ldi r31,hi8(58)
 407 02c2 9081      		ld r25,Z
 408 02c4 8885      		ldd r24,Y+8
 409 02c6 892B      		or r24,r25
 410 02c8 8C93      		st X,r24
 411               	.L10:
 412               	.LM25:
 413 02ca 8D85      		ldd r24,Y+13
 414 02cc 8031      		cpi r24,lo8(16)
 415 02ce 01F4      		brne .L11
 416 02d0 8A85      		ldd r24,Y+10
 417 02d2 882F      		mov r24,r24
 418 02d4 90E0      		ldi r25,lo8(0)
 419 02d6 880F      		lsl r24
 420 02d8 991F      		rol r25
 421 02da FC01      		movw r30,r24
 422 02dc E050      		subi r30,lo8(-(pga2311_p_sdi))
 423 02de F040      		sbci r31,hi8(-(pga2311_p_sdi))
 424 02e0 88E3      		ldi r24,lo8(56)
 425 02e2 90E0      		ldi r25,hi8(56)
 426 02e4 9183      		std Z+1,r25
 427 02e6 8083      		st Z,r24
 428 02e8 A7E3      		ldi r26,lo8(55)
 429 02ea B0E0      		ldi r27,hi8(55)
 430 02ec E7E3      		ldi r30,lo8(55)
 431 02ee F0E0      		ldi r31,hi8(55)
 432 02f0 9081      		ld r25,Z
 433 02f2 8885      		ldd r24,Y+8
 434 02f4 892B      		or r24,r25
 435 02f6 8C93      		st X,r24
 436               	.L11:
 437               	.LM26:
 438 02f8 8D85      		ldd r24,Y+13
 439 02fa 8032      		cpi r24,lo8(32)
 440 02fc 01F4      		brne .L12
 441 02fe 8A85      		ldd r24,Y+10
 442 0300 882F      		mov r24,r24
 443 0302 90E0      		ldi r25,lo8(0)
 444 0304 880F      		lsl r24
 445 0306 991F      		rol r25
 446 0308 FC01      		movw r30,r24
 447 030a E050      		subi r30,lo8(-(pga2311_p_sdi))
 448 030c F040      		sbci r31,hi8(-(pga2311_p_sdi))
 449 030e 85E3      		ldi r24,lo8(53)
 450 0310 90E0      		ldi r25,hi8(53)
 451 0312 9183      		std Z+1,r25
 452 0314 8083      		st Z,r24
 453 0316 A4E3      		ldi r26,lo8(52)
 454 0318 B0E0      		ldi r27,hi8(52)
 455 031a E4E3      		ldi r30,lo8(52)
 456 031c F0E0      		ldi r31,hi8(52)
GAS LISTING C:\Users\alex\AppData\Local\Temp/ccz8HDSg.s 			page 9


 457 031e 9081      		ld r25,Z
 458 0320 8885      		ldd r24,Y+8
 459 0322 892B      		or r24,r25
 460 0324 8C93      		st X,r24
 461               	.L12:
 462               	.LM27:
 463 0326 8D85      		ldd r24,Y+13
 464 0328 8033      		cpi r24,lo8(48)
 465 032a 01F4      		brne .L13
 466 032c 8A85      		ldd r24,Y+10
 467 032e 882F      		mov r24,r24
 468 0330 90E0      		ldi r25,lo8(0)
 469 0332 880F      		lsl r24
 470 0334 991F      		rol r25
 471 0336 FC01      		movw r30,r24
 472 0338 E050      		subi r30,lo8(-(pga2311_p_sdi))
 473 033a F040      		sbci r31,hi8(-(pga2311_p_sdi))
 474 033c 82E3      		ldi r24,lo8(50)
 475 033e 90E0      		ldi r25,hi8(50)
 476 0340 9183      		std Z+1,r25
 477 0342 8083      		st Z,r24
 478 0344 A1E3      		ldi r26,lo8(49)
 479 0346 B0E0      		ldi r27,hi8(49)
 480 0348 E1E3      		ldi r30,lo8(49)
 481 034a F0E0      		ldi r31,hi8(49)
 482 034c 9081      		ld r25,Z
 483 034e 8885      		ldd r24,Y+8
 484 0350 892B      		or r24,r25
 485 0352 8C93      		st X,r24
 486               	.L13:
 487               	.LM28:
 488 0354 8E85      		ldd r24,Y+14
 489 0356 807F      		andi r24,lo8(-16)
 490 0358 8E87      		std Y+14,r24
 491               	.LM29:
 492 035a 8E85      		ldd r24,Y+14
 493 035c 8823      		tst r24
 494 035e 01F4      		brne .L14
 495 0360 8A85      		ldd r24,Y+10
 496 0362 882F      		mov r24,r24
 497 0364 90E0      		ldi r25,lo8(0)
 498 0366 880F      		lsl r24
 499 0368 991F      		rol r25
 500 036a FC01      		movw r30,r24
 501 036c E050      		subi r30,lo8(-(pga2311_p_clk))
 502 036e F040      		sbci r31,hi8(-(pga2311_p_clk))
 503 0370 8BE3      		ldi r24,lo8(59)
 504 0372 90E0      		ldi r25,hi8(59)
 505 0374 9183      		std Z+1,r25
 506 0376 8083      		st Z,r24
 507 0378 AAE3      		ldi r26,lo8(58)
 508 037a B0E0      		ldi r27,hi8(58)
 509 037c EAE3      		ldi r30,lo8(58)
 510 037e F0E0      		ldi r31,hi8(58)
 511 0380 9081      		ld r25,Z
 512 0382 8E81      		ldd r24,Y+6
 513 0384 892B      		or r24,r25
GAS LISTING C:\Users\alex\AppData\Local\Temp/ccz8HDSg.s 			page 10


 514 0386 8C93      		st X,r24
 515               	.L14:
 516               	.LM30:
 517 0388 8E85      		ldd r24,Y+14
 518 038a 8031      		cpi r24,lo8(16)
 519 038c 01F4      		brne .L15
 520 038e 8A85      		ldd r24,Y+10
 521 0390 882F      		mov r24,r24
 522 0392 90E0      		ldi r25,lo8(0)
 523 0394 880F      		lsl r24
 524 0396 991F      		rol r25
 525 0398 FC01      		movw r30,r24
 526 039a E050      		subi r30,lo8(-(pga2311_p_clk))
 527 039c F040      		sbci r31,hi8(-(pga2311_p_clk))
 528 039e 88E3      		ldi r24,lo8(56)
 529 03a0 90E0      		ldi r25,hi8(56)
 530 03a2 9183      		std Z+1,r25
 531 03a4 8083      		st Z,r24
 532 03a6 A7E3      		ldi r26,lo8(55)
 533 03a8 B0E0      		ldi r27,hi8(55)
 534 03aa E7E3      		ldi r30,lo8(55)
 535 03ac F0E0      		ldi r31,hi8(55)
 536 03ae 9081      		ld r25,Z
 537 03b0 8E81      		ldd r24,Y+6
 538 03b2 892B      		or r24,r25
 539 03b4 8C93      		st X,r24
 540               	.L15:
 541               	.LM31:
 542 03b6 8E85      		ldd r24,Y+14
 543 03b8 8032      		cpi r24,lo8(32)
 544 03ba 01F4      		brne .L16
 545 03bc 8A85      		ldd r24,Y+10
 546 03be 882F      		mov r24,r24
 547 03c0 90E0      		ldi r25,lo8(0)
 548 03c2 880F      		lsl r24
 549 03c4 991F      		rol r25
 550 03c6 FC01      		movw r30,r24
 551 03c8 E050      		subi r30,lo8(-(pga2311_p_clk))
 552 03ca F040      		sbci r31,hi8(-(pga2311_p_clk))
 553 03cc 85E3      		ldi r24,lo8(53)
 554 03ce 90E0      		ldi r25,hi8(53)
 555 03d0 9183      		std Z+1,r25
 556 03d2 8083      		st Z,r24
 557 03d4 A4E3      		ldi r26,lo8(52)
 558 03d6 B0E0      		ldi r27,hi8(52)
 559 03d8 E4E3      		ldi r30,lo8(52)
 560 03da F0E0      		ldi r31,hi8(52)
 561 03dc 9081      		ld r25,Z
 562 03de 8E81      		ldd r24,Y+6
 563 03e0 892B      		or r24,r25
 564 03e2 8C93      		st X,r24
 565               	.L16:
 566               	.LM32:
 567 03e4 8E85      		ldd r24,Y+14
 568 03e6 8033      		cpi r24,lo8(48)
 569 03e8 01F4      		brne .L17
 570 03ea 8A85      		ldd r24,Y+10
GAS LISTING C:\Users\alex\AppData\Local\Temp/ccz8HDSg.s 			page 11


 571 03ec 882F      		mov r24,r24
 572 03ee 90E0      		ldi r25,lo8(0)
 573 03f0 880F      		lsl r24
 574 03f2 991F      		rol r25
 575 03f4 FC01      		movw r30,r24
 576 03f6 E050      		subi r30,lo8(-(pga2311_p_clk))
 577 03f8 F040      		sbci r31,hi8(-(pga2311_p_clk))
 578 03fa 82E3      		ldi r24,lo8(50)
 579 03fc 90E0      		ldi r25,hi8(50)
 580 03fe 9183      		std Z+1,r25
 581 0400 8083      		st Z,r24
 582 0402 A1E3      		ldi r26,lo8(49)
 583 0404 B0E0      		ldi r27,hi8(49)
 584 0406 E1E3      		ldi r30,lo8(49)
 585 0408 F0E0      		ldi r31,hi8(49)
 586 040a 9081      		ld r25,Z
 587 040c 8E81      		ldd r24,Y+6
 588 040e 892B      		or r24,r25
 589 0410 8C93      		st X,r24
 590               	.L17:
 591               	.LM33:
 592 0412 8F85      		ldd r24,Y+15
 593 0414 807F      		andi r24,lo8(-16)
 594 0416 8F87      		std Y+15,r24
 595               	.LM34:
 596 0418 8F85      		ldd r24,Y+15
 597 041a 8823      		tst r24
 598 041c 01F4      		brne .L18
 599 041e 8A85      		ldd r24,Y+10
 600 0420 882F      		mov r24,r24
 601 0422 90E0      		ldi r25,lo8(0)
 602 0424 880F      		lsl r24
 603 0426 991F      		rol r25
 604 0428 FC01      		movw r30,r24
 605 042a E050      		subi r30,lo8(-(pga2311_p_mute))
 606 042c F040      		sbci r31,hi8(-(pga2311_p_mute))
 607 042e 8BE3      		ldi r24,lo8(59)
 608 0430 90E0      		ldi r25,hi8(59)
 609 0432 9183      		std Z+1,r25
 610 0434 8083      		st Z,r24
 611 0436 AAE3      		ldi r26,lo8(58)
 612 0438 B0E0      		ldi r27,hi8(58)
 613 043a EAE3      		ldi r30,lo8(58)
 614 043c F0E0      		ldi r31,hi8(58)
 615 043e 9081      		ld r25,Z
 616 0440 8D81      		ldd r24,Y+5
 617 0442 892B      		or r24,r25
 618 0444 8C93      		st X,r24
 619               	.L18:
 620               	.LM35:
 621 0446 8F85      		ldd r24,Y+15
 622 0448 8031      		cpi r24,lo8(16)
 623 044a 01F4      		brne .L19
 624 044c 8A85      		ldd r24,Y+10
 625 044e 882F      		mov r24,r24
 626 0450 90E0      		ldi r25,lo8(0)
 627 0452 880F      		lsl r24
GAS LISTING C:\Users\alex\AppData\Local\Temp/ccz8HDSg.s 			page 12


 628 0454 991F      		rol r25
 629 0456 FC01      		movw r30,r24
 630 0458 E050      		subi r30,lo8(-(pga2311_p_mute))
 631 045a F040      		sbci r31,hi8(-(pga2311_p_mute))
 632 045c 88E3      		ldi r24,lo8(56)
 633 045e 90E0      		ldi r25,hi8(56)
 634 0460 9183      		std Z+1,r25
 635 0462 8083      		st Z,r24
 636 0464 A7E3      		ldi r26,lo8(55)
 637 0466 B0E0      		ldi r27,hi8(55)
 638 0468 E7E3      		ldi r30,lo8(55)
 639 046a F0E0      		ldi r31,hi8(55)
 640 046c 9081      		ld r25,Z
 641 046e 8D81      		ldd r24,Y+5
 642 0470 892B      		or r24,r25
 643 0472 8C93      		st X,r24
 644               	.L19:
 645               	.LM36:
 646 0474 8F85      		ldd r24,Y+15
 647 0476 8032      		cpi r24,lo8(32)
 648 0478 01F4      		brne .L20
 649 047a 8A85      		ldd r24,Y+10
 650 047c 882F      		mov r24,r24
 651 047e 90E0      		ldi r25,lo8(0)
 652 0480 880F      		lsl r24
 653 0482 991F      		rol r25
 654 0484 FC01      		movw r30,r24
 655 0486 E050      		subi r30,lo8(-(pga2311_p_mute))
 656 0488 F040      		sbci r31,hi8(-(pga2311_p_mute))
 657 048a 85E3      		ldi r24,lo8(53)
 658 048c 90E0      		ldi r25,hi8(53)
 659 048e 9183      		std Z+1,r25
 660 0490 8083      		st Z,r24
 661 0492 A4E3      		ldi r26,lo8(52)
 662 0494 B0E0      		ldi r27,hi8(52)
 663 0496 E4E3      		ldi r30,lo8(52)
 664 0498 F0E0      		ldi r31,hi8(52)
 665 049a 9081      		ld r25,Z
 666 049c 8D81      		ldd r24,Y+5
 667 049e 892B      		or r24,r25
 668 04a0 8C93      		st X,r24
 669               	.L20:
 670               	.LM37:
 671 04a2 8F85      		ldd r24,Y+15
 672 04a4 8033      		cpi r24,lo8(48)
 673 04a6 01F4      		brne .L21
 674 04a8 8A85      		ldd r24,Y+10
 675 04aa 882F      		mov r24,r24
 676 04ac 90E0      		ldi r25,lo8(0)
 677 04ae 880F      		lsl r24
 678 04b0 991F      		rol r25
 679 04b2 FC01      		movw r30,r24
 680 04b4 E050      		subi r30,lo8(-(pga2311_p_mute))
 681 04b6 F040      		sbci r31,hi8(-(pga2311_p_mute))
 682 04b8 82E3      		ldi r24,lo8(50)
 683 04ba 90E0      		ldi r25,hi8(50)
 684 04bc 9183      		std Z+1,r25
GAS LISTING C:\Users\alex\AppData\Local\Temp/ccz8HDSg.s 			page 13


 685 04be 8083      		st Z,r24
 686 04c0 A1E3      		ldi r26,lo8(49)
 687 04c2 B0E0      		ldi r27,hi8(49)
 688 04c4 E1E3      		ldi r30,lo8(49)
 689 04c6 F0E0      		ldi r31,hi8(49)
 690 04c8 9081      		ld r25,Z
 691 04ca 8D81      		ldd r24,Y+5
 692 04cc 892B      		or r24,r25
 693 04ce 8C93      		st X,r24
 694               	.L21:
 695               	.LM38:
 696 04d0 8A85      		ldd r24,Y+10
 697 04d2 882F      		mov r24,r24
 698 04d4 90E0      		ldi r25,lo8(0)
 699 04d6 880F      		lsl r24
 700 04d8 991F      		rol r25
 701 04da FC01      		movw r30,r24
 702 04dc E050      		subi r30,lo8(-(pga2311_p_mute))
 703 04de F040      		sbci r31,hi8(-(pga2311_p_mute))
 704 04e0 8081      		ld r24,Z
 705 04e2 9181      		ldd r25,Z+1
 706 04e4 9A83      		std Y+2,r25
 707 04e6 8983      		std Y+1,r24
 708               	/* epilogue start */
 709               	.LM39:
 710 04e8 2F96      		adiw r28,15
 711 04ea 0FB6      		in __tmp_reg__,__SREG__
 712 04ec F894      		cli
 713 04ee DEBF      		out __SP_H__,r29
 714 04f0 0FBE      		out __SREG__,__tmp_reg__
 715 04f2 CDBF      		out __SP_L__,r28
 716 04f4 CF91      		pop r28
 717 04f6 DF91      		pop r29
 718 04f8 0F91      		pop r16
 719 04fa EF90      		pop r14
 720 04fc 0895      		ret
 721               	.LFE2:
 722               		.size	pga2311_setup, .-pga2311_setup
 723               	.global	pga2311_init
 724               		.type	pga2311_init, @function
 725               	pga2311_init:
 726               	.LFB3:
 727               	.LM40:
 728 04fe DF93      		push r29
 729 0500 CF93      		push r28
 730 0502 CDB7      		in r28,__SP_L__
 731 0504 DEB7      		in r29,__SP_H__
 732 0506 2797      		sbiw r28,7
 733 0508 0FB6      		in __tmp_reg__,__SREG__
 734 050a F894      		cli
 735 050c DEBF      		out __SP_H__,r29
 736 050e 0FBE      		out __SREG__,__tmp_reg__
 737 0510 CDBF      		out __SP_L__,r28
 738               	/* prologue: function */
 739               	/* frame size = 7 */
 740 0512 8F83      		std Y+7,r24
 741               	.LM41:
GAS LISTING C:\Users\alex\AppData\Local\Temp/ccz8HDSg.s 			page 14


 742 0514 8F81      		ldd r24,Y+7
 743 0516 882F      		mov r24,r24
 744 0518 90E0      		ldi r25,lo8(0)
 745 051a FC01      		movw r30,r24
 746 051c E050      		subi r30,lo8(-(pga2311_b_zcen))
 747 051e F040      		sbci r31,hi8(-(pga2311_b_zcen))
 748 0520 8081      		ld r24,Z
 749 0522 8E83      		std Y+6,r24
 750               	.LM42:
 751 0524 8F81      		ldd r24,Y+7
 752 0526 882F      		mov r24,r24
 753 0528 90E0      		ldi r25,lo8(0)
 754 052a FC01      		movw r30,r24
 755 052c E050      		subi r30,lo8(-(pga2311_b_mute))
 756 052e F040      		sbci r31,hi8(-(pga2311_b_mute))
 757 0530 8081      		ld r24,Z
 758 0532 8D83      		std Y+5,r24
 759               	.LM43:
 760 0534 8F81      		ldd r24,Y+7
 761 0536 882F      		mov r24,r24
 762 0538 90E0      		ldi r25,lo8(0)
 763 053a 880F      		lsl r24
 764 053c 991F      		rol r25
 765 053e FC01      		movw r30,r24
 766 0540 E050      		subi r30,lo8(-(pga2311_p_zcen))
 767 0542 F040      		sbci r31,hi8(-(pga2311_p_zcen))
 768 0544 8081      		ld r24,Z
 769 0546 9181      		ldd r25,Z+1
 770 0548 9C83      		std Y+4,r25
 771 054a 8B83      		std Y+3,r24
 772               	.LM44:
 773 054c 8F81      		ldd r24,Y+7
 774 054e 882F      		mov r24,r24
 775 0550 90E0      		ldi r25,lo8(0)
 776 0552 880F      		lsl r24
 777 0554 991F      		rol r25
 778 0556 FC01      		movw r30,r24
 779 0558 E050      		subi r30,lo8(-(pga2311_p_mute))
 780 055a F040      		sbci r31,hi8(-(pga2311_p_mute))
 781 055c 8081      		ld r24,Z
 782 055e 9181      		ldd r25,Z+1
 783 0560 9A83      		std Y+2,r25
 784 0562 8983      		std Y+1,r24
 785               	.LM45:
 786 0564 EB81      		ldd r30,Y+3
 787 0566 FC81      		ldd r31,Y+4
 788 0568 9081      		ld r25,Z
 789 056a 8E81      		ldd r24,Y+6
 790 056c 892B      		or r24,r25
 791 056e EB81      		ldd r30,Y+3
 792 0570 FC81      		ldd r31,Y+4
 793 0572 8083      		st Z,r24
 794               	.LM46:
 795 0574 E981      		ldd r30,Y+1
 796 0576 FA81      		ldd r31,Y+2
 797 0578 9081      		ld r25,Z
 798 057a 8D81      		ldd r24,Y+5
GAS LISTING C:\Users\alex\AppData\Local\Temp/ccz8HDSg.s 			page 15


 799 057c 892B      		or r24,r25
 800 057e E981      		ldd r30,Y+1
 801 0580 FA81      		ldd r31,Y+2
 802 0582 8083      		st Z,r24
 803               	/* epilogue start */
 804               	.LM47:
 805 0584 2796      		adiw r28,7
 806 0586 0FB6      		in __tmp_reg__,__SREG__
 807 0588 F894      		cli
 808 058a DEBF      		out __SP_H__,r29
 809 058c 0FBE      		out __SREG__,__tmp_reg__
 810 058e CDBF      		out __SP_L__,r28
 811 0590 CF91      		pop r28
 812 0592 DF91      		pop r29
 813 0594 0895      		ret
 814               	.LFE3:
 815               		.size	pga2311_init, .-pga2311_init
 816               	.global	pga2311_mute
 817               		.type	pga2311_mute, @function
 818               	pga2311_mute:
 819               	.LFB4:
 820               	.LM48:
 821 0596 DF93      		push r29
 822 0598 CF93      		push r28
 823 059a 00D0      		rcall .
 824 059c 00D0      		rcall .
 825 059e 0F92      		push __tmp_reg__
 826 05a0 CDB7      		in r28,__SP_L__
 827 05a2 DEB7      		in r29,__SP_H__
 828               	/* prologue: function */
 829               	/* frame size = 5 */
 830 05a4 8C83      		std Y+4,r24
 831 05a6 6D83      		std Y+5,r22
 832               	.LM49:
 833 05a8 8C81      		ldd r24,Y+4
 834 05aa 882F      		mov r24,r24
 835 05ac 90E0      		ldi r25,lo8(0)
 836 05ae FC01      		movw r30,r24
 837 05b0 E050      		subi r30,lo8(-(pga2311_b_mute))
 838 05b2 F040      		sbci r31,hi8(-(pga2311_b_mute))
 839 05b4 8081      		ld r24,Z
 840 05b6 8B83      		std Y+3,r24
 841               	.LM50:
 842 05b8 8C81      		ldd r24,Y+4
 843 05ba 882F      		mov r24,r24
 844 05bc 90E0      		ldi r25,lo8(0)
 845 05be 880F      		lsl r24
 846 05c0 991F      		rol r25
 847 05c2 FC01      		movw r30,r24
 848 05c4 E050      		subi r30,lo8(-(pga2311_p_mute))
 849 05c6 F040      		sbci r31,hi8(-(pga2311_p_mute))
 850 05c8 8081      		ld r24,Z
 851 05ca 9181      		ldd r25,Z+1
 852 05cc 9A83      		std Y+2,r25
 853 05ce 8983      		std Y+1,r24
 854               	.LM51:
 855 05d0 8D81      		ldd r24,Y+5
GAS LISTING C:\Users\alex\AppData\Local\Temp/ccz8HDSg.s 			page 16


 856 05d2 8823      		tst r24
 857 05d4 01F0      		breq .L26
 858 05d6 E981      		ldd r30,Y+1
 859 05d8 FA81      		ldd r31,Y+2
 860 05da 9081      		ld r25,Z
 861 05dc 8B81      		ldd r24,Y+3
 862 05de 892B      		or r24,r25
 863 05e0 E981      		ldd r30,Y+1
 864 05e2 FA81      		ldd r31,Y+2
 865 05e4 8083      		st Z,r24
 866 05e6 00C0      		rjmp .L28
 867               	.L26:
 868               	.LM52:
 869 05e8 E981      		ldd r30,Y+1
 870 05ea FA81      		ldd r31,Y+2
 871 05ec 8081      		ld r24,Z
 872 05ee 982F      		mov r25,r24
 873 05f0 8B81      		ldd r24,Y+3
 874 05f2 8095      		com r24
 875 05f4 8923      		and r24,r25
 876 05f6 E981      		ldd r30,Y+1
 877 05f8 FA81      		ldd r31,Y+2
 878 05fa 8083      		st Z,r24
 879               	.L28:
 880               	/* epilogue start */
 881               	.LM53:
 882 05fc 0F90      		pop __tmp_reg__
 883 05fe 0F90      		pop __tmp_reg__
 884 0600 0F90      		pop __tmp_reg__
 885 0602 0F90      		pop __tmp_reg__
 886 0604 0F90      		pop __tmp_reg__
 887 0606 CF91      		pop r28
 888 0608 DF91      		pop r29
 889 060a 0895      		ret
 890               	.LFE4:
 891               		.size	pga2311_mute, .-pga2311_mute
 892               	.global	pga2311_set_gain
 893               		.type	pga2311_set_gain, @function
 894               	pga2311_set_gain:
 895               	.LFB5:
 896               	.LM54:
 897 060c DF93      		push r29
 898 060e CF93      		push r28
 899 0610 CDB7      		in r28,__SP_L__
 900 0612 DEB7      		in r29,__SP_H__
 901 0614 2D97      		sbiw r28,13
 902 0616 0FB6      		in __tmp_reg__,__SREG__
 903 0618 F894      		cli
 904 061a DEBF      		out __SP_H__,r29
 905 061c 0FBE      		out __SREG__,__tmp_reg__
 906 061e CDBF      		out __SP_L__,r28
 907               	/* prologue: function */
 908               	/* frame size = 13 */
 909 0620 8B87      		std Y+11,r24
 910 0622 6C87      		std Y+12,r22
 911 0624 4D87      		std Y+13,r20
 912               	.LM55:
GAS LISTING C:\Users\alex\AppData\Local\Temp/ccz8HDSg.s 			page 17


 913 0626 8B85      		ldd r24,Y+11
 914 0628 882F      		mov r24,r24
 915 062a 90E0      		ldi r25,lo8(0)
 916 062c 880F      		lsl r24
 917 062e 991F      		rol r25
 918 0630 FC01      		movw r30,r24
 919 0632 E050      		subi r30,lo8(-(pga2311_p_clk))
 920 0634 F040      		sbci r31,hi8(-(pga2311_p_clk))
 921 0636 8081      		ld r24,Z
 922 0638 9181      		ldd r25,Z+1
 923 063a 9A83      		std Y+2,r25
 924 063c 8983      		std Y+1,r24
 925               	.LM56:
 926 063e 8B85      		ldd r24,Y+11
 927 0640 882F      		mov r24,r24
 928 0642 90E0      		ldi r25,lo8(0)
 929 0644 880F      		lsl r24
 930 0646 991F      		rol r25
 931 0648 FC01      		movw r30,r24
 932 064a E050      		subi r30,lo8(-(pga2311_p_sdi))
 933 064c F040      		sbci r31,hi8(-(pga2311_p_sdi))
 934 064e 8081      		ld r24,Z
 935 0650 9181      		ldd r25,Z+1
 936 0652 9E83      		std Y+6,r25
 937 0654 8D83      		std Y+5,r24
 938               	.LM57:
 939 0656 8B85      		ldd r24,Y+11
 940 0658 882F      		mov r24,r24
 941 065a 90E0      		ldi r25,lo8(0)
 942 065c 880F      		lsl r24
 943 065e 991F      		rol r25
 944 0660 FC01      		movw r30,r24
 945 0662 E050      		subi r30,lo8(-(pga2311_p_cs))
 946 0664 F040      		sbci r31,hi8(-(pga2311_p_cs))
 947 0666 8081      		ld r24,Z
 948 0668 9181      		ldd r25,Z+1
 949 066a 9C83      		std Y+4,r25
 950 066c 8B83      		std Y+3,r24
 951               	.LM58:
 952 066e 8B85      		ldd r24,Y+11
 953 0670 882F      		mov r24,r24
 954 0672 90E0      		ldi r25,lo8(0)
 955 0674 FC01      		movw r30,r24
 956 0676 E050      		subi r30,lo8(-(pga2311_b_clk))
 957 0678 F040      		sbci r31,hi8(-(pga2311_b_clk))
 958 067a 8081      		ld r24,Z
 959 067c 8F83      		std Y+7,r24
 960               	.LM59:
 961 067e 8B85      		ldd r24,Y+11
 962 0680 882F      		mov r24,r24
 963 0682 90E0      		ldi r25,lo8(0)
 964 0684 FC01      		movw r30,r24
 965 0686 E050      		subi r30,lo8(-(pga2311_b_sdi))
 966 0688 F040      		sbci r31,hi8(-(pga2311_b_sdi))
 967 068a 8081      		ld r24,Z
 968 068c 8987      		std Y+9,r24
 969               	.LM60:
GAS LISTING C:\Users\alex\AppData\Local\Temp/ccz8HDSg.s 			page 18


 970 068e 8B85      		ldd r24,Y+11
 971 0690 882F      		mov r24,r24
 972 0692 90E0      		ldi r25,lo8(0)
 973 0694 FC01      		movw r30,r24
 974 0696 E050      		subi r30,lo8(-(pga2311_b_cs))
 975 0698 F040      		sbci r31,hi8(-(pga2311_b_cs))
 976 069a 8081      		ld r24,Z
 977 069c 8887      		std Y+8,r24
 978               	.LM61:
 979 069e ED81      		ldd r30,Y+5
 980 06a0 FE81      		ldd r31,Y+6
 981 06a2 8081      		ld r24,Z
 982 06a4 982F      		mov r25,r24
 983 06a6 8985      		ldd r24,Y+9
 984 06a8 8095      		com r24
 985 06aa 8923      		and r24,r25
 986 06ac ED81      		ldd r30,Y+5
 987 06ae FE81      		ldd r31,Y+6
 988 06b0 8083      		st Z,r24
 989               	.LM62:
 990 06b2 E981      		ldd r30,Y+1
 991 06b4 FA81      		ldd r31,Y+2
 992 06b6 8081      		ld r24,Z
 993 06b8 982F      		mov r25,r24
 994 06ba 8F81      		ldd r24,Y+7
 995 06bc 8095      		com r24
 996 06be 8923      		and r24,r25
 997 06c0 E981      		ldd r30,Y+1
 998 06c2 FA81      		ldd r31,Y+2
 999 06c4 8083      		st Z,r24
 1000               	.LM63:
 1001 06c6 EB81      		ldd r30,Y+3
 1002 06c8 FC81      		ldd r31,Y+4
 1003 06ca 8081      		ld r24,Z
 1004 06cc 982F      		mov r25,r24
 1005 06ce 8885      		ldd r24,Y+8
 1006 06d0 8095      		com r24
 1007 06d2 8923      		and r24,r25
 1008 06d4 EB81      		ldd r30,Y+3
 1009 06d6 FC81      		ldd r31,Y+4
 1010 06d8 8083      		st Z,r24
 1011               	.LM64:
 1012 06da 87E0      		ldi r24,lo8(7)
 1013 06dc 8A87      		std Y+10,r24
 1014               	.L32:
 1015               	.LM65:
 1016 06de 8D85      		ldd r24,Y+13
 1017 06e0 8823      		tst r24
 1018 06e2 04F4      		brge .L30
 1019               	.LM66:
 1020 06e4 ED81      		ldd r30,Y+5
 1021 06e6 FE81      		ldd r31,Y+6
 1022 06e8 9081      		ld r25,Z
 1023 06ea 8985      		ldd r24,Y+9
 1024 06ec 892B      		or r24,r25
 1025 06ee ED81      		ldd r30,Y+5
 1026 06f0 FE81      		ldd r31,Y+6
GAS LISTING C:\Users\alex\AppData\Local\Temp/ccz8HDSg.s 			page 19


 1027 06f2 8083      		st Z,r24
 1028 06f4 00C0      		rjmp .L31
 1029               	.L30:
 1030               	.LM67:
 1031 06f6 ED81      		ldd r30,Y+5
 1032 06f8 FE81      		ldd r31,Y+6
 1033 06fa 8081      		ld r24,Z
 1034 06fc 982F      		mov r25,r24
 1035 06fe 8985      		ldd r24,Y+9
 1036 0700 8095      		com r24
 1037 0702 8923      		and r24,r25
 1038 0704 ED81      		ldd r30,Y+5
 1039 0706 FE81      		ldd r31,Y+6
 1040 0708 8083      		st Z,r24
 1041               	.L31:
 1042               	.LM68:
 1043 070a E981      		ldd r30,Y+1
 1044 070c FA81      		ldd r31,Y+2
 1045 070e 9081      		ld r25,Z
 1046 0710 8F81      		ldd r24,Y+7
 1047 0712 892B      		or r24,r25
 1048 0714 E981      		ldd r30,Y+1
 1049 0716 FA81      		ldd r31,Y+2
 1050 0718 8083      		st Z,r24
 1051               	.LM69:
 1052 071a 8D85      		ldd r24,Y+13
 1053 071c 880F      		lsl r24
 1054 071e 8D87      		std Y+13,r24
 1055               	.LM70:
 1056 0720 E981      		ldd r30,Y+1
 1057 0722 FA81      		ldd r31,Y+2
 1058 0724 8081      		ld r24,Z
 1059 0726 982F      		mov r25,r24
 1060 0728 8F81      		ldd r24,Y+7
 1061 072a 8095      		com r24
 1062 072c 8923      		and r24,r25
 1063 072e E981      		ldd r30,Y+1
 1064 0730 FA81      		ldd r31,Y+2
 1065 0732 8083      		st Z,r24
 1066               	.LM71:
 1067 0734 8A85      		ldd r24,Y+10
 1068 0736 8150      		subi r24,lo8(-(-1))
 1069 0738 8A87      		std Y+10,r24
 1070 073a 00C0      		rjmp .L32
 1071               	.LFE5:
 1072               		.size	pga2311_set_gain, .-pga2311_set_gain
 1073               		.comm pga2311_p_zcen,20,1
 1074               		.comm pga2311_p_cs,20,1
 1075               		.comm pga2311_p_sdi,20,1
 1076               		.comm pga2311_p_clk,20,1
 1077               		.comm pga2311_p_mute,20,1
 1078               		.comm pga2311_b_zcen,10,1
 1079               		.comm pga2311_b_cs,10,1
 1080               		.comm pga2311_b_sdi,10,1
 1081               		.comm pga2311_b_clk,10,1
 1082               		.comm pga2311_b_mute,10,1
 1083               		.section	.debug_frame,"",@progbits
GAS LISTING C:\Users\alex\AppData\Local\Temp/ccz8HDSg.s 			page 20


 1084               	.Lframe0:
 1085 0000 0C00 0000 		.long	.LECIE0-.LSCIE0
 1086               	.LSCIE0:
 1087 0004 FFFF FFFF 		.long	0xffffffff
 1088 0008 01        		.byte	0x1
 1089 0009 00        		.string	""
 1090 000a 01        		.uleb128 0x1
 1091 000b 7F        		.sleb128 -1
 1092 000c 24        		.byte	0x24
 1093 000d 0C        		.byte	0xc
 1094 000e 20        		.uleb128 0x20
 1095 000f 00        		.uleb128 0x0
 1096               		.p2align	2
 1097               	.LECIE0:
 1098               	.LSFDE0:
 1099 0010 0C00 0000 		.long	.LEFDE0-.LASFDE0
 1100               	.LASFDE0:
 1101 0014 0000 0000 		.long	.Lframe0
 1102 0018 0000 0000 		.long	.LFB2
 1103 001c FE04 0000 		.long	.LFE2-.LFB2
 1104               		.p2align	2
 1105               	.LEFDE0:
 1106               	.LSFDE2:
 1107 0020 0C00 0000 		.long	.LEFDE2-.LASFDE2
 1108               	.LASFDE2:
 1109 0024 0000 0000 		.long	.Lframe0
 1110 0028 0000 0000 		.long	.LFB3
 1111 002c 9800 0000 		.long	.LFE3-.LFB3
 1112               		.p2align	2
 1113               	.LEFDE2:
 1114               	.LSFDE4:
 1115 0030 0C00 0000 		.long	.LEFDE4-.LASFDE4
 1116               	.LASFDE4:
 1117 0034 0000 0000 		.long	.Lframe0
 1118 0038 0000 0000 		.long	.LFB4
 1119 003c 7600 0000 		.long	.LFE4-.LFB4
 1120               		.p2align	2
 1121               	.LEFDE4:
 1122               	.LSFDE6:
 1123 0040 0C00 0000 		.long	.LEFDE6-.LASFDE6
 1124               	.LASFDE6:
 1125 0044 0000 0000 		.long	.Lframe0
 1126 0048 0000 0000 		.long	.LFB5
 1127 004c 3001 0000 		.long	.LFE5-.LFB5
 1128               		.p2align	2
 1129               	.LEFDE6:
 1130               		.text
 1131               	.Letext0:
 1132               		.section	.debug_info
 1133 0000 7603 0000 		.long	0x376
 1134 0004 0200      		.word	0x2
 1135 0006 0000 0000 		.long	.Ldebug_abbrev0
 1136 000a 04        		.byte	0x4
 1137 000b 01        		.uleb128 0x1
 1138 000c 0000 0000 		.long	.LASF36
 1139 0010 01        		.byte	0x1
 1140 0011 0000 0000 		.long	.LASF37
GAS LISTING C:\Users\alex\AppData\Local\Temp/ccz8HDSg.s 			page 21


 1141 0015 0000 0000 		.long	.LASF38
 1142 0019 0000 0000 		.long	.Ltext0
 1143 001d 0000 0000 		.long	.Letext0
 1144 0021 0000 0000 		.long	.Ldebug_line0
 1145 0025 02        		.uleb128 0x2
 1146 0026 0000 0000 		.long	.LASF0
 1147 002a 02        		.byte	0x2
 1148 002b 79        		.byte	0x79
 1149 002c 3000 0000 		.long	0x30
 1150 0030 03        		.uleb128 0x3
 1151 0031 01        		.byte	0x1
 1152 0032 06        		.byte	0x6
 1153 0033 0000 0000 		.long	.LASF2
 1154 0037 02        		.uleb128 0x2
 1155 0038 0000 0000 		.long	.LASF1
 1156 003c 02        		.byte	0x2
 1157 003d 7A        		.byte	0x7a
 1158 003e 4200 0000 		.long	0x42
 1159 0042 03        		.uleb128 0x3
 1160 0043 01        		.byte	0x1
 1161 0044 08        		.byte	0x8
 1162 0045 0000 0000 		.long	.LASF3
 1163 0049 04        		.uleb128 0x4
 1164 004a 02        		.byte	0x2
 1165 004b 05        		.byte	0x5
 1166 004c 696E 7400 		.string	"int"
 1167 0050 03        		.uleb128 0x3
 1168 0051 02        		.byte	0x2
 1169 0052 07        		.byte	0x7
 1170 0053 0000 0000 		.long	.LASF4
 1171 0057 03        		.uleb128 0x3
 1172 0058 04        		.byte	0x4
 1173 0059 05        		.byte	0x5
 1174 005a 0000 0000 		.long	.LASF5
 1175 005e 03        		.uleb128 0x3
 1176 005f 04        		.byte	0x4
 1177 0060 07        		.byte	0x7
 1178 0061 0000 0000 		.long	.LASF6
 1179 0065 03        		.uleb128 0x3
 1180 0066 08        		.byte	0x8
 1181 0067 05        		.byte	0x5
 1182 0068 0000 0000 		.long	.LASF7
 1183 006c 03        		.uleb128 0x3
 1184 006d 08        		.byte	0x8
 1185 006e 07        		.byte	0x7
 1186 006f 0000 0000 		.long	.LASF8
 1187 0073 05        		.uleb128 0x5
 1188 0074 01        		.byte	0x1
 1189 0075 08        		.byte	0x8
 1190 0076 06        		.uleb128 0x6
 1191 0077 01        		.byte	0x1
 1192 0078 0000 0000 		.long	.LASF18
 1193 007c 01        		.byte	0x1
 1194 007d 1D        		.byte	0x1d
 1195 007e 01        		.byte	0x1
 1196 007f 0000 0000 		.long	.LFB2
 1197 0083 0000 0000 		.long	.LFE2
GAS LISTING C:\Users\alex\AppData\Local\Temp/ccz8HDSg.s 			page 22


 1198 0087 02        		.byte	0x2
 1199 0088 90        		.byte	0x90
 1200 0089 20        		.uleb128 0x20
 1201 008a 4401 0000 		.long	0x144
 1202 008e 07        		.uleb128 0x7
 1203 008f 0000 0000 		.long	.LASF9
 1204 0093 01        		.byte	0x1
 1205 0094 1B        		.byte	0x1b
 1206 0095 3700 0000 		.long	0x37
 1207 0099 02        		.byte	0x2
 1208 009a 8C        		.byte	0x8c
 1209 009b 0A        		.sleb128 10
 1210 009c 07        		.uleb128 0x7
 1211 009d 0000 0000 		.long	.LASF10
 1212 00a1 01        		.byte	0x1
 1213 00a2 1B        		.byte	0x1b
 1214 00a3 3700 0000 		.long	0x37
 1215 00a7 02        		.byte	0x2
 1216 00a8 8C        		.byte	0x8c
 1217 00a9 0B        		.sleb128 11
 1218 00aa 08        		.uleb128 0x8
 1219 00ab 6373 00   		.string	"cs"
 1220 00ae 01        		.byte	0x1
 1221 00af 1B        		.byte	0x1b
 1222 00b0 3700 0000 		.long	0x37
 1223 00b4 02        		.byte	0x2
 1224 00b5 8C        		.byte	0x8c
 1225 00b6 0C        		.sleb128 12
 1226 00b7 08        		.uleb128 0x8
 1227 00b8 7364 6900 		.string	"sdi"
 1228 00bc 01        		.byte	0x1
 1229 00bd 1B        		.byte	0x1b
 1230 00be 3700 0000 		.long	0x37
 1231 00c2 02        		.byte	0x2
 1232 00c3 8C        		.byte	0x8c
 1233 00c4 0D        		.sleb128 13
 1234 00c5 08        		.uleb128 0x8
 1235 00c6 636C 6B00 		.string	"clk"
 1236 00ca 01        		.byte	0x1
 1237 00cb 1B        		.byte	0x1b
 1238 00cc 3700 0000 		.long	0x37
 1239 00d0 02        		.byte	0x2
 1240 00d1 8C        		.byte	0x8c
 1241 00d2 0E        		.sleb128 14
 1242 00d3 07        		.uleb128 0x7
 1243 00d4 0000 0000 		.long	.LASF11
 1244 00d8 01        		.byte	0x1
 1245 00d9 1B        		.byte	0x1b
 1246 00da 3700 0000 		.long	0x37
 1247 00de 02        		.byte	0x2
 1248 00df 8C        		.byte	0x8c
 1249 00e0 0F        		.sleb128 15
 1250 00e1 09        		.uleb128 0x9
 1251 00e2 0000 0000 		.long	.LASF12
 1252 00e6 01        		.byte	0x1
 1253 00e7 1D        		.byte	0x1d
 1254 00e8 3700 0000 		.long	0x37
GAS LISTING C:\Users\alex\AppData\Local\Temp/ccz8HDSg.s 			page 23


 1255 00ec 02        		.byte	0x2
 1256 00ed 8C        		.byte	0x8c
 1257 00ee 09        		.sleb128 9
 1258 00ef 09        		.uleb128 0x9
 1259 00f0 0000 0000 		.long	.LASF13
 1260 00f4 01        		.byte	0x1
 1261 00f5 1D        		.byte	0x1d
 1262 00f6 3700 0000 		.long	0x37
 1263 00fa 02        		.byte	0x2
 1264 00fb 8C        		.byte	0x8c
 1265 00fc 08        		.sleb128 8
 1266 00fd 0A        		.uleb128 0xa
 1267 00fe 6263 7300 		.string	"bcs"
 1268 0102 01        		.byte	0x1
 1269 0103 1D        		.byte	0x1d
 1270 0104 3700 0000 		.long	0x37
 1271 0108 02        		.byte	0x2
 1272 0109 8C        		.byte	0x8c
 1273 010a 07        		.sleb128 7
 1274 010b 09        		.uleb128 0x9
 1275 010c 0000 0000 		.long	.LASF14
 1276 0110 01        		.byte	0x1
 1277 0111 1D        		.byte	0x1d
 1278 0112 3700 0000 		.long	0x37
 1279 0116 02        		.byte	0x2
 1280 0117 8C        		.byte	0x8c
 1281 0118 06        		.sleb128 6
 1282 0119 09        		.uleb128 0x9
 1283 011a 0000 0000 		.long	.LASF15
 1284 011e 01        		.byte	0x1
 1285 011f 1D        		.byte	0x1d
 1286 0120 3700 0000 		.long	0x37
 1287 0124 02        		.byte	0x2
 1288 0125 8C        		.byte	0x8c
 1289 0126 05        		.sleb128 5
 1290 0127 09        		.uleb128 0x9
 1291 0128 0000 0000 		.long	.LASF16
 1292 012c 01        		.byte	0x1
 1293 012d 1E        		.byte	0x1e
 1294 012e 4401 0000 		.long	0x144
 1295 0132 02        		.byte	0x2
 1296 0133 8C        		.byte	0x8c
 1297 0134 03        		.sleb128 3
 1298 0135 09        		.uleb128 0x9
 1299 0136 0000 0000 		.long	.LASF17
 1300 013a 01        		.byte	0x1
 1301 013b 1E        		.byte	0x1e
 1302 013c 4401 0000 		.long	0x144
 1303 0140 02        		.byte	0x2
 1304 0141 8C        		.byte	0x8c
 1305 0142 01        		.sleb128 1
 1306 0143 00        		.byte	0x0
 1307 0144 0B        		.uleb128 0xb
 1308 0145 02        		.byte	0x2
 1309 0146 4A01 0000 		.long	0x14a
 1310 014a 0C        		.uleb128 0xc
 1311 014b 3700 0000 		.long	0x37
GAS LISTING C:\Users\alex\AppData\Local\Temp/ccz8HDSg.s 			page 24


 1312 014f 06        		.uleb128 0x6
 1313 0150 01        		.byte	0x1
 1314 0151 0000 0000 		.long	.LASF19
 1315 0155 01        		.byte	0x1
 1316 0156 4F        		.byte	0x4f
 1317 0157 01        		.byte	0x1
 1318 0158 0000 0000 		.long	.LFB3
 1319 015c 0000 0000 		.long	.LFE3
 1320 0160 02        		.byte	0x2
 1321 0161 90        		.byte	0x90
 1322 0162 20        		.uleb128 0x20
 1323 0163 AE01 0000 		.long	0x1ae
 1324 0167 07        		.uleb128 0x7
 1325 0168 0000 0000 		.long	.LASF9
 1326 016c 01        		.byte	0x1
 1327 016d 4D        		.byte	0x4d
 1328 016e 3700 0000 		.long	0x37
 1329 0172 02        		.byte	0x2
 1330 0173 8C        		.byte	0x8c
 1331 0174 07        		.sleb128 7
 1332 0175 09        		.uleb128 0x9
 1333 0176 0000 0000 		.long	.LASF12
 1334 017a 01        		.byte	0x1
 1335 017b 4F        		.byte	0x4f
 1336 017c 3700 0000 		.long	0x37
 1337 0180 02        		.byte	0x2
 1338 0181 8C        		.byte	0x8c
 1339 0182 06        		.sleb128 6
 1340 0183 09        		.uleb128 0x9
 1341 0184 0000 0000 		.long	.LASF15
 1342 0188 01        		.byte	0x1
 1343 0189 4F        		.byte	0x4f
 1344 018a 3700 0000 		.long	0x37
 1345 018e 02        		.byte	0x2
 1346 018f 8C        		.byte	0x8c
 1347 0190 05        		.sleb128 5
 1348 0191 09        		.uleb128 0x9
 1349 0192 0000 0000 		.long	.LASF16
 1350 0196 01        		.byte	0x1
 1351 0197 50        		.byte	0x50
 1352 0198 4401 0000 		.long	0x144
 1353 019c 02        		.byte	0x2
 1354 019d 8C        		.byte	0x8c
 1355 019e 03        		.sleb128 3
 1356 019f 09        		.uleb128 0x9
 1357 01a0 0000 0000 		.long	.LASF17
 1358 01a4 01        		.byte	0x1
 1359 01a5 50        		.byte	0x50
 1360 01a6 4401 0000 		.long	0x144
 1361 01aa 02        		.byte	0x2
 1362 01ab 8C        		.byte	0x8c
 1363 01ac 01        		.sleb128 1
 1364 01ad 00        		.byte	0x0
 1365 01ae 06        		.uleb128 0x6
 1366 01af 01        		.byte	0x1
 1367 01b0 0000 0000 		.long	.LASF20
 1368 01b4 01        		.byte	0x1
GAS LISTING C:\Users\alex\AppData\Local\Temp/ccz8HDSg.s 			page 25


 1369 01b5 5E        		.byte	0x5e
 1370 01b6 01        		.byte	0x1
 1371 01b7 0000 0000 		.long	.LFB4
 1372 01bb 0000 0000 		.long	.LFE4
 1373 01bf 02        		.byte	0x2
 1374 01c0 90        		.byte	0x90
 1375 01c1 20        		.uleb128 0x20
 1376 01c2 FF01 0000 		.long	0x1ff
 1377 01c6 07        		.uleb128 0x7
 1378 01c7 0000 0000 		.long	.LASF9
 1379 01cb 01        		.byte	0x1
 1380 01cc 5C        		.byte	0x5c
 1381 01cd 3700 0000 		.long	0x37
 1382 01d1 02        		.byte	0x2
 1383 01d2 8C        		.byte	0x8c
 1384 01d3 04        		.sleb128 4
 1385 01d4 07        		.uleb128 0x7
 1386 01d5 0000 0000 		.long	.LASF11
 1387 01d9 01        		.byte	0x1
 1388 01da 5C        		.byte	0x5c
 1389 01db 2500 0000 		.long	0x25
 1390 01df 02        		.byte	0x2
 1391 01e0 8C        		.byte	0x8c
 1392 01e1 05        		.sleb128 5
 1393 01e2 09        		.uleb128 0x9
 1394 01e3 0000 0000 		.long	.LASF15
 1395 01e7 01        		.byte	0x1
 1396 01e8 5F        		.byte	0x5f
 1397 01e9 3700 0000 		.long	0x37
 1398 01ed 02        		.byte	0x2
 1399 01ee 8C        		.byte	0x8c
 1400 01ef 03        		.sleb128 3
 1401 01f0 09        		.uleb128 0x9
 1402 01f1 0000 0000 		.long	.LASF17
 1403 01f5 01        		.byte	0x1
 1404 01f6 60        		.byte	0x60
 1405 01f7 4401 0000 		.long	0x144
 1406 01fb 02        		.byte	0x2
 1407 01fc 8C        		.byte	0x8c
 1408 01fd 01        		.sleb128 1
 1409 01fe 00        		.byte	0x0
 1410 01ff 06        		.uleb128 0x6
 1411 0200 01        		.byte	0x1
 1412 0201 0000 0000 		.long	.LASF21
 1413 0205 01        		.byte	0x1
 1414 0206 6B        		.byte	0x6b
 1415 0207 01        		.byte	0x1
 1416 0208 0000 0000 		.long	.LFB5
 1417 020c 0000 0000 		.long	.LFE5
 1418 0210 02        		.byte	0x2
 1419 0211 90        		.byte	0x90
 1420 0212 20        		.uleb128 0x20
 1421 0213 A202 0000 		.long	0x2a2
 1422 0217 07        		.uleb128 0x7
 1423 0218 0000 0000 		.long	.LASF9
 1424 021c 01        		.byte	0x1
 1425 021d 6A        		.byte	0x6a
GAS LISTING C:\Users\alex\AppData\Local\Temp/ccz8HDSg.s 			page 26


 1426 021e 3700 0000 		.long	0x37
 1427 0222 02        		.byte	0x2
 1428 0223 8C        		.byte	0x8c
 1429 0224 0B        		.sleb128 11
 1430 0225 07        		.uleb128 0x7
 1431 0226 0000 0000 		.long	.LASF22
 1432 022a 01        		.byte	0x1
 1433 022b 6A        		.byte	0x6a
 1434 022c 3700 0000 		.long	0x37
 1435 0230 02        		.byte	0x2
 1436 0231 8C        		.byte	0x8c
 1437 0232 0C        		.sleb128 12
 1438 0233 07        		.uleb128 0x7
 1439 0234 0000 0000 		.long	.LASF23
 1440 0238 01        		.byte	0x1
 1441 0239 6A        		.byte	0x6a
 1442 023a 3700 0000 		.long	0x37
 1443 023e 02        		.byte	0x2
 1444 023f 8C        		.byte	0x8c
 1445 0240 0D        		.sleb128 13
 1446 0241 0A        		.uleb128 0xa
 1447 0242 6900      		.string	"i"
 1448 0244 01        		.byte	0x1
 1449 0245 6C        		.byte	0x6c
 1450 0246 3700 0000 		.long	0x37
 1451 024a 02        		.byte	0x2
 1452 024b 8C        		.byte	0x8c
 1453 024c 0A        		.sleb128 10
 1454 024d 09        		.uleb128 0x9
 1455 024e 0000 0000 		.long	.LASF13
 1456 0252 01        		.byte	0x1
 1457 0253 6D        		.byte	0x6d
 1458 0254 3700 0000 		.long	0x37
 1459 0258 02        		.byte	0x2
 1460 0259 8C        		.byte	0x8c
 1461 025a 09        		.sleb128 9
 1462 025b 0A        		.uleb128 0xa
 1463 025c 6263 7300 		.string	"bcs"
 1464 0260 01        		.byte	0x1
 1465 0261 6D        		.byte	0x6d
 1466 0262 3700 0000 		.long	0x37
 1467 0266 02        		.byte	0x2
 1468 0267 8C        		.byte	0x8c
 1469 0268 08        		.sleb128 8
 1470 0269 09        		.uleb128 0x9
 1471 026a 0000 0000 		.long	.LASF14
 1472 026e 01        		.byte	0x1
 1473 026f 6D        		.byte	0x6d
 1474 0270 3700 0000 		.long	0x37
 1475 0274 02        		.byte	0x2
 1476 0275 8C        		.byte	0x8c
 1477 0276 07        		.sleb128 7
 1478 0277 09        		.uleb128 0x9
 1479 0278 0000 0000 		.long	.LASF24
 1480 027c 01        		.byte	0x1
 1481 027d 6E        		.byte	0x6e
 1482 027e 4401 0000 		.long	0x144
GAS LISTING C:\Users\alex\AppData\Local\Temp/ccz8HDSg.s 			page 27


 1483 0282 02        		.byte	0x2
 1484 0283 8C        		.byte	0x8c
 1485 0284 05        		.sleb128 5
 1486 0285 0A        		.uleb128 0xa
 1487 0286 7063 7300 		.string	"pcs"
 1488 028a 01        		.byte	0x1
 1489 028b 6E        		.byte	0x6e
 1490 028c 4401 0000 		.long	0x144
 1491 0290 02        		.byte	0x2
 1492 0291 8C        		.byte	0x8c
 1493 0292 03        		.sleb128 3
 1494 0293 09        		.uleb128 0x9
 1495 0294 0000 0000 		.long	.LASF25
 1496 0298 01        		.byte	0x1
 1497 0299 6E        		.byte	0x6e
 1498 029a 4401 0000 		.long	0x144
 1499 029e 02        		.byte	0x2
 1500 029f 8C        		.byte	0x8c
 1501 02a0 01        		.sleb128 1
 1502 02a1 00        		.byte	0x0
 1503 02a2 0D        		.uleb128 0xd
 1504 02a3 4401 0000 		.long	0x144
 1505 02a7 B202 0000 		.long	0x2b2
 1506 02ab 0E        		.uleb128 0xe
 1507 02ac B202 0000 		.long	0x2b2
 1508 02b0 09        		.byte	0x9
 1509 02b1 00        		.byte	0x0
 1510 02b2 05        		.uleb128 0x5
 1511 02b3 02        		.byte	0x2
 1512 02b4 07        		.byte	0x7
 1513 02b5 0F        		.uleb128 0xf
 1514 02b6 0000 0000 		.long	.LASF26
 1515 02ba 01        		.byte	0x1
 1516 02bb 0A        		.byte	0xa
 1517 02bc A202 0000 		.long	0x2a2
 1518 02c0 01        		.byte	0x1
 1519 02c1 05        		.byte	0x5
 1520 02c2 03        		.byte	0x3
 1521 02c3 0000 0000 		.long	pga2311_p_zcen
 1522 02c7 0F        		.uleb128 0xf
 1523 02c8 0000 0000 		.long	.LASF27
 1524 02cc 01        		.byte	0x1
 1525 02cd 0B        		.byte	0xb
 1526 02ce A202 0000 		.long	0x2a2
 1527 02d2 01        		.byte	0x1
 1528 02d3 05        		.byte	0x5
 1529 02d4 03        		.byte	0x3
 1530 02d5 0000 0000 		.long	pga2311_p_cs
 1531 02d9 0F        		.uleb128 0xf
 1532 02da 0000 0000 		.long	.LASF28
 1533 02de 01        		.byte	0x1
 1534 02df 0C        		.byte	0xc
 1535 02e0 A202 0000 		.long	0x2a2
 1536 02e4 01        		.byte	0x1
 1537 02e5 05        		.byte	0x5
 1538 02e6 03        		.byte	0x3
 1539 02e7 0000 0000 		.long	pga2311_p_sdi
GAS LISTING C:\Users\alex\AppData\Local\Temp/ccz8HDSg.s 			page 28


 1540 02eb 0F        		.uleb128 0xf
 1541 02ec 0000 0000 		.long	.LASF29
 1542 02f0 01        		.byte	0x1
 1543 02f1 0D        		.byte	0xd
 1544 02f2 A202 0000 		.long	0x2a2
 1545 02f6 01        		.byte	0x1
 1546 02f7 05        		.byte	0x5
 1547 02f8 03        		.byte	0x3
 1548 02f9 0000 0000 		.long	pga2311_p_clk
 1549 02fd 0F        		.uleb128 0xf
 1550 02fe 0000 0000 		.long	.LASF30
 1551 0302 01        		.byte	0x1
 1552 0303 0E        		.byte	0xe
 1553 0304 A202 0000 		.long	0x2a2
 1554 0308 01        		.byte	0x1
 1555 0309 05        		.byte	0x5
 1556 030a 03        		.byte	0x3
 1557 030b 0000 0000 		.long	pga2311_p_mute
 1558 030f 0D        		.uleb128 0xd
 1559 0310 3700 0000 		.long	0x37
 1560 0314 1F03 0000 		.long	0x31f
 1561 0318 0E        		.uleb128 0xe
 1562 0319 B202 0000 		.long	0x2b2
 1563 031d 09        		.byte	0x9
 1564 031e 00        		.byte	0x0
 1565 031f 0F        		.uleb128 0xf
 1566 0320 0000 0000 		.long	.LASF31
 1567 0324 01        		.byte	0x1
 1568 0325 11        		.byte	0x11
 1569 0326 0F03 0000 		.long	0x30f
 1570 032a 01        		.byte	0x1
 1571 032b 05        		.byte	0x5
 1572 032c 03        		.byte	0x3
 1573 032d 0000 0000 		.long	pga2311_b_zcen
 1574 0331 0F        		.uleb128 0xf
 1575 0332 0000 0000 		.long	.LASF32
 1576 0336 01        		.byte	0x1
 1577 0337 12        		.byte	0x12
 1578 0338 0F03 0000 		.long	0x30f
 1579 033c 01        		.byte	0x1
 1580 033d 05        		.byte	0x5
 1581 033e 03        		.byte	0x3
 1582 033f 0000 0000 		.long	pga2311_b_cs
 1583 0343 0F        		.uleb128 0xf
 1584 0344 0000 0000 		.long	.LASF33
 1585 0348 01        		.byte	0x1
 1586 0349 13        		.byte	0x13
 1587 034a 0F03 0000 		.long	0x30f
 1588 034e 01        		.byte	0x1
 1589 034f 05        		.byte	0x5
 1590 0350 03        		.byte	0x3
 1591 0351 0000 0000 		.long	pga2311_b_sdi
 1592 0355 0F        		.uleb128 0xf
 1593 0356 0000 0000 		.long	.LASF34
 1594 035a 01        		.byte	0x1
 1595 035b 14        		.byte	0x14
 1596 035c 0F03 0000 		.long	0x30f
GAS LISTING C:\Users\alex\AppData\Local\Temp/ccz8HDSg.s 			page 29


 1597 0360 01        		.byte	0x1
 1598 0361 05        		.byte	0x5
 1599 0362 03        		.byte	0x3
 1600 0363 0000 0000 		.long	pga2311_b_clk
 1601 0367 0F        		.uleb128 0xf
 1602 0368 0000 0000 		.long	.LASF35
 1603 036c 01        		.byte	0x1
 1604 036d 15        		.byte	0x15
 1605 036e 0F03 0000 		.long	0x30f
 1606 0372 01        		.byte	0x1
 1607 0373 05        		.byte	0x5
 1608 0374 03        		.byte	0x3
 1609 0375 0000 0000 		.long	pga2311_b_mute
 1610 0379 00        		.byte	0x0
 1611               		.section	.debug_abbrev
 1612 0000 01        		.uleb128 0x1
 1613 0001 11        		.uleb128 0x11
 1614 0002 01        		.byte	0x1
 1615 0003 25        		.uleb128 0x25
 1616 0004 0E        		.uleb128 0xe
 1617 0005 13        		.uleb128 0x13
 1618 0006 0B        		.uleb128 0xb
 1619 0007 03        		.uleb128 0x3
 1620 0008 0E        		.uleb128 0xe
 1621 0009 1B        		.uleb128 0x1b
 1622 000a 0E        		.uleb128 0xe
 1623 000b 11        		.uleb128 0x11
 1624 000c 01        		.uleb128 0x1
 1625 000d 12        		.uleb128 0x12
 1626 000e 01        		.uleb128 0x1
 1627 000f 10        		.uleb128 0x10
 1628 0010 06        		.uleb128 0x6
 1629 0011 00        		.byte	0x0
 1630 0012 00        		.byte	0x0
 1631 0013 02        		.uleb128 0x2
 1632 0014 16        		.uleb128 0x16
 1633 0015 00        		.byte	0x0
 1634 0016 03        		.uleb128 0x3
 1635 0017 0E        		.uleb128 0xe
 1636 0018 3A        		.uleb128 0x3a
 1637 0019 0B        		.uleb128 0xb
 1638 001a 3B        		.uleb128 0x3b
 1639 001b 0B        		.uleb128 0xb
 1640 001c 49        		.uleb128 0x49
 1641 001d 13        		.uleb128 0x13
 1642 001e 00        		.byte	0x0
 1643 001f 00        		.byte	0x0
 1644 0020 03        		.uleb128 0x3
 1645 0021 24        		.uleb128 0x24
 1646 0022 00        		.byte	0x0
 1647 0023 0B        		.uleb128 0xb
 1648 0024 0B        		.uleb128 0xb
 1649 0025 3E        		.uleb128 0x3e
 1650 0026 0B        		.uleb128 0xb
 1651 0027 03        		.uleb128 0x3
 1652 0028 0E        		.uleb128 0xe
 1653 0029 00        		.byte	0x0
GAS LISTING C:\Users\alex\AppData\Local\Temp/ccz8HDSg.s 			page 30


 1654 002a 00        		.byte	0x0
 1655 002b 04        		.uleb128 0x4
 1656 002c 24        		.uleb128 0x24
 1657 002d 00        		.byte	0x0
 1658 002e 0B        		.uleb128 0xb
 1659 002f 0B        		.uleb128 0xb
 1660 0030 3E        		.uleb128 0x3e
 1661 0031 0B        		.uleb128 0xb
 1662 0032 03        		.uleb128 0x3
 1663 0033 08        		.uleb128 0x8
 1664 0034 00        		.byte	0x0
 1665 0035 00        		.byte	0x0
 1666 0036 05        		.uleb128 0x5
 1667 0037 24        		.uleb128 0x24
 1668 0038 00        		.byte	0x0
 1669 0039 0B        		.uleb128 0xb
 1670 003a 0B        		.uleb128 0xb
 1671 003b 3E        		.uleb128 0x3e
 1672 003c 0B        		.uleb128 0xb
 1673 003d 00        		.byte	0x0
 1674 003e 00        		.byte	0x0
 1675 003f 06        		.uleb128 0x6
 1676 0040 2E        		.uleb128 0x2e
 1677 0041 01        		.byte	0x1
 1678 0042 3F        		.uleb128 0x3f
 1679 0043 0C        		.uleb128 0xc
 1680 0044 03        		.uleb128 0x3
 1681 0045 0E        		.uleb128 0xe
 1682 0046 3A        		.uleb128 0x3a
 1683 0047 0B        		.uleb128 0xb
 1684 0048 3B        		.uleb128 0x3b
 1685 0049 0B        		.uleb128 0xb
 1686 004a 27        		.uleb128 0x27
 1687 004b 0C        		.uleb128 0xc
 1688 004c 11        		.uleb128 0x11
 1689 004d 01        		.uleb128 0x1
 1690 004e 12        		.uleb128 0x12
 1691 004f 01        		.uleb128 0x1
 1692 0050 40        		.uleb128 0x40
 1693 0051 0A        		.uleb128 0xa
 1694 0052 01        		.uleb128 0x1
 1695 0053 13        		.uleb128 0x13
 1696 0054 00        		.byte	0x0
 1697 0055 00        		.byte	0x0
 1698 0056 07        		.uleb128 0x7
 1699 0057 05        		.uleb128 0x5
 1700 0058 00        		.byte	0x0
 1701 0059 03        		.uleb128 0x3
 1702 005a 0E        		.uleb128 0xe
 1703 005b 3A        		.uleb128 0x3a
 1704 005c 0B        		.uleb128 0xb
 1705 005d 3B        		.uleb128 0x3b
 1706 005e 0B        		.uleb128 0xb
 1707 005f 49        		.uleb128 0x49
 1708 0060 13        		.uleb128 0x13
 1709 0061 02        		.uleb128 0x2
 1710 0062 0A        		.uleb128 0xa
GAS LISTING C:\Users\alex\AppData\Local\Temp/ccz8HDSg.s 			page 31


 1711 0063 00        		.byte	0x0
 1712 0064 00        		.byte	0x0
 1713 0065 08        		.uleb128 0x8
 1714 0066 05        		.uleb128 0x5
 1715 0067 00        		.byte	0x0
 1716 0068 03        		.uleb128 0x3
 1717 0069 08        		.uleb128 0x8
 1718 006a 3A        		.uleb128 0x3a
 1719 006b 0B        		.uleb128 0xb
 1720 006c 3B        		.uleb128 0x3b
 1721 006d 0B        		.uleb128 0xb
 1722 006e 49        		.uleb128 0x49
 1723 006f 13        		.uleb128 0x13
 1724 0070 02        		.uleb128 0x2
 1725 0071 0A        		.uleb128 0xa
 1726 0072 00        		.byte	0x0
 1727 0073 00        		.byte	0x0
 1728 0074 09        		.uleb128 0x9
 1729 0075 34        		.uleb128 0x34
 1730 0076 00        		.byte	0x0
 1731 0077 03        		.uleb128 0x3
 1732 0078 0E        		.uleb128 0xe
 1733 0079 3A        		.uleb128 0x3a
 1734 007a 0B        		.uleb128 0xb
 1735 007b 3B        		.uleb128 0x3b
 1736 007c 0B        		.uleb128 0xb
 1737 007d 49        		.uleb128 0x49
 1738 007e 13        		.uleb128 0x13
 1739 007f 02        		.uleb128 0x2
 1740 0080 0A        		.uleb128 0xa
 1741 0081 00        		.byte	0x0
 1742 0082 00        		.byte	0x0
 1743 0083 0A        		.uleb128 0xa
 1744 0084 34        		.uleb128 0x34
 1745 0085 00        		.byte	0x0
 1746 0086 03        		.uleb128 0x3
 1747 0087 08        		.uleb128 0x8
 1748 0088 3A        		.uleb128 0x3a
 1749 0089 0B        		.uleb128 0xb
 1750 008a 3B        		.uleb128 0x3b
 1751 008b 0B        		.uleb128 0xb
 1752 008c 49        		.uleb128 0x49
 1753 008d 13        		.uleb128 0x13
 1754 008e 02        		.uleb128 0x2
 1755 008f 0A        		.uleb128 0xa
 1756 0090 00        		.byte	0x0
 1757 0091 00        		.byte	0x0
 1758 0092 0B        		.uleb128 0xb
 1759 0093 0F        		.uleb128 0xf
 1760 0094 00        		.byte	0x0
 1761 0095 0B        		.uleb128 0xb
 1762 0096 0B        		.uleb128 0xb
 1763 0097 49        		.uleb128 0x49
 1764 0098 13        		.uleb128 0x13
 1765 0099 00        		.byte	0x0
 1766 009a 00        		.byte	0x0
 1767 009b 0C        		.uleb128 0xc
GAS LISTING C:\Users\alex\AppData\Local\Temp/ccz8HDSg.s 			page 32


 1768 009c 35        		.uleb128 0x35
 1769 009d 00        		.byte	0x0
 1770 009e 49        		.uleb128 0x49
 1771 009f 13        		.uleb128 0x13
 1772 00a0 00        		.byte	0x0
 1773 00a1 00        		.byte	0x0
 1774 00a2 0D        		.uleb128 0xd
 1775 00a3 01        		.uleb128 0x1
 1776 00a4 01        		.byte	0x1
 1777 00a5 49        		.uleb128 0x49
 1778 00a6 13        		.uleb128 0x13
 1779 00a7 01        		.uleb128 0x1
 1780 00a8 13        		.uleb128 0x13
 1781 00a9 00        		.byte	0x0
 1782 00aa 00        		.byte	0x0
 1783 00ab 0E        		.uleb128 0xe
 1784 00ac 21        		.uleb128 0x21
 1785 00ad 00        		.byte	0x0
 1786 00ae 49        		.uleb128 0x49
 1787 00af 13        		.uleb128 0x13
 1788 00b0 2F        		.uleb128 0x2f
 1789 00b1 0B        		.uleb128 0xb
 1790 00b2 00        		.byte	0x0
 1791 00b3 00        		.byte	0x0
 1792 00b4 0F        		.uleb128 0xf
 1793 00b5 34        		.uleb128 0x34
 1794 00b6 00        		.byte	0x0
 1795 00b7 03        		.uleb128 0x3
 1796 00b8 0E        		.uleb128 0xe
 1797 00b9 3A        		.uleb128 0x3a
 1798 00ba 0B        		.uleb128 0xb
 1799 00bb 3B        		.uleb128 0x3b
 1800 00bc 0B        		.uleb128 0xb
 1801 00bd 49        		.uleb128 0x49
 1802 00be 13        		.uleb128 0x13
 1803 00bf 3F        		.uleb128 0x3f
 1804 00c0 0C        		.uleb128 0xc
 1805 00c1 02        		.uleb128 0x2
 1806 00c2 0A        		.uleb128 0xa
 1807 00c3 00        		.byte	0x0
 1808 00c4 00        		.byte	0x0
 1809 00c5 00        		.byte	0x0
 1810               		.section	.debug_pubnames,"",@progbits
 1811 0000 0D01 0000 		.long	0x10d
 1812 0004 0200      		.word	0x2
 1813 0006 0000 0000 		.long	.Ldebug_info0
 1814 000a 7A03 0000 		.long	0x37a
 1815 000e 7600 0000 		.long	0x76
 1816 0012 7067 6132 		.string	"pga2311_setup"
 1816      3331 315F 
 1816      7365 7475 
 1816      7000 
 1817 0020 4F01 0000 		.long	0x14f
 1818 0024 7067 6132 		.string	"pga2311_init"
 1818      3331 315F 
 1818      696E 6974 
 1818      00
GAS LISTING C:\Users\alex\AppData\Local\Temp/ccz8HDSg.s 			page 33


 1819 0031 AE01 0000 		.long	0x1ae
 1820 0035 7067 6132 		.string	"pga2311_mute"
 1820      3331 315F 
 1820      6D75 7465 
 1820      00
 1821 0042 FF01 0000 		.long	0x1ff
 1822 0046 7067 6132 		.string	"pga2311_set_gain"
 1822      3331 315F 
 1822      7365 745F 
 1822      6761 696E 
 1822      00
 1823 0057 B502 0000 		.long	0x2b5
 1824 005b 7067 6132 		.string	"pga2311_p_zcen"
 1824      3331 315F 
 1824      705F 7A63 
 1824      656E 00
 1825 006a C702 0000 		.long	0x2c7
 1826 006e 7067 6132 		.string	"pga2311_p_cs"
 1826      3331 315F 
 1826      705F 6373 
 1826      00
 1827 007b D902 0000 		.long	0x2d9
 1828 007f 7067 6132 		.string	"pga2311_p_sdi"
 1828      3331 315F 
 1828      705F 7364 
 1828      6900 
 1829 008d EB02 0000 		.long	0x2eb
 1830 0091 7067 6132 		.string	"pga2311_p_clk"
 1830      3331 315F 
 1830      705F 636C 
 1830      6B00 
 1831 009f FD02 0000 		.long	0x2fd
 1832 00a3 7067 6132 		.string	"pga2311_p_mute"
 1832      3331 315F 
 1832      705F 6D75 
 1832      7465 00
 1833 00b2 1F03 0000 		.long	0x31f
 1834 00b6 7067 6132 		.string	"pga2311_b_zcen"
 1834      3331 315F 
 1834      625F 7A63 
 1834      656E 00
 1835 00c5 3103 0000 		.long	0x331
 1836 00c9 7067 6132 		.string	"pga2311_b_cs"
 1836      3331 315F 
 1836      625F 6373 
 1836      00
 1837 00d6 4303 0000 		.long	0x343
 1838 00da 7067 6132 		.string	"pga2311_b_sdi"
 1838      3331 315F 
 1838      625F 7364 
 1838      6900 
 1839 00e8 5503 0000 		.long	0x355
 1840 00ec 7067 6132 		.string	"pga2311_b_clk"
 1840      3331 315F 
 1840      625F 636C 
 1840      6B00 
 1841 00fa 6703 0000 		.long	0x367
GAS LISTING C:\Users\alex\AppData\Local\Temp/ccz8HDSg.s 			page 34


 1842 00fe 7067 6132 		.string	"pga2311_b_mute"
 1842      3331 315F 
 1842      625F 6D75 
 1842      7465 00
 1843 010d 0000 0000 		.long	0x0
 1844               		.section	.debug_aranges,"",@progbits
 1845 0000 1C00 0000 		.long	0x1c
 1846 0004 0200      		.word	0x2
 1847 0006 0000 0000 		.long	.Ldebug_info0
 1848 000a 04        		.byte	0x4
 1849 000b 00        		.byte	0x0
 1850 000c 0000      		.word	0x0
 1851 000e 0000      		.word	0x0
 1852 0010 0000 0000 		.long	.Ltext0
 1853 0014 3C07 0000 		.long	.Letext0-.Ltext0
 1854 0018 0000 0000 		.long	0x0
 1855 001c 0000 0000 		.long	0x0
 1856               		.section	.debug_line
 1857 0000 9E02 0000 		.long	.LELT0-.LSLT0
 1858               	.LSLT0:
 1859 0004 0200      		.word	0x2
 1860 0006 5600 0000 		.long	.LELTP0-.LASLTP0
 1861               	.LASLTP0:
 1862 000a 01        		.byte	0x1
 1863 000b 01        		.byte	0x1
 1864 000c F6        		.byte	0xf6
 1865 000d F5        		.byte	0xf5
 1866 000e 0A        		.byte	0xa
 1867 000f 00        		.byte	0x0
 1868 0010 01        		.byte	0x1
 1869 0011 01        		.byte	0x1
 1870 0012 01        		.byte	0x1
 1871 0013 01        		.byte	0x1
 1872 0014 00        		.byte	0x0
 1873 0015 00        		.byte	0x0
 1874 0016 00        		.byte	0x0
 1875 0017 01        		.byte	0x1
 1876 0018 633A 2F77 		.ascii	"c:/winavr-20100110/lib/gcc/../../avr/include"
 1876      696E 6176 
 1876      722D 3230 
 1876      3130 3031 
 1876      3130 2F6C 
 1877 0044 00        		.byte	0
 1878 0045 00        		.byte	0x0
 1879 0046 7067 6132 		.string	"pga2311.c"
 1879      3331 312E 
 1879      6300 
 1880 0050 00        		.uleb128 0x0
 1881 0051 00        		.uleb128 0x0
 1882 0052 00        		.uleb128 0x0
 1883 0053 7374 6469 		.string	"stdint.h"
 1883      6E74 2E68 
 1883      00
 1884 005c 01        		.uleb128 0x1
 1885 005d 00        		.uleb128 0x0
 1886 005e 00        		.uleb128 0x0
 1887 005f 00        		.byte	0x0
GAS LISTING C:\Users\alex\AppData\Local\Temp/ccz8HDSg.s 			page 35


 1888               	.LELTP0:
 1889 0060 00        		.byte	0x0
 1890 0061 05        		.uleb128 0x5
 1891 0062 02        		.byte	0x2
 1892 0063 0000 0000 		.long	.LM1
 1893 0067 30        		.byte	0x30
 1894 0068 00        		.byte	0x0
 1895 0069 05        		.uleb128 0x5
 1896 006a 02        		.byte	0x2
 1897 006b 0000 0000 		.long	.LM2
 1898 006f 17        		.byte	0x17
 1899 0070 00        		.byte	0x0
 1900 0071 05        		.uleb128 0x5
 1901 0072 02        		.byte	0x2
 1902 0073 0000 0000 		.long	.LM3
 1903 0077 15        		.byte	0x15
 1904 0078 00        		.byte	0x0
 1905 0079 05        		.uleb128 0x5
 1906 007a 02        		.byte	0x2
 1907 007b 0000 0000 		.long	.LM4
 1908 007f 15        		.byte	0x15
 1909 0080 00        		.byte	0x0
 1910 0081 05        		.uleb128 0x5
 1911 0082 02        		.byte	0x2
 1912 0083 0000 0000 		.long	.LM5
 1913 0087 15        		.byte	0x15
 1914 0088 00        		.byte	0x0
 1915 0089 05        		.uleb128 0x5
 1916 008a 02        		.byte	0x2
 1917 008b 0000 0000 		.long	.LM6
 1918 008f 15        		.byte	0x15
 1919 0090 00        		.byte	0x0
 1920 0091 05        		.uleb128 0x5
 1921 0092 02        		.byte	0x2
 1922 0093 0000 0000 		.long	.LM7
 1923 0097 15        		.byte	0x15
 1924 0098 00        		.byte	0x0
 1925 0099 05        		.uleb128 0x5
 1926 009a 02        		.byte	0x2
 1927 009b 0000 0000 		.long	.LM8
 1928 009f 15        		.byte	0x15
 1929 00a0 00        		.byte	0x0
 1930 00a1 05        		.uleb128 0x5
 1931 00a2 02        		.byte	0x2
 1932 00a3 0000 0000 		.long	.LM9
 1933 00a7 15        		.byte	0x15
 1934 00a8 00        		.byte	0x0
 1935 00a9 05        		.uleb128 0x5
 1936 00aa 02        		.byte	0x2
 1937 00ab 0000 0000 		.long	.LM10
 1938 00af 15        		.byte	0x15
 1939 00b0 00        		.byte	0x0
 1940 00b1 05        		.uleb128 0x5
 1941 00b2 02        		.byte	0x2
 1942 00b3 0000 0000 		.long	.LM11
 1943 00b7 15        		.byte	0x15
 1944 00b8 00        		.byte	0x0
GAS LISTING C:\Users\alex\AppData\Local\Temp/ccz8HDSg.s 			page 36


 1945 00b9 05        		.uleb128 0x5
 1946 00ba 02        		.byte	0x2
 1947 00bb 0000 0000 		.long	.LM12
 1948 00bf 16        		.byte	0x16
 1949 00c0 00        		.byte	0x0
 1950 00c1 05        		.uleb128 0x5
 1951 00c2 02        		.byte	0x2
 1952 00c3 0000 0000 		.long	.LM13
 1953 00c7 15        		.byte	0x15
 1954 00c8 00        		.byte	0x0
 1955 00c9 05        		.uleb128 0x5
 1956 00ca 02        		.byte	0x2
 1957 00cb 0000 0000 		.long	.LM14
 1958 00cf 15        		.byte	0x15
 1959 00d0 00        		.byte	0x0
 1960 00d1 05        		.uleb128 0x5
 1961 00d2 02        		.byte	0x2
 1962 00d3 0000 0000 		.long	.LM15
 1963 00d7 15        		.byte	0x15
 1964 00d8 00        		.byte	0x0
 1965 00d9 05        		.uleb128 0x5
 1966 00da 02        		.byte	0x2
 1967 00db 0000 0000 		.long	.LM16
 1968 00df 15        		.byte	0x15
 1969 00e0 00        		.byte	0x0
 1970 00e1 05        		.uleb128 0x5
 1971 00e2 02        		.byte	0x2
 1972 00e3 0000 0000 		.long	.LM17
 1973 00e7 15        		.byte	0x15
 1974 00e8 00        		.byte	0x0
 1975 00e9 05        		.uleb128 0x5
 1976 00ea 02        		.byte	0x2
 1977 00eb 0000 0000 		.long	.LM18
 1978 00ef 16        		.byte	0x16
 1979 00f0 00        		.byte	0x0
 1980 00f1 05        		.uleb128 0x5
 1981 00f2 02        		.byte	0x2
 1982 00f3 0000 0000 		.long	.LM19
 1983 00f7 15        		.byte	0x15
 1984 00f8 00        		.byte	0x0
 1985 00f9 05        		.uleb128 0x5
 1986 00fa 02        		.byte	0x2
 1987 00fb 0000 0000 		.long	.LM20
 1988 00ff 15        		.byte	0x15
 1989 0100 00        		.byte	0x0
 1990 0101 05        		.uleb128 0x5
 1991 0102 02        		.byte	0x2
 1992 0103 0000 0000 		.long	.LM21
 1993 0107 15        		.byte	0x15
 1994 0108 00        		.byte	0x0
 1995 0109 05        		.uleb128 0x5
 1996 010a 02        		.byte	0x2
 1997 010b 0000 0000 		.long	.LM22
 1998 010f 15        		.byte	0x15
 1999 0110 00        		.byte	0x0
 2000 0111 05        		.uleb128 0x5
 2001 0112 02        		.byte	0x2
GAS LISTING C:\Users\alex\AppData\Local\Temp/ccz8HDSg.s 			page 37


 2002 0113 0000 0000 		.long	.LM23
 2003 0117 16        		.byte	0x16
 2004 0118 00        		.byte	0x0
 2005 0119 05        		.uleb128 0x5
 2006 011a 02        		.byte	0x2
 2007 011b 0000 0000 		.long	.LM24
 2008 011f 15        		.byte	0x15
 2009 0120 00        		.byte	0x0
 2010 0121 05        		.uleb128 0x5
 2011 0122 02        		.byte	0x2
 2012 0123 0000 0000 		.long	.LM25
 2013 0127 15        		.byte	0x15
 2014 0128 00        		.byte	0x0
 2015 0129 05        		.uleb128 0x5
 2016 012a 02        		.byte	0x2
 2017 012b 0000 0000 		.long	.LM26
 2018 012f 15        		.byte	0x15
 2019 0130 00        		.byte	0x0
 2020 0131 05        		.uleb128 0x5
 2021 0132 02        		.byte	0x2
 2022 0133 0000 0000 		.long	.LM27
 2023 0137 15        		.byte	0x15
 2024 0138 00        		.byte	0x0
 2025 0139 05        		.uleb128 0x5
 2026 013a 02        		.byte	0x2
 2027 013b 0000 0000 		.long	.LM28
 2028 013f 16        		.byte	0x16
 2029 0140 00        		.byte	0x0
 2030 0141 05        		.uleb128 0x5
 2031 0142 02        		.byte	0x2
 2032 0143 0000 0000 		.long	.LM29
 2033 0147 15        		.byte	0x15
 2034 0148 00        		.byte	0x0
 2035 0149 05        		.uleb128 0x5
 2036 014a 02        		.byte	0x2
 2037 014b 0000 0000 		.long	.LM30
 2038 014f 15        		.byte	0x15
 2039 0150 00        		.byte	0x0
 2040 0151 05        		.uleb128 0x5
 2041 0152 02        		.byte	0x2
 2042 0153 0000 0000 		.long	.LM31
 2043 0157 15        		.byte	0x15
 2044 0158 00        		.byte	0x0
 2045 0159 05        		.uleb128 0x5
 2046 015a 02        		.byte	0x2
 2047 015b 0000 0000 		.long	.LM32
 2048 015f 15        		.byte	0x15
 2049 0160 00        		.byte	0x0
 2050 0161 05        		.uleb128 0x5
 2051 0162 02        		.byte	0x2
 2052 0163 0000 0000 		.long	.LM33
 2053 0167 16        		.byte	0x16
 2054 0168 00        		.byte	0x0
 2055 0169 05        		.uleb128 0x5
 2056 016a 02        		.byte	0x2
 2057 016b 0000 0000 		.long	.LM34
 2058 016f 15        		.byte	0x15
GAS LISTING C:\Users\alex\AppData\Local\Temp/ccz8HDSg.s 			page 38


 2059 0170 00        		.byte	0x0
 2060 0171 05        		.uleb128 0x5
 2061 0172 02        		.byte	0x2
 2062 0173 0000 0000 		.long	.LM35
 2063 0177 15        		.byte	0x15
 2064 0178 00        		.byte	0x0
 2065 0179 05        		.uleb128 0x5
 2066 017a 02        		.byte	0x2
 2067 017b 0000 0000 		.long	.LM36
 2068 017f 15        		.byte	0x15
 2069 0180 00        		.byte	0x0
 2070 0181 05        		.uleb128 0x5
 2071 0182 02        		.byte	0x2
 2072 0183 0000 0000 		.long	.LM37
 2073 0187 15        		.byte	0x15
 2074 0188 00        		.byte	0x0
 2075 0189 05        		.uleb128 0x5
 2076 018a 02        		.byte	0x2
 2077 018b 0000 0000 		.long	.LM38
 2078 018f 15        		.byte	0x15
 2079 0190 00        		.byte	0x0
 2080 0191 05        		.uleb128 0x5
 2081 0192 02        		.byte	0x2
 2082 0193 0000 0000 		.long	.LM39
 2083 0197 16        		.byte	0x16
 2084 0198 00        		.byte	0x0
 2085 0199 05        		.uleb128 0x5
 2086 019a 02        		.byte	0x2
 2087 019b 0000 0000 		.long	.LM40
 2088 019f 18        		.byte	0x18
 2089 01a0 00        		.byte	0x0
 2090 01a1 05        		.uleb128 0x5
 2091 01a2 02        		.byte	0x2
 2092 01a3 0000 0000 		.long	.LM41
 2093 01a7 17        		.byte	0x17
 2094 01a8 00        		.byte	0x0
 2095 01a9 05        		.uleb128 0x5
 2096 01aa 02        		.byte	0x2
 2097 01ab 0000 0000 		.long	.LM42
 2098 01af 15        		.byte	0x15
 2099 01b0 00        		.byte	0x0
 2100 01b1 05        		.uleb128 0x5
 2101 01b2 02        		.byte	0x2
 2102 01b3 0000 0000 		.long	.LM43
 2103 01b7 16        		.byte	0x16
 2104 01b8 00        		.byte	0x0
 2105 01b9 05        		.uleb128 0x5
 2106 01ba 02        		.byte	0x2
 2107 01bb 0000 0000 		.long	.LM44
 2108 01bf 15        		.byte	0x15
 2109 01c0 00        		.byte	0x0
 2110 01c1 05        		.uleb128 0x5
 2111 01c2 02        		.byte	0x2
 2112 01c3 0000 0000 		.long	.LM45
 2113 01c7 16        		.byte	0x16
 2114 01c8 00        		.byte	0x0
 2115 01c9 05        		.uleb128 0x5
GAS LISTING C:\Users\alex\AppData\Local\Temp/ccz8HDSg.s 			page 39


 2116 01ca 02        		.byte	0x2
 2117 01cb 0000 0000 		.long	.LM46
 2118 01cf 15        		.byte	0x15
 2119 01d0 00        		.byte	0x0
 2120 01d1 05        		.uleb128 0x5
 2121 01d2 02        		.byte	0x2
 2122 01d3 0000 0000 		.long	.LM47
 2123 01d7 15        		.byte	0x15
 2124 01d8 00        		.byte	0x0
 2125 01d9 05        		.uleb128 0x5
 2126 01da 02        		.byte	0x2
 2127 01db 0000 0000 		.long	.LM48
 2128 01df 18        		.byte	0x18
 2129 01e0 00        		.byte	0x0
 2130 01e1 05        		.uleb128 0x5
 2131 01e2 02        		.byte	0x2
 2132 01e3 0000 0000 		.long	.LM49
 2133 01e7 18        		.byte	0x18
 2134 01e8 00        		.byte	0x0
 2135 01e9 05        		.uleb128 0x5
 2136 01ea 02        		.byte	0x2
 2137 01eb 0000 0000 		.long	.LM50
 2138 01ef 15        		.byte	0x15
 2139 01f0 00        		.byte	0x0
 2140 01f1 05        		.uleb128 0x5
 2141 01f2 02        		.byte	0x2
 2142 01f3 0000 0000 		.long	.LM51
 2143 01f7 15        		.byte	0x15
 2144 01f8 00        		.byte	0x0
 2145 01f9 05        		.uleb128 0x5
 2146 01fa 02        		.byte	0x2
 2147 01fb 0000 0000 		.long	.LM52
 2148 01ff 15        		.byte	0x15
 2149 0200 00        		.byte	0x0
 2150 0201 05        		.uleb128 0x5
 2151 0202 02        		.byte	0x2
 2152 0203 0000 0000 		.long	.LM53
 2153 0207 15        		.byte	0x15
 2154 0208 00        		.byte	0x0
 2155 0209 05        		.uleb128 0x5
 2156 020a 02        		.byte	0x2
 2157 020b 0000 0000 		.long	.LM54
 2158 020f 19        		.byte	0x19
 2159 0210 00        		.byte	0x0
 2160 0211 05        		.uleb128 0x5
 2161 0212 02        		.byte	0x2
 2162 0213 0000 0000 		.long	.LM55
 2163 0217 19        		.byte	0x19
 2164 0218 00        		.byte	0x0
 2165 0219 05        		.uleb128 0x5
 2166 021a 02        		.byte	0x2
 2167 021b 0000 0000 		.long	.LM56
 2168 021f 15        		.byte	0x15
 2169 0220 00        		.byte	0x0
 2170 0221 05        		.uleb128 0x5
 2171 0222 02        		.byte	0x2
 2172 0223 0000 0000 		.long	.LM57
GAS LISTING C:\Users\alex\AppData\Local\Temp/ccz8HDSg.s 			page 40


 2173 0227 15        		.byte	0x15
 2174 0228 00        		.byte	0x0
 2175 0229 05        		.uleb128 0x5
 2176 022a 02        		.byte	0x2
 2177 022b 0000 0000 		.long	.LM58
 2178 022f 16        		.byte	0x16
 2179 0230 00        		.byte	0x0
 2180 0231 05        		.uleb128 0x5
 2181 0232 02        		.byte	0x2
 2182 0233 0000 0000 		.long	.LM59
 2183 0237 15        		.byte	0x15
 2184 0238 00        		.byte	0x0
 2185 0239 05        		.uleb128 0x5
 2186 023a 02        		.byte	0x2
 2187 023b 0000 0000 		.long	.LM60
 2188 023f 15        		.byte	0x15
 2189 0240 00        		.byte	0x0
 2190 0241 05        		.uleb128 0x5
 2191 0242 02        		.byte	0x2
 2192 0243 0000 0000 		.long	.LM61
 2193 0247 16        		.byte	0x16
 2194 0248 00        		.byte	0x0
 2195 0249 05        		.uleb128 0x5
 2196 024a 02        		.byte	0x2
 2197 024b 0000 0000 		.long	.LM62
 2198 024f 15        		.byte	0x15
 2199 0250 00        		.byte	0x0
 2200 0251 05        		.uleb128 0x5
 2201 0252 02        		.byte	0x2
 2202 0253 0000 0000 		.long	.LM63
 2203 0257 15        		.byte	0x15
 2204 0258 00        		.byte	0x0
 2205 0259 05        		.uleb128 0x5
 2206 025a 02        		.byte	0x2
 2207 025b 0000 0000 		.long	.LM64
 2208 025f 16        		.byte	0x16
 2209 0260 00        		.byte	0x0
 2210 0261 05        		.uleb128 0x5
 2211 0262 02        		.byte	0x2
 2212 0263 0000 0000 		.long	.LM65
 2213 0267 15        		.byte	0x15
 2214 0268 00        		.byte	0x0
 2215 0269 05        		.uleb128 0x5
 2216 026a 02        		.byte	0x2
 2217 026b 0000 0000 		.long	.LM66
 2218 026f 15        		.byte	0x15
 2219 0270 00        		.byte	0x0
 2220 0271 05        		.uleb128 0x5
 2221 0272 02        		.byte	0x2
 2222 0273 0000 0000 		.long	.LM67
 2223 0277 16        		.byte	0x16
 2224 0278 00        		.byte	0x0
 2225 0279 05        		.uleb128 0x5
 2226 027a 02        		.byte	0x2
 2227 027b 0000 0000 		.long	.LM68
 2228 027f 16        		.byte	0x16
 2229 0280 00        		.byte	0x0
GAS LISTING C:\Users\alex\AppData\Local\Temp/ccz8HDSg.s 			page 41


 2230 0281 05        		.uleb128 0x5
 2231 0282 02        		.byte	0x2
 2232 0283 0000 0000 		.long	.LM69
 2233 0287 15        		.byte	0x15
 2234 0288 00        		.byte	0x0
 2235 0289 05        		.uleb128 0x5
 2236 028a 02        		.byte	0x2
 2237 028b 0000 0000 		.long	.LM70
 2238 028f 16        		.byte	0x16
 2239 0290 00        		.byte	0x0
 2240 0291 05        		.uleb128 0x5
 2241 0292 02        		.byte	0x2
 2242 0293 0000 0000 		.long	.LM71
 2243 0297 0B        		.byte	0xb
 2244 0298 00        		.byte	0x0
 2245 0299 05        		.uleb128 0x5
 2246 029a 02        		.byte	0x2
 2247 029b 0000 0000 		.long	.Letext0
 2248 029f 00        		.byte	0x0
 2249 02a0 01        		.uleb128 0x1
 2250 02a1 01        		.byte	0x1
 2251               	.LELT0:
 2252 02a2 1600 0000 		.section	.debug_str,"MS",@progbits,1
 2252      0200 1000 
 2252      0000 0101 
 2252      FB0E 0A00 
 2252      0101 0101 
 2253               	.LASF37:
 2254 0000 7067 6132 		.string	"pga2311.c"
 2254      3331 312E 
 2254      6300 
 2255               	.LASF17:
 2256 000a 706D 7574 		.string	"pmute"
 2256      6500 
 2257               	.LASF26:
 2258 0010 7067 6132 		.string	"pga2311_p_zcen"
 2258      3331 315F 
 2258      705F 7A63 
 2258      656E 00
 2259               	.LASF11:
 2260 001f 6D75 7465 		.string	"mute"
 2260      00
 2261               	.LASF12:
 2262 0024 627A 6365 		.string	"bzcen"
 2262      6E00 
 2263               	.LASF0:
 2264 002a 696E 7438 		.string	"int8_t"
 2264      5F74 00
 2265               	.LASF35:
 2266 0031 7067 6132 		.string	"pga2311_b_mute"
 2266      3331 315F 
 2266      625F 6D75 
 2266      7465 00
 2267               	.LASF28:
 2268 0040 7067 6132 		.string	"pga2311_p_sdi"
 2268      3331 315F 
 2268      705F 7364 
GAS LISTING C:\Users\alex\AppData\Local\Temp/ccz8HDSg.s 			page 42


 2268      6900 
 2269               	.LASF20:
 2270 004e 7067 6132 		.string	"pga2311_mute"
 2270      3331 315F 
 2270      6D75 7465 
 2270      00
 2271               	.LASF3:
 2272 005b 756E 7369 		.string	"unsigned char"
 2272      676E 6564 
 2272      2063 6861 
 2272      7200 
 2273               	.LASF19:
 2274 0069 7067 6132 		.string	"pga2311_init"
 2274      3331 315F 
 2274      696E 6974 
 2274      00
 2275               	.LASF6:
 2276 0076 6C6F 6E67 		.string	"long unsigned int"
 2276      2075 6E73 
 2276      6967 6E65 
 2276      6420 696E 
 2276      7400 
 2277               	.LASF25:
 2278 0088 7063 6C6B 		.string	"pclk"
 2278      00
 2279               	.LASF36:
 2280 008d 474E 5520 		.string	"GNU C 4.3.3"
 2280      4320 342E 
 2280      332E 3300 
 2281               	.LASF14:
 2282 0099 6263 6C6B 		.string	"bclk"
 2282      00
 2283               	.LASF21:
 2284 009e 7067 6132 		.string	"pga2311_set_gain"
 2284      3331 315F 
 2284      7365 745F 
 2284      6761 696E 
 2284      00
 2285               	.LASF27:
 2286 00af 7067 6132 		.string	"pga2311_p_cs"
 2286      3331 315F 
 2286      705F 6373 
 2286      00
 2287               	.LASF32:
 2288 00bc 7067 6132 		.string	"pga2311_b_cs"
 2288      3331 315F 
 2288      625F 6373 
 2288      00
 2289               	.LASF15:
 2290 00c9 626D 7574 		.string	"bmute"
 2290      6500 
 2291               	.LASF22:
 2292 00cf 766F 6C5F 		.string	"vol_l"
 2292      6C00 
 2293               	.LASF34:
 2294 00d5 7067 6132 		.string	"pga2311_b_clk"
 2294      3331 315F 
GAS LISTING C:\Users\alex\AppData\Local\Temp/ccz8HDSg.s 			page 43


 2294      625F 636C 
 2294      6B00 
 2295               	.LASF4:
 2296 00e3 756E 7369 		.string	"unsigned int"
 2296      676E 6564 
 2296      2069 6E74 
 2296      00
 2297               	.LASF23:
 2298 00f0 766F 6C5F 		.string	"vol_r"
 2298      7200 
 2299               	.LASF8:
 2300 00f6 6C6F 6E67 		.string	"long long unsigned int"
 2300      206C 6F6E 
 2300      6720 756E 
 2300      7369 676E 
 2300      6564 2069 
 2301               	.LASF1:
 2302 010d 7569 6E74 		.string	"uint8_t"
 2302      385F 7400 
 2303               	.LASF18:
 2304 0115 7067 6132 		.string	"pga2311_setup"
 2304      3331 315F 
 2304      7365 7475 
 2304      7000 
 2305               	.LASF24:
 2306 0123 7073 6469 		.string	"psdi"
 2306      00
 2307               	.LASF38:
 2308 0128 453A 5C61 		.string	"E:\\avr\\lcd"
 2308      7672 5C6C 
 2308      6364 00
 2309               	.LASF30:
 2310 0133 7067 6132 		.string	"pga2311_p_mute"
 2310      3331 315F 
 2310      705F 6D75 
 2310      7465 00
 2311               	.LASF10:
 2312 0142 7A63 656E 		.string	"zcen"
 2312      00
 2313               	.LASF7:
 2314 0147 6C6F 6E67 		.string	"long long int"
 2314      206C 6F6E 
 2314      6720 696E 
 2314      7400 
 2315               	.LASF9:
 2316 0155 6368 6970 		.string	"chip"
 2316      00
 2317               	.LASF16:
 2318 015a 707A 6365 		.string	"pzcen"
 2318      6E00 
 2319               	.LASF33:
 2320 0160 7067 6132 		.string	"pga2311_b_sdi"
 2320      3331 315F 
 2320      625F 7364 
 2320      6900 
 2321               	.LASF5:
 2322 016e 6C6F 6E67 		.string	"long int"
GAS LISTING C:\Users\alex\AppData\Local\Temp/ccz8HDSg.s 			page 44


 2322      2069 6E74 
 2322      00
 2323               	.LASF13:
 2324 0177 6273 6469 		.string	"bsdi"
 2324      00
 2325               	.LASF2:
 2326 017c 7369 676E 		.string	"signed char"
 2326      6564 2063 
 2326      6861 7200 
 2327               	.LASF31:
 2328 0188 7067 6132 		.string	"pga2311_b_zcen"
 2328      3331 315F 
 2328      625F 7A63 
 2328      656E 00
 2329               	.LASF29:
 2330 0197 7067 6132 		.string	"pga2311_p_clk"
 2330      3331 315F 
 2330      705F 636C 
 2330      6B00 
 2331               	.global __do_clear_bss
GAS LISTING C:\Users\alex\AppData\Local\Temp/ccz8HDSg.s 			page 45


DEFINED SYMBOLS
                            *ABS*:00000000 pga2311.c
C:\Users\alex\AppData\Local\Temp/ccz8HDSg.s:2      *ABS*:0000003f __SREG__
C:\Users\alex\AppData\Local\Temp/ccz8HDSg.s:3      *ABS*:0000003e __SP_H__
C:\Users\alex\AppData\Local\Temp/ccz8HDSg.s:4      *ABS*:0000003d __SP_L__
C:\Users\alex\AppData\Local\Temp/ccz8HDSg.s:5      *ABS*:00000034 __CCP__
C:\Users\alex\AppData\Local\Temp/ccz8HDSg.s:6      *ABS*:00000000 __tmp_reg__
C:\Users\alex\AppData\Local\Temp/ccz8HDSg.s:7      *ABS*:00000001 __zero_reg__
C:\Users\alex\AppData\Local\Temp/ccz8HDSg.s:18     .text:00000000 pga2311_setup
                            *COM*:0000000a pga2311_b_zcen
                            *COM*:0000000a pga2311_b_cs
                            *COM*:0000000a pga2311_b_sdi
                            *COM*:0000000a pga2311_b_clk
                            *COM*:0000000a pga2311_b_mute
                            *COM*:00000014 pga2311_p_zcen
                            *COM*:00000014 pga2311_p_cs
                            *COM*:00000014 pga2311_p_sdi
                            *COM*:00000014 pga2311_p_clk
                            *COM*:00000014 pga2311_p_mute
C:\Users\alex\AppData\Local\Temp/ccz8HDSg.s:725    .text:000004fe pga2311_init
C:\Users\alex\AppData\Local\Temp/ccz8HDSg.s:818    .text:00000596 pga2311_mute
C:\Users\alex\AppData\Local\Temp/ccz8HDSg.s:894    .text:0000060c pga2311_set_gain

UNDEFINED SYMBOLS
__do_clear_bss
