GAS LISTING C:\Users\alex\AppData\Local\Temp/ccf1ebDB.s 			page 1


   1               		.file	"rot_encoder.c"
   2               	__SREG__ = 0x3f
   3               	__SP_H__ = 0x3e
   4               	__SP_L__ = 0x3d
   5               	__CCP__  = 0x34
   6               	__tmp_reg__ = 0
   7               	__zero_reg__ = 1
   8               		.section	.debug_abbrev,"",@progbits
   9               	.Ldebug_abbrev0:
  10               		.section	.debug_info,"",@progbits
  11               	.Ldebug_info0:
  12               		.section	.debug_line,"",@progbits
  13               	.Ldebug_line0:
  14               		.text
  15               	.Ltext0:
  16               	.global	enc_states
  17               		.data
  18               		.type	enc_states, @object
  19               		.size	enc_states, 16
  20               	enc_states:
  21 0000 00        		.byte	0
  22 0001 FF        		.byte	-1
  23 0002 01        		.byte	1
  24 0003 00        		.byte	0
  25 0004 01        		.byte	1
  26 0005 00        		.byte	0
  27 0006 00        		.byte	0
  28 0007 FF        		.byte	-1
  29 0008 FF        		.byte	-1
  30 0009 00        		.byte	0
  31 000a 00        		.byte	0
  32 000b 01        		.byte	1
  33 000c 00        		.byte	0
  34 000d 01        		.byte	1
  35 000e FF        		.byte	-1
  36 000f 00        		.byte	0
  37               		.text
  38               	.global	encoder_setup
  39               		.type	encoder_setup, @function
  40               	encoder_setup:
  41               	.LFB2:
  42               	.LM1:
  43 0000 DF93      		push r29
  44 0002 CF93      		push r28
  45 0004 00D0      		rcall .
  46 0006 00D0      		rcall .
  47 0008 0F92      		push __tmp_reg__
  48 000a CDB7      		in r28,__SP_L__
  49 000c DEB7      		in r29,__SP_H__
  50               	/* prologue: function */
  51               	/* frame size = 5 */
  52 000e 8B83      		std Y+3,r24
  53 0010 6C83      		std Y+4,r22
  54 0012 4D83      		std Y+5,r20
  55               	.LM2:
  56 0014 8C81      		ldd r24,Y+4
  57 0016 882F      		mov r24,r24
GAS LISTING C:\Users\alex\AppData\Local\Temp/ccf1ebDB.s 			page 2


  58 0018 90E0      		ldi r25,lo8(0)
  59 001a 9C01      		movw r18,r24
  60 001c 2F70      		andi r18,lo8(15)
  61 001e 3070      		andi r19,hi8(15)
  62 0020 81E0      		ldi r24,lo8(1)
  63 0022 90E0      		ldi r25,hi8(1)
  64 0024 00C0      		rjmp 2f
  65 0026 880F      	1:	lsl r24
  66 0028 991F      		rol r25
  67 002a 2A95      	2:	dec r18
  68 002c 02F4      		brpl 1b
  69 002e 8A83      		std Y+2,r24
  70               	.LM3:
  71 0030 8B81      		ldd r24,Y+3
  72 0032 882F      		mov r24,r24
  73 0034 90E0      		ldi r25,lo8(0)
  74 0036 FC01      		movw r30,r24
  75 0038 E050      		subi r30,lo8(-(encoder_b_bit0))
  76 003a F040      		sbci r31,hi8(-(encoder_b_bit0))
  77 003c 8A81      		ldd r24,Y+2
  78 003e 8083      		st Z,r24
  79               	.LM4:
  80 0040 8D81      		ldd r24,Y+5
  81 0042 882F      		mov r24,r24
  82 0044 90E0      		ldi r25,lo8(0)
  83 0046 9C01      		movw r18,r24
  84 0048 2F70      		andi r18,lo8(15)
  85 004a 3070      		andi r19,hi8(15)
  86 004c 81E0      		ldi r24,lo8(1)
  87 004e 90E0      		ldi r25,hi8(1)
  88 0050 022E      		mov r0,r18
  89 0052 00C0      		rjmp 2f
  90 0054 880F      	1:	lsl r24
  91 0056 991F      		rol r25
  92 0058 0A94      	2:	dec r0
  93 005a 02F4      		brpl 1b
  94 005c 8983      		std Y+1,r24
  95               	.LM5:
  96 005e 8B81      		ldd r24,Y+3
  97 0060 882F      		mov r24,r24
  98 0062 90E0      		ldi r25,lo8(0)
  99 0064 FC01      		movw r30,r24
 100 0066 E050      		subi r30,lo8(-(encoder_b_bit1))
 101 0068 F040      		sbci r31,hi8(-(encoder_b_bit1))
 102 006a 8981      		ldd r24,Y+1
 103 006c 8083      		st Z,r24
 104               	.LM6:
 105 006e 8C81      		ldd r24,Y+4
 106 0070 807F      		andi r24,lo8(-16)
 107 0072 8C83      		std Y+4,r24
 108               	.LM7:
 109 0074 8C81      		ldd r24,Y+4
 110 0076 8823      		tst r24
 111 0078 01F4      		brne .L2
 112 007a 8B81      		ldd r24,Y+3
 113 007c 882F      		mov r24,r24
 114 007e 90E0      		ldi r25,lo8(0)
GAS LISTING C:\Users\alex\AppData\Local\Temp/ccf1ebDB.s 			page 3


 115 0080 880F      		lsl r24
 116 0082 991F      		rol r25
 117 0084 FC01      		movw r30,r24
 118 0086 E050      		subi r30,lo8(-(encoder_p_bit0))
 119 0088 F040      		sbci r31,hi8(-(encoder_p_bit0))
 120 008a 89E3      		ldi r24,lo8(57)
 121 008c 90E0      		ldi r25,hi8(57)
 122 008e 9183      		std Z+1,r25
 123 0090 8083      		st Z,r24
 124 0092 AAE3      		ldi r26,lo8(58)
 125 0094 B0E0      		ldi r27,hi8(58)
 126 0096 EAE3      		ldi r30,lo8(58)
 127 0098 F0E0      		ldi r31,hi8(58)
 128 009a 8081      		ld r24,Z
 129 009c 982F      		mov r25,r24
 130 009e 8A81      		ldd r24,Y+2
 131 00a0 8095      		com r24
 132 00a2 8923      		and r24,r25
 133 00a4 8C93      		st X,r24
 134 00a6 ABE3      		ldi r26,lo8(59)
 135 00a8 B0E0      		ldi r27,hi8(59)
 136 00aa EBE3      		ldi r30,lo8(59)
 137 00ac F0E0      		ldi r31,hi8(59)
 138 00ae 9081      		ld r25,Z
 139 00b0 8A81      		ldd r24,Y+2
 140 00b2 892B      		or r24,r25
 141 00b4 8C93      		st X,r24
 142               	.L2:
 143               	.LM8:
 144 00b6 8C81      		ldd r24,Y+4
 145 00b8 8031      		cpi r24,lo8(16)
 146 00ba 01F4      		brne .L3
 147 00bc 8B81      		ldd r24,Y+3
 148 00be 882F      		mov r24,r24
 149 00c0 90E0      		ldi r25,lo8(0)
 150 00c2 880F      		lsl r24
 151 00c4 991F      		rol r25
 152 00c6 FC01      		movw r30,r24
 153 00c8 E050      		subi r30,lo8(-(encoder_p_bit0))
 154 00ca F040      		sbci r31,hi8(-(encoder_p_bit0))
 155 00cc 86E3      		ldi r24,lo8(54)
 156 00ce 90E0      		ldi r25,hi8(54)
 157 00d0 9183      		std Z+1,r25
 158 00d2 8083      		st Z,r24
 159 00d4 A7E3      		ldi r26,lo8(55)
 160 00d6 B0E0      		ldi r27,hi8(55)
 161 00d8 E7E3      		ldi r30,lo8(55)
 162 00da F0E0      		ldi r31,hi8(55)
 163 00dc 8081      		ld r24,Z
 164 00de 982F      		mov r25,r24
 165 00e0 8A81      		ldd r24,Y+2
 166 00e2 8095      		com r24
 167 00e4 8923      		and r24,r25
 168 00e6 8C93      		st X,r24
 169 00e8 A8E3      		ldi r26,lo8(56)
 170 00ea B0E0      		ldi r27,hi8(56)
 171 00ec E8E3      		ldi r30,lo8(56)
GAS LISTING C:\Users\alex\AppData\Local\Temp/ccf1ebDB.s 			page 4


 172 00ee F0E0      		ldi r31,hi8(56)
 173 00f0 9081      		ld r25,Z
 174 00f2 8A81      		ldd r24,Y+2
 175 00f4 892B      		or r24,r25
 176 00f6 8C93      		st X,r24
 177               	.L3:
 178               	.LM9:
 179 00f8 8C81      		ldd r24,Y+4
 180 00fa 8032      		cpi r24,lo8(32)
 181 00fc 01F4      		brne .L4
 182 00fe 8B81      		ldd r24,Y+3
 183 0100 882F      		mov r24,r24
 184 0102 90E0      		ldi r25,lo8(0)
 185 0104 880F      		lsl r24
 186 0106 991F      		rol r25
 187 0108 FC01      		movw r30,r24
 188 010a E050      		subi r30,lo8(-(encoder_p_bit0))
 189 010c F040      		sbci r31,hi8(-(encoder_p_bit0))
 190 010e 83E3      		ldi r24,lo8(51)
 191 0110 90E0      		ldi r25,hi8(51)
 192 0112 9183      		std Z+1,r25
 193 0114 8083      		st Z,r24
 194 0116 A4E3      		ldi r26,lo8(52)
 195 0118 B0E0      		ldi r27,hi8(52)
 196 011a E4E3      		ldi r30,lo8(52)
 197 011c F0E0      		ldi r31,hi8(52)
 198 011e 8081      		ld r24,Z
 199 0120 982F      		mov r25,r24
 200 0122 8A81      		ldd r24,Y+2
 201 0124 8095      		com r24
 202 0126 8923      		and r24,r25
 203 0128 8C93      		st X,r24
 204 012a A5E3      		ldi r26,lo8(53)
 205 012c B0E0      		ldi r27,hi8(53)
 206 012e E5E3      		ldi r30,lo8(53)
 207 0130 F0E0      		ldi r31,hi8(53)
 208 0132 9081      		ld r25,Z
 209 0134 8A81      		ldd r24,Y+2
 210 0136 892B      		or r24,r25
 211 0138 8C93      		st X,r24
 212               	.L4:
 213               	.LM10:
 214 013a 8C81      		ldd r24,Y+4
 215 013c 8033      		cpi r24,lo8(48)
 216 013e 01F4      		brne .L5
 217 0140 8B81      		ldd r24,Y+3
 218 0142 882F      		mov r24,r24
 219 0144 90E0      		ldi r25,lo8(0)
 220 0146 880F      		lsl r24
 221 0148 991F      		rol r25
 222 014a FC01      		movw r30,r24
 223 014c E050      		subi r30,lo8(-(encoder_p_bit0))
 224 014e F040      		sbci r31,hi8(-(encoder_p_bit0))
 225 0150 80E3      		ldi r24,lo8(48)
 226 0152 90E0      		ldi r25,hi8(48)
 227 0154 9183      		std Z+1,r25
 228 0156 8083      		st Z,r24
GAS LISTING C:\Users\alex\AppData\Local\Temp/ccf1ebDB.s 			page 5


 229 0158 A1E3      		ldi r26,lo8(49)
 230 015a B0E0      		ldi r27,hi8(49)
 231 015c E1E3      		ldi r30,lo8(49)
 232 015e F0E0      		ldi r31,hi8(49)
 233 0160 8081      		ld r24,Z
 234 0162 982F      		mov r25,r24
 235 0164 8A81      		ldd r24,Y+2
 236 0166 8095      		com r24
 237 0168 8923      		and r24,r25
 238 016a 8C93      		st X,r24
 239 016c A2E3      		ldi r26,lo8(50)
 240 016e B0E0      		ldi r27,hi8(50)
 241 0170 E2E3      		ldi r30,lo8(50)
 242 0172 F0E0      		ldi r31,hi8(50)
 243 0174 9081      		ld r25,Z
 244 0176 8A81      		ldd r24,Y+2
 245 0178 892B      		or r24,r25
 246 017a 8C93      		st X,r24
 247               	.L5:
 248               	.LM11:
 249 017c 8D81      		ldd r24,Y+5
 250 017e 807F      		andi r24,lo8(-16)
 251 0180 8D83      		std Y+5,r24
 252               	.LM12:
 253 0182 8D81      		ldd r24,Y+5
 254 0184 8823      		tst r24
 255 0186 01F4      		brne .L6
 256 0188 8B81      		ldd r24,Y+3
 257 018a 882F      		mov r24,r24
 258 018c 90E0      		ldi r25,lo8(0)
 259 018e 880F      		lsl r24
 260 0190 991F      		rol r25
 261 0192 FC01      		movw r30,r24
 262 0194 E050      		subi r30,lo8(-(encoder_p_bit1))
 263 0196 F040      		sbci r31,hi8(-(encoder_p_bit1))
 264 0198 89E3      		ldi r24,lo8(57)
 265 019a 90E0      		ldi r25,hi8(57)
 266 019c 9183      		std Z+1,r25
 267 019e 8083      		st Z,r24
 268 01a0 AAE3      		ldi r26,lo8(58)
 269 01a2 B0E0      		ldi r27,hi8(58)
 270 01a4 EAE3      		ldi r30,lo8(58)
 271 01a6 F0E0      		ldi r31,hi8(58)
 272 01a8 8081      		ld r24,Z
 273 01aa 982F      		mov r25,r24
 274 01ac 8981      		ldd r24,Y+1
 275 01ae 8095      		com r24
 276 01b0 8923      		and r24,r25
 277 01b2 8C93      		st X,r24
 278 01b4 ABE3      		ldi r26,lo8(59)
 279 01b6 B0E0      		ldi r27,hi8(59)
 280 01b8 EBE3      		ldi r30,lo8(59)
 281 01ba F0E0      		ldi r31,hi8(59)
 282 01bc 9081      		ld r25,Z
 283 01be 8981      		ldd r24,Y+1
 284 01c0 892B      		or r24,r25
 285 01c2 8C93      		st X,r24
GAS LISTING C:\Users\alex\AppData\Local\Temp/ccf1ebDB.s 			page 6


 286               	.L6:
 287               	.LM13:
 288 01c4 8D81      		ldd r24,Y+5
 289 01c6 8031      		cpi r24,lo8(16)
 290 01c8 01F4      		brne .L7
 291 01ca 8B81      		ldd r24,Y+3
 292 01cc 882F      		mov r24,r24
 293 01ce 90E0      		ldi r25,lo8(0)
 294 01d0 880F      		lsl r24
 295 01d2 991F      		rol r25
 296 01d4 FC01      		movw r30,r24
 297 01d6 E050      		subi r30,lo8(-(encoder_p_bit1))
 298 01d8 F040      		sbci r31,hi8(-(encoder_p_bit1))
 299 01da 86E3      		ldi r24,lo8(54)
 300 01dc 90E0      		ldi r25,hi8(54)
 301 01de 9183      		std Z+1,r25
 302 01e0 8083      		st Z,r24
 303 01e2 A7E3      		ldi r26,lo8(55)
 304 01e4 B0E0      		ldi r27,hi8(55)
 305 01e6 E7E3      		ldi r30,lo8(55)
 306 01e8 F0E0      		ldi r31,hi8(55)
 307 01ea 8081      		ld r24,Z
 308 01ec 982F      		mov r25,r24
 309 01ee 8981      		ldd r24,Y+1
 310 01f0 8095      		com r24
 311 01f2 8923      		and r24,r25
 312 01f4 8C93      		st X,r24
 313 01f6 A8E3      		ldi r26,lo8(56)
 314 01f8 B0E0      		ldi r27,hi8(56)
 315 01fa E8E3      		ldi r30,lo8(56)
 316 01fc F0E0      		ldi r31,hi8(56)
 317 01fe 9081      		ld r25,Z
 318 0200 8981      		ldd r24,Y+1
 319 0202 892B      		or r24,r25
 320 0204 8C93      		st X,r24
 321               	.L7:
 322               	.LM14:
 323 0206 8D81      		ldd r24,Y+5
 324 0208 8032      		cpi r24,lo8(32)
 325 020a 01F4      		brne .L8
 326 020c 8B81      		ldd r24,Y+3
 327 020e 882F      		mov r24,r24
 328 0210 90E0      		ldi r25,lo8(0)
 329 0212 880F      		lsl r24
 330 0214 991F      		rol r25
 331 0216 FC01      		movw r30,r24
 332 0218 E050      		subi r30,lo8(-(encoder_p_bit1))
 333 021a F040      		sbci r31,hi8(-(encoder_p_bit1))
 334 021c 83E3      		ldi r24,lo8(51)
 335 021e 90E0      		ldi r25,hi8(51)
 336 0220 9183      		std Z+1,r25
 337 0222 8083      		st Z,r24
 338 0224 A4E3      		ldi r26,lo8(52)
 339 0226 B0E0      		ldi r27,hi8(52)
 340 0228 E4E3      		ldi r30,lo8(52)
 341 022a F0E0      		ldi r31,hi8(52)
 342 022c 8081      		ld r24,Z
GAS LISTING C:\Users\alex\AppData\Local\Temp/ccf1ebDB.s 			page 7


 343 022e 982F      		mov r25,r24
 344 0230 8981      		ldd r24,Y+1
 345 0232 8095      		com r24
 346 0234 8923      		and r24,r25
 347 0236 8C93      		st X,r24
 348 0238 A5E3      		ldi r26,lo8(53)
 349 023a B0E0      		ldi r27,hi8(53)
 350 023c E5E3      		ldi r30,lo8(53)
 351 023e F0E0      		ldi r31,hi8(53)
 352 0240 9081      		ld r25,Z
 353 0242 8981      		ldd r24,Y+1
 354 0244 892B      		or r24,r25
 355 0246 8C93      		st X,r24
 356               	.L8:
 357               	.LM15:
 358 0248 8D81      		ldd r24,Y+5
 359 024a 8033      		cpi r24,lo8(48)
 360 024c 01F4      		brne .L9
 361 024e 8B81      		ldd r24,Y+3
 362 0250 882F      		mov r24,r24
 363 0252 90E0      		ldi r25,lo8(0)
 364 0254 880F      		lsl r24
 365 0256 991F      		rol r25
 366 0258 FC01      		movw r30,r24
 367 025a E050      		subi r30,lo8(-(encoder_p_bit1))
 368 025c F040      		sbci r31,hi8(-(encoder_p_bit1))
 369 025e 80E3      		ldi r24,lo8(48)
 370 0260 90E0      		ldi r25,hi8(48)
 371 0262 9183      		std Z+1,r25
 372 0264 8083      		st Z,r24
 373 0266 A1E3      		ldi r26,lo8(49)
 374 0268 B0E0      		ldi r27,hi8(49)
 375 026a E1E3      		ldi r30,lo8(49)
 376 026c F0E0      		ldi r31,hi8(49)
 377 026e 8081      		ld r24,Z
 378 0270 982F      		mov r25,r24
 379 0272 8981      		ldd r24,Y+1
 380 0274 8095      		com r24
 381 0276 8923      		and r24,r25
 382 0278 8C93      		st X,r24
 383 027a A2E3      		ldi r26,lo8(50)
 384 027c B0E0      		ldi r27,hi8(50)
 385 027e E2E3      		ldi r30,lo8(50)
 386 0280 F0E0      		ldi r31,hi8(50)
 387 0282 9081      		ld r25,Z
 388 0284 8981      		ldd r24,Y+1
 389 0286 892B      		or r24,r25
 390 0288 8C93      		st X,r24
 391               	.L9:
 392               	.LM16:
 393 028a 8B81      		ldd r24,Y+3
 394 028c 882F      		mov r24,r24
 395 028e 90E0      		ldi r25,lo8(0)
 396 0290 FC01      		movw r30,r24
 397 0292 E050      		subi r30,lo8(-(encoder_prev_bit0))
 398 0294 F040      		sbci r31,hi8(-(encoder_prev_bit0))
 399 0296 8A81      		ldd r24,Y+2
GAS LISTING C:\Users\alex\AppData\Local\Temp/ccf1ebDB.s 			page 8


 400 0298 8083      		st Z,r24
 401               	.LM17:
 402 029a 8B81      		ldd r24,Y+3
 403 029c 882F      		mov r24,r24
 404 029e 90E0      		ldi r25,lo8(0)
 405 02a0 FC01      		movw r30,r24
 406 02a2 E050      		subi r30,lo8(-(encoder_prev_bit1))
 407 02a4 F040      		sbci r31,hi8(-(encoder_prev_bit1))
 408 02a6 8981      		ldd r24,Y+1
 409 02a8 8083      		st Z,r24
 410               	/* epilogue start */
 411               	.LM18:
 412 02aa 0F90      		pop __tmp_reg__
 413 02ac 0F90      		pop __tmp_reg__
 414 02ae 0F90      		pop __tmp_reg__
 415 02b0 0F90      		pop __tmp_reg__
 416 02b2 0F90      		pop __tmp_reg__
 417 02b4 CF91      		pop r28
 418 02b6 DF91      		pop r29
 419 02b8 0895      		ret
 420               	.LFE2:
 421               		.size	encoder_setup, .-encoder_setup
 422               		.lcomm old_AB.1626,1
 423               		.data
 424               	.LC0:
 425 0010 2564 0D0A 		.string	"%d\r\n"
 425      00
 426               		.text
 427               	.global	encoder_poll
 428               		.type	encoder_poll, @function
 429               	encoder_poll:
 430               	.LFB3:
 431               	.LM19:
 432 02ba DF93      		push r29
 433 02bc CF93      		push r28
 434 02be 00D0      		rcall .
 435 02c0 00D0      		rcall .
 436 02c2 0F92      		push __tmp_reg__
 437 02c4 CDB7      		in r28,__SP_L__
 438 02c6 DEB7      		in r29,__SP_H__
 439               	/* prologue: function */
 440               	/* frame size = 5 */
 441 02c8 8D83      		std Y+5,r24
 442               	.LM20:
 443 02ca 8D81      		ldd r24,Y+5
 444 02cc 882F      		mov r24,r24
 445 02ce 90E0      		ldi r25,lo8(0)
 446 02d0 880F      		lsl r24
 447 02d2 991F      		rol r25
 448 02d4 FC01      		movw r30,r24
 449 02d6 E050      		subi r30,lo8(-(encoder_p_bit0))
 450 02d8 F040      		sbci r31,hi8(-(encoder_p_bit0))
 451 02da 0190      		ld __tmp_reg__,Z+
 452 02dc F081      		ld r31,Z
 453 02de E02D      		mov r30,__tmp_reg__
 454 02e0 2081      		ld r18,Z
 455 02e2 8D81      		ldd r24,Y+5
GAS LISTING C:\Users\alex\AppData\Local\Temp/ccf1ebDB.s 			page 9


 456 02e4 882F      		mov r24,r24
 457 02e6 90E0      		ldi r25,lo8(0)
 458 02e8 FC01      		movw r30,r24
 459 02ea E050      		subi r30,lo8(-(encoder_b_bit0))
 460 02ec F040      		sbci r31,hi8(-(encoder_b_bit0))
 461 02ee 8081      		ld r24,Z
 462 02f0 8223      		and r24,r18
 463 02f2 8C83      		std Y+4,r24
 464               	.LM21:
 465 02f4 8D81      		ldd r24,Y+5
 466 02f6 882F      		mov r24,r24
 467 02f8 90E0      		ldi r25,lo8(0)
 468 02fa 880F      		lsl r24
 469 02fc 991F      		rol r25
 470 02fe FC01      		movw r30,r24
 471 0300 E050      		subi r30,lo8(-(encoder_p_bit1))
 472 0302 F040      		sbci r31,hi8(-(encoder_p_bit1))
 473 0304 0190      		ld __tmp_reg__,Z+
 474 0306 F081      		ld r31,Z
 475 0308 E02D      		mov r30,__tmp_reg__
 476 030a 2081      		ld r18,Z
 477 030c 8D81      		ldd r24,Y+5
 478 030e 882F      		mov r24,r24
 479 0310 90E0      		ldi r25,lo8(0)
 480 0312 FC01      		movw r30,r24
 481 0314 E050      		subi r30,lo8(-(encoder_b_bit1))
 482 0316 F040      		sbci r31,hi8(-(encoder_b_bit1))
 483 0318 8081      		ld r24,Z
 484 031a 8223      		and r24,r18
 485 031c 8B83      		std Y+3,r24
 486               	.LM22:
 487 031e 8C81      		ldd r24,Y+4
 488 0320 8823      		tst r24
 489 0322 01F0      		breq .L12
 490 0324 81E0      		ldi r24,lo8(1)
 491 0326 8C83      		std Y+4,r24
 492               	.L12:
 493               	.LM23:
 494 0328 8B81      		ldd r24,Y+3
 495 032a 8823      		tst r24
 496 032c 01F0      		breq .L13
 497 032e 82E0      		ldi r24,lo8(2)
 498 0330 8B83      		std Y+3,r24
 499               	.L13:
 500               	.LM24:
 501 0332 9C81      		ldd r25,Y+4
 502 0334 8B81      		ldd r24,Y+3
 503 0336 890F      		add r24,r25
 504 0338 8A83      		std Y+2,r24
 505               	.LM25:
 506 033a 8091 0000 		lds r24,old_AB.1626
 507 033e 9927      		clr r25
 508 0340 87FD      		sbrc r24,7
 509 0342 9095      		com r25
 510 0344 880F      		lsl r24
 511 0346 991F      		rol r25
 512 0348 880F      		lsl r24
GAS LISTING C:\Users\alex\AppData\Local\Temp/ccf1ebDB.s 			page 10


 513 034a 991F      		rol r25
 514 034c 8093 0000 		sts old_AB.1626,r24
 515               	.LM26:
 516 0350 8A81      		ldd r24,Y+2
 517 0352 982F      		mov r25,r24
 518 0354 9370      		andi r25,lo8(3)
 519 0356 8091 0000 		lds r24,old_AB.1626
 520 035a 892B      		or r24,r25
 521 035c 8093 0000 		sts old_AB.1626,r24
 522               	.LM27:
 523 0360 8091 0000 		lds r24,old_AB.1626
 524 0364 9927      		clr r25
 525 0366 87FD      		sbrc r24,7
 526 0368 9095      		com r25
 527 036a 8F70      		andi r24,lo8(15)
 528 036c 9070      		andi r25,hi8(15)
 529 036e FC01      		movw r30,r24
 530 0370 E050      		subi r30,lo8(-(enc_states))
 531 0372 F040      		sbci r31,hi8(-(enc_states))
 532 0374 8081      		ld r24,Z
 533 0376 8983      		std Y+1,r24
 534               	.LM28:
 535 0378 8981      		ldd r24,Y+1
 536 037a 8823      		tst r24
 537 037c 01F0      		breq .L14
 538               	.LM29:
 539 037e 8981      		ldd r24,Y+1
 540 0380 282F      		mov r18,r24
 541 0382 30E0      		ldi r19,lo8(0)
 542 0384 00D0      		rcall .
 543 0386 00D0      		rcall .
 544 0388 EDB7      		in r30,__SP_L__
 545 038a FEB7      		in r31,__SP_H__
 546 038c 3196      		adiw r30,1
 547 038e 80E0      		ldi r24,lo8(.LC0)
 548 0390 90E0      		ldi r25,hi8(.LC0)
 549 0392 9183      		std Z+1,r25
 550 0394 8083      		st Z,r24
 551 0396 3383      		std Z+3,r19
 552 0398 2283      		std Z+2,r18
 553 039a 0E94 0000 		call uart_printf
 554 039e 0F90      		pop __tmp_reg__
 555 03a0 0F90      		pop __tmp_reg__
 556 03a2 0F90      		pop __tmp_reg__
 557 03a4 0F90      		pop __tmp_reg__
 558               	.L14:
 559               	.LM30:
 560 03a6 81E0      		ldi r24,lo8(1)
 561               	/* epilogue start */
 562               	.LM31:
 563 03a8 0F90      		pop __tmp_reg__
 564 03aa 0F90      		pop __tmp_reg__
 565 03ac 0F90      		pop __tmp_reg__
 566 03ae 0F90      		pop __tmp_reg__
 567 03b0 0F90      		pop __tmp_reg__
 568 03b2 CF91      		pop r28
 569 03b4 DF91      		pop r29
GAS LISTING C:\Users\alex\AppData\Local\Temp/ccf1ebDB.s 			page 11


 570 03b6 0895      		ret
 571               	.LFE3:
 572               		.size	encoder_poll, .-encoder_poll
 573               	.global	encoder_poll_range
 574               		.type	encoder_poll_range, @function
 575               	encoder_poll_range:
 576               	.LFB4:
 577               	.LM32:
 578 03b8 0F93      		push r16
 579 03ba 1F93      		push r17
 580 03bc DF93      		push r29
 581 03be CF93      		push r28
 582 03c0 CDB7      		in r28,__SP_L__
 583 03c2 DEB7      		in r29,__SP_H__
 584 03c4 2B97      		sbiw r28,11
 585 03c6 0FB6      		in __tmp_reg__,__SREG__
 586 03c8 F894      		cli
 587 03ca DEBF      		out __SP_H__,r29
 588 03cc 0FBE      		out __SREG__,__tmp_reg__
 589 03ce CDBF      		out __SP_L__,r28
 590               	/* prologue: function */
 591               	/* frame size = 11 */
 592 03d0 8B83      		std Y+3,r24
 593 03d2 7D83      		std Y+5,r23
 594 03d4 6C83      		std Y+4,r22
 595 03d6 5F83      		std Y+7,r21
 596 03d8 4E83      		std Y+6,r20
 597 03da 3987      		std Y+9,r19
 598 03dc 2887      		std Y+8,r18
 599 03de 1B87      		std Y+11,r17
 600 03e0 0A87      		std Y+10,r16
 601               	.LM33:
 602 03e2 1982      		std Y+1,__zero_reg__
 603               	.LM34:
 604 03e4 8B81      		ldd r24,Y+3
 605 03e6 0E94 0000 		call encoder_poll
 606 03ea 8A83      		std Y+2,r24
 607               	.LM35:
 608 03ec 8A81      		ldd r24,Y+2
 609 03ee 8130      		cpi r24,lo8(1)
 610 03f0 01F4      		brne .L17
 611 03f2 EC81      		ldd r30,Y+4
 612 03f4 FD81      		ldd r31,Y+5
 613 03f6 2081      		ld r18,Z
 614 03f8 3181      		ldd r19,Z+1
 615 03fa 8885      		ldd r24,Y+8
 616 03fc 9985      		ldd r25,Y+9
 617 03fe 2817      		cp r18,r24
 618 0400 3907      		cpc r19,r25
 619 0402 04F4      		brge .L17
 620               	.LM36:
 621 0404 EC81      		ldd r30,Y+4
 622 0406 FD81      		ldd r31,Y+5
 623 0408 2081      		ld r18,Z
 624 040a 3181      		ldd r19,Z+1
 625 040c 8A85      		ldd r24,Y+10
 626 040e 9B85      		ldd r25,Y+11
GAS LISTING C:\Users\alex\AppData\Local\Temp/ccf1ebDB.s 			page 12


 627 0410 820F      		add r24,r18
 628 0412 931F      		adc r25,r19
 629 0414 EC81      		ldd r30,Y+4
 630 0416 FD81      		ldd r31,Y+5
 631 0418 9183      		std Z+1,r25
 632 041a 8083      		st Z,r24
 633               	.LM37:
 634 041c EC81      		ldd r30,Y+4
 635 041e FD81      		ldd r31,Y+5
 636 0420 2081      		ld r18,Z
 637 0422 3181      		ldd r19,Z+1
 638 0424 8885      		ldd r24,Y+8
 639 0426 9985      		ldd r25,Y+9
 640 0428 8217      		cp r24,r18
 641 042a 9307      		cpc r25,r19
 642 042c 04F4      		brge .L18
 643 042e EC81      		ldd r30,Y+4
 644 0430 FD81      		ldd r31,Y+5
 645 0432 8885      		ldd r24,Y+8
 646 0434 9985      		ldd r25,Y+9
 647 0436 9183      		std Z+1,r25
 648 0438 8083      		st Z,r24
 649               	.L18:
 650               	.LM38:
 651 043a 81E0      		ldi r24,lo8(1)
 652 043c 8983      		std Y+1,r24
 653               	.L17:
 654               	.LM39:
 655 043e 8A81      		ldd r24,Y+2
 656 0440 8130      		cpi r24,lo8(1)
 657 0442 01F4      		brne .L19
 658 0444 EC81      		ldd r30,Y+4
 659 0446 FD81      		ldd r31,Y+5
 660 0448 2081      		ld r18,Z
 661 044a 3181      		ldd r19,Z+1
 662 044c 8E81      		ldd r24,Y+6
 663 044e 9F81      		ldd r25,Y+7
 664 0450 8217      		cp r24,r18
 665 0452 9307      		cpc r25,r19
 666 0454 04F4      		brge .L19
 667               	.LM40:
 668 0456 EC81      		ldd r30,Y+4
 669 0458 FD81      		ldd r31,Y+5
 670 045a 2081      		ld r18,Z
 671 045c 3181      		ldd r19,Z+1
 672 045e 8A85      		ldd r24,Y+10
 673 0460 9B85      		ldd r25,Y+11
 674 0462 A901      		movw r20,r18
 675 0464 481B      		sub r20,r24
 676 0466 590B      		sbc r21,r25
 677 0468 CA01      		movw r24,r20
 678 046a EC81      		ldd r30,Y+4
 679 046c FD81      		ldd r31,Y+5
 680 046e 9183      		std Z+1,r25
 681 0470 8083      		st Z,r24
 682               	.LM41:
 683 0472 EC81      		ldd r30,Y+4
GAS LISTING C:\Users\alex\AppData\Local\Temp/ccf1ebDB.s 			page 13


 684 0474 FD81      		ldd r31,Y+5
 685 0476 2081      		ld r18,Z
 686 0478 3181      		ldd r19,Z+1
 687 047a 8E81      		ldd r24,Y+6
 688 047c 9F81      		ldd r25,Y+7
 689 047e 2817      		cp r18,r24
 690 0480 3907      		cpc r19,r25
 691 0482 04F4      		brge .L20
 692 0484 EC81      		ldd r30,Y+4
 693 0486 FD81      		ldd r31,Y+5
 694 0488 8E81      		ldd r24,Y+6
 695 048a 9F81      		ldd r25,Y+7
 696 048c 9183      		std Z+1,r25
 697 048e 8083      		st Z,r24
 698               	.L20:
 699               	.LM42:
 700 0490 81E0      		ldi r24,lo8(1)
 701 0492 8983      		std Y+1,r24
 702               	.L19:
 703               	.LM43:
 704 0494 8981      		ldd r24,Y+1
 705               	/* epilogue start */
 706               	.LM44:
 707 0496 2B96      		adiw r28,11
 708 0498 0FB6      		in __tmp_reg__,__SREG__
 709 049a F894      		cli
 710 049c DEBF      		out __SP_H__,r29
 711 049e 0FBE      		out __SREG__,__tmp_reg__
 712 04a0 CDBF      		out __SP_L__,r28
 713 04a2 CF91      		pop r28
 714 04a4 DF91      		pop r29
 715 04a6 1F91      		pop r17
 716 04a8 0F91      		pop r16
 717 04aa 0895      		ret
 718               	.LFE4:
 719               		.size	encoder_poll_range, .-encoder_poll_range
 720               		.comm encoder_p_bit0,20,1
 721               		.comm encoder_p_bit1,20,1
 722               		.comm encoder_b_bit0,10,1
 723               		.comm encoder_b_bit1,10,1
 724               		.comm encoder_prev_bit0,10,1
 725               		.comm encoder_prev_bit1,10,1
 726               		.section	.debug_frame,"",@progbits
 727               	.Lframe0:
 728 0000 0C00 0000 		.long	.LECIE0-.LSCIE0
 729               	.LSCIE0:
 730 0004 FFFF FFFF 		.long	0xffffffff
 731 0008 01        		.byte	0x1
 732 0009 00        		.string	""
 733 000a 01        		.uleb128 0x1
 734 000b 7F        		.sleb128 -1
 735 000c 24        		.byte	0x24
 736 000d 0C        		.byte	0xc
 737 000e 20        		.uleb128 0x20
 738 000f 00        		.uleb128 0x0
 739               		.p2align	2
 740               	.LECIE0:
GAS LISTING C:\Users\alex\AppData\Local\Temp/ccf1ebDB.s 			page 14


 741               	.LSFDE0:
 742 0010 0C00 0000 		.long	.LEFDE0-.LASFDE0
 743               	.LASFDE0:
 744 0014 0000 0000 		.long	.Lframe0
 745 0018 0000 0000 		.long	.LFB2
 746 001c BA02 0000 		.long	.LFE2-.LFB2
 747               		.p2align	2
 748               	.LEFDE0:
 749               	.LSFDE2:
 750 0020 0C00 0000 		.long	.LEFDE2-.LASFDE2
 751               	.LASFDE2:
 752 0024 0000 0000 		.long	.Lframe0
 753 0028 0000 0000 		.long	.LFB3
 754 002c FE00 0000 		.long	.LFE3-.LFB3
 755               		.p2align	2
 756               	.LEFDE2:
 757               	.LSFDE4:
 758 0030 0C00 0000 		.long	.LEFDE4-.LASFDE4
 759               	.LASFDE4:
 760 0034 0000 0000 		.long	.Lframe0
 761 0038 0000 0000 		.long	.LFB4
 762 003c F400 0000 		.long	.LFE4-.LFB4
 763               		.p2align	2
 764               	.LEFDE4:
 765               		.text
 766               	.Letext0:
 767               		.section	.debug_info
 768 0000 8402 0000 		.long	0x284
 769 0004 0200      		.word	0x2
 770 0006 0000 0000 		.long	.Ldebug_abbrev0
 771 000a 04        		.byte	0x4
 772 000b 01        		.uleb128 0x1
 773 000c 0000 0000 		.long	.LASF28
 774 0010 01        		.byte	0x1
 775 0011 0000 0000 		.long	.LASF29
 776 0015 0000 0000 		.long	.LASF30
 777 0019 0000 0000 		.long	.Ltext0
 778 001d 0000 0000 		.long	.Letext0
 779 0021 0000 0000 		.long	.Ldebug_line0
 780 0025 02        		.uleb128 0x2
 781 0026 02        		.byte	0x2
 782 0027 07        		.byte	0x7
 783 0028 0000 0000 		.long	.LASF0
 784 002c 03        		.uleb128 0x3
 785 002d 02        		.byte	0x2
 786 002e 05        		.byte	0x5
 787 002f 696E 7400 		.string	"int"
 788 0033 02        		.uleb128 0x2
 789 0034 04        		.byte	0x4
 790 0035 05        		.byte	0x5
 791 0036 0000 0000 		.long	.LASF1
 792 003a 04        		.uleb128 0x4
 793 003b 0000 0000 		.long	.LASF3
 794 003f 02        		.byte	0x2
 795 0040 79        		.byte	0x79
 796 0041 4500 0000 		.long	0x45
 797 0045 02        		.uleb128 0x2
GAS LISTING C:\Users\alex\AppData\Local\Temp/ccf1ebDB.s 			page 15


 798 0046 01        		.byte	0x1
 799 0047 06        		.byte	0x6
 800 0048 0000 0000 		.long	.LASF2
 801 004c 04        		.uleb128 0x4
 802 004d 0000 0000 		.long	.LASF4
 803 0051 02        		.byte	0x2
 804 0052 7A        		.byte	0x7a
 805 0053 5700 0000 		.long	0x57
 806 0057 02        		.uleb128 0x2
 807 0058 01        		.byte	0x1
 808 0059 08        		.byte	0x8
 809 005a 0000 0000 		.long	.LASF5
 810 005e 02        		.uleb128 0x2
 811 005f 04        		.byte	0x4
 812 0060 07        		.byte	0x7
 813 0061 0000 0000 		.long	.LASF6
 814 0065 02        		.uleb128 0x2
 815 0066 08        		.byte	0x8
 816 0067 05        		.byte	0x5
 817 0068 0000 0000 		.long	.LASF7
 818 006c 02        		.uleb128 0x2
 819 006d 08        		.byte	0x8
 820 006e 07        		.byte	0x7
 821 006f 0000 0000 		.long	.LASF8
 822 0073 05        		.uleb128 0x5
 823 0074 01        		.byte	0x1
 824 0075 08        		.byte	0x8
 825 0076 06        		.uleb128 0x6
 826 0077 01        		.byte	0x1
 827 0078 0000 0000 		.long	.LASF31
 828 007c 01        		.byte	0x1
 829 007d 21        		.byte	0x21
 830 007e 01        		.byte	0x1
 831 007f 0000 0000 		.long	.LFB2
 832 0083 0000 0000 		.long	.LFE2
 833 0087 02        		.byte	0x2
 834 0088 90        		.byte	0x90
 835 0089 20        		.uleb128 0x20
 836 008a D500 0000 		.long	0xd5
 837 008e 07        		.uleb128 0x7
 838 008f 0000 0000 		.long	.LASF9
 839 0093 01        		.byte	0x1
 840 0094 1F        		.byte	0x1f
 841 0095 4C00 0000 		.long	0x4c
 842 0099 02        		.byte	0x2
 843 009a 8C        		.byte	0x8c
 844 009b 03        		.sleb128 3
 845 009c 07        		.uleb128 0x7
 846 009d 0000 0000 		.long	.LASF10
 847 00a1 01        		.byte	0x1
 848 00a2 1F        		.byte	0x1f
 849 00a3 4C00 0000 		.long	0x4c
 850 00a7 02        		.byte	0x2
 851 00a8 8C        		.byte	0x8c
 852 00a9 04        		.sleb128 4
 853 00aa 07        		.uleb128 0x7
 854 00ab 0000 0000 		.long	.LASF11
GAS LISTING C:\Users\alex\AppData\Local\Temp/ccf1ebDB.s 			page 16


 855 00af 01        		.byte	0x1
 856 00b0 1F        		.byte	0x1f
 857 00b1 4C00 0000 		.long	0x4c
 858 00b5 02        		.byte	0x2
 859 00b6 8C        		.byte	0x8c
 860 00b7 05        		.sleb128 5
 861 00b8 08        		.uleb128 0x8
 862 00b9 0000 0000 		.long	.LASF12
 863 00bd 01        		.byte	0x1
 864 00be 21        		.byte	0x21
 865 00bf 4C00 0000 		.long	0x4c
 866 00c3 02        		.byte	0x2
 867 00c4 8C        		.byte	0x8c
 868 00c5 02        		.sleb128 2
 869 00c6 08        		.uleb128 0x8
 870 00c7 0000 0000 		.long	.LASF13
 871 00cb 01        		.byte	0x1
 872 00cc 21        		.byte	0x21
 873 00cd 4C00 0000 		.long	0x4c
 874 00d1 02        		.byte	0x2
 875 00d2 8C        		.byte	0x8c
 876 00d3 01        		.sleb128 1
 877 00d4 00        		.byte	0x0
 878 00d5 09        		.uleb128 0x9
 879 00d6 01        		.byte	0x1
 880 00d7 0000 0000 		.long	.LASF16
 881 00db 01        		.byte	0x1
 882 00dc 3A        		.byte	0x3a
 883 00dd 01        		.byte	0x1
 884 00de 3A00 0000 		.long	0x3a
 885 00e2 0000 0000 		.long	.LFB3
 886 00e6 0000 0000 		.long	.LFE3
 887 00ea 02        		.byte	0x2
 888 00eb 90        		.byte	0x90
 889 00ec 20        		.uleb128 0x20
 890 00ed 4601 0000 		.long	0x146
 891 00f1 07        		.uleb128 0x7
 892 00f2 0000 0000 		.long	.LASF9
 893 00f6 01        		.byte	0x1
 894 00f7 38        		.byte	0x38
 895 00f8 4C00 0000 		.long	0x4c
 896 00fc 02        		.byte	0x2
 897 00fd 8C        		.byte	0x8c
 898 00fe 05        		.sleb128 5
 899 00ff 0A        		.uleb128 0xa
 900 0100 6230 00   		.string	"b0"
 901 0103 01        		.byte	0x1
 902 0104 3B        		.byte	0x3b
 903 0105 4C00 0000 		.long	0x4c
 904 0109 02        		.byte	0x2
 905 010a 8C        		.byte	0x8c
 906 010b 04        		.sleb128 4
 907 010c 0A        		.uleb128 0xa
 908 010d 6231 00   		.string	"b1"
 909 0110 01        		.byte	0x1
 910 0111 3B        		.byte	0x3b
 911 0112 4C00 0000 		.long	0x4c
GAS LISTING C:\Users\alex\AppData\Local\Temp/ccf1ebDB.s 			page 17


 912 0116 02        		.byte	0x2
 913 0117 8C        		.byte	0x8c
 914 0118 03        		.sleb128 3
 915 0119 0A        		.uleb128 0xa
 916 011a 6162 00   		.string	"ab"
 917 011d 01        		.byte	0x1
 918 011e 3B        		.byte	0x3b
 919 011f 4C00 0000 		.long	0x4c
 920 0123 02        		.byte	0x2
 921 0124 8C        		.byte	0x8c
 922 0125 02        		.sleb128 2
 923 0126 08        		.uleb128 0x8
 924 0127 0000 0000 		.long	.LASF14
 925 012b 01        		.byte	0x1
 926 012c 3B        		.byte	0x3b
 927 012d 4C00 0000 		.long	0x4c
 928 0131 02        		.byte	0x2
 929 0132 8C        		.byte	0x8c
 930 0133 01        		.sleb128 1
 931 0134 08        		.uleb128 0x8
 932 0135 0000 0000 		.long	.LASF15
 933 0139 01        		.byte	0x1
 934 013a 3C        		.byte	0x3c
 935 013b 3A00 0000 		.long	0x3a
 936 013f 05        		.byte	0x5
 937 0140 03        		.byte	0x3
 938 0141 0000 0000 		.long	old_AB.1626
 939 0145 00        		.byte	0x0
 940 0146 09        		.uleb128 0x9
 941 0147 01        		.byte	0x1
 942 0148 0000 0000 		.long	.LASF17
 943 014c 01        		.byte	0x1
 944 014d 53        		.byte	0x53
 945 014e 01        		.byte	0x1
 946 014f 3A00 0000 		.long	0x3a
 947 0153 0000 0000 		.long	.LFB4
 948 0157 0000 0000 		.long	.LFE4
 949 015b 02        		.byte	0x2
 950 015c 90        		.byte	0x90
 951 015d 20        		.uleb128 0x20
 952 015e C501 0000 		.long	0x1c5
 953 0162 07        		.uleb128 0x7
 954 0163 0000 0000 		.long	.LASF9
 955 0167 01        		.byte	0x1
 956 0168 51        		.byte	0x51
 957 0169 4C00 0000 		.long	0x4c
 958 016d 02        		.byte	0x2
 959 016e 8C        		.byte	0x8c
 960 016f 03        		.sleb128 3
 961 0170 0B        		.uleb128 0xb
 962 0171 7661 7200 		.string	"var"
 963 0175 01        		.byte	0x1
 964 0176 51        		.byte	0x51
 965 0177 C501 0000 		.long	0x1c5
 966 017b 02        		.byte	0x2
 967 017c 8C        		.byte	0x8c
 968 017d 04        		.sleb128 4
GAS LISTING C:\Users\alex\AppData\Local\Temp/ccf1ebDB.s 			page 18


 969 017e 0B        		.uleb128 0xb
 970 017f 6D69 6E00 		.string	"min"
 971 0183 01        		.byte	0x1
 972 0184 51        		.byte	0x51
 973 0185 2C00 0000 		.long	0x2c
 974 0189 02        		.byte	0x2
 975 018a 8C        		.byte	0x8c
 976 018b 06        		.sleb128 6
 977 018c 0B        		.uleb128 0xb
 978 018d 6D61 7800 		.string	"max"
 979 0191 01        		.byte	0x1
 980 0192 51        		.byte	0x51
 981 0193 2C00 0000 		.long	0x2c
 982 0197 02        		.byte	0x2
 983 0198 8C        		.byte	0x8c
 984 0199 08        		.sleb128 8
 985 019a 07        		.uleb128 0x7
 986 019b 0000 0000 		.long	.LASF18
 987 019f 01        		.byte	0x1
 988 01a0 51        		.byte	0x51
 989 01a1 2C00 0000 		.long	0x2c
 990 01a5 02        		.byte	0x2
 991 01a6 8C        		.byte	0x8c
 992 01a7 0A        		.sleb128 10
 993 01a8 08        		.uleb128 0x8
 994 01a9 0000 0000 		.long	.LASF19
 995 01ad 01        		.byte	0x1
 996 01ae 54        		.byte	0x54
 997 01af 3A00 0000 		.long	0x3a
 998 01b3 02        		.byte	0x2
 999 01b4 8C        		.byte	0x8c
 1000 01b5 02        		.sleb128 2
 1001 01b6 08        		.uleb128 0x8
 1002 01b7 0000 0000 		.long	.LASF20
 1003 01bb 01        		.byte	0x1
 1004 01bc 54        		.byte	0x54
 1005 01bd 3A00 0000 		.long	0x3a
 1006 01c1 02        		.byte	0x2
 1007 01c2 8C        		.byte	0x8c
 1008 01c3 01        		.sleb128 1
 1009 01c4 00        		.byte	0x0
 1010 01c5 0C        		.uleb128 0xc
 1011 01c6 02        		.byte	0x2
 1012 01c7 2C00 0000 		.long	0x2c
 1013 01cb 0D        		.uleb128 0xd
 1014 01cc DE01 0000 		.long	0x1de
 1015 01d0 DB01 0000 		.long	0x1db
 1016 01d4 0E        		.uleb128 0xe
 1017 01d5 DB01 0000 		.long	0x1db
 1018 01d9 09        		.byte	0x9
 1019 01da 00        		.byte	0x0
 1020 01db 05        		.uleb128 0x5
 1021 01dc 02        		.byte	0x2
 1022 01dd 07        		.byte	0x7
 1023 01de 0C        		.uleb128 0xc
 1024 01df 02        		.byte	0x2
 1025 01e0 E401 0000 		.long	0x1e4
GAS LISTING C:\Users\alex\AppData\Local\Temp/ccf1ebDB.s 			page 19


 1026 01e4 0F        		.uleb128 0xf
 1027 01e5 4C00 0000 		.long	0x4c
 1028 01e9 10        		.uleb128 0x10
 1029 01ea 0000 0000 		.long	.LASF21
 1030 01ee 01        		.byte	0x1
 1031 01ef 13        		.byte	0x13
 1032 01f0 CB01 0000 		.long	0x1cb
 1033 01f4 01        		.byte	0x1
 1034 01f5 05        		.byte	0x5
 1035 01f6 03        		.byte	0x3
 1036 01f7 0000 0000 		.long	encoder_p_bit0
 1037 01fb 10        		.uleb128 0x10
 1038 01fc 0000 0000 		.long	.LASF22
 1039 0200 01        		.byte	0x1
 1040 0201 14        		.byte	0x14
 1041 0202 CB01 0000 		.long	0x1cb
 1042 0206 01        		.byte	0x1
 1043 0207 05        		.byte	0x5
 1044 0208 03        		.byte	0x3
 1045 0209 0000 0000 		.long	encoder_p_bit1
 1046 020d 0D        		.uleb128 0xd
 1047 020e 4C00 0000 		.long	0x4c
 1048 0212 1D02 0000 		.long	0x21d
 1049 0216 0E        		.uleb128 0xe
 1050 0217 DB01 0000 		.long	0x1db
 1051 021b 09        		.byte	0x9
 1052 021c 00        		.byte	0x0
 1053 021d 10        		.uleb128 0x10
 1054 021e 0000 0000 		.long	.LASF23
 1055 0222 01        		.byte	0x1
 1056 0223 16        		.byte	0x16
 1057 0224 0D02 0000 		.long	0x20d
 1058 0228 01        		.byte	0x1
 1059 0229 05        		.byte	0x5
 1060 022a 03        		.byte	0x3
 1061 022b 0000 0000 		.long	encoder_b_bit0
 1062 022f 10        		.uleb128 0x10
 1063 0230 0000 0000 		.long	.LASF24
 1064 0234 01        		.byte	0x1
 1065 0235 17        		.byte	0x17
 1066 0236 0D02 0000 		.long	0x20d
 1067 023a 01        		.byte	0x1
 1068 023b 05        		.byte	0x5
 1069 023c 03        		.byte	0x3
 1070 023d 0000 0000 		.long	encoder_b_bit1
 1071 0241 10        		.uleb128 0x10
 1072 0242 0000 0000 		.long	.LASF25
 1073 0246 01        		.byte	0x1
 1074 0247 18        		.byte	0x18
 1075 0248 0D02 0000 		.long	0x20d
 1076 024c 01        		.byte	0x1
 1077 024d 05        		.byte	0x5
 1078 024e 03        		.byte	0x3
 1079 024f 0000 0000 		.long	encoder_prev_bit0
 1080 0253 10        		.uleb128 0x10
 1081 0254 0000 0000 		.long	.LASF26
 1082 0258 01        		.byte	0x1
GAS LISTING C:\Users\alex\AppData\Local\Temp/ccf1ebDB.s 			page 20


 1083 0259 19        		.byte	0x19
 1084 025a 0D02 0000 		.long	0x20d
 1085 025e 01        		.byte	0x1
 1086 025f 05        		.byte	0x5
 1087 0260 03        		.byte	0x3
 1088 0261 0000 0000 		.long	encoder_prev_bit1
 1089 0265 0D        		.uleb128 0xd
 1090 0266 3A00 0000 		.long	0x3a
 1091 026a 7502 0000 		.long	0x275
 1092 026e 0E        		.uleb128 0xe
 1093 026f DB01 0000 		.long	0x1db
 1094 0273 0F        		.byte	0xf
 1095 0274 00        		.byte	0x0
 1096 0275 10        		.uleb128 0x10
 1097 0276 0000 0000 		.long	.LASF27
 1098 027a 01        		.byte	0x1
 1099 027b 1C        		.byte	0x1c
 1100 027c 6502 0000 		.long	0x265
 1101 0280 01        		.byte	0x1
 1102 0281 05        		.byte	0x5
 1103 0282 03        		.byte	0x3
 1104 0283 0000 0000 		.long	enc_states
 1105 0287 00        		.byte	0x0
 1106               		.section	.debug_abbrev
 1107 0000 01        		.uleb128 0x1
 1108 0001 11        		.uleb128 0x11
 1109 0002 01        		.byte	0x1
 1110 0003 25        		.uleb128 0x25
 1111 0004 0E        		.uleb128 0xe
 1112 0005 13        		.uleb128 0x13
 1113 0006 0B        		.uleb128 0xb
 1114 0007 03        		.uleb128 0x3
 1115 0008 0E        		.uleb128 0xe
 1116 0009 1B        		.uleb128 0x1b
 1117 000a 0E        		.uleb128 0xe
 1118 000b 11        		.uleb128 0x11
 1119 000c 01        		.uleb128 0x1
 1120 000d 12        		.uleb128 0x12
 1121 000e 01        		.uleb128 0x1
 1122 000f 10        		.uleb128 0x10
 1123 0010 06        		.uleb128 0x6
 1124 0011 00        		.byte	0x0
 1125 0012 00        		.byte	0x0
 1126 0013 02        		.uleb128 0x2
 1127 0014 24        		.uleb128 0x24
 1128 0015 00        		.byte	0x0
 1129 0016 0B        		.uleb128 0xb
 1130 0017 0B        		.uleb128 0xb
 1131 0018 3E        		.uleb128 0x3e
 1132 0019 0B        		.uleb128 0xb
 1133 001a 03        		.uleb128 0x3
 1134 001b 0E        		.uleb128 0xe
 1135 001c 00        		.byte	0x0
 1136 001d 00        		.byte	0x0
 1137 001e 03        		.uleb128 0x3
 1138 001f 24        		.uleb128 0x24
 1139 0020 00        		.byte	0x0
GAS LISTING C:\Users\alex\AppData\Local\Temp/ccf1ebDB.s 			page 21


 1140 0021 0B        		.uleb128 0xb
 1141 0022 0B        		.uleb128 0xb
 1142 0023 3E        		.uleb128 0x3e
 1143 0024 0B        		.uleb128 0xb
 1144 0025 03        		.uleb128 0x3
 1145 0026 08        		.uleb128 0x8
 1146 0027 00        		.byte	0x0
 1147 0028 00        		.byte	0x0
 1148 0029 04        		.uleb128 0x4
 1149 002a 16        		.uleb128 0x16
 1150 002b 00        		.byte	0x0
 1151 002c 03        		.uleb128 0x3
 1152 002d 0E        		.uleb128 0xe
 1153 002e 3A        		.uleb128 0x3a
 1154 002f 0B        		.uleb128 0xb
 1155 0030 3B        		.uleb128 0x3b
 1156 0031 0B        		.uleb128 0xb
 1157 0032 49        		.uleb128 0x49
 1158 0033 13        		.uleb128 0x13
 1159 0034 00        		.byte	0x0
 1160 0035 00        		.byte	0x0
 1161 0036 05        		.uleb128 0x5
 1162 0037 24        		.uleb128 0x24
 1163 0038 00        		.byte	0x0
 1164 0039 0B        		.uleb128 0xb
 1165 003a 0B        		.uleb128 0xb
 1166 003b 3E        		.uleb128 0x3e
 1167 003c 0B        		.uleb128 0xb
 1168 003d 00        		.byte	0x0
 1169 003e 00        		.byte	0x0
 1170 003f 06        		.uleb128 0x6
 1171 0040 2E        		.uleb128 0x2e
 1172 0041 01        		.byte	0x1
 1173 0042 3F        		.uleb128 0x3f
 1174 0043 0C        		.uleb128 0xc
 1175 0044 03        		.uleb128 0x3
 1176 0045 0E        		.uleb128 0xe
 1177 0046 3A        		.uleb128 0x3a
 1178 0047 0B        		.uleb128 0xb
 1179 0048 3B        		.uleb128 0x3b
 1180 0049 0B        		.uleb128 0xb
 1181 004a 27        		.uleb128 0x27
 1182 004b 0C        		.uleb128 0xc
 1183 004c 11        		.uleb128 0x11
 1184 004d 01        		.uleb128 0x1
 1185 004e 12        		.uleb128 0x12
 1186 004f 01        		.uleb128 0x1
 1187 0050 40        		.uleb128 0x40
 1188 0051 0A        		.uleb128 0xa
 1189 0052 01        		.uleb128 0x1
 1190 0053 13        		.uleb128 0x13
 1191 0054 00        		.byte	0x0
 1192 0055 00        		.byte	0x0
 1193 0056 07        		.uleb128 0x7
 1194 0057 05        		.uleb128 0x5
 1195 0058 00        		.byte	0x0
 1196 0059 03        		.uleb128 0x3
GAS LISTING C:\Users\alex\AppData\Local\Temp/ccf1ebDB.s 			page 22


 1197 005a 0E        		.uleb128 0xe
 1198 005b 3A        		.uleb128 0x3a
 1199 005c 0B        		.uleb128 0xb
 1200 005d 3B        		.uleb128 0x3b
 1201 005e 0B        		.uleb128 0xb
 1202 005f 49        		.uleb128 0x49
 1203 0060 13        		.uleb128 0x13
 1204 0061 02        		.uleb128 0x2
 1205 0062 0A        		.uleb128 0xa
 1206 0063 00        		.byte	0x0
 1207 0064 00        		.byte	0x0
 1208 0065 08        		.uleb128 0x8
 1209 0066 34        		.uleb128 0x34
 1210 0067 00        		.byte	0x0
 1211 0068 03        		.uleb128 0x3
 1212 0069 0E        		.uleb128 0xe
 1213 006a 3A        		.uleb128 0x3a
 1214 006b 0B        		.uleb128 0xb
 1215 006c 3B        		.uleb128 0x3b
 1216 006d 0B        		.uleb128 0xb
 1217 006e 49        		.uleb128 0x49
 1218 006f 13        		.uleb128 0x13
 1219 0070 02        		.uleb128 0x2
 1220 0071 0A        		.uleb128 0xa
 1221 0072 00        		.byte	0x0
 1222 0073 00        		.byte	0x0
 1223 0074 09        		.uleb128 0x9
 1224 0075 2E        		.uleb128 0x2e
 1225 0076 01        		.byte	0x1
 1226 0077 3F        		.uleb128 0x3f
 1227 0078 0C        		.uleb128 0xc
 1228 0079 03        		.uleb128 0x3
 1229 007a 0E        		.uleb128 0xe
 1230 007b 3A        		.uleb128 0x3a
 1231 007c 0B        		.uleb128 0xb
 1232 007d 3B        		.uleb128 0x3b
 1233 007e 0B        		.uleb128 0xb
 1234 007f 27        		.uleb128 0x27
 1235 0080 0C        		.uleb128 0xc
 1236 0081 49        		.uleb128 0x49
 1237 0082 13        		.uleb128 0x13
 1238 0083 11        		.uleb128 0x11
 1239 0084 01        		.uleb128 0x1
 1240 0085 12        		.uleb128 0x12
 1241 0086 01        		.uleb128 0x1
 1242 0087 40        		.uleb128 0x40
 1243 0088 0A        		.uleb128 0xa
 1244 0089 01        		.uleb128 0x1
 1245 008a 13        		.uleb128 0x13
 1246 008b 00        		.byte	0x0
 1247 008c 00        		.byte	0x0
 1248 008d 0A        		.uleb128 0xa
 1249 008e 34        		.uleb128 0x34
 1250 008f 00        		.byte	0x0
 1251 0090 03        		.uleb128 0x3
 1252 0091 08        		.uleb128 0x8
 1253 0092 3A        		.uleb128 0x3a
GAS LISTING C:\Users\alex\AppData\Local\Temp/ccf1ebDB.s 			page 23


 1254 0093 0B        		.uleb128 0xb
 1255 0094 3B        		.uleb128 0x3b
 1256 0095 0B        		.uleb128 0xb
 1257 0096 49        		.uleb128 0x49
 1258 0097 13        		.uleb128 0x13
 1259 0098 02        		.uleb128 0x2
 1260 0099 0A        		.uleb128 0xa
 1261 009a 00        		.byte	0x0
 1262 009b 00        		.byte	0x0
 1263 009c 0B        		.uleb128 0xb
 1264 009d 05        		.uleb128 0x5
 1265 009e 00        		.byte	0x0
 1266 009f 03        		.uleb128 0x3
 1267 00a0 08        		.uleb128 0x8
 1268 00a1 3A        		.uleb128 0x3a
 1269 00a2 0B        		.uleb128 0xb
 1270 00a3 3B        		.uleb128 0x3b
 1271 00a4 0B        		.uleb128 0xb
 1272 00a5 49        		.uleb128 0x49
 1273 00a6 13        		.uleb128 0x13
 1274 00a7 02        		.uleb128 0x2
 1275 00a8 0A        		.uleb128 0xa
 1276 00a9 00        		.byte	0x0
 1277 00aa 00        		.byte	0x0
 1278 00ab 0C        		.uleb128 0xc
 1279 00ac 0F        		.uleb128 0xf
 1280 00ad 00        		.byte	0x0
 1281 00ae 0B        		.uleb128 0xb
 1282 00af 0B        		.uleb128 0xb
 1283 00b0 49        		.uleb128 0x49
 1284 00b1 13        		.uleb128 0x13
 1285 00b2 00        		.byte	0x0
 1286 00b3 00        		.byte	0x0
 1287 00b4 0D        		.uleb128 0xd
 1288 00b5 01        		.uleb128 0x1
 1289 00b6 01        		.byte	0x1
 1290 00b7 49        		.uleb128 0x49
 1291 00b8 13        		.uleb128 0x13
 1292 00b9 01        		.uleb128 0x1
 1293 00ba 13        		.uleb128 0x13
 1294 00bb 00        		.byte	0x0
 1295 00bc 00        		.byte	0x0
 1296 00bd 0E        		.uleb128 0xe
 1297 00be 21        		.uleb128 0x21
 1298 00bf 00        		.byte	0x0
 1299 00c0 49        		.uleb128 0x49
 1300 00c1 13        		.uleb128 0x13
 1301 00c2 2F        		.uleb128 0x2f
 1302 00c3 0B        		.uleb128 0xb
 1303 00c4 00        		.byte	0x0
 1304 00c5 00        		.byte	0x0
 1305 00c6 0F        		.uleb128 0xf
 1306 00c7 35        		.uleb128 0x35
 1307 00c8 00        		.byte	0x0
 1308 00c9 49        		.uleb128 0x49
 1309 00ca 13        		.uleb128 0x13
 1310 00cb 00        		.byte	0x0
GAS LISTING C:\Users\alex\AppData\Local\Temp/ccf1ebDB.s 			page 24


 1311 00cc 00        		.byte	0x0
 1312 00cd 10        		.uleb128 0x10
 1313 00ce 34        		.uleb128 0x34
 1314 00cf 00        		.byte	0x0
 1315 00d0 03        		.uleb128 0x3
 1316 00d1 0E        		.uleb128 0xe
 1317 00d2 3A        		.uleb128 0x3a
 1318 00d3 0B        		.uleb128 0xb
 1319 00d4 3B        		.uleb128 0x3b
 1320 00d5 0B        		.uleb128 0xb
 1321 00d6 49        		.uleb128 0x49
 1322 00d7 13        		.uleb128 0x13
 1323 00d8 3F        		.uleb128 0x3f
 1324 00d9 0C        		.uleb128 0xc
 1325 00da 02        		.uleb128 0x2
 1326 00db 0A        		.uleb128 0xa
 1327 00dc 00        		.byte	0x0
 1328 00dd 00        		.byte	0x0
 1329 00de 00        		.byte	0x0
 1330               		.section	.debug_pubnames,"",@progbits
 1331 0000 CF00 0000 		.long	0xcf
 1332 0004 0200      		.word	0x2
 1333 0006 0000 0000 		.long	.Ldebug_info0
 1334 000a 8802 0000 		.long	0x288
 1335 000e 7600 0000 		.long	0x76
 1336 0012 656E 636F 		.string	"encoder_setup"
 1336      6465 725F 
 1336      7365 7475 
 1336      7000 
 1337 0020 D500 0000 		.long	0xd5
 1338 0024 656E 636F 		.string	"encoder_poll"
 1338      6465 725F 
 1338      706F 6C6C 
 1338      00
 1339 0031 4601 0000 		.long	0x146
 1340 0035 656E 636F 		.string	"encoder_poll_range"
 1340      6465 725F 
 1340      706F 6C6C 
 1340      5F72 616E 
 1340      6765 00
 1341 0048 E901 0000 		.long	0x1e9
 1342 004c 656E 636F 		.string	"encoder_p_bit0"
 1342      6465 725F 
 1342      705F 6269 
 1342      7430 00
 1343 005b FB01 0000 		.long	0x1fb
 1344 005f 656E 636F 		.string	"encoder_p_bit1"
 1344      6465 725F 
 1344      705F 6269 
 1344      7431 00
 1345 006e 1D02 0000 		.long	0x21d
 1346 0072 656E 636F 		.string	"encoder_b_bit0"
 1346      6465 725F 
 1346      625F 6269 
 1346      7430 00
 1347 0081 2F02 0000 		.long	0x22f
 1348 0085 656E 636F 		.string	"encoder_b_bit1"
GAS LISTING C:\Users\alex\AppData\Local\Temp/ccf1ebDB.s 			page 25


 1348      6465 725F 
 1348      625F 6269 
 1348      7431 00
 1349 0094 4102 0000 		.long	0x241
 1350 0098 656E 636F 		.string	"encoder_prev_bit0"
 1350      6465 725F 
 1350      7072 6576 
 1350      5F62 6974 
 1350      3000 
 1351 00aa 5302 0000 		.long	0x253
 1352 00ae 656E 636F 		.string	"encoder_prev_bit1"
 1352      6465 725F 
 1352      7072 6576 
 1352      5F62 6974 
 1352      3100 
 1353 00c0 7502 0000 		.long	0x275
 1354 00c4 656E 635F 		.string	"enc_states"
 1354      7374 6174 
 1354      6573 00
 1355 00cf 0000 0000 		.long	0x0
 1356               		.section	.debug_aranges,"",@progbits
 1357 0000 1C00 0000 		.long	0x1c
 1358 0004 0200      		.word	0x2
 1359 0006 0000 0000 		.long	.Ldebug_info0
 1360 000a 04        		.byte	0x4
 1361 000b 00        		.byte	0x0
 1362 000c 0000      		.word	0x0
 1363 000e 0000      		.word	0x0
 1364 0010 0000 0000 		.long	.Ltext0
 1365 0014 AC04 0000 		.long	.Letext0-.Ltext0
 1366 0018 0000 0000 		.long	0x0
 1367 001c 0000 0000 		.long	0x0
 1368               		.section	.debug_line
 1369 0000 CA01 0000 		.long	.LELT0-.LSLT0
 1370               	.LSLT0:
 1371 0004 0200      		.word	0x2
 1372 0006 5A00 0000 		.long	.LELTP0-.LASLTP0
 1373               	.LASLTP0:
 1374 000a 01        		.byte	0x1
 1375 000b 01        		.byte	0x1
 1376 000c F6        		.byte	0xf6
 1377 000d F5        		.byte	0xf5
 1378 000e 0A        		.byte	0xa
 1379 000f 00        		.byte	0x0
 1380 0010 01        		.byte	0x1
 1381 0011 01        		.byte	0x1
 1382 0012 01        		.byte	0x1
 1383 0013 01        		.byte	0x1
 1384 0014 00        		.byte	0x0
 1385 0015 00        		.byte	0x0
 1386 0016 00        		.byte	0x0
 1387 0017 01        		.byte	0x1
 1388 0018 633A 2F77 		.ascii	"c:/winavr-20100110/lib/gcc/../../avr/include"
 1388      696E 6176 
 1388      722D 3230 
 1388      3130 3031 
 1388      3130 2F6C 
GAS LISTING C:\Users\alex\AppData\Local\Temp/ccf1ebDB.s 			page 26


 1389 0044 00        		.byte	0
 1390 0045 00        		.byte	0x0
 1391 0046 726F 745F 		.string	"rot_encoder.c"
 1391      656E 636F 
 1391      6465 722E 
 1391      6300 
 1392 0054 00        		.uleb128 0x0
 1393 0055 00        		.uleb128 0x0
 1394 0056 00        		.uleb128 0x0
 1395 0057 7374 6469 		.string	"stdint.h"
 1395      6E74 2E68 
 1395      00
 1396 0060 01        		.uleb128 0x1
 1397 0061 00        		.uleb128 0x0
 1398 0062 00        		.uleb128 0x0
 1399 0063 00        		.byte	0x0
 1400               	.LELTP0:
 1401 0064 00        		.byte	0x0
 1402 0065 05        		.uleb128 0x5
 1403 0066 02        		.byte	0x2
 1404 0067 0000 0000 		.long	.LM1
 1405 006b 34        		.byte	0x34
 1406 006c 00        		.byte	0x0
 1407 006d 05        		.uleb128 0x5
 1408 006e 02        		.byte	0x2
 1409 006f 0000 0000 		.long	.LM2
 1410 0073 16        		.byte	0x16
 1411 0074 00        		.byte	0x0
 1412 0075 05        		.uleb128 0x5
 1413 0076 02        		.byte	0x2
 1414 0077 0000 0000 		.long	.LM3
 1415 007b 15        		.byte	0x15
 1416 007c 00        		.byte	0x0
 1417 007d 05        		.uleb128 0x5
 1418 007e 02        		.byte	0x2
 1419 007f 0000 0000 		.long	.LM4
 1420 0083 15        		.byte	0x15
 1421 0084 00        		.byte	0x0
 1422 0085 05        		.uleb128 0x5
 1423 0086 02        		.byte	0x2
 1424 0087 0000 0000 		.long	.LM5
 1425 008b 15        		.byte	0x15
 1426 008c 00        		.byte	0x0
 1427 008d 05        		.uleb128 0x5
 1428 008e 02        		.byte	0x2
 1429 008f 0000 0000 		.long	.LM6
 1430 0093 16        		.byte	0x16
 1431 0094 00        		.byte	0x0
 1432 0095 05        		.uleb128 0x5
 1433 0096 02        		.byte	0x2
 1434 0097 0000 0000 		.long	.LM7
 1435 009b 15        		.byte	0x15
 1436 009c 00        		.byte	0x0
 1437 009d 05        		.uleb128 0x5
 1438 009e 02        		.byte	0x2
 1439 009f 0000 0000 		.long	.LM8
 1440 00a3 15        		.byte	0x15
GAS LISTING C:\Users\alex\AppData\Local\Temp/ccf1ebDB.s 			page 27


 1441 00a4 00        		.byte	0x0
 1442 00a5 05        		.uleb128 0x5
 1443 00a6 02        		.byte	0x2
 1444 00a7 0000 0000 		.long	.LM9
 1445 00ab 15        		.byte	0x15
 1446 00ac 00        		.byte	0x0
 1447 00ad 05        		.uleb128 0x5
 1448 00ae 02        		.byte	0x2
 1449 00af 0000 0000 		.long	.LM10
 1450 00b3 15        		.byte	0x15
 1451 00b4 00        		.byte	0x0
 1452 00b5 05        		.uleb128 0x5
 1453 00b6 02        		.byte	0x2
 1454 00b7 0000 0000 		.long	.LM11
 1455 00bb 16        		.byte	0x16
 1456 00bc 00        		.byte	0x0
 1457 00bd 05        		.uleb128 0x5
 1458 00be 02        		.byte	0x2
 1459 00bf 0000 0000 		.long	.LM12
 1460 00c3 15        		.byte	0x15
 1461 00c4 00        		.byte	0x0
 1462 00c5 05        		.uleb128 0x5
 1463 00c6 02        		.byte	0x2
 1464 00c7 0000 0000 		.long	.LM13
 1465 00cb 15        		.byte	0x15
 1466 00cc 00        		.byte	0x0
 1467 00cd 05        		.uleb128 0x5
 1468 00ce 02        		.byte	0x2
 1469 00cf 0000 0000 		.long	.LM14
 1470 00d3 15        		.byte	0x15
 1471 00d4 00        		.byte	0x0
 1472 00d5 05        		.uleb128 0x5
 1473 00d6 02        		.byte	0x2
 1474 00d7 0000 0000 		.long	.LM15
 1475 00db 15        		.byte	0x15
 1476 00dc 00        		.byte	0x0
 1477 00dd 05        		.uleb128 0x5
 1478 00de 02        		.byte	0x2
 1479 00df 0000 0000 		.long	.LM16
 1480 00e3 16        		.byte	0x16
 1481 00e4 00        		.byte	0x0
 1482 00e5 05        		.uleb128 0x5
 1483 00e6 02        		.byte	0x2
 1484 00e7 0000 0000 		.long	.LM17
 1485 00eb 15        		.byte	0x15
 1486 00ec 00        		.byte	0x0
 1487 00ed 05        		.uleb128 0x5
 1488 00ee 02        		.byte	0x2
 1489 00ef 0000 0000 		.long	.LM18
 1490 00f3 15        		.byte	0x15
 1491 00f4 00        		.byte	0x0
 1492 00f5 05        		.uleb128 0x5
 1493 00f6 02        		.byte	0x2
 1494 00f7 0000 0000 		.long	.LM19
 1495 00fb 18        		.byte	0x18
 1496 00fc 00        		.byte	0x0
 1497 00fd 05        		.uleb128 0x5
GAS LISTING C:\Users\alex\AppData\Local\Temp/ccf1ebDB.s 			page 28


 1498 00fe 02        		.byte	0x2
 1499 00ff 0000 0000 		.long	.LM20
 1500 0103 19        		.byte	0x19
 1501 0104 00        		.byte	0x0
 1502 0105 05        		.uleb128 0x5
 1503 0106 02        		.byte	0x2
 1504 0107 0000 0000 		.long	.LM21
 1505 010b 15        		.byte	0x15
 1506 010c 00        		.byte	0x0
 1507 010d 05        		.uleb128 0x5
 1508 010e 02        		.byte	0x2
 1509 010f 0000 0000 		.long	.LM22
 1510 0113 15        		.byte	0x15
 1511 0114 00        		.byte	0x0
 1512 0115 05        		.uleb128 0x5
 1513 0116 02        		.byte	0x2
 1514 0117 0000 0000 		.long	.LM23
 1515 011b 15        		.byte	0x15
 1516 011c 00        		.byte	0x0
 1517 011d 05        		.uleb128 0x5
 1518 011e 02        		.byte	0x2
 1519 011f 0000 0000 		.long	.LM24
 1520 0123 15        		.byte	0x15
 1521 0124 00        		.byte	0x0
 1522 0125 05        		.uleb128 0x5
 1523 0126 02        		.byte	0x2
 1524 0127 0000 0000 		.long	.LM25
 1525 012b 15        		.byte	0x15
 1526 012c 00        		.byte	0x0
 1527 012d 05        		.uleb128 0x5
 1528 012e 02        		.byte	0x2
 1529 012f 0000 0000 		.long	.LM26
 1530 0133 15        		.byte	0x15
 1531 0134 00        		.byte	0x0
 1532 0135 05        		.uleb128 0x5
 1533 0136 02        		.byte	0x2
 1534 0137 0000 0000 		.long	.LM27
 1535 013b 18        		.byte	0x18
 1536 013c 00        		.byte	0x0
 1537 013d 05        		.uleb128 0x5
 1538 013e 02        		.byte	0x2
 1539 013f 0000 0000 		.long	.LM28
 1540 0143 15        		.byte	0x15
 1541 0144 00        		.byte	0x0
 1542 0145 05        		.uleb128 0x5
 1543 0146 02        		.byte	0x2
 1544 0147 0000 0000 		.long	.LM29
 1545 014b 15        		.byte	0x15
 1546 014c 00        		.byte	0x0
 1547 014d 05        		.uleb128 0x5
 1548 014e 02        		.byte	0x2
 1549 014f 0000 0000 		.long	.LM30
 1550 0153 16        		.byte	0x16
 1551 0154 00        		.byte	0x0
 1552 0155 05        		.uleb128 0x5
 1553 0156 02        		.byte	0x2
 1554 0157 0000 0000 		.long	.LM31
GAS LISTING C:\Users\alex\AppData\Local\Temp/ccf1ebDB.s 			page 29


 1555 015b 15        		.byte	0x15
 1556 015c 00        		.byte	0x0
 1557 015d 05        		.uleb128 0x5
 1558 015e 02        		.byte	0x2
 1559 015f 0000 0000 		.long	.LM32
 1560 0163 19        		.byte	0x19
 1561 0164 00        		.byte	0x0
 1562 0165 05        		.uleb128 0x5
 1563 0166 02        		.byte	0x2
 1564 0167 0000 0000 		.long	.LM33
 1565 016b 17        		.byte	0x17
 1566 016c 00        		.byte	0x0
 1567 016d 05        		.uleb128 0x5
 1568 016e 02        		.byte	0x2
 1569 016f 0000 0000 		.long	.LM34
 1570 0173 15        		.byte	0x15
 1571 0174 00        		.byte	0x0
 1572 0175 05        		.uleb128 0x5
 1573 0176 02        		.byte	0x2
 1574 0177 0000 0000 		.long	.LM35
 1575 017b 15        		.byte	0x15
 1576 017c 00        		.byte	0x0
 1577 017d 05        		.uleb128 0x5
 1578 017e 02        		.byte	0x2
 1579 017f 0000 0000 		.long	.LM36
 1580 0183 15        		.byte	0x15
 1581 0184 00        		.byte	0x0
 1582 0185 05        		.uleb128 0x5
 1583 0186 02        		.byte	0x2
 1584 0187 0000 0000 		.long	.LM37
 1585 018b 15        		.byte	0x15
 1586 018c 00        		.byte	0x0
 1587 018d 05        		.uleb128 0x5
 1588 018e 02        		.byte	0x2
 1589 018f 0000 0000 		.long	.LM38
 1590 0193 15        		.byte	0x15
 1591 0194 00        		.byte	0x0
 1592 0195 05        		.uleb128 0x5
 1593 0196 02        		.byte	0x2
 1594 0197 0000 0000 		.long	.LM39
 1595 019b 16        		.byte	0x16
 1596 019c 00        		.byte	0x0
 1597 019d 05        		.uleb128 0x5
 1598 019e 02        		.byte	0x2
 1599 019f 0000 0000 		.long	.LM40
 1600 01a3 15        		.byte	0x15
 1601 01a4 00        		.byte	0x0
 1602 01a5 05        		.uleb128 0x5
 1603 01a6 02        		.byte	0x2
 1604 01a7 0000 0000 		.long	.LM41
 1605 01ab 15        		.byte	0x15
 1606 01ac 00        		.byte	0x0
 1607 01ad 05        		.uleb128 0x5
 1608 01ae 02        		.byte	0x2
 1609 01af 0000 0000 		.long	.LM42
 1610 01b3 15        		.byte	0x15
 1611 01b4 00        		.byte	0x0
GAS LISTING C:\Users\alex\AppData\Local\Temp/ccf1ebDB.s 			page 30


 1612 01b5 05        		.uleb128 0x5
 1613 01b6 02        		.byte	0x2
 1614 01b7 0000 0000 		.long	.LM43
 1615 01bb 16        		.byte	0x16
 1616 01bc 00        		.byte	0x0
 1617 01bd 05        		.uleb128 0x5
 1618 01be 02        		.byte	0x2
 1619 01bf 0000 0000 		.long	.LM44
 1620 01c3 15        		.byte	0x15
 1621 01c4 00        		.byte	0x0
 1622 01c5 05        		.uleb128 0x5
 1623 01c6 02        		.byte	0x2
 1624 01c7 0000 0000 		.long	.Letext0
 1625 01cb 00        		.byte	0x0
 1626 01cc 01        		.uleb128 0x1
 1627 01cd 01        		.byte	0x1
 1628               	.LELT0:
 1629 01ce 1600 0000 		.section	.debug_str,"MS",@progbits,1
 1629      0200 1000 
 1629      0000 0101 
 1629      FB0E 0A00 
 1629      0101 0101 
 1630               	.LASF25:
 1631 0000 656E 636F 		.string	"encoder_prev_bit0"
 1631      6465 725F 
 1631      7072 6576 
 1631      5F62 6974 
 1631      3000 
 1632               	.LASF26:
 1633 0012 656E 636F 		.string	"encoder_prev_bit1"
 1633      6465 725F 
 1633      7072 6576 
 1633      5F62 6974 
 1633      3100 
 1634               	.LASF9:
 1635 0024 656E 636F 		.string	"encoder"
 1635      6465 7200 
 1636               	.LASF14:
 1637 002c 7374 6174 		.string	"state"
 1637      6500 
 1638               	.LASF18:
 1639 0032 7374 6570 		.string	"step"
 1639      00
 1640               	.LASF19:
 1641 0037 7374 6174 		.string	"status"
 1641      7573 00
 1642               	.LASF3:
 1643 003e 696E 7438 		.string	"int8_t"
 1643      5F74 00
 1644               	.LASF10:
 1645 0045 6269 7430 		.string	"bit0"
 1645      00
 1646               	.LASF11:
 1647 004a 6269 7431 		.string	"bit1"
 1647      00
 1648               	.LASF5:
 1649 004f 756E 7369 		.string	"unsigned char"
GAS LISTING C:\Users\alex\AppData\Local\Temp/ccf1ebDB.s 			page 31


 1649      676E 6564 
 1649      2063 6861 
 1649      7200 
 1650               	.LASF6:
 1651 005d 6C6F 6E67 		.string	"long unsigned int"
 1651      2075 6E73 
 1651      6967 6E65 
 1651      6420 696E 
 1651      7400 
 1652               	.LASF27:
 1653 006f 656E 635F 		.string	"enc_states"
 1653      7374 6174 
 1653      6573 00
 1654               	.LASF28:
 1655 007a 474E 5520 		.string	"GNU C 4.3.3"
 1655      4320 342E 
 1655      332E 3300 
 1656               	.LASF23:
 1657 0086 656E 636F 		.string	"encoder_b_bit0"
 1657      6465 725F 
 1657      625F 6269 
 1657      7430 00
 1658               	.LASF24:
 1659 0095 656E 636F 		.string	"encoder_b_bit1"
 1659      6465 725F 
 1659      625F 6269 
 1659      7431 00
 1660               	.LASF15:
 1661 00a4 6F6C 645F 		.string	"old_AB"
 1661      4142 00
 1662               	.LASF20:
 1663 00ab 6368 616E 		.string	"changed"
 1663      6765 6400 
 1664               	.LASF0:
 1665 00b3 756E 7369 		.string	"unsigned int"
 1665      676E 6564 
 1665      2069 6E74 
 1665      00
 1666               	.LASF12:
 1667 00c0 6262 6974 		.string	"bbit0"
 1667      3000 
 1668               	.LASF13:
 1669 00c6 6262 6974 		.string	"bbit1"
 1669      3100 
 1670               	.LASF8:
 1671 00cc 6C6F 6E67 		.string	"long long unsigned int"
 1671      206C 6F6E 
 1671      6720 756E 
 1671      7369 676E 
 1671      6564 2069 
 1672               	.LASF4:
 1673 00e3 7569 6E74 		.string	"uint8_t"
 1673      385F 7400 
 1674               	.LASF16:
 1675 00eb 656E 636F 		.string	"encoder_poll"
 1675      6465 725F 
 1675      706F 6C6C 
GAS LISTING C:\Users\alex\AppData\Local\Temp/ccf1ebDB.s 			page 32


 1675      00
 1676               	.LASF29:
 1677 00f8 726F 745F 		.string	"rot_encoder.c"
 1677      656E 636F 
 1677      6465 722E 
 1677      6300 
 1678               	.LASF30:
 1679 0106 453A 5C61 		.string	"E:\\avr\\lcd"
 1679      7672 5C6C 
 1679      6364 00
 1680               	.LASF7:
 1681 0111 6C6F 6E67 		.string	"long long int"
 1681      206C 6F6E 
 1681      6720 696E 
 1681      7400 
 1682               	.LASF21:
 1683 011f 656E 636F 		.string	"encoder_p_bit0"
 1683      6465 725F 
 1683      705F 6269 
 1683      7430 00
 1684               	.LASF22:
 1685 012e 656E 636F 		.string	"encoder_p_bit1"
 1685      6465 725F 
 1685      705F 6269 
 1685      7431 00
 1686               	.LASF31:
 1687 013d 656E 636F 		.string	"encoder_setup"
 1687      6465 725F 
 1687      7365 7475 
 1687      7000 
 1688               	.LASF1:
 1689 014b 6C6F 6E67 		.string	"long int"
 1689      2069 6E74 
 1689      00
 1690               	.LASF2:
 1691 0154 7369 676E 		.string	"signed char"
 1691      6564 2063 
 1691      6861 7200 
 1692               	.LASF17:
 1693 0160 656E 636F 		.string	"encoder_poll_range"
 1693      6465 725F 
 1693      706F 6C6C 
 1693      5F72 616E 
 1693      6765 00
 1694               	.global __do_copy_data
 1695               	.global __do_clear_bss
GAS LISTING C:\Users\alex\AppData\Local\Temp/ccf1ebDB.s 			page 33


DEFINED SYMBOLS
                            *ABS*:00000000 rot_encoder.c
C:\Users\alex\AppData\Local\Temp/ccf1ebDB.s:2      *ABS*:0000003f __SREG__
C:\Users\alex\AppData\Local\Temp/ccf1ebDB.s:3      *ABS*:0000003e __SP_H__
C:\Users\alex\AppData\Local\Temp/ccf1ebDB.s:4      *ABS*:0000003d __SP_L__
C:\Users\alex\AppData\Local\Temp/ccf1ebDB.s:5      *ABS*:00000034 __CCP__
C:\Users\alex\AppData\Local\Temp/ccf1ebDB.s:6      *ABS*:00000000 __tmp_reg__
C:\Users\alex\AppData\Local\Temp/ccf1ebDB.s:7      *ABS*:00000001 __zero_reg__
C:\Users\alex\AppData\Local\Temp/ccf1ebDB.s:20     .data:00000000 enc_states
C:\Users\alex\AppData\Local\Temp/ccf1ebDB.s:40     .text:00000000 encoder_setup
                            *COM*:0000000a encoder_b_bit0
                            *COM*:0000000a encoder_b_bit1
                            *COM*:00000014 encoder_p_bit0
                            *COM*:00000014 encoder_p_bit1
                            *COM*:0000000a encoder_prev_bit0
                            *COM*:0000000a encoder_prev_bit1
                             .bss:00000000 old_AB.1626
C:\Users\alex\AppData\Local\Temp/ccf1ebDB.s:429    .text:000002ba encoder_poll
C:\Users\alex\AppData\Local\Temp/ccf1ebDB.s:575    .text:000003b8 encoder_poll_range

UNDEFINED SYMBOLS
uart_printf
__do_copy_data
__do_clear_bss
