GAS LISTING C:\Users\alex\AppData\Local\Temp/ccnCc1uD.s 			page 1


   1               		.file	"hv_supply.c"
   2               	__SREG__ = 0x3f
   3               	__SP_H__ = 0x3e
   4               	__SP_L__ = 0x3d
   5               	__CCP__  = 0x34
   6               	__tmp_reg__ = 0
   7               	__zero_reg__ = 1
   8               		.section	.debug_abbrev,"",@progbits
   9               	.Ldebug_abbrev0:
  10               		.section	.debug_info,"",@progbits
  11               	.Ldebug_info0:
  12               		.section	.debug_line,"",@progbits
  13               	.Ldebug_line0:
  14               		.text
  15               	.Ltext0:
  16               	.global	dev
  17               	.global	dev
  18               		.section .bss
  19               		.type	dev, @object
  20               		.size	dev, 1
  21               	dev:
  22 0000 00        		.skip 1,0
  23               		.text
  24               	.global	long2dacval
  25               		.type	long2dacval, @function
  26               	long2dacval:
  27               	.LFB4:
  28               	.LM1:
  29 0000 EF92      		push r14
  30 0002 FF92      		push r15
  31 0004 0F93      		push r16
  32 0006 1F93      		push r17
  33 0008 DF93      		push r29
  34 000a CF93      		push r28
  35 000c CDB7      		in r28,__SP_L__
  36 000e DEB7      		in r29,__SP_H__
  37 0010 2897      		sbiw r28,8
  38 0012 0FB6      		in __tmp_reg__,__SREG__
  39 0014 F894      		cli
  40 0016 DEBF      		out __SP_H__,r29
  41 0018 0FBE      		out __SREG__,__tmp_reg__
  42 001a CDBF      		out __SP_L__,r28
  43               	/* prologue: function */
  44               	/* frame size = 8 */
  45 001c 6D83      		std Y+5,r22
  46 001e 7E83      		std Y+6,r23
  47 0020 8F83      		std Y+7,r24
  48 0022 9887      		std Y+8,r25
  49               	.LM2:
  50 0024 8D81      		ldd r24,Y+5
  51 0026 9E81      		ldd r25,Y+6
  52 0028 AF81      		ldd r26,Y+7
  53 002a B885      		ldd r27,Y+8
  54 002c 9C01      		movw r18,r24
  55 002e AD01      		movw r20,r26
  56 0030 6894      		set
  57 0032 16F8      		bld __zero_reg__,7-1
GAS LISTING C:\Users\alex\AppData\Local\Temp/ccnCc1uD.s 			page 2


  58 0034 5595      	1:	asr r21
  59 0036 4795      		ror r20
  60 0038 3795      		ror r19
  61 003a 2795      		ror r18
  62 003c 1694      		lsr __zero_reg__
  63 003e 01F4      		brne 1b
  64 0040 8D81      		ldd r24,Y+5
  65 0042 9E81      		ldd r25,Y+6
  66 0044 AF81      		ldd r26,Y+7
  67 0046 B885      		ldd r27,Y+8
  68 0048 072E      		mov r0,r23
  69 004a 7BE0      		ldi r23,11
  70 004c B595      	1:	asr r27
  71 004e A795      		ror r26
  72 0050 9795      		ror r25
  73 0052 8795      		ror r24
  74 0054 7A95      		dec r23
  75 0056 01F4      		brne 1b
  76 0058 702D      		mov r23,r0
  77 005a 281B      		sub r18,r24
  78 005c 390B      		sbc r19,r25
  79 005e 4A0B      		sbc r20,r26
  80 0060 5B0B      		sbc r21,r27
  81 0062 8D81      		ldd r24,Y+5
  82 0064 9E81      		ldd r25,Y+6
  83 0066 AF81      		ldd r26,Y+7
  84 0068 B885      		ldd r27,Y+8
  85 006a 072E      		mov r0,r23
  86 006c 7DE0      		ldi r23,13
  87 006e B595      	1:	asr r27
  88 0070 A795      		ror r26
  89 0072 9795      		ror r25
  90 0074 8795      		ror r24
  91 0076 7A95      		dec r23
  92 0078 01F4      		brne 1b
  93 007a 702D      		mov r23,r0
  94 007c 7901      		movw r14,r18
  95 007e 8A01      		movw r16,r20
  96 0080 E81A      		sub r14,r24
  97 0082 F90A      		sbc r15,r25
  98 0084 0A0B      		sbc r16,r26
  99 0086 1B0B      		sbc r17,r27
 100 0088 D801      		movw r26,r16
 101 008a C701      		movw r24,r14
 102 008c 8983      		std Y+1,r24
 103 008e 9A83      		std Y+2,r25
 104 0090 AB83      		std Y+3,r26
 105 0092 BC83      		std Y+4,r27
 106               	.LM3:
 107 0094 8981      		ldd r24,Y+1
 108 0096 9A81      		ldd r25,Y+2
 109 0098 AB81      		ldd r26,Y+3
 110 009a BC81      		ldd r27,Y+4
 111               	.LM4:
 112 009c BC01      		movw r22,r24
 113 009e CD01      		movw r24,r26
 114               	/* epilogue start */
GAS LISTING C:\Users\alex\AppData\Local\Temp/ccnCc1uD.s 			page 3


 115 00a0 2896      		adiw r28,8
 116 00a2 0FB6      		in __tmp_reg__,__SREG__
 117 00a4 F894      		cli
 118 00a6 DEBF      		out __SP_H__,r29
 119 00a8 0FBE      		out __SREG__,__tmp_reg__
 120 00aa CDBF      		out __SP_L__,r28
 121 00ac CF91      		pop r28
 122 00ae DF91      		pop r29
 123 00b0 1F91      		pop r17
 124 00b2 0F91      		pop r16
 125 00b4 FF90      		pop r15
 126 00b6 EF90      		pop r14
 127 00b8 0895      		ret
 128               	.LFE4:
 129               		.size	long2dacval, .-long2dacval
 130               		.data
 131               	.LC0:
 132 0000 2564 2E25 		.string	"%d.%d V\r\n"
 132      6420 560D 
 132      0A00 
 133               		.text
 134               	.global	print_dacval
 135               		.type	print_dacval, @function
 136               	print_dacval:
 137               	.LFB5:
 138               	.LM5:
 139 00ba AF92      		push r10
 140 00bc BF92      		push r11
 141 00be CF92      		push r12
 142 00c0 DF92      		push r13
 143 00c2 EF92      		push r14
 144 00c4 FF92      		push r15
 145 00c6 0F93      		push r16
 146 00c8 1F93      		push r17
 147 00ca DF93      		push r29
 148 00cc CF93      		push r28
 149 00ce CDB7      		in r28,__SP_L__
 150 00d0 DEB7      		in r29,__SP_H__
 151 00d2 2C97      		sbiw r28,12
 152 00d4 0FB6      		in __tmp_reg__,__SREG__
 153 00d6 F894      		cli
 154 00d8 DEBF      		out __SP_H__,r29
 155 00da 0FBE      		out __SREG__,__tmp_reg__
 156 00dc CDBF      		out __SP_L__,r28
 157               	/* prologue: function */
 158               	/* frame size = 12 */
 159 00de 6987      		std Y+9,r22
 160 00e0 7A87      		std Y+10,r23
 161 00e2 8B87      		std Y+11,r24
 162 00e4 9C87      		std Y+12,r25
 163               	.LM6:
 164 00e6 8985      		ldd r24,Y+9
 165 00e8 9A85      		ldd r25,Y+10
 166 00ea AB85      		ldd r26,Y+11
 167 00ec BC85      		ldd r27,Y+12
 168 00ee 9C01      		movw r18,r24
 169 00f0 AD01      		movw r20,r26
GAS LISTING C:\Users\alex\AppData\Local\Temp/ccnCc1uD.s 			page 4


 170 00f2 012E      		mov r0,r17
 171 00f4 1AE0      		ldi r17,10
 172 00f6 5595      	1:	asr r21
 173 00f8 4795      		ror r20
 174 00fa 3795      		ror r19
 175 00fc 2795      		ror r18
 176 00fe 1A95      		dec r17
 177 0100 01F4      		brne 1b
 178 0102 102D      		mov r17,r0
 179 0104 8985      		ldd r24,Y+9
 180 0106 9A85      		ldd r25,Y+10
 181 0108 AB85      		ldd r26,Y+11
 182 010a BC85      		ldd r27,Y+12
 183 010c CD01      		movw r24,r26
 184 010e BB27      		clr r27
 185 0110 97FD      		sbrc r25,7
 186 0112 B095      		com r27
 187 0114 AB2F      		mov r26,r27
 188 0116 280F      		add r18,r24
 189 0118 391F      		adc r19,r25
 190 011a 4A1F      		adc r20,r26
 191 011c 5B1F      		adc r21,r27
 192 011e 8985      		ldd r24,Y+9
 193 0120 9A85      		ldd r25,Y+10
 194 0122 AB85      		ldd r26,Y+11
 195 0124 BC85      		ldd r27,Y+12
 196 0126 072E      		mov r0,r23
 197 0128 71E1      		ldi r23,17
 198 012a B595      	1:	asr r27
 199 012c A795      		ror r26
 200 012e 9795      		ror r25
 201 0130 8795      		ror r24
 202 0132 7A95      		dec r23
 203 0134 01F4      		brne 1b
 204 0136 702D      		mov r23,r0
 205 0138 820F      		add r24,r18
 206 013a 931F      		adc r25,r19
 207 013c A41F      		adc r26,r20
 208 013e B51F      		adc r27,r21
 209 0140 8D83      		std Y+5,r24
 210 0142 9E83      		std Y+6,r25
 211 0144 AF83      		std Y+7,r26
 212 0146 B887      		std Y+8,r27
 213               	.LM7:
 214 0148 8D81      		ldd r24,Y+5
 215 014a 9E81      		ldd r25,Y+6
 216 014c AF81      		ldd r26,Y+7
 217 014e B885      		ldd r27,Y+8
 218 0150 880F      		add r24,r24
 219 0152 991F      		adc r25,r25
 220 0154 AA1F      		adc r26,r26
 221 0156 BB1F      		adc r27,r27
 222 0158 880F      		add r24,r24
 223 015a 991F      		adc r25,r25
 224 015c AA1F      		adc r26,r26
 225 015e BB1F      		adc r27,r27
 226 0160 880F      		add r24,r24
GAS LISTING C:\Users\alex\AppData\Local\Temp/ccnCc1uD.s 			page 5


 227 0162 991F      		adc r25,r25
 228 0164 AA1F      		adc r26,r26
 229 0166 BB1F      		adc r27,r27
 230 0168 7C01      		movw r14,r24
 231 016a 8D01      		movw r16,r26
 232 016c 8D81      		ldd r24,Y+5
 233 016e 9E81      		ldd r25,Y+6
 234 0170 AF81      		ldd r26,Y+7
 235 0172 B885      		ldd r27,Y+8
 236 0174 880F      		add r24,r24
 237 0176 991F      		adc r25,r25
 238 0178 AA1F      		adc r26,r26
 239 017a BB1F      		adc r27,r27
 240 017c 880F      		add r24,r24
 241 017e 991F      		adc r25,r25
 242 0180 AA1F      		adc r26,r26
 243 0182 BB1F      		adc r27,r27
 244 0184 880F      		add r24,r24
 245 0186 991F      		adc r25,r25
 246 0188 AA1F      		adc r26,r26
 247 018a BB1F      		adc r27,r27
 248 018c 880F      		add r24,r24
 249 018e 991F      		adc r25,r25
 250 0190 AA1F      		adc r26,r26
 251 0192 BB1F      		adc r27,r27
 252 0194 9C01      		movw r18,r24
 253 0196 AD01      		movw r20,r26
 254 0198 8D81      		ldd r24,Y+5
 255 019a 9E81      		ldd r25,Y+6
 256 019c AF81      		ldd r26,Y+7
 257 019e B885      		ldd r27,Y+8
 258 01a0 072E      		mov r0,r23
 259 01a2 7AE0      		ldi r23,10
 260 01a4 880F      	1:	lsl r24
 261 01a6 991F      		rol r25
 262 01a8 AA1F      		rol r26
 263 01aa BB1F      		rol r27
 264 01ac 7A95      		dec r23
 265 01ae 01F4      		brne 1b
 266 01b0 702D      		mov r23,r0
 267 01b2 5901      		movw r10,r18
 268 01b4 6A01      		movw r12,r20
 269 01b6 A81A      		sub r10,r24
 270 01b8 B90A      		sbc r11,r25
 271 01ba CA0A      		sbc r12,r26
 272 01bc DB0A      		sbc r13,r27
 273 01be D601      		movw r26,r12
 274 01c0 C501      		movw r24,r10
 275 01c2 A801      		movw r20,r16
 276 01c4 9701      		movw r18,r14
 277 01c6 280F      		add r18,r24
 278 01c8 391F      		adc r19,r25
 279 01ca 4A1F      		adc r20,r26
 280 01cc 5B1F      		adc r21,r27
 281 01ce 8985      		ldd r24,Y+9
 282 01d0 9A85      		ldd r25,Y+10
 283 01d2 AB85      		ldd r26,Y+11
GAS LISTING C:\Users\alex\AppData\Local\Temp/ccnCc1uD.s 			page 6


 284 01d4 BC85      		ldd r27,Y+12
 285 01d6 820F      		add r24,r18
 286 01d8 931F      		adc r25,r19
 287 01da A41F      		adc r26,r20
 288 01dc B51F      		adc r27,r21
 289 01de 8983      		std Y+1,r24
 290 01e0 9A83      		std Y+2,r25
 291 01e2 AB83      		std Y+3,r26
 292 01e4 BC83      		std Y+4,r27
 293               	.LM8:
 294 01e6 8DB7      		in r24,__SP_L__
 295 01e8 9EB7      		in r25,__SP_H__
 296 01ea 0A97      		sbiw r24,10
 297 01ec 0FB6      		in __tmp_reg__,__SREG__
 298 01ee F894      		cli
 299 01f0 9EBF      		out __SP_H__,r25
 300 01f2 0FBE      		out __SREG__,__tmp_reg__
 301 01f4 8DBF      		out __SP_L__,r24
 302 01f6 EDB7      		in r30,__SP_L__
 303 01f8 FEB7      		in r31,__SP_H__
 304 01fa 3196      		adiw r30,1
 305 01fc 80E0      		ldi r24,lo8(.LC0)
 306 01fe 90E0      		ldi r25,hi8(.LC0)
 307 0200 9183      		std Z+1,r25
 308 0202 8083      		st Z,r24
 309 0204 8D81      		ldd r24,Y+5
 310 0206 9E81      		ldd r25,Y+6
 311 0208 AF81      		ldd r26,Y+7
 312 020a B885      		ldd r27,Y+8
 313 020c 8283      		std Z+2,r24
 314 020e 9383      		std Z+3,r25
 315 0210 A483      		std Z+4,r26
 316 0212 B583      		std Z+5,r27
 317 0214 8981      		ldd r24,Y+1
 318 0216 9A81      		ldd r25,Y+2
 319 0218 AB81      		ldd r26,Y+3
 320 021a BC81      		ldd r27,Y+4
 321 021c 8683      		std Z+6,r24
 322 021e 9783      		std Z+7,r25
 323 0220 A087      		std Z+8,r26
 324 0222 B187      		std Z+9,r27
 325 0224 0E94 0000 		call uart_printf
 326 0228 8DB7      		in r24,__SP_L__
 327 022a 9EB7      		in r25,__SP_H__
 328 022c 0A96      		adiw r24,10
 329 022e 0FB6      		in __tmp_reg__,__SREG__
 330 0230 F894      		cli
 331 0232 9EBF      		out __SP_H__,r25
 332 0234 0FBE      		out __SREG__,__tmp_reg__
 333 0236 8DBF      		out __SP_L__,r24
 334               	/* epilogue start */
 335               	.LM9:
 336 0238 2C96      		adiw r28,12
 337 023a 0FB6      		in __tmp_reg__,__SREG__
 338 023c F894      		cli
 339 023e DEBF      		out __SP_H__,r29
 340 0240 0FBE      		out __SREG__,__tmp_reg__
GAS LISTING C:\Users\alex\AppData\Local\Temp/ccnCc1uD.s 			page 7


 341 0242 CDBF      		out __SP_L__,r28
 342 0244 CF91      		pop r28
 343 0246 DF91      		pop r29
 344 0248 1F91      		pop r17
 345 024a 0F91      		pop r16
 346 024c FF90      		pop r15
 347 024e EF90      		pop r14
 348 0250 DF90      		pop r13
 349 0252 CF90      		pop r12
 350 0254 BF90      		pop r11
 351 0256 AF90      		pop r10
 352 0258 0895      		ret
 353               	.LFE5:
 354               		.size	print_dacval, .-print_dacval
 355               		.data
 356               	.LC1:
 357 000a 6765 745F 		.string	"get_dacval:[%s]\r\n"
 357      6461 6376 
 357      616C 3A5B 
 357      2573 5D0D 
 357      0A00 
 358               	.LC2:
 359 001c 6765 745F 		.string	"get_dacval got %l  (err:%d) [%s]\r\n"
 359      6461 6376 
 359      616C 2067 
 359      6F74 2025 
 359      6C20 2028 
 360               	.LC3:
 361 003f 6765 745F 		.string	"get_dacval:dacval %d\r\n"
 361      6461 6376 
 361      616C 3A64 
 361      6163 7661 
 361      6C20 2564 
 362               		.text
 363               	.global	get_dacval
 364               		.type	get_dacval, @function
 365               	get_dacval:
 366               	.LFB6:
 367               	.LM10:
 368 025a DF93      		push r29
 369 025c CF93      		push r28
 370 025e CDB7      		in r28,__SP_L__
 371 0260 DEB7      		in r29,__SP_H__
 372 0262 2E97      		sbiw r28,14
 373 0264 0FB6      		in __tmp_reg__,__SREG__
 374 0266 F894      		cli
 375 0268 DEBF      		out __SP_H__,r29
 376 026a 0FBE      		out __SREG__,__tmp_reg__
 377 026c CDBF      		out __SP_L__,r28
 378               	/* prologue: function */
 379               	/* frame size = 14 */
 380 026e 9A87      		std Y+10,r25
 381 0270 8987      		std Y+9,r24
 382 0272 7C87      		std Y+12,r23
 383 0274 6B87      		std Y+11,r22
 384               	.LM11:
 385 0276 1B82      		std Y+3,__zero_reg__
GAS LISTING C:\Users\alex\AppData\Local\Temp/ccnCc1uD.s 			page 8


 386 0278 1C82      		std Y+4,__zero_reg__
 387 027a 1D82      		std Y+5,__zero_reg__
 388 027c 1E82      		std Y+6,__zero_reg__
 389               	.LM12:
 390 027e 00D0      		rcall .
 391 0280 00D0      		rcall .
 392 0282 EDB7      		in r30,__SP_L__
 393 0284 FEB7      		in r31,__SP_H__
 394 0286 3196      		adiw r30,1
 395 0288 80E0      		ldi r24,lo8(.LC1)
 396 028a 90E0      		ldi r25,hi8(.LC1)
 397 028c 9183      		std Z+1,r25
 398 028e 8083      		st Z,r24
 399 0290 8985      		ldd r24,Y+9
 400 0292 9A85      		ldd r25,Y+10
 401 0294 9383      		std Z+3,r25
 402 0296 8283      		std Z+2,r24
 403 0298 0E94 0000 		call uart_printf
 404 029c 0F90      		pop __tmp_reg__
 405 029e 0F90      		pop __tmp_reg__
 406 02a0 0F90      		pop __tmp_reg__
 407 02a2 0F90      		pop __tmp_reg__
 408               	.LM13:
 409 02a4 1886      		std Y+8,__zero_reg__
 410 02a6 1F82      		std Y+7,__zero_reg__
 411               	.LM14:
 412 02a8 EB85      		ldd r30,Y+11
 413 02aa FC85      		ldd r31,Y+12
 414 02ac 1182      		std Z+1,__zero_reg__
 415 02ae 1082      		st Z,__zero_reg__
 416               	.LM15:
 417 02b0 8985      		ldd r24,Y+9
 418 02b2 9A85      		ldd r25,Y+10
 419 02b4 2B85      		ldd r18,Y+11
 420 02b6 3C85      		ldd r19,Y+12
 421 02b8 AE01      		movw r20,r28
 422 02ba 495F      		subi r20,lo8(-(7))
 423 02bc 5F4F      		sbci r21,hi8(-(7))
 424 02be B901      		movw r22,r18
 425 02c0 0E94 0000 		call scpi_get_longfrac
 426 02c4 DC01      		movw r26,r24
 427 02c6 CB01      		movw r24,r22
 428 02c8 8B83      		std Y+3,r24
 429 02ca 9C83      		std Y+4,r25
 430 02cc AD83      		std Y+5,r26
 431 02ce BE83      		std Y+6,r27
 432               	.LM16:
 433 02d0 8B85      		ldd r24,Y+11
 434 02d2 9C85      		ldd r25,Y+12
 435 02d4 0097      		sbiw r24,0
 436 02d6 01F0      		breq .L6
 437 02d8 EB85      		ldd r30,Y+11
 438 02da FC85      		ldd r31,Y+12
 439 02dc 8081      		ld r24,Z
 440 02de 9181      		ldd r25,Z+1
 441 02e0 9E87      		std Y+14,r25
 442 02e2 8D87      		std Y+13,r24
GAS LISTING C:\Users\alex\AppData\Local\Temp/ccnCc1uD.s 			page 9


 443 02e4 00C0      		rjmp .L7
 444               	.L6:
 445               	.LM17:
 446 02e6 2F81      		ldd r18,Y+7
 447 02e8 3885      		ldd r19,Y+8
 448 02ea 8DB7      		in r24,__SP_L__
 449 02ec 9EB7      		in r25,__SP_H__
 450 02ee 0A97      		sbiw r24,10
 451 02f0 0FB6      		in __tmp_reg__,__SREG__
 452 02f2 F894      		cli
 453 02f4 9EBF      		out __SP_H__,r25
 454 02f6 0FBE      		out __SREG__,__tmp_reg__
 455 02f8 8DBF      		out __SP_L__,r24
 456 02fa EDB7      		in r30,__SP_L__
 457 02fc FEB7      		in r31,__SP_H__
 458 02fe 3196      		adiw r30,1
 459 0300 80E0      		ldi r24,lo8(.LC2)
 460 0302 90E0      		ldi r25,hi8(.LC2)
 461 0304 9183      		std Z+1,r25
 462 0306 8083      		st Z,r24
 463 0308 8B81      		ldd r24,Y+3
 464 030a 9C81      		ldd r25,Y+4
 465 030c AD81      		ldd r26,Y+5
 466 030e BE81      		ldd r27,Y+6
 467 0310 8283      		std Z+2,r24
 468 0312 9383      		std Z+3,r25
 469 0314 A483      		std Z+4,r26
 470 0316 B583      		std Z+5,r27
 471 0318 8B85      		ldd r24,Y+11
 472 031a 9C85      		ldd r25,Y+12
 473 031c 9783      		std Z+7,r25
 474 031e 8683      		std Z+6,r24
 475 0320 3187      		std Z+9,r19
 476 0322 2087      		std Z+8,r18
 477 0324 0E94 0000 		call uart_printf
 478 0328 8DB7      		in r24,__SP_L__
 479 032a 9EB7      		in r25,__SP_H__
 480 032c 0A96      		adiw r24,10
 481 032e 0FB6      		in __tmp_reg__,__SREG__
 482 0330 F894      		cli
 483 0332 9EBF      		out __SP_H__,r25
 484 0334 0FBE      		out __SREG__,__tmp_reg__
 485 0336 8DBF      		out __SP_L__,r24
 486               	.LM18:
 487 0338 8F81      		ldd r24,Y+7
 488 033a 9885      		ldd r25,Y+8
 489 033c 0E94 0000 		call scpi_check_buf_empty
 490 0340 0097      		sbiw r24,0
 491 0342 01F4      		brne .L8
 492 0344 81E0      		ldi r24,lo8(1)
 493 0346 90E0      		ldi r25,hi8(1)
 494 0348 9E87      		std Y+14,r25
 495 034a 8D87      		std Y+13,r24
 496 034c 00C0      		rjmp .L7
 497               	.L8:
 498               	.LM19:
 499 034e 8B81      		ldd r24,Y+3
GAS LISTING C:\Users\alex\AppData\Local\Temp/ccnCc1uD.s 			page 10


 500 0350 9C81      		ldd r25,Y+4
 501 0352 AD81      		ldd r26,Y+5
 502 0354 BE81      		ldd r27,Y+6
 503 0356 BB23      		tst r27
 504 0358 04F0      		brlt .L9
 505 035a 8B81      		ldd r24,Y+3
 506 035c 9C81      		ldd r25,Y+4
 507 035e AD81      		ldd r26,Y+5
 508 0360 BE81      		ldd r27,Y+6
 509 0362 8230      		cpi r24,lo8(512002)
 510 0364 20ED      		ldi r18,hi8(512002)
 511 0366 9207      		cpc r25,r18
 512 0368 27E0      		ldi r18,hlo8(512002)
 513 036a A207      		cpc r26,r18
 514 036c 20E0      		ldi r18,hhi8(512002)
 515 036e B207      		cpc r27,r18
 516 0370 04F0      		brlt .L10
 517               	.L9:
 518 0372 80E1      		ldi r24,lo8(16)
 519 0374 90E0      		ldi r25,hi8(16)
 520 0376 9E87      		std Y+14,r25
 521 0378 8D87      		std Y+13,r24
 522 037a 00C0      		rjmp .L7
 523               	.L10:
 524               	.LM20:
 525 037c 8B81      		ldd r24,Y+3
 526 037e 9C81      		ldd r25,Y+4
 527 0380 AD81      		ldd r26,Y+5
 528 0382 BE81      		ldd r27,Y+6
 529 0384 BC01      		movw r22,r24
 530 0386 CD01      		movw r24,r26
 531 0388 0E94 0000 		call long2dacval
 532 038c DC01      		movw r26,r24
 533 038e CB01      		movw r24,r22
 534 0390 9A83      		std Y+2,r25
 535 0392 8983      		std Y+1,r24
 536               	.LM21:
 537 0394 00D0      		rcall .
 538 0396 00D0      		rcall .
 539 0398 EDB7      		in r30,__SP_L__
 540 039a FEB7      		in r31,__SP_H__
 541 039c 3196      		adiw r30,1
 542 039e 80E0      		ldi r24,lo8(.LC3)
 543 03a0 90E0      		ldi r25,hi8(.LC3)
 544 03a2 9183      		std Z+1,r25
 545 03a4 8083      		st Z,r24
 546 03a6 8981      		ldd r24,Y+1
 547 03a8 9A81      		ldd r25,Y+2
 548 03aa 9383      		std Z+3,r25
 549 03ac 8283      		std Z+2,r24
 550 03ae 0E94 0000 		call uart_printf
 551 03b2 0F90      		pop __tmp_reg__
 552 03b4 0F90      		pop __tmp_reg__
 553 03b6 0F90      		pop __tmp_reg__
 554 03b8 0F90      		pop __tmp_reg__
 555               	.LM22:
 556 03ba 8981      		ldd r24,Y+1
GAS LISTING C:\Users\alex\AppData\Local\Temp/ccnCc1uD.s 			page 11


 557 03bc 9A81      		ldd r25,Y+2
 558 03be 9E87      		std Y+14,r25
 559 03c0 8D87      		std Y+13,r24
 560               	.L7:
 561 03c2 8D85      		ldd r24,Y+13
 562 03c4 9E85      		ldd r25,Y+14
 563               	/* epilogue start */
 564               	.LM23:
 565 03c6 2E96      		adiw r28,14
 566 03c8 0FB6      		in __tmp_reg__,__SREG__
 567 03ca F894      		cli
 568 03cc DEBF      		out __SP_H__,r29
 569 03ce 0FBE      		out __SREG__,__tmp_reg__
 570 03d0 CDBF      		out __SP_L__,r28
 571 03d2 CF91      		pop r28
 572 03d4 DF91      		pop r29
 573 03d6 0895      		ret
 574               	.LFE6:
 575               		.size	get_dacval, .-get_dacval
 576               		.data
 577               	.LC4:
 578 0056 7365 745F 		.string	"set_instr_sel got %s  (err:%d) [%s]\r\n"
 578      696E 7374 
 578      725F 7365 
 578      6C20 676F 
 578      7420 2573 
 579               		.text
 580               	.global	set_instrument_nsel
 581               		.type	set_instrument_nsel, @function
 582               	set_instrument_nsel:
 583               	.LFB7:
 584               	.LM24:
 585 03d8 DF93      		push r29
 586 03da CF93      		push r28
 587 03dc CDB7      		in r28,__SP_L__
 588 03de DEB7      		in r29,__SP_H__
 589 03e0 2997      		sbiw r28,9
 590 03e2 0FB6      		in __tmp_reg__,__SREG__
 591 03e4 F894      		cli
 592 03e6 DEBF      		out __SP_H__,r29
 593 03e8 0FBE      		out __SREG__,__tmp_reg__
 594 03ea CDBF      		out __SP_L__,r28
 595               	/* prologue: function */
 596               	/* frame size = 9 */
 597 03ec 9F83      		std Y+7,r25
 598 03ee 8E83      		std Y+6,r24
 599               	.LM25:
 600 03f0 8E81      		ldd r24,Y+6
 601 03f2 9F81      		ldd r25,Y+7
 602 03f4 9E01      		movw r18,r28
 603 03f6 2E5F      		subi r18,lo8(-(2))
 604 03f8 3F4F      		sbci r19,hi8(-(2))
 605 03fa AE01      		movw r20,r28
 606 03fc 4C5F      		subi r20,lo8(-(4))
 607 03fe 5F4F      		sbci r21,hi8(-(4))
 608 0400 B901      		movw r22,r18
 609 0402 0E94 0000 		call scpi_get_digit
GAS LISTING C:\Users\alex\AppData\Local\Temp/ccnCc1uD.s 			page 12


 610 0406 8983      		std Y+1,r24
 611               	.LM26:
 612 0408 8981      		ldd r24,Y+1
 613 040a 282F      		mov r18,r24
 614 040c 30E0      		ldi r19,lo8(0)
 615 040e 4A81      		ldd r20,Y+2
 616 0410 5B81      		ldd r21,Y+3
 617 0412 6C81      		ldd r22,Y+4
 618 0414 7D81      		ldd r23,Y+5
 619 0416 8DB7      		in r24,__SP_L__
 620 0418 9EB7      		in r25,__SP_H__
 621 041a 0897      		sbiw r24,8
 622 041c 0FB6      		in __tmp_reg__,__SREG__
 623 041e F894      		cli
 624 0420 9EBF      		out __SP_H__,r25
 625 0422 0FBE      		out __SREG__,__tmp_reg__
 626 0424 8DBF      		out __SP_L__,r24
 627 0426 EDB7      		in r30,__SP_L__
 628 0428 FEB7      		in r31,__SP_H__
 629 042a 3196      		adiw r30,1
 630 042c 80E0      		ldi r24,lo8(.LC4)
 631 042e 90E0      		ldi r25,hi8(.LC4)
 632 0430 9183      		std Z+1,r25
 633 0432 8083      		st Z,r24
 634 0434 3383      		std Z+3,r19
 635 0436 2283      		std Z+2,r18
 636 0438 5583      		std Z+5,r21
 637 043a 4483      		std Z+4,r20
 638 043c 7783      		std Z+7,r23
 639 043e 6683      		std Z+6,r22
 640 0440 0E94 0000 		call uart_printf
 641 0444 8DB7      		in r24,__SP_L__
 642 0446 9EB7      		in r25,__SP_H__
 643 0448 0896      		adiw r24,8
 644 044a 0FB6      		in __tmp_reg__,__SREG__
 645 044c F894      		cli
 646 044e 9EBF      		out __SP_H__,r25
 647 0450 0FBE      		out __SREG__,__tmp_reg__
 648 0452 8DBF      		out __SP_L__,r24
 649               	.LM27:
 650 0454 8A81      		ldd r24,Y+2
 651 0456 9B81      		ldd r25,Y+3
 652 0458 0097      		sbiw r24,0
 653 045a 01F0      		breq .L13
 654 045c 8A81      		ldd r24,Y+2
 655 045e 9B81      		ldd r25,Y+3
 656 0460 9987      		std Y+9,r25
 657 0462 8887      		std Y+8,r24
 658 0464 00C0      		rjmp .L14
 659               	.L13:
 660               	.LM28:
 661 0466 8C81      		ldd r24,Y+4
 662 0468 9D81      		ldd r25,Y+5
 663 046a 0E94 0000 		call scpi_check_buf_empty
 664 046e 0097      		sbiw r24,0
 665 0470 01F4      		brne .L15
 666 0472 81E0      		ldi r24,lo8(1)
GAS LISTING C:\Users\alex\AppData\Local\Temp/ccnCc1uD.s 			page 13


 667 0474 90E0      		ldi r25,hi8(1)
 668 0476 9987      		std Y+9,r25
 669 0478 8887      		std Y+8,r24
 670 047a 00C0      		rjmp .L14
 671               	.L15:
 672               	.LM29:
 673 047c 8981      		ldd r24,Y+1
 674 047e 8093 0000 		sts dev,r24
 675               	.LM30:
 676 0482 1986      		std Y+9,__zero_reg__
 677 0484 1886      		std Y+8,__zero_reg__
 678               	.L14:
 679 0486 8885      		ldd r24,Y+8
 680 0488 9985      		ldd r25,Y+9
 681               	/* epilogue start */
 682               	.LM31:
 683 048a 2996      		adiw r28,9
 684 048c 0FB6      		in __tmp_reg__,__SREG__
 685 048e F894      		cli
 686 0490 DEBF      		out __SP_H__,r29
 687 0492 0FBE      		out __SREG__,__tmp_reg__
 688 0494 CDBF      		out __SP_L__,r28
 689 0496 CF91      		pop r28
 690 0498 DF91      		pop r29
 691 049a 0895      		ret
 692               	.LFE7:
 693               		.size	set_instrument_nsel, .-set_instrument_nsel
 694               		.data
 695               	.LC5:
 696 007c 2564 0D0A 		.string	"%d\r\n"
 696      00
 697               		.text
 698               	.global	get_instrument_nsel
 699               		.type	get_instrument_nsel, @function
 700               	get_instrument_nsel:
 701               	.LFB8:
 702               	.LM32:
 703 049c DF93      		push r29
 704 049e CF93      		push r28
 705 04a0 00D0      		rcall .
 706 04a2 CDB7      		in r28,__SP_L__
 707 04a4 DEB7      		in r29,__SP_H__
 708               	/* prologue: function */
 709               	/* frame size = 2 */
 710 04a6 9A83      		std Y+2,r25
 711 04a8 8983      		std Y+1,r24
 712               	.LM33:
 713 04aa 8091 0000 		lds r24,dev
 714 04ae 282F      		mov r18,r24
 715 04b0 30E0      		ldi r19,lo8(0)
 716 04b2 00D0      		rcall .
 717 04b4 00D0      		rcall .
 718 04b6 EDB7      		in r30,__SP_L__
 719 04b8 FEB7      		in r31,__SP_H__
 720 04ba 3196      		adiw r30,1
 721 04bc 80E0      		ldi r24,lo8(.LC5)
 722 04be 90E0      		ldi r25,hi8(.LC5)
GAS LISTING C:\Users\alex\AppData\Local\Temp/ccnCc1uD.s 			page 14


 723 04c0 9183      		std Z+1,r25
 724 04c2 8083      		st Z,r24
 725 04c4 3383      		std Z+3,r19
 726 04c6 2283      		std Z+2,r18
 727 04c8 0E94 0000 		call uart_printf
 728 04cc 0F90      		pop __tmp_reg__
 729 04ce 0F90      		pop __tmp_reg__
 730 04d0 0F90      		pop __tmp_reg__
 731 04d2 0F90      		pop __tmp_reg__
 732               	.LM34:
 733 04d4 80E0      		ldi r24,lo8(0)
 734 04d6 90E0      		ldi r25,hi8(0)
 735               	/* epilogue start */
 736               	.LM35:
 737 04d8 0F90      		pop __tmp_reg__
 738 04da 0F90      		pop __tmp_reg__
 739 04dc CF91      		pop r28
 740 04de DF91      		pop r29
 741 04e0 0895      		ret
 742               	.LFE8:
 743               		.size	get_instrument_nsel, .-get_instrument_nsel
 744               	.global	set_voltage
 745               		.type	set_voltage, @function
 746               	set_voltage:
 747               	.LFB9:
 748               	.LM36:
 749 04e2 DF93      		push r29
 750 04e4 CF93      		push r28
 751 04e6 CDB7      		in r28,__SP_L__
 752 04e8 DEB7      		in r29,__SP_H__
 753 04ea 2A97      		sbiw r28,10
 754 04ec 0FB6      		in __tmp_reg__,__SREG__
 755 04ee F894      		cli
 756 04f0 DEBF      		out __SP_H__,r29
 757 04f2 0FBE      		out __SREG__,__tmp_reg__
 758 04f4 CDBF      		out __SP_L__,r28
 759               	/* prologue: function */
 760               	/* frame size = 10 */
 761 04f6 9887      		std Y+8,r25
 762 04f8 8F83      		std Y+7,r24
 763               	.LM37:
 764 04fa 8F81      		ldd r24,Y+7
 765 04fc 9885      		ldd r25,Y+8
 766 04fe 9E01      		movw r18,r28
 767 0500 2B5F      		subi r18,lo8(-(5))
 768 0502 3F4F      		sbci r19,hi8(-(5))
 769 0504 B901      		movw r22,r18
 770 0506 0E94 0000 		call get_dacval
 771 050a AA27      		clr r26
 772 050c 97FD      		sbrc r25,7
 773 050e A095      		com r26
 774 0510 BA2F      		mov r27,r26
 775 0512 8983      		std Y+1,r24
 776 0514 9A83      		std Y+2,r25
 777 0516 AB83      		std Y+3,r26
 778 0518 BC83      		std Y+4,r27
 779               	.LM38:
GAS LISTING C:\Users\alex\AppData\Local\Temp/ccnCc1uD.s 			page 15


 780 051a 8D81      		ldd r24,Y+5
 781 051c 9E81      		ldd r25,Y+6
 782 051e 0097      		sbiw r24,0
 783 0520 01F0      		breq .L20
 784 0522 8D81      		ldd r24,Y+5
 785 0524 9E81      		ldd r25,Y+6
 786 0526 9A87      		std Y+10,r25
 787 0528 8987      		std Y+9,r24
 788 052a 00C0      		rjmp .L21
 789               	.L20:
 790               	.LM39:
 791 052c 8091 0000 		lds r24,dev
 792 0530 882F      		mov r24,r24
 793 0532 90E0      		ldi r25,lo8(0)
 794 0534 880F      		lsl r24
 795 0536 991F      		rol r25
 796 0538 880F      		lsl r24
 797 053a 991F      		rol r25
 798 053c 880F      		lsl r24
 799 053e 991F      		rol r25
 800 0540 0196      		adiw r24,1
 801 0542 880F      		lsl r24
 802 0544 991F      		rol r25
 803 0546 880F      		lsl r24
 804 0548 991F      		rol r25
 805 054a FC01      		movw r30,r24
 806 054c E050      		subi r30,lo8(-(powersupply))
 807 054e F040      		sbci r31,hi8(-(powersupply))
 808 0550 8981      		ldd r24,Y+1
 809 0552 9A81      		ldd r25,Y+2
 810 0554 AB81      		ldd r26,Y+3
 811 0556 BC81      		ldd r27,Y+4
 812 0558 8083      		st Z,r24
 813 055a 9183      		std Z+1,r25
 814 055c A283      		std Z+2,r26
 815 055e B383      		std Z+3,r27
 816               	.LM40:
 817 0560 2981      		ldd r18,Y+1
 818 0562 3A81      		ldd r19,Y+2
 819 0564 81E0      		ldi r24,lo8(1)
 820 0566 B901      		movw r22,r18
 821 0568 40E0      		ldi r20,lo8(0)
 822 056a 0E94 0000 		call mcp4922_putw
 823               	.LM41:
 824 056e 1A86      		std Y+10,__zero_reg__
 825 0570 1986      		std Y+9,__zero_reg__
 826               	.L21:
 827 0572 8985      		ldd r24,Y+9
 828 0574 9A85      		ldd r25,Y+10
 829               	/* epilogue start */
 830               	.LM42:
 831 0576 2A96      		adiw r28,10
 832 0578 0FB6      		in __tmp_reg__,__SREG__
 833 057a F894      		cli
 834 057c DEBF      		out __SP_H__,r29
 835 057e 0FBE      		out __SREG__,__tmp_reg__
 836 0580 CDBF      		out __SP_L__,r28
GAS LISTING C:\Users\alex\AppData\Local\Temp/ccnCc1uD.s 			page 16


 837 0582 CF91      		pop r28
 838 0584 DF91      		pop r29
 839 0586 0895      		ret
 840               	.LFE9:
 841               		.size	set_voltage, .-set_voltage
 842               		.data
 843               	.LC6:
 844 0081 7365 745F 		.string	"set_ovp:dacval %d\r\n"
 844      6F76 703A 
 844      6461 6376 
 844      616C 2025 
 844      640D 0A00 
 845               		.text
 846               	.global	set_ovp_voltage
 847               		.type	set_ovp_voltage, @function
 848               	set_ovp_voltage:
 849               	.LFB10:
 850               	.LM43:
 851 0588 DF93      		push r29
 852 058a CF93      		push r28
 853 058c CDB7      		in r28,__SP_L__
 854 058e DEB7      		in r29,__SP_H__
 855 0590 2A97      		sbiw r28,10
 856 0592 0FB6      		in __tmp_reg__,__SREG__
 857 0594 F894      		cli
 858 0596 DEBF      		out __SP_H__,r29
 859 0598 0FBE      		out __SREG__,__tmp_reg__
 860 059a CDBF      		out __SP_L__,r28
 861               	/* prologue: function */
 862               	/* frame size = 10 */
 863 059c 9887      		std Y+8,r25
 864 059e 8F83      		std Y+7,r24
 865               	.LM44:
 866 05a0 8F81      		ldd r24,Y+7
 867 05a2 9885      		ldd r25,Y+8
 868 05a4 9E01      		movw r18,r28
 869 05a6 2B5F      		subi r18,lo8(-(5))
 870 05a8 3F4F      		sbci r19,hi8(-(5))
 871 05aa B901      		movw r22,r18
 872 05ac 0E94 0000 		call get_dacval
 873 05b0 AA27      		clr r26
 874 05b2 97FD      		sbrc r25,7
 875 05b4 A095      		com r26
 876 05b6 BA2F      		mov r27,r26
 877 05b8 8983      		std Y+1,r24
 878 05ba 9A83      		std Y+2,r25
 879 05bc AB83      		std Y+3,r26
 880 05be BC83      		std Y+4,r27
 881               	.LM45:
 882 05c0 8D81      		ldd r24,Y+5
 883 05c2 9E81      		ldd r25,Y+6
 884 05c4 0097      		sbiw r24,0
 885 05c6 01F0      		breq .L24
 886 05c8 8D81      		ldd r24,Y+5
 887 05ca 9E81      		ldd r25,Y+6
 888 05cc 9A87      		std Y+10,r25
 889 05ce 8987      		std Y+9,r24
GAS LISTING C:\Users\alex\AppData\Local\Temp/ccnCc1uD.s 			page 17


 890 05d0 00C0      		rjmp .L25
 891               	.L24:
 892               	.LM46:
 893 05d2 8091 0000 		lds r24,dev
 894 05d6 882F      		mov r24,r24
 895 05d8 90E0      		ldi r25,lo8(0)
 896 05da 880F      		lsl r24
 897 05dc 991F      		rol r25
 898 05de 880F      		lsl r24
 899 05e0 991F      		rol r25
 900 05e2 880F      		lsl r24
 901 05e4 991F      		rol r25
 902 05e6 0196      		adiw r24,1
 903 05e8 880F      		lsl r24
 904 05ea 991F      		rol r25
 905 05ec 880F      		lsl r24
 906 05ee 991F      		rol r25
 907 05f0 FC01      		movw r30,r24
 908 05f2 E050      		subi r30,lo8(-(powersupply))
 909 05f4 F040      		sbci r31,hi8(-(powersupply))
 910 05f6 8981      		ldd r24,Y+1
 911 05f8 9A81      		ldd r25,Y+2
 912 05fa AB81      		ldd r26,Y+3
 913 05fc BC81      		ldd r27,Y+4
 914 05fe 8083      		st Z,r24
 915 0600 9183      		std Z+1,r25
 916 0602 A283      		std Z+2,r26
 917 0604 B383      		std Z+3,r27
 918               	.LM47:
 919 0606 2981      		ldd r18,Y+1
 920 0608 3A81      		ldd r19,Y+2
 921 060a 80E0      		ldi r24,lo8(0)
 922 060c B901      		movw r22,r18
 923 060e 40E0      		ldi r20,lo8(0)
 924 0610 0E94 0000 		call mcp4922_putw
 925               	.LM48:
 926 0614 00D0      		rcall .
 927 0616 00D0      		rcall .
 928 0618 00D0      		rcall .
 929 061a EDB7      		in r30,__SP_L__
 930 061c FEB7      		in r31,__SP_H__
 931 061e 3196      		adiw r30,1
 932 0620 80E0      		ldi r24,lo8(.LC6)
 933 0622 90E0      		ldi r25,hi8(.LC6)
 934 0624 9183      		std Z+1,r25
 935 0626 8083      		st Z,r24
 936 0628 8981      		ldd r24,Y+1
 937 062a 9A81      		ldd r25,Y+2
 938 062c AB81      		ldd r26,Y+3
 939 062e BC81      		ldd r27,Y+4
 940 0630 8283      		std Z+2,r24
 941 0632 9383      		std Z+3,r25
 942 0634 A483      		std Z+4,r26
 943 0636 B583      		std Z+5,r27
 944 0638 0E94 0000 		call uart_printf
 945 063c 8DB7      		in r24,__SP_L__
 946 063e 9EB7      		in r25,__SP_H__
GAS LISTING C:\Users\alex\AppData\Local\Temp/ccnCc1uD.s 			page 18


 947 0640 0696      		adiw r24,6
 948 0642 0FB6      		in __tmp_reg__,__SREG__
 949 0644 F894      		cli
 950 0646 9EBF      		out __SP_H__,r25
 951 0648 0FBE      		out __SREG__,__tmp_reg__
 952 064a 8DBF      		out __SP_L__,r24
 953               	.LM49:
 954 064c 1A86      		std Y+10,__zero_reg__
 955 064e 1986      		std Y+9,__zero_reg__
 956               	.L25:
 957 0650 8985      		ldd r24,Y+9
 958 0652 9A85      		ldd r25,Y+10
 959               	/* epilogue start */
 960               	.LM50:
 961 0654 2A96      		adiw r28,10
 962 0656 0FB6      		in __tmp_reg__,__SREG__
 963 0658 F894      		cli
 964 065a DEBF      		out __SP_H__,r29
 965 065c 0FBE      		out __SREG__,__tmp_reg__
 966 065e CDBF      		out __SP_L__,r28
 967 0660 CF91      		pop r28
 968 0662 DF91      		pop r29
 969 0664 0895      		ret
 970               	.LFE10:
 971               		.size	set_ovp_voltage, .-set_ovp_voltage
 972               		.data
 973               	.LC7:
 974 0095 7365 745F 		.string	"set_current:[%s]\r\n"
 974      6375 7272 
 974      656E 743A 
 974      5B25 735D 
 974      0D0A 00
 975               	.LC8:
 976 00a8 7365 745F 		.string	"set_current:got %l  (err:%d) [%s]\r\n"
 976      6375 7272 
 976      656E 743A 
 976      676F 7420 
 976      256C 2020 
 977               	.LC9:
 978 00cc 7365 745F 		.string	"set_current:dacval %d\r\n"
 978      6375 7272 
 978      656E 743A 
 978      6461 6376 
 978      616C 2025 
 979               		.text
 980               	.global	set_current
 981               		.type	set_current, @function
 982               	set_current:
 983               	.LFB11:
 984               	.LM51:
 985 0666 DF93      		push r29
 986 0668 CF93      		push r28
 987 066a CDB7      		in r28,__SP_L__
 988 066c DEB7      		in r29,__SP_H__
 989 066e 2E97      		sbiw r28,14
 990 0670 0FB6      		in __tmp_reg__,__SREG__
 991 0672 F894      		cli
GAS LISTING C:\Users\alex\AppData\Local\Temp/ccnCc1uD.s 			page 19


 992 0674 DEBF      		out __SP_H__,r29
 993 0676 0FBE      		out __SREG__,__tmp_reg__
 994 0678 CDBF      		out __SP_L__,r28
 995               	/* prologue: function */
 996               	/* frame size = 14 */
 997 067a 9C87      		std Y+12,r25
 998 067c 8B87      		std Y+11,r24
 999               	.LM52:
 1000 067e 1B82      		std Y+3,__zero_reg__
 1001 0680 1C82      		std Y+4,__zero_reg__
 1002 0682 1D82      		std Y+5,__zero_reg__
 1003 0684 1E82      		std Y+6,__zero_reg__
 1004               	.LM53:
 1005 0686 1886      		std Y+8,__zero_reg__
 1006 0688 1F82      		std Y+7,__zero_reg__
 1007               	.LM54:
 1008 068a 00D0      		rcall .
 1009 068c 00D0      		rcall .
 1010 068e EDB7      		in r30,__SP_L__
 1011 0690 FEB7      		in r31,__SP_H__
 1012 0692 3196      		adiw r30,1
 1013 0694 80E0      		ldi r24,lo8(.LC7)
 1014 0696 90E0      		ldi r25,hi8(.LC7)
 1015 0698 9183      		std Z+1,r25
 1016 069a 8083      		st Z,r24
 1017 069c 8B85      		ldd r24,Y+11
 1018 069e 9C85      		ldd r25,Y+12
 1019 06a0 9383      		std Z+3,r25
 1020 06a2 8283      		std Z+2,r24
 1021 06a4 0E94 0000 		call uart_printf
 1022 06a8 0F90      		pop __tmp_reg__
 1023 06aa 0F90      		pop __tmp_reg__
 1024 06ac 0F90      		pop __tmp_reg__
 1025 06ae 0F90      		pop __tmp_reg__
 1026               	.LM55:
 1027 06b0 8B85      		ldd r24,Y+11
 1028 06b2 9C85      		ldd r25,Y+12
 1029 06b4 9E01      		movw r18,r28
 1030 06b6 295F      		subi r18,lo8(-(7))
 1031 06b8 3F4F      		sbci r19,hi8(-(7))
 1032 06ba AE01      		movw r20,r28
 1033 06bc 475F      		subi r20,lo8(-(9))
 1034 06be 5F4F      		sbci r21,hi8(-(9))
 1035 06c0 B901      		movw r22,r18
 1036 06c2 0E94 0000 		call scpi_get_longfrac
 1037 06c6 DC01      		movw r26,r24
 1038 06c8 CB01      		movw r24,r22
 1039 06ca 8B83      		std Y+3,r24
 1040 06cc 9C83      		std Y+4,r25
 1041 06ce AD83      		std Y+5,r26
 1042 06d0 BE83      		std Y+6,r27
 1043               	.LM56:
 1044 06d2 8F81      		ldd r24,Y+7
 1045 06d4 9885      		ldd r25,Y+8
 1046 06d6 0097      		sbiw r24,0
 1047 06d8 01F0      		breq .L28
 1048 06da 8F81      		ldd r24,Y+7
GAS LISTING C:\Users\alex\AppData\Local\Temp/ccnCc1uD.s 			page 20


 1049 06dc 9885      		ldd r25,Y+8
 1050 06de 9E87      		std Y+14,r25
 1051 06e0 8D87      		std Y+13,r24
 1052 06e2 00C0      		rjmp .L29
 1053               	.L28:
 1054               	.LM57:
 1055 06e4 2F81      		ldd r18,Y+7
 1056 06e6 3885      		ldd r19,Y+8
 1057 06e8 4985      		ldd r20,Y+9
 1058 06ea 5A85      		ldd r21,Y+10
 1059 06ec 8DB7      		in r24,__SP_L__
 1060 06ee 9EB7      		in r25,__SP_H__
 1061 06f0 0A97      		sbiw r24,10
 1062 06f2 0FB6      		in __tmp_reg__,__SREG__
 1063 06f4 F894      		cli
 1064 06f6 9EBF      		out __SP_H__,r25
 1065 06f8 0FBE      		out __SREG__,__tmp_reg__
 1066 06fa 8DBF      		out __SP_L__,r24
 1067 06fc EDB7      		in r30,__SP_L__
 1068 06fe FEB7      		in r31,__SP_H__
 1069 0700 3196      		adiw r30,1
 1070 0702 80E0      		ldi r24,lo8(.LC8)
 1071 0704 90E0      		ldi r25,hi8(.LC8)
 1072 0706 9183      		std Z+1,r25
 1073 0708 8083      		st Z,r24
 1074 070a 8B81      		ldd r24,Y+3
 1075 070c 9C81      		ldd r25,Y+4
 1076 070e AD81      		ldd r26,Y+5
 1077 0710 BE81      		ldd r27,Y+6
 1078 0712 8283      		std Z+2,r24
 1079 0714 9383      		std Z+3,r25
 1080 0716 A483      		std Z+4,r26
 1081 0718 B583      		std Z+5,r27
 1082 071a 3783      		std Z+7,r19
 1083 071c 2683      		std Z+6,r18
 1084 071e 5187      		std Z+9,r21
 1085 0720 4087      		std Z+8,r20
 1086 0722 0E94 0000 		call uart_printf
 1087 0726 8DB7      		in r24,__SP_L__
 1088 0728 9EB7      		in r25,__SP_H__
 1089 072a 0A96      		adiw r24,10
 1090 072c 0FB6      		in __tmp_reg__,__SREG__
 1091 072e F894      		cli
 1092 0730 9EBF      		out __SP_H__,r25
 1093 0732 0FBE      		out __SREG__,__tmp_reg__
 1094 0734 8DBF      		out __SP_L__,r24
 1095               	.LM58:
 1096 0736 8985      		ldd r24,Y+9
 1097 0738 9A85      		ldd r25,Y+10
 1098 073a 0E94 0000 		call scpi_check_buf_empty
 1099 073e 0097      		sbiw r24,0
 1100 0740 01F4      		brne .L30
 1101 0742 81E0      		ldi r24,lo8(1)
 1102 0744 90E0      		ldi r25,hi8(1)
 1103 0746 9E87      		std Y+14,r25
 1104 0748 8D87      		std Y+13,r24
 1105 074a 00C0      		rjmp .L29
GAS LISTING C:\Users\alex\AppData\Local\Temp/ccnCc1uD.s 			page 21


 1106               	.L30:
 1107               	.LM59:
 1108 074c 8B81      		ldd r24,Y+3
 1109 074e 9C81      		ldd r25,Y+4
 1110 0750 AD81      		ldd r26,Y+5
 1111 0752 BE81      		ldd r27,Y+6
 1112 0754 BB23      		tst r27
 1113 0756 04F0      		brlt .L31
 1114 0758 8B81      		ldd r24,Y+3
 1115 075a 9C81      		ldd r25,Y+4
 1116 075c AD81      		ldd r26,Y+5
 1117 075e BE81      		ldd r27,Y+6
 1118 0760 813D      		cpi r24,lo8(2001)
 1119 0762 27E0      		ldi r18,hi8(2001)
 1120 0764 9207      		cpc r25,r18
 1121 0766 20E0      		ldi r18,hlo8(2001)
 1122 0768 A207      		cpc r26,r18
 1123 076a 20E0      		ldi r18,hhi8(2001)
 1124 076c B207      		cpc r27,r18
 1125 076e 04F0      		brlt .L32
 1126               	.L31:
 1127 0770 81E1      		ldi r24,lo8(17)
 1128 0772 90E0      		ldi r25,hi8(17)
 1129 0774 9E87      		std Y+14,r25
 1130 0776 8D87      		std Y+13,r24
 1131 0778 00C0      		rjmp .L29
 1132               	.L32:
 1133               	.LM60:
 1134 077a 8091 0000 		lds r24,dev
 1135 077e 882F      		mov r24,r24
 1136 0780 90E0      		ldi r25,lo8(0)
 1137 0782 880F      		lsl r24
 1138 0784 991F      		rol r25
 1139 0786 880F      		lsl r24
 1140 0788 991F      		rol r25
 1141 078a 0196      		adiw r24,1
 1142 078c 880F      		lsl r24
 1143 078e 991F      		rol r25
 1144 0790 880F      		lsl r24
 1145 0792 991F      		rol r25
 1146 0794 880F      		lsl r24
 1147 0796 991F      		rol r25
 1148 0798 FC01      		movw r30,r24
 1149 079a E050      		subi r30,lo8(-(powersupply))
 1150 079c F040      		sbci r31,hi8(-(powersupply))
 1151 079e 8B81      		ldd r24,Y+3
 1152 07a0 9C81      		ldd r25,Y+4
 1153 07a2 AD81      		ldd r26,Y+5
 1154 07a4 BE81      		ldd r27,Y+6
 1155 07a6 8083      		st Z,r24
 1156 07a8 9183      		std Z+1,r25
 1157 07aa A283      		std Z+2,r26
 1158 07ac B383      		std Z+3,r27
 1159               	.LM61:
 1160 07ae 8B81      		ldd r24,Y+3
 1161 07b0 9C81      		ldd r25,Y+4
 1162 07b2 AD81      		ldd r26,Y+5
GAS LISTING C:\Users\alex\AppData\Local\Temp/ccnCc1uD.s 			page 22


 1163 07b4 BE81      		ldd r27,Y+6
 1164 07b6 880F      		lsl r24
 1165 07b8 991F      		rol r25
 1166 07ba AA1F      		rol r26
 1167 07bc BB1F      		rol r27
 1168 07be 9A83      		std Y+2,r25
 1169 07c0 8983      		std Y+1,r24
 1170               	.LM62:
 1171 07c2 2981      		ldd r18,Y+1
 1172 07c4 3A81      		ldd r19,Y+2
 1173 07c6 81E0      		ldi r24,lo8(1)
 1174 07c8 B901      		movw r22,r18
 1175 07ca 41E0      		ldi r20,lo8(1)
 1176 07cc 0E94 0000 		call mcp4922_putw
 1177               	.LM63:
 1178 07d0 00D0      		rcall .
 1179 07d2 00D0      		rcall .
 1180 07d4 EDB7      		in r30,__SP_L__
 1181 07d6 FEB7      		in r31,__SP_H__
 1182 07d8 3196      		adiw r30,1
 1183 07da 80E0      		ldi r24,lo8(.LC9)
 1184 07dc 90E0      		ldi r25,hi8(.LC9)
 1185 07de 9183      		std Z+1,r25
 1186 07e0 8083      		st Z,r24
 1187 07e2 8981      		ldd r24,Y+1
 1188 07e4 9A81      		ldd r25,Y+2
 1189 07e6 9383      		std Z+3,r25
 1190 07e8 8283      		std Z+2,r24
 1191 07ea 0E94 0000 		call uart_printf
 1192 07ee 0F90      		pop __tmp_reg__
 1193 07f0 0F90      		pop __tmp_reg__
 1194 07f2 0F90      		pop __tmp_reg__
 1195 07f4 0F90      		pop __tmp_reg__
 1196               	.LM64:
 1197 07f6 1E86      		std Y+14,__zero_reg__
 1198 07f8 1D86      		std Y+13,__zero_reg__
 1199               	.L29:
 1200 07fa 8D85      		ldd r24,Y+13
 1201 07fc 9E85      		ldd r25,Y+14
 1202               	/* epilogue start */
 1203               	.LM65:
 1204 07fe 2E96      		adiw r28,14
 1205 0800 0FB6      		in __tmp_reg__,__SREG__
 1206 0802 F894      		cli
 1207 0804 DEBF      		out __SP_H__,r29
 1208 0806 0FBE      		out __SREG__,__tmp_reg__
 1209 0808 CDBF      		out __SP_L__,r28
 1210 080a CF91      		pop r28
 1211 080c DF91      		pop r29
 1212 080e 0895      		ret
 1213               	.LFE11:
 1214               		.size	set_current, .-set_current
 1215               		.data
 1216               	.LC10:
 1217 00e4 7365 745F 		.string	"set_standby got %s  (err:%d) [%s]\r\n"
 1217      7374 616E 
 1217      6462 7920 
GAS LISTING C:\Users\alex\AppData\Local\Temp/ccnCc1uD.s 			page 23


 1217      676F 7420 
 1217      2573 2020 
 1218               		.text
 1219               	.global	set_standby
 1220               		.type	set_standby, @function
 1221               	set_standby:
 1222               	.LFB12:
 1223               	.LM66:
 1224 0810 DF93      		push r29
 1225 0812 CF93      		push r28
 1226 0814 CDB7      		in r28,__SP_L__
 1227 0816 DEB7      		in r29,__SP_H__
 1228 0818 2997      		sbiw r28,9
 1229 081a 0FB6      		in __tmp_reg__,__SREG__
 1230 081c F894      		cli
 1231 081e DEBF      		out __SP_H__,r29
 1232 0820 0FBE      		out __SREG__,__tmp_reg__
 1233 0822 CDBF      		out __SP_L__,r28
 1234               	/* prologue: function */
 1235               	/* frame size = 9 */
 1236 0824 9F83      		std Y+7,r25
 1237 0826 8E83      		std Y+6,r24
 1238               	.LM67:
 1239 0828 8E81      		ldd r24,Y+6
 1240 082a 9F81      		ldd r25,Y+7
 1241 082c 9E01      		movw r18,r28
 1242 082e 2E5F      		subi r18,lo8(-(2))
 1243 0830 3F4F      		sbci r19,hi8(-(2))
 1244 0832 AE01      		movw r20,r28
 1245 0834 4C5F      		subi r20,lo8(-(4))
 1246 0836 5F4F      		sbci r21,hi8(-(4))
 1247 0838 B901      		movw r22,r18
 1248 083a 0E94 0000 		call scpi_get_digit
 1249 083e 8983      		std Y+1,r24
 1250               	.LM68:
 1251 0840 8981      		ldd r24,Y+1
 1252 0842 282F      		mov r18,r24
 1253 0844 30E0      		ldi r19,lo8(0)
 1254 0846 4A81      		ldd r20,Y+2
 1255 0848 5B81      		ldd r21,Y+3
 1256 084a 6C81      		ldd r22,Y+4
 1257 084c 7D81      		ldd r23,Y+5
 1258 084e 8DB7      		in r24,__SP_L__
 1259 0850 9EB7      		in r25,__SP_H__
 1260 0852 0897      		sbiw r24,8
 1261 0854 0FB6      		in __tmp_reg__,__SREG__
 1262 0856 F894      		cli
 1263 0858 9EBF      		out __SP_H__,r25
 1264 085a 0FBE      		out __SREG__,__tmp_reg__
 1265 085c 8DBF      		out __SP_L__,r24
 1266 085e EDB7      		in r30,__SP_L__
 1267 0860 FEB7      		in r31,__SP_H__
 1268 0862 3196      		adiw r30,1
 1269 0864 80E0      		ldi r24,lo8(.LC10)
 1270 0866 90E0      		ldi r25,hi8(.LC10)
 1271 0868 9183      		std Z+1,r25
 1272 086a 8083      		st Z,r24
GAS LISTING C:\Users\alex\AppData\Local\Temp/ccnCc1uD.s 			page 24


 1273 086c 3383      		std Z+3,r19
 1274 086e 2283      		std Z+2,r18
 1275 0870 5583      		std Z+5,r21
 1276 0872 4483      		std Z+4,r20
 1277 0874 7783      		std Z+7,r23
 1278 0876 6683      		std Z+6,r22
 1279 0878 0E94 0000 		call uart_printf
 1280 087c 8DB7      		in r24,__SP_L__
 1281 087e 9EB7      		in r25,__SP_H__
 1282 0880 0896      		adiw r24,8
 1283 0882 0FB6      		in __tmp_reg__,__SREG__
 1284 0884 F894      		cli
 1285 0886 9EBF      		out __SP_H__,r25
 1286 0888 0FBE      		out __SREG__,__tmp_reg__
 1287 088a 8DBF      		out __SP_L__,r24
 1288               	.LM69:
 1289 088c 8A81      		ldd r24,Y+2
 1290 088e 9B81      		ldd r25,Y+3
 1291 0890 0097      		sbiw r24,0
 1292 0892 01F0      		breq .L35
 1293 0894 8A81      		ldd r24,Y+2
 1294 0896 9B81      		ldd r25,Y+3
 1295 0898 9987      		std Y+9,r25
 1296 089a 8887      		std Y+8,r24
 1297 089c 00C0      		rjmp .L36
 1298               	.L35:
 1299               	.LM70:
 1300 089e 8C81      		ldd r24,Y+4
 1301 08a0 9D81      		ldd r25,Y+5
 1302 08a2 0E94 0000 		call scpi_check_buf_empty
 1303 08a6 0097      		sbiw r24,0
 1304 08a8 01F4      		brne .L37
 1305 08aa 81E0      		ldi r24,lo8(1)
 1306 08ac 90E0      		ldi r25,hi8(1)
 1307 08ae 9987      		std Y+9,r25
 1308 08b0 8887      		std Y+8,r24
 1309 08b2 00C0      		rjmp .L36
 1310               	.L37:
 1311               	.LM71:
 1312 08b4 8981      		ldd r24,Y+1
 1313 08b6 8823      		tst r24
 1314 08b8 01F4      		brne .L38
 1315               	.LM72:
 1316 08ba 80E0      		ldi r24,lo8(0)
 1317 08bc 60E0      		ldi r22,lo8(0)
 1318 08be 70E0      		ldi r23,hi8(0)
 1319 08c0 41E0      		ldi r20,lo8(1)
 1320 08c2 0E94 0000 		call mcp4922_putw
 1321               	.LM73:
 1322 08c6 1986      		std Y+9,__zero_reg__
 1323 08c8 1886      		std Y+8,__zero_reg__
 1324 08ca 00C0      		rjmp .L36
 1325               	.L38:
 1326               	.LM74:
 1327 08cc 8981      		ldd r24,Y+1
 1328 08ce 8130      		cpi r24,lo8(1)
 1329 08d0 01F4      		brne .L39
GAS LISTING C:\Users\alex\AppData\Local\Temp/ccnCc1uD.s 			page 25


 1330               	.LM75:
 1331 08d2 80E0      		ldi r24,lo8(0)
 1332 08d4 62E7      		ldi r22,lo8(1650)
 1333 08d6 76E0      		ldi r23,hi8(1650)
 1334 08d8 41E0      		ldi r20,lo8(1)
 1335 08da 0E94 0000 		call mcp4922_putw
 1336               	.LM76:
 1337 08de 1986      		std Y+9,__zero_reg__
 1338 08e0 1886      		std Y+8,__zero_reg__
 1339 08e2 00C0      		rjmp .L36
 1340               	.L39:
 1341               	.LM77:
 1342 08e4 83E1      		ldi r24,lo8(19)
 1343 08e6 90E0      		ldi r25,hi8(19)
 1344 08e8 9987      		std Y+9,r25
 1345 08ea 8887      		std Y+8,r24
 1346               	.L36:
 1347 08ec 8885      		ldd r24,Y+8
 1348 08ee 9985      		ldd r25,Y+9
 1349               	/* epilogue start */
 1350               	.LM78:
 1351 08f0 2996      		adiw r28,9
 1352 08f2 0FB6      		in __tmp_reg__,__SREG__
 1353 08f4 F894      		cli
 1354 08f6 DEBF      		out __SP_H__,r29
 1355 08f8 0FBE      		out __SREG__,__tmp_reg__
 1356 08fa CDBF      		out __SP_L__,r28
 1357 08fc CF91      		pop r28
 1358 08fe DF91      		pop r29
 1359 0900 0895      		ret
 1360               	.LFE12:
 1361               		.size	set_standby, .-set_standby
 1362               	.global	get_voltage
 1363               		.type	get_voltage, @function
 1364               	get_voltage:
 1365               	.LFB13:
 1366               	.LM79:
 1367 0902 DF93      		push r29
 1368 0904 CF93      		push r28
 1369 0906 00D0      		rcall .
 1370 0908 00D0      		rcall .
 1371 090a 00D0      		rcall .
 1372 090c CDB7      		in r28,__SP_L__
 1373 090e DEB7      		in r29,__SP_H__
 1374               	/* prologue: function */
 1375               	/* frame size = 6 */
 1376 0910 9E83      		std Y+6,r25
 1377 0912 8D83      		std Y+5,r24
 1378               	.LM80:
 1379 0914 80E0      		ldi r24,lo8(0)
 1380 0916 61E0      		ldi r22,lo8(1)
 1381 0918 40E0      		ldi r20,lo8(0)
 1382 091a 0E94 0000 		call mcp3204_getw
 1383 091e CC01      		movw r24,r24
 1384 0920 A0E0      		ldi r26,lo8(0)
 1385 0922 B0E0      		ldi r27,hi8(0)
 1386 0924 8983      		std Y+1,r24
GAS LISTING C:\Users\alex\AppData\Local\Temp/ccnCc1uD.s 			page 26


 1387 0926 9A83      		std Y+2,r25
 1388 0928 AB83      		std Y+3,r26
 1389 092a BC83      		std Y+4,r27
 1390               	.LM81:
 1391 092c 8981      		ldd r24,Y+1
 1392 092e 9A81      		ldd r25,Y+2
 1393 0930 AB81      		ldd r26,Y+3
 1394 0932 BC81      		ldd r27,Y+4
 1395 0934 BC01      		movw r22,r24
 1396 0936 CD01      		movw r24,r26
 1397 0938 0E94 0000 		call print_dacval
 1398               	.LM82:
 1399 093c 80E0      		ldi r24,lo8(0)
 1400 093e 90E0      		ldi r25,hi8(0)
 1401               	/* epilogue start */
 1402               	.LM83:
 1403 0940 2696      		adiw r28,6
 1404 0942 0FB6      		in __tmp_reg__,__SREG__
 1405 0944 F894      		cli
 1406 0946 DEBF      		out __SP_H__,r29
 1407 0948 0FBE      		out __SREG__,__tmp_reg__
 1408 094a CDBF      		out __SP_L__,r28
 1409 094c CF91      		pop r28
 1410 094e DF91      		pop r29
 1411 0950 0895      		ret
 1412               	.LFE13:
 1413               		.size	get_voltage, .-get_voltage
 1414               	.global	get_current
 1415               		.type	get_current, @function
 1416               	get_current:
 1417               	.LFB14:
 1418               	.LM84:
 1419 0952 DF93      		push r29
 1420 0954 CF93      		push r28
 1421 0956 CDB7      		in r28,__SP_L__
 1422 0958 DEB7      		in r29,__SP_H__
 1423 095a 2C97      		sbiw r28,12
 1424 095c 0FB6      		in __tmp_reg__,__SREG__
 1425 095e F894      		cli
 1426 0960 DEBF      		out __SP_H__,r29
 1427 0962 0FBE      		out __SREG__,__tmp_reg__
 1428 0964 CDBF      		out __SP_L__,r28
 1429               	/* prologue: function */
 1430               	/* frame size = 12 */
 1431 0966 9C87      		std Y+12,r25
 1432 0968 8B87      		std Y+11,r24
 1433               	.LM85:
 1434 096a 80E0      		ldi r24,lo8(0)
 1435 096c 61E0      		ldi r22,lo8(1)
 1436 096e 41E0      		ldi r20,lo8(1)
 1437 0970 0E94 0000 		call mcp3204_getw
 1438 0974 9E83      		std Y+6,r25
 1439 0976 8D83      		std Y+5,r24
 1440               	.LM86:
 1441 0978 8D81      		ldd r24,Y+5
 1442 097a 9E81      		ldd r25,Y+6
 1443 097c 982F      		mov r25,r24
GAS LISTING C:\Users\alex\AppData\Local\Temp/ccnCc1uD.s 			page 27


 1444 097e 8827      		clr r24
 1445 0980 990F      		lsl r25
 1446 0982 990F      		lsl r25
 1447 0984 990F      		lsl r25
 1448 0986 CC01      		movw r24,r24
 1449 0988 A0E0      		ldi r26,lo8(0)
 1450 098a B0E0      		ldi r27,hi8(0)
 1451 098c 8F83      		std Y+7,r24
 1452 098e 9887      		std Y+8,r25
 1453 0990 A987      		std Y+9,r26
 1454 0992 BA87      		std Y+10,r27
 1455               	.LM87:
 1456 0994 8F81      		ldd r24,Y+7
 1457 0996 9885      		ldd r25,Y+8
 1458 0998 A985      		ldd r26,Y+9
 1459 099a BA85      		ldd r27,Y+10
 1460 099c 072E      		mov r0,r23
 1461 099e 7AE0      		ldi r23,10
 1462 09a0 B595      	1:	asr r27
 1463 09a2 A795      		ror r26
 1464 09a4 9795      		ror r25
 1465 09a6 8795      		ror r24
 1466 09a8 7A95      		dec r23
 1467 09aa 01F4      		brne 1b
 1468 09ac 702D      		mov r23,r0
 1469 09ae 9C01      		movw r18,r24
 1470 09b0 8F81      		ldd r24,Y+7
 1471 09b2 9885      		ldd r25,Y+8
 1472 09b4 A985      		ldd r26,Y+9
 1473 09b6 BA85      		ldd r27,Y+10
 1474 09b8 CD01      		movw r24,r26
 1475 09ba BB27      		clr r27
 1476 09bc 97FD      		sbrc r25,7
 1477 09be B095      		com r27
 1478 09c0 AB2F      		mov r26,r27
 1479 09c2 280F      		add r18,r24
 1480 09c4 391F      		adc r19,r25
 1481 09c6 8F81      		ldd r24,Y+7
 1482 09c8 9885      		ldd r25,Y+8
 1483 09ca A985      		ldd r26,Y+9
 1484 09cc BA85      		ldd r27,Y+10
 1485 09ce 072E      		mov r0,r23
 1486 09d0 71E1      		ldi r23,17
 1487 09d2 B595      	1:	asr r27
 1488 09d4 A795      		ror r26
 1489 09d6 9795      		ror r25
 1490 09d8 8795      		ror r24
 1491 09da 7A95      		dec r23
 1492 09dc 01F4      		brne 1b
 1493 09de 702D      		mov r23,r0
 1494 09e0 820F      		add r24,r18
 1495 09e2 931F      		adc r25,r19
 1496 09e4 9C83      		std Y+4,r25
 1497 09e6 8B83      		std Y+3,r24
 1498               	.LM88:
 1499 09e8 6F81      		ldd r22,Y+7
 1500 09ea 7885      		ldd r23,Y+8
GAS LISTING C:\Users\alex\AppData\Local\Temp/ccnCc1uD.s 			page 28


 1501 09ec 8B81      		ldd r24,Y+3
 1502 09ee 9C81      		ldd r25,Y+4
 1503 09f0 AC01      		movw r20,r24
 1504 09f2 440F      		lsl r20
 1505 09f4 551F      		rol r21
 1506 09f6 440F      		lsl r20
 1507 09f8 551F      		rol r21
 1508 09fa 440F      		lsl r20
 1509 09fc 551F      		rol r21
 1510 09fe 8B81      		ldd r24,Y+3
 1511 0a00 9C81      		ldd r25,Y+4
 1512 0a02 9C01      		movw r18,r24
 1513 0a04 2295      		swap r18
 1514 0a06 3295      		swap r19
 1515 0a08 307F      		andi r19,0xf0
 1516 0a0a 3227      		eor r19,r18
 1517 0a0c 207F      		andi r18,0xf0
 1518 0a0e 3227      		eor r19,r18
 1519 0a10 8B81      		ldd r24,Y+3
 1520 0a12 9C81      		ldd r25,Y+4
 1521 0a14 982F      		mov r25,r24
 1522 0a16 8827      		clr r24
 1523 0a18 990F      		lsl r25
 1524 0a1a 990F      		lsl r25
 1525 0a1c F901      		movw r30,r18
 1526 0a1e E81B      		sub r30,r24
 1527 0a20 F90B      		sbc r31,r25
 1528 0a22 CF01      		movw r24,r30
 1529 0a24 840F      		add r24,r20
 1530 0a26 951F      		adc r25,r21
 1531 0a28 860F      		add r24,r22
 1532 0a2a 971F      		adc r25,r23
 1533 0a2c 9A83      		std Y+2,r25
 1534 0a2e 8983      		std Y+1,r24
 1535               	.LM89:
 1536 0a30 00D0      		rcall .
 1537 0a32 00D0      		rcall .
 1538 0a34 00D0      		rcall .
 1539 0a36 EDB7      		in r30,__SP_L__
 1540 0a38 FEB7      		in r31,__SP_H__
 1541 0a3a 3196      		adiw r30,1
 1542 0a3c 80E0      		ldi r24,lo8(.LC0)
 1543 0a3e 90E0      		ldi r25,hi8(.LC0)
 1544 0a40 9183      		std Z+1,r25
 1545 0a42 8083      		st Z,r24
 1546 0a44 8B81      		ldd r24,Y+3
 1547 0a46 9C81      		ldd r25,Y+4
 1548 0a48 9383      		std Z+3,r25
 1549 0a4a 8283      		std Z+2,r24
 1550 0a4c 8981      		ldd r24,Y+1
 1551 0a4e 9A81      		ldd r25,Y+2
 1552 0a50 9583      		std Z+5,r25
 1553 0a52 8483      		std Z+4,r24
 1554 0a54 0E94 0000 		call uart_printf
 1555 0a58 8DB7      		in r24,__SP_L__
 1556 0a5a 9EB7      		in r25,__SP_H__
 1557 0a5c 0696      		adiw r24,6
GAS LISTING C:\Users\alex\AppData\Local\Temp/ccnCc1uD.s 			page 29


 1558 0a5e 0FB6      		in __tmp_reg__,__SREG__
 1559 0a60 F894      		cli
 1560 0a62 9EBF      		out __SP_H__,r25
 1561 0a64 0FBE      		out __SREG__,__tmp_reg__
 1562 0a66 8DBF      		out __SP_L__,r24
 1563               	.LM90:
 1564 0a68 80E0      		ldi r24,lo8(0)
 1565 0a6a 90E0      		ldi r25,hi8(0)
 1566               	/* epilogue start */
 1567               	.LM91:
 1568 0a6c 2C96      		adiw r28,12
 1569 0a6e 0FB6      		in __tmp_reg__,__SREG__
 1570 0a70 F894      		cli
 1571 0a72 DEBF      		out __SP_H__,r29
 1572 0a74 0FBE      		out __SREG__,__tmp_reg__
 1573 0a76 CDBF      		out __SP_L__,r28
 1574 0a78 CF91      		pop r28
 1575 0a7a DF91      		pop r29
 1576 0a7c 0895      		ret
 1577               	.LFE14:
 1578               		.size	get_current, .-get_current
 1579               	.global	get_ovp_voltage
 1580               		.type	get_ovp_voltage, @function
 1581               	get_ovp_voltage:
 1582               	.LFB15:
 1583               	.LM92:
 1584 0a7e DF93      		push r29
 1585 0a80 CF93      		push r28
 1586 0a82 00D0      		rcall .
 1587 0a84 CDB7      		in r28,__SP_L__
 1588 0a86 DEB7      		in r29,__SP_H__
 1589               	/* prologue: function */
 1590               	/* frame size = 2 */
 1591 0a88 9A83      		std Y+2,r25
 1592 0a8a 8983      		std Y+1,r24
 1593               	.LM93:
 1594 0a8c 8091 0000 		lds r24,dev
 1595 0a90 882F      		mov r24,r24
 1596 0a92 90E0      		ldi r25,lo8(0)
 1597 0a94 880F      		lsl r24
 1598 0a96 991F      		rol r25
 1599 0a98 880F      		lsl r24
 1600 0a9a 991F      		rol r25
 1601 0a9c 880F      		lsl r24
 1602 0a9e 991F      		rol r25
 1603 0aa0 0196      		adiw r24,1
 1604 0aa2 880F      		lsl r24
 1605 0aa4 991F      		rol r25
 1606 0aa6 880F      		lsl r24
 1607 0aa8 991F      		rol r25
 1608 0aaa FC01      		movw r30,r24
 1609 0aac E050      		subi r30,lo8(-(powersupply))
 1610 0aae F040      		sbci r31,hi8(-(powersupply))
 1611 0ab0 8081      		ld r24,Z
 1612 0ab2 9181      		ldd r25,Z+1
 1613 0ab4 A281      		ldd r26,Z+2
 1614 0ab6 B381      		ldd r27,Z+3
GAS LISTING C:\Users\alex\AppData\Local\Temp/ccnCc1uD.s 			page 30


 1615 0ab8 BC01      		movw r22,r24
 1616 0aba CD01      		movw r24,r26
 1617 0abc 0E94 0000 		call print_dacval
 1618               	.LM94:
 1619 0ac0 80E0      		ldi r24,lo8(0)
 1620 0ac2 90E0      		ldi r25,hi8(0)
 1621               	/* epilogue start */
 1622               	.LM95:
 1623 0ac4 0F90      		pop __tmp_reg__
 1624 0ac6 0F90      		pop __tmp_reg__
 1625 0ac8 CF91      		pop r28
 1626 0aca DF91      		pop r29
 1627 0acc 0895      		ret
 1628               	.LFE15:
 1629               		.size	get_ovp_voltage, .-get_ovp_voltage
 1630               	.global	get_standby
 1631               		.type	get_standby, @function
 1632               	get_standby:
 1633               	.LFB16:
 1634               	.LM96:
 1635 0ace DF93      		push r29
 1636 0ad0 CF93      		push r28
 1637 0ad2 00D0      		rcall .
 1638 0ad4 CDB7      		in r28,__SP_L__
 1639 0ad6 DEB7      		in r29,__SP_H__
 1640               	/* prologue: function */
 1641               	/* frame size = 2 */
 1642 0ad8 9A83      		std Y+2,r25
 1643 0ada 8983      		std Y+1,r24
 1644               	.LM97:
 1645 0adc 80E0      		ldi r24,lo8(0)
 1646 0ade 90E0      		ldi r25,hi8(0)
 1647               	/* epilogue start */
 1648               	.LM98:
 1649 0ae0 0F90      		pop __tmp_reg__
 1650 0ae2 0F90      		pop __tmp_reg__
 1651 0ae4 CF91      		pop r28
 1652 0ae6 DF91      		pop r29
 1653 0ae8 0895      		ret
 1654               	.LFE16:
 1655               		.size	get_standby, .-get_standby
 1656               		.data
 1657               	.LC11:
 1658 0108 6F76 7020 		.string	"ovp 512.0\n"
 1658      3531 322E 
 1658      300A 00
 1659               	.LC12:
 1660 0113 6375 7272 		.string	"current 1.0\n"
 1660      656E 7420 
 1660      312E 300A 
 1660      00
 1661               	.LC13:
 1662 0120 766F 6C74 		.string	"volt 0.0\n"
 1662      2030 2E30 
 1662      0A00 
 1663               	.LC14:
 1664 012a 7374 2031 		.string	"st 1\n"
GAS LISTING C:\Users\alex\AppData\Local\Temp/ccnCc1uD.s 			page 31


 1664      0A00 
 1665               		.text
 1666               	.global	device_reset
 1667               		.type	device_reset, @function
 1668               	device_reset:
 1669               	.LFB17:
 1670               	.LM99:
 1671 0aea DF93      		push r29
 1672 0aec CF93      		push r28
 1673 0aee CDB7      		in r28,__SP_L__
 1674 0af0 DEB7      		in r29,__SP_H__
 1675               	/* prologue: function */
 1676               	/* frame size = 0 */
 1677               	.LM100:
 1678 0af2 80E0      		ldi r24,lo8(.LC11)
 1679 0af4 90E0      		ldi r25,hi8(.LC11)
 1680 0af6 0E94 0000 		call scpi_parse_line
 1681               	.LM101:
 1682 0afa 80E0      		ldi r24,lo8(.LC12)
 1683 0afc 90E0      		ldi r25,hi8(.LC12)
 1684 0afe 0E94 0000 		call scpi_parse_line
 1685               	.LM102:
 1686 0b02 80E0      		ldi r24,lo8(.LC13)
 1687 0b04 90E0      		ldi r25,hi8(.LC13)
 1688 0b06 0E94 0000 		call scpi_parse_line
 1689               	.LM103:
 1690 0b0a 80E0      		ldi r24,lo8(.LC14)
 1691 0b0c 90E0      		ldi r25,hi8(.LC14)
 1692 0b0e 0E94 0000 		call scpi_parse_line
 1693               	.LM104:
 1694 0b12 80E0      		ldi r24,lo8(0)
 1695 0b14 90E0      		ldi r25,hi8(0)
 1696               	/* epilogue start */
 1697               	.LM105:
 1698 0b16 CF91      		pop r28
 1699 0b18 DF91      		pop r29
 1700 0b1a 0895      		ret
 1701               	.LFE17:
 1702               		.size	device_reset, .-device_reset
 1703               	.global	set_sweep_start
 1704               		.type	set_sweep_start, @function
 1705               	set_sweep_start:
 1706               	.LFB18:
 1707               	.LM106:
 1708 0b1c DF93      		push r29
 1709 0b1e CF93      		push r28
 1710 0b20 CDB7      		in r28,__SP_L__
 1711 0b22 DEB7      		in r29,__SP_H__
 1712 0b24 2A97      		sbiw r28,10
 1713 0b26 0FB6      		in __tmp_reg__,__SREG__
 1714 0b28 F894      		cli
 1715 0b2a DEBF      		out __SP_H__,r29
 1716 0b2c 0FBE      		out __SREG__,__tmp_reg__
 1717 0b2e CDBF      		out __SP_L__,r28
 1718               	/* prologue: function */
 1719               	/* frame size = 10 */
 1720 0b30 9887      		std Y+8,r25
GAS LISTING C:\Users\alex\AppData\Local\Temp/ccnCc1uD.s 			page 32


 1721 0b32 8F83      		std Y+7,r24
 1722               	.LM107:
 1723 0b34 8F81      		ldd r24,Y+7
 1724 0b36 9885      		ldd r25,Y+8
 1725 0b38 9E01      		movw r18,r28
 1726 0b3a 2B5F      		subi r18,lo8(-(5))
 1727 0b3c 3F4F      		sbci r19,hi8(-(5))
 1728 0b3e B901      		movw r22,r18
 1729 0b40 0E94 0000 		call get_dacval
 1730 0b44 AA27      		clr r26
 1731 0b46 97FD      		sbrc r25,7
 1732 0b48 A095      		com r26
 1733 0b4a BA2F      		mov r27,r26
 1734 0b4c 8983      		std Y+1,r24
 1735 0b4e 9A83      		std Y+2,r25
 1736 0b50 AB83      		std Y+3,r26
 1737 0b52 BC83      		std Y+4,r27
 1738               	.LM108:
 1739 0b54 8D81      		ldd r24,Y+5
 1740 0b56 9E81      		ldd r25,Y+6
 1741 0b58 0097      		sbiw r24,0
 1742 0b5a 01F0      		breq .L52
 1743 0b5c 8D81      		ldd r24,Y+5
 1744 0b5e 9E81      		ldd r25,Y+6
 1745 0b60 9A87      		std Y+10,r25
 1746 0b62 8987      		std Y+9,r24
 1747 0b64 00C0      		rjmp .L53
 1748               	.L52:
 1749               	.LM109:
 1750 0b66 8091 0000 		lds r24,dev
 1751 0b6a 882F      		mov r24,r24
 1752 0b6c 90E0      		ldi r25,lo8(0)
 1753 0b6e 880F      		lsl r24
 1754 0b70 991F      		rol r25
 1755 0b72 8295      		swap r24
 1756 0b74 9295      		swap r25
 1757 0b76 907F      		andi r25,0xf0
 1758 0b78 9827      		eor r25,r24
 1759 0b7a 807F      		andi r24,0xf0
 1760 0b7c 9827      		eor r25,r24
 1761 0b7e FC01      		movw r30,r24
 1762 0b80 E050      		subi r30,lo8(-(powersupply+14))
 1763 0b82 F040      		sbci r31,hi8(-(powersupply+14))
 1764 0b84 8981      		ldd r24,Y+1
 1765 0b86 9A81      		ldd r25,Y+2
 1766 0b88 AB81      		ldd r26,Y+3
 1767 0b8a BC81      		ldd r27,Y+4
 1768 0b8c 8083      		st Z,r24
 1769 0b8e 9183      		std Z+1,r25
 1770 0b90 A283      		std Z+2,r26
 1771 0b92 B383      		std Z+3,r27
 1772               	.LM110:
 1773 0b94 1A86      		std Y+10,__zero_reg__
 1774 0b96 1986      		std Y+9,__zero_reg__
 1775               	.L53:
 1776 0b98 8985      		ldd r24,Y+9
 1777 0b9a 9A85      		ldd r25,Y+10
GAS LISTING C:\Users\alex\AppData\Local\Temp/ccnCc1uD.s 			page 33


 1778               	/* epilogue start */
 1779               	.LM111:
 1780 0b9c 2A96      		adiw r28,10
 1781 0b9e 0FB6      		in __tmp_reg__,__SREG__
 1782 0ba0 F894      		cli
 1783 0ba2 DEBF      		out __SP_H__,r29
 1784 0ba4 0FBE      		out __SREG__,__tmp_reg__
 1785 0ba6 CDBF      		out __SP_L__,r28
 1786 0ba8 CF91      		pop r28
 1787 0baa DF91      		pop r29
 1788 0bac 0895      		ret
 1789               	.LFE18:
 1790               		.size	set_sweep_start, .-set_sweep_start
 1791               	.global	get_sweep_start
 1792               		.type	get_sweep_start, @function
 1793               	get_sweep_start:
 1794               	.LFB19:
 1795               	.LM112:
 1796 0bae DF93      		push r29
 1797 0bb0 CF93      		push r28
 1798 0bb2 00D0      		rcall .
 1799 0bb4 CDB7      		in r28,__SP_L__
 1800 0bb6 DEB7      		in r29,__SP_H__
 1801               	/* prologue: function */
 1802               	/* frame size = 2 */
 1803 0bb8 9A83      		std Y+2,r25
 1804 0bba 8983      		std Y+1,r24
 1805               	.LM113:
 1806 0bbc 8091 0000 		lds r24,dev
 1807 0bc0 882F      		mov r24,r24
 1808 0bc2 90E0      		ldi r25,lo8(0)
 1809 0bc4 880F      		lsl r24
 1810 0bc6 991F      		rol r25
 1811 0bc8 8295      		swap r24
 1812 0bca 9295      		swap r25
 1813 0bcc 907F      		andi r25,0xf0
 1814 0bce 9827      		eor r25,r24
 1815 0bd0 807F      		andi r24,0xf0
 1816 0bd2 9827      		eor r25,r24
 1817 0bd4 FC01      		movw r30,r24
 1818 0bd6 E050      		subi r30,lo8(-(powersupply+14))
 1819 0bd8 F040      		sbci r31,hi8(-(powersupply+14))
 1820 0bda 8081      		ld r24,Z
 1821 0bdc 9181      		ldd r25,Z+1
 1822 0bde A281      		ldd r26,Z+2
 1823 0be0 B381      		ldd r27,Z+3
 1824 0be2 BC01      		movw r22,r24
 1825 0be4 CD01      		movw r24,r26
 1826 0be6 0E94 0000 		call print_dacval
 1827               	.LM114:
 1828 0bea 80E0      		ldi r24,lo8(0)
 1829 0bec 90E0      		ldi r25,hi8(0)
 1830               	/* epilogue start */
 1831               	.LM115:
 1832 0bee 0F90      		pop __tmp_reg__
 1833 0bf0 0F90      		pop __tmp_reg__
 1834 0bf2 CF91      		pop r28
GAS LISTING C:\Users\alex\AppData\Local\Temp/ccnCc1uD.s 			page 34


 1835 0bf4 DF91      		pop r29
 1836 0bf6 0895      		ret
 1837               	.LFE19:
 1838               		.size	get_sweep_start, .-get_sweep_start
 1839               	.global	set_sweep_stop
 1840               		.type	set_sweep_stop, @function
 1841               	set_sweep_stop:
 1842               	.LFB20:
 1843               	.LM116:
 1844 0bf8 DF93      		push r29
 1845 0bfa CF93      		push r28
 1846 0bfc CDB7      		in r28,__SP_L__
 1847 0bfe DEB7      		in r29,__SP_H__
 1848 0c00 2A97      		sbiw r28,10
 1849 0c02 0FB6      		in __tmp_reg__,__SREG__
 1850 0c04 F894      		cli
 1851 0c06 DEBF      		out __SP_H__,r29
 1852 0c08 0FBE      		out __SREG__,__tmp_reg__
 1853 0c0a CDBF      		out __SP_L__,r28
 1854               	/* prologue: function */
 1855               	/* frame size = 10 */
 1856 0c0c 9887      		std Y+8,r25
 1857 0c0e 8F83      		std Y+7,r24
 1858               	.LM117:
 1859 0c10 8F81      		ldd r24,Y+7
 1860 0c12 9885      		ldd r25,Y+8
 1861 0c14 9E01      		movw r18,r28
 1862 0c16 2B5F      		subi r18,lo8(-(5))
 1863 0c18 3F4F      		sbci r19,hi8(-(5))
 1864 0c1a B901      		movw r22,r18
 1865 0c1c 0E94 0000 		call get_dacval
 1866 0c20 AA27      		clr r26
 1867 0c22 97FD      		sbrc r25,7
 1868 0c24 A095      		com r26
 1869 0c26 BA2F      		mov r27,r26
 1870 0c28 8983      		std Y+1,r24
 1871 0c2a 9A83      		std Y+2,r25
 1872 0c2c AB83      		std Y+3,r26
 1873 0c2e BC83      		std Y+4,r27
 1874               	.LM118:
 1875 0c30 8D81      		ldd r24,Y+5
 1876 0c32 9E81      		ldd r25,Y+6
 1877 0c34 0097      		sbiw r24,0
 1878 0c36 01F0      		breq .L58
 1879 0c38 8D81      		ldd r24,Y+5
 1880 0c3a 9E81      		ldd r25,Y+6
 1881 0c3c 9A87      		std Y+10,r25
 1882 0c3e 8987      		std Y+9,r24
 1883 0c40 00C0      		rjmp .L59
 1884               	.L58:
 1885               	.LM119:
 1886 0c42 8091 0000 		lds r24,dev
 1887 0c46 882F      		mov r24,r24
 1888 0c48 90E0      		ldi r25,lo8(0)
 1889 0c4a 880F      		lsl r24
 1890 0c4c 991F      		rol r25
 1891 0c4e 8295      		swap r24
GAS LISTING C:\Users\alex\AppData\Local\Temp/ccnCc1uD.s 			page 35


 1892 0c50 9295      		swap r25
 1893 0c52 907F      		andi r25,0xf0
 1894 0c54 9827      		eor r25,r24
 1895 0c56 807F      		andi r24,0xf0
 1896 0c58 9827      		eor r25,r24
 1897 0c5a FC01      		movw r30,r24
 1898 0c5c E050      		subi r30,lo8(-(powersupply+18))
 1899 0c5e F040      		sbci r31,hi8(-(powersupply+18))
 1900 0c60 8981      		ldd r24,Y+1
 1901 0c62 9A81      		ldd r25,Y+2
 1902 0c64 AB81      		ldd r26,Y+3
 1903 0c66 BC81      		ldd r27,Y+4
 1904 0c68 8083      		st Z,r24
 1905 0c6a 9183      		std Z+1,r25
 1906 0c6c A283      		std Z+2,r26
 1907 0c6e B383      		std Z+3,r27
 1908               	.LM120:
 1909 0c70 1A86      		std Y+10,__zero_reg__
 1910 0c72 1986      		std Y+9,__zero_reg__
 1911               	.L59:
 1912 0c74 8985      		ldd r24,Y+9
 1913 0c76 9A85      		ldd r25,Y+10
 1914               	/* epilogue start */
 1915               	.LM121:
 1916 0c78 2A96      		adiw r28,10
 1917 0c7a 0FB6      		in __tmp_reg__,__SREG__
 1918 0c7c F894      		cli
 1919 0c7e DEBF      		out __SP_H__,r29
 1920 0c80 0FBE      		out __SREG__,__tmp_reg__
 1921 0c82 CDBF      		out __SP_L__,r28
 1922 0c84 CF91      		pop r28
 1923 0c86 DF91      		pop r29
 1924 0c88 0895      		ret
 1925               	.LFE20:
 1926               		.size	set_sweep_stop, .-set_sweep_stop
 1927               	.global	get_sweep_stop
 1928               		.type	get_sweep_stop, @function
 1929               	get_sweep_stop:
 1930               	.LFB21:
 1931               	.LM122:
 1932 0c8a DF93      		push r29
 1933 0c8c CF93      		push r28
 1934 0c8e 00D0      		rcall .
 1935 0c90 CDB7      		in r28,__SP_L__
 1936 0c92 DEB7      		in r29,__SP_H__
 1937               	/* prologue: function */
 1938               	/* frame size = 2 */
 1939 0c94 9A83      		std Y+2,r25
 1940 0c96 8983      		std Y+1,r24
 1941               	.LM123:
 1942 0c98 8091 0000 		lds r24,dev
 1943 0c9c 882F      		mov r24,r24
 1944 0c9e 90E0      		ldi r25,lo8(0)
 1945 0ca0 880F      		lsl r24
 1946 0ca2 991F      		rol r25
 1947 0ca4 8295      		swap r24
 1948 0ca6 9295      		swap r25
GAS LISTING C:\Users\alex\AppData\Local\Temp/ccnCc1uD.s 			page 36


 1949 0ca8 907F      		andi r25,0xf0
 1950 0caa 9827      		eor r25,r24
 1951 0cac 807F      		andi r24,0xf0
 1952 0cae 9827      		eor r25,r24
 1953 0cb0 FC01      		movw r30,r24
 1954 0cb2 E050      		subi r30,lo8(-(powersupply+18))
 1955 0cb4 F040      		sbci r31,hi8(-(powersupply+18))
 1956 0cb6 8081      		ld r24,Z
 1957 0cb8 9181      		ldd r25,Z+1
 1958 0cba A281      		ldd r26,Z+2
 1959 0cbc B381      		ldd r27,Z+3
 1960 0cbe BC01      		movw r22,r24
 1961 0cc0 CD01      		movw r24,r26
 1962 0cc2 0E94 0000 		call print_dacval
 1963               	.LM124:
 1964 0cc6 80E0      		ldi r24,lo8(0)
 1965 0cc8 90E0      		ldi r25,hi8(0)
 1966               	/* epilogue start */
 1967               	.LM125:
 1968 0cca 0F90      		pop __tmp_reg__
 1969 0ccc 0F90      		pop __tmp_reg__
 1970 0cce CF91      		pop r28
 1971 0cd0 DF91      		pop r29
 1972 0cd2 0895      		ret
 1973               	.LFE21:
 1974               		.size	get_sweep_stop, .-get_sweep_stop
 1975               	.global	set_sweep_step
 1976               		.type	set_sweep_step, @function
 1977               	set_sweep_step:
 1978               	.LFB22:
 1979               	.LM126:
 1980 0cd4 DF93      		push r29
 1981 0cd6 CF93      		push r28
 1982 0cd8 CDB7      		in r28,__SP_L__
 1983 0cda DEB7      		in r29,__SP_H__
 1984 0cdc 2A97      		sbiw r28,10
 1985 0cde 0FB6      		in __tmp_reg__,__SREG__
 1986 0ce0 F894      		cli
 1987 0ce2 DEBF      		out __SP_H__,r29
 1988 0ce4 0FBE      		out __SREG__,__tmp_reg__
 1989 0ce6 CDBF      		out __SP_L__,r28
 1990               	/* prologue: function */
 1991               	/* frame size = 10 */
 1992 0ce8 9887      		std Y+8,r25
 1993 0cea 8F83      		std Y+7,r24
 1994               	.LM127:
 1995 0cec 8F81      		ldd r24,Y+7
 1996 0cee 9885      		ldd r25,Y+8
 1997 0cf0 9E01      		movw r18,r28
 1998 0cf2 2B5F      		subi r18,lo8(-(5))
 1999 0cf4 3F4F      		sbci r19,hi8(-(5))
 2000 0cf6 B901      		movw r22,r18
 2001 0cf8 0E94 0000 		call get_dacval
 2002 0cfc AA27      		clr r26
 2003 0cfe 97FD      		sbrc r25,7
 2004 0d00 A095      		com r26
 2005 0d02 BA2F      		mov r27,r26
GAS LISTING C:\Users\alex\AppData\Local\Temp/ccnCc1uD.s 			page 37


 2006 0d04 8983      		std Y+1,r24
 2007 0d06 9A83      		std Y+2,r25
 2008 0d08 AB83      		std Y+3,r26
 2009 0d0a BC83      		std Y+4,r27
 2010               	.LM128:
 2011 0d0c 8D81      		ldd r24,Y+5
 2012 0d0e 9E81      		ldd r25,Y+6
 2013 0d10 0097      		sbiw r24,0
 2014 0d12 01F0      		breq .L64
 2015 0d14 8D81      		ldd r24,Y+5
 2016 0d16 9E81      		ldd r25,Y+6
 2017 0d18 9A87      		std Y+10,r25
 2018 0d1a 8987      		std Y+9,r24
 2019 0d1c 00C0      		rjmp .L65
 2020               	.L64:
 2021               	.LM129:
 2022 0d1e 8091 0000 		lds r24,dev
 2023 0d22 882F      		mov r24,r24
 2024 0d24 90E0      		ldi r25,lo8(0)
 2025 0d26 880F      		lsl r24
 2026 0d28 991F      		rol r25
 2027 0d2a 8295      		swap r24
 2028 0d2c 9295      		swap r25
 2029 0d2e 907F      		andi r25,0xf0
 2030 0d30 9827      		eor r25,r24
 2031 0d32 807F      		andi r24,0xf0
 2032 0d34 9827      		eor r25,r24
 2033 0d36 FC01      		movw r30,r24
 2034 0d38 E050      		subi r30,lo8(-(powersupply+22))
 2035 0d3a F040      		sbci r31,hi8(-(powersupply+22))
 2036 0d3c 8981      		ldd r24,Y+1
 2037 0d3e 9A81      		ldd r25,Y+2
 2038 0d40 AB81      		ldd r26,Y+3
 2039 0d42 BC81      		ldd r27,Y+4
 2040 0d44 8083      		st Z,r24
 2041 0d46 9183      		std Z+1,r25
 2042 0d48 A283      		std Z+2,r26
 2043 0d4a B383      		std Z+3,r27
 2044               	.LM130:
 2045 0d4c 1A86      		std Y+10,__zero_reg__
 2046 0d4e 1986      		std Y+9,__zero_reg__
 2047               	.L65:
 2048 0d50 8985      		ldd r24,Y+9
 2049 0d52 9A85      		ldd r25,Y+10
 2050               	/* epilogue start */
 2051               	.LM131:
 2052 0d54 2A96      		adiw r28,10
 2053 0d56 0FB6      		in __tmp_reg__,__SREG__
 2054 0d58 F894      		cli
 2055 0d5a DEBF      		out __SP_H__,r29
 2056 0d5c 0FBE      		out __SREG__,__tmp_reg__
 2057 0d5e CDBF      		out __SP_L__,r28
 2058 0d60 CF91      		pop r28
 2059 0d62 DF91      		pop r29
 2060 0d64 0895      		ret
 2061               	.LFE22:
 2062               		.size	set_sweep_step, .-set_sweep_step
GAS LISTING C:\Users\alex\AppData\Local\Temp/ccnCc1uD.s 			page 38


 2063               	.global	get_sweep_step
 2064               		.type	get_sweep_step, @function
 2065               	get_sweep_step:
 2066               	.LFB23:
 2067               	.LM132:
 2068 0d66 DF93      		push r29
 2069 0d68 CF93      		push r28
 2070 0d6a 00D0      		rcall .
 2071 0d6c CDB7      		in r28,__SP_L__
 2072 0d6e DEB7      		in r29,__SP_H__
 2073               	/* prologue: function */
 2074               	/* frame size = 2 */
 2075 0d70 9A83      		std Y+2,r25
 2076 0d72 8983      		std Y+1,r24
 2077               	.LM133:
 2078 0d74 8091 0000 		lds r24,dev
 2079 0d78 882F      		mov r24,r24
 2080 0d7a 90E0      		ldi r25,lo8(0)
 2081 0d7c 880F      		lsl r24
 2082 0d7e 991F      		rol r25
 2083 0d80 8295      		swap r24
 2084 0d82 9295      		swap r25
 2085 0d84 907F      		andi r25,0xf0
 2086 0d86 9827      		eor r25,r24
 2087 0d88 807F      		andi r24,0xf0
 2088 0d8a 9827      		eor r25,r24
 2089 0d8c FC01      		movw r30,r24
 2090 0d8e E050      		subi r30,lo8(-(powersupply+22))
 2091 0d90 F040      		sbci r31,hi8(-(powersupply+22))
 2092 0d92 8081      		ld r24,Z
 2093 0d94 9181      		ldd r25,Z+1
 2094 0d96 A281      		ldd r26,Z+2
 2095 0d98 B381      		ldd r27,Z+3
 2096 0d9a BC01      		movw r22,r24
 2097 0d9c CD01      		movw r24,r26
 2098 0d9e 0E94 0000 		call print_dacval
 2099               	.LM134:
 2100 0da2 80E0      		ldi r24,lo8(0)
 2101 0da4 90E0      		ldi r25,hi8(0)
 2102               	/* epilogue start */
 2103               	.LM135:
 2104 0da6 0F90      		pop __tmp_reg__
 2105 0da8 0F90      		pop __tmp_reg__
 2106 0daa CF91      		pop r28
 2107 0dac DF91      		pop r29
 2108 0dae 0895      		ret
 2109               	.LFE23:
 2110               		.size	get_sweep_step, .-get_sweep_step
 2111               	.global	set_sweep_time
 2112               		.type	set_sweep_time, @function
 2113               	set_sweep_time:
 2114               	.LFB24:
 2115               	.LM136:
 2116 0db0 DF93      		push r29
 2117 0db2 CF93      		push r28
 2118 0db4 CDB7      		in r28,__SP_L__
 2119 0db6 DEB7      		in r29,__SP_H__
GAS LISTING C:\Users\alex\AppData\Local\Temp/ccnCc1uD.s 			page 39


 2120 0db8 2A97      		sbiw r28,10
 2121 0dba 0FB6      		in __tmp_reg__,__SREG__
 2122 0dbc F894      		cli
 2123 0dbe DEBF      		out __SP_H__,r29
 2124 0dc0 0FBE      		out __SREG__,__tmp_reg__
 2125 0dc2 CDBF      		out __SP_L__,r28
 2126               	/* prologue: function */
 2127               	/* frame size = 10 */
 2128 0dc4 9887      		std Y+8,r25
 2129 0dc6 8F83      		std Y+7,r24
 2130               	.LM137:
 2131 0dc8 1B82      		std Y+3,__zero_reg__
 2132 0dca 1C82      		std Y+4,__zero_reg__
 2133 0dcc 1D82      		std Y+5,__zero_reg__
 2134 0dce 1E82      		std Y+6,__zero_reg__
 2135 0dd0 1A82      		std Y+2,__zero_reg__
 2136 0dd2 1982      		std Y+1,__zero_reg__
 2137               	.LM138:
 2138 0dd4 8981      		ldd r24,Y+1
 2139 0dd6 9A81      		ldd r25,Y+2
 2140 0dd8 0097      		sbiw r24,0
 2141 0dda 01F0      		breq .L70
 2142 0ddc 8981      		ldd r24,Y+1
 2143 0dde 9A81      		ldd r25,Y+2
 2144 0de0 9A87      		std Y+10,r25
 2145 0de2 8987      		std Y+9,r24
 2146 0de4 00C0      		rjmp .L71
 2147               	.L70:
 2148               	.LM139:
 2149 0de6 8091 0000 		lds r24,dev
 2150 0dea 882F      		mov r24,r24
 2151 0dec 90E0      		ldi r25,lo8(0)
 2152 0dee 880F      		lsl r24
 2153 0df0 991F      		rol r25
 2154 0df2 8295      		swap r24
 2155 0df4 9295      		swap r25
 2156 0df6 907F      		andi r25,0xf0
 2157 0df8 9827      		eor r25,r24
 2158 0dfa 807F      		andi r24,0xf0
 2159 0dfc 9827      		eor r25,r24
 2160 0dfe FC01      		movw r30,r24
 2161 0e00 E050      		subi r30,lo8(-(powersupply+27))
 2162 0e02 F040      		sbci r31,hi8(-(powersupply+27))
 2163 0e04 8B81      		ldd r24,Y+3
 2164 0e06 9C81      		ldd r25,Y+4
 2165 0e08 AD81      		ldd r26,Y+5
 2166 0e0a BE81      		ldd r27,Y+6
 2167 0e0c 8083      		st Z,r24
 2168 0e0e 9183      		std Z+1,r25
 2169 0e10 A283      		std Z+2,r26
 2170 0e12 B383      		std Z+3,r27
 2171               	.LM140:
 2172 0e14 1A86      		std Y+10,__zero_reg__
 2173 0e16 1986      		std Y+9,__zero_reg__
 2174               	.L71:
 2175 0e18 8985      		ldd r24,Y+9
 2176 0e1a 9A85      		ldd r25,Y+10
GAS LISTING C:\Users\alex\AppData\Local\Temp/ccnCc1uD.s 			page 40


 2177               	/* epilogue start */
 2178               	.LM141:
 2179 0e1c 2A96      		adiw r28,10
 2180 0e1e 0FB6      		in __tmp_reg__,__SREG__
 2181 0e20 F894      		cli
 2182 0e22 DEBF      		out __SP_H__,r29
 2183 0e24 0FBE      		out __SREG__,__tmp_reg__
 2184 0e26 CDBF      		out __SP_L__,r28
 2185 0e28 CF91      		pop r28
 2186 0e2a DF91      		pop r29
 2187 0e2c 0895      		ret
 2188               	.LFE24:
 2189               		.size	set_sweep_time, .-set_sweep_time
 2190               	.global	get_sweep_time
 2191               		.type	get_sweep_time, @function
 2192               	get_sweep_time:
 2193               	.LFB25:
 2194               	.LM142:
 2195 0e2e DF93      		push r29
 2196 0e30 CF93      		push r28
 2197 0e32 00D0      		rcall .
 2198 0e34 CDB7      		in r28,__SP_L__
 2199 0e36 DEB7      		in r29,__SP_H__
 2200               	/* prologue: function */
 2201               	/* frame size = 2 */
 2202 0e38 9A83      		std Y+2,r25
 2203 0e3a 8983      		std Y+1,r24
 2204               	.LM143:
 2205 0e3c 80E0      		ldi r24,lo8(0)
 2206 0e3e 90E0      		ldi r25,hi8(0)
 2207               	/* epilogue start */
 2208               	.LM144:
 2209 0e40 0F90      		pop __tmp_reg__
 2210 0e42 0F90      		pop __tmp_reg__
 2211 0e44 CF91      		pop r28
 2212 0e46 DF91      		pop r29
 2213 0e48 0895      		ret
 2214               	.LFE25:
 2215               		.size	get_sweep_time, .-get_sweep_time
 2216               		.comm return_buf,80,1
 2217               		.comm powersupply,128,1
 2218               		.section	.debug_frame,"",@progbits
 2219               	.Lframe0:
 2220 0000 0C00 0000 		.long	.LECIE0-.LSCIE0
 2221               	.LSCIE0:
 2222 0004 FFFF FFFF 		.long	0xffffffff
 2223 0008 01        		.byte	0x1
 2224 0009 00        		.string	""
 2225 000a 01        		.uleb128 0x1
 2226 000b 7F        		.sleb128 -1
 2227 000c 24        		.byte	0x24
 2228 000d 0C        		.byte	0xc
 2229 000e 20        		.uleb128 0x20
 2230 000f 00        		.uleb128 0x0
 2231               		.p2align	2
 2232               	.LECIE0:
 2233               	.LSFDE0:
GAS LISTING C:\Users\alex\AppData\Local\Temp/ccnCc1uD.s 			page 41


 2234 0010 0C00 0000 		.long	.LEFDE0-.LASFDE0
 2235               	.LASFDE0:
 2236 0014 0000 0000 		.long	.Lframe0
 2237 0018 0000 0000 		.long	.LFB4
 2238 001c BA00 0000 		.long	.LFE4-.LFB4
 2239               		.p2align	2
 2240               	.LEFDE0:
 2241               	.LSFDE2:
 2242 0020 0C00 0000 		.long	.LEFDE2-.LASFDE2
 2243               	.LASFDE2:
 2244 0024 0000 0000 		.long	.Lframe0
 2245 0028 0000 0000 		.long	.LFB5
 2246 002c A001 0000 		.long	.LFE5-.LFB5
 2247               		.p2align	2
 2248               	.LEFDE2:
 2249               	.LSFDE4:
 2250 0030 0C00 0000 		.long	.LEFDE4-.LASFDE4
 2251               	.LASFDE4:
 2252 0034 0000 0000 		.long	.Lframe0
 2253 0038 0000 0000 		.long	.LFB6
 2254 003c 7E01 0000 		.long	.LFE6-.LFB6
 2255               		.p2align	2
 2256               	.LEFDE4:
 2257               	.LSFDE6:
 2258 0040 0C00 0000 		.long	.LEFDE6-.LASFDE6
 2259               	.LASFDE6:
 2260 0044 0000 0000 		.long	.Lframe0
 2261 0048 0000 0000 		.long	.LFB7
 2262 004c C400 0000 		.long	.LFE7-.LFB7
 2263               		.p2align	2
 2264               	.LEFDE6:
 2265               	.LSFDE8:
 2266 0050 0C00 0000 		.long	.LEFDE8-.LASFDE8
 2267               	.LASFDE8:
 2268 0054 0000 0000 		.long	.Lframe0
 2269 0058 0000 0000 		.long	.LFB8
 2270 005c 4600 0000 		.long	.LFE8-.LFB8
 2271               		.p2align	2
 2272               	.LEFDE8:
 2273               	.LSFDE10:
 2274 0060 0C00 0000 		.long	.LEFDE10-.LASFDE10
 2275               	.LASFDE10:
 2276 0064 0000 0000 		.long	.Lframe0
 2277 0068 0000 0000 		.long	.LFB9
 2278 006c A600 0000 		.long	.LFE9-.LFB9
 2279               		.p2align	2
 2280               	.LEFDE10:
 2281               	.LSFDE12:
 2282 0070 0C00 0000 		.long	.LEFDE12-.LASFDE12
 2283               	.LASFDE12:
 2284 0074 0000 0000 		.long	.Lframe0
 2285 0078 0000 0000 		.long	.LFB10
 2286 007c DE00 0000 		.long	.LFE10-.LFB10
 2287               		.p2align	2
 2288               	.LEFDE12:
 2289               	.LSFDE14:
 2290 0080 0C00 0000 		.long	.LEFDE14-.LASFDE14
GAS LISTING C:\Users\alex\AppData\Local\Temp/ccnCc1uD.s 			page 42


 2291               	.LASFDE14:
 2292 0084 0000 0000 		.long	.Lframe0
 2293 0088 0000 0000 		.long	.LFB11
 2294 008c AA01 0000 		.long	.LFE11-.LFB11
 2295               		.p2align	2
 2296               	.LEFDE14:
 2297               	.LSFDE16:
 2298 0090 0C00 0000 		.long	.LEFDE16-.LASFDE16
 2299               	.LASFDE16:
 2300 0094 0000 0000 		.long	.Lframe0
 2301 0098 0000 0000 		.long	.LFB12
 2302 009c F200 0000 		.long	.LFE12-.LFB12
 2303               		.p2align	2
 2304               	.LEFDE16:
 2305               	.LSFDE18:
 2306 00a0 0C00 0000 		.long	.LEFDE18-.LASFDE18
 2307               	.LASFDE18:
 2308 00a4 0000 0000 		.long	.Lframe0
 2309 00a8 0000 0000 		.long	.LFB13
 2310 00ac 5000 0000 		.long	.LFE13-.LFB13
 2311               		.p2align	2
 2312               	.LEFDE18:
 2313               	.LSFDE20:
 2314 00b0 0C00 0000 		.long	.LEFDE20-.LASFDE20
 2315               	.LASFDE20:
 2316 00b4 0000 0000 		.long	.Lframe0
 2317 00b8 0000 0000 		.long	.LFB14
 2318 00bc 2C01 0000 		.long	.LFE14-.LFB14
 2319               		.p2align	2
 2320               	.LEFDE20:
 2321               	.LSFDE22:
 2322 00c0 0C00 0000 		.long	.LEFDE22-.LASFDE22
 2323               	.LASFDE22:
 2324 00c4 0000 0000 		.long	.Lframe0
 2325 00c8 0000 0000 		.long	.LFB15
 2326 00cc 5000 0000 		.long	.LFE15-.LFB15
 2327               		.p2align	2
 2328               	.LEFDE22:
 2329               	.LSFDE24:
 2330 00d0 0C00 0000 		.long	.LEFDE24-.LASFDE24
 2331               	.LASFDE24:
 2332 00d4 0000 0000 		.long	.Lframe0
 2333 00d8 0000 0000 		.long	.LFB16
 2334 00dc 1C00 0000 		.long	.LFE16-.LFB16
 2335               		.p2align	2
 2336               	.LEFDE24:
 2337               	.LSFDE26:
 2338 00e0 0C00 0000 		.long	.LEFDE26-.LASFDE26
 2339               	.LASFDE26:
 2340 00e4 0000 0000 		.long	.Lframe0
 2341 00e8 0000 0000 		.long	.LFB17
 2342 00ec 3200 0000 		.long	.LFE17-.LFB17
 2343               		.p2align	2
 2344               	.LEFDE26:
 2345               	.LSFDE28:
 2346 00f0 0C00 0000 		.long	.LEFDE28-.LASFDE28
 2347               	.LASFDE28:
GAS LISTING C:\Users\alex\AppData\Local\Temp/ccnCc1uD.s 			page 43


 2348 00f4 0000 0000 		.long	.Lframe0
 2349 00f8 0000 0000 		.long	.LFB18
 2350 00fc 9200 0000 		.long	.LFE18-.LFB18
 2351               		.p2align	2
 2352               	.LEFDE28:
 2353               	.LSFDE30:
 2354 0100 0C00 0000 		.long	.LEFDE30-.LASFDE30
 2355               	.LASFDE30:
 2356 0104 0000 0000 		.long	.Lframe0
 2357 0108 0000 0000 		.long	.LFB19
 2358 010c 4A00 0000 		.long	.LFE19-.LFB19
 2359               		.p2align	2
 2360               	.LEFDE30:
 2361               	.LSFDE32:
 2362 0110 0C00 0000 		.long	.LEFDE32-.LASFDE32
 2363               	.LASFDE32:
 2364 0114 0000 0000 		.long	.Lframe0
 2365 0118 0000 0000 		.long	.LFB20
 2366 011c 9200 0000 		.long	.LFE20-.LFB20
 2367               		.p2align	2
 2368               	.LEFDE32:
 2369               	.LSFDE34:
 2370 0120 0C00 0000 		.long	.LEFDE34-.LASFDE34
 2371               	.LASFDE34:
 2372 0124 0000 0000 		.long	.Lframe0
 2373 0128 0000 0000 		.long	.LFB21
 2374 012c 4A00 0000 		.long	.LFE21-.LFB21
 2375               		.p2align	2
 2376               	.LEFDE34:
 2377               	.LSFDE36:
 2378 0130 0C00 0000 		.long	.LEFDE36-.LASFDE36
 2379               	.LASFDE36:
 2380 0134 0000 0000 		.long	.Lframe0
 2381 0138 0000 0000 		.long	.LFB22
 2382 013c 9200 0000 		.long	.LFE22-.LFB22
 2383               		.p2align	2
 2384               	.LEFDE36:
 2385               	.LSFDE38:
 2386 0140 0C00 0000 		.long	.LEFDE38-.LASFDE38
 2387               	.LASFDE38:
 2388 0144 0000 0000 		.long	.Lframe0
 2389 0148 0000 0000 		.long	.LFB23
 2390 014c 4A00 0000 		.long	.LFE23-.LFB23
 2391               		.p2align	2
 2392               	.LEFDE38:
 2393               	.LSFDE40:
 2394 0150 0C00 0000 		.long	.LEFDE40-.LASFDE40
 2395               	.LASFDE40:
 2396 0154 0000 0000 		.long	.Lframe0
 2397 0158 0000 0000 		.long	.LFB24
 2398 015c 7E00 0000 		.long	.LFE24-.LFB24
 2399               		.p2align	2
 2400               	.LEFDE40:
 2401               	.LSFDE42:
 2402 0160 0C00 0000 		.long	.LEFDE42-.LASFDE42
 2403               	.LASFDE42:
 2404 0164 0000 0000 		.long	.Lframe0
GAS LISTING C:\Users\alex\AppData\Local\Temp/ccnCc1uD.s 			page 44


 2405 0168 0000 0000 		.long	.LFB25
 2406 016c 1C00 0000 		.long	.LFE25-.LFB25
 2407               		.p2align	2
 2408               	.LEFDE42:
 2409               		.text
 2410               	.Letext0:
 2411               		.section	.debug_info
 2412 0000 F306 0000 		.long	0x6f3
 2413 0004 0200      		.word	0x2
 2414 0006 0000 0000 		.long	.Ldebug_abbrev0
 2415 000a 04        		.byte	0x4
 2416 000b 01        		.uleb128 0x1
 2417 000c 0000 0000 		.long	.LASF49
 2418 0010 01        		.byte	0x1
 2419 0011 0000 0000 		.long	.LASF50
 2420 0015 0000 0000 		.long	.LASF51
 2421 0019 0000 0000 		.long	.Ltext0
 2422 001d 0000 0000 		.long	.Letext0
 2423 0021 0000 0000 		.long	.Ldebug_line0
 2424 0025 02        		.uleb128 0x2
 2425 0026 01        		.byte	0x1
 2426 0027 06        		.byte	0x6
 2427 0028 0000 0000 		.long	.LASF0
 2428 002c 03        		.uleb128 0x3
 2429 002d 0000 0000 		.long	.LASF2
 2430 0031 02        		.byte	0x2
 2431 0032 7A        		.byte	0x7a
 2432 0033 3700 0000 		.long	0x37
 2433 0037 02        		.uleb128 0x2
 2434 0038 01        		.byte	0x1
 2435 0039 08        		.byte	0x8
 2436 003a 0000 0000 		.long	.LASF1
 2437 003e 03        		.uleb128 0x3
 2438 003f 0000 0000 		.long	.LASF3
 2439 0043 02        		.byte	0x2
 2440 0044 7B        		.byte	0x7b
 2441 0045 4900 0000 		.long	0x49
 2442 0049 04        		.uleb128 0x4
 2443 004a 02        		.byte	0x2
 2444 004b 05        		.byte	0x5
 2445 004c 696E 7400 		.string	"int"
 2446 0050 02        		.uleb128 0x2
 2447 0051 02        		.byte	0x2
 2448 0052 07        		.byte	0x7
 2449 0053 0000 0000 		.long	.LASF4
 2450 0057 02        		.uleb128 0x2
 2451 0058 04        		.byte	0x4
 2452 0059 05        		.byte	0x5
 2453 005a 0000 0000 		.long	.LASF5
 2454 005e 02        		.uleb128 0x2
 2455 005f 04        		.byte	0x4
 2456 0060 07        		.byte	0x7
 2457 0061 0000 0000 		.long	.LASF6
 2458 0065 02        		.uleb128 0x2
 2459 0066 08        		.byte	0x8
 2460 0067 05        		.byte	0x5
 2461 0068 0000 0000 		.long	.LASF7
GAS LISTING C:\Users\alex\AppData\Local\Temp/ccnCc1uD.s 			page 45


 2462 006c 02        		.uleb128 0x2
 2463 006d 08        		.byte	0x8
 2464 006e 07        		.byte	0x7
 2465 006f 0000 0000 		.long	.LASF8
 2466 0073 05        		.uleb128 0x5
 2467 0074 01        		.byte	0x1
 2468 0075 08        		.byte	0x8
 2469 0076 06        		.uleb128 0x6
 2470 0077 20        		.byte	0x20
 2471 0078 03        		.byte	0x3
 2472 0079 0B        		.byte	0xb
 2473 007a 1901 0000 		.long	0x119
 2474 007e 07        		.uleb128 0x7
 2475 007f 0000 0000 		.long	.LASF9
 2476 0083 03        		.byte	0x3
 2477 0084 0C        		.byte	0xc
 2478 0085 5700 0000 		.long	0x57
 2479 0089 02        		.byte	0x2
 2480 008a 23        		.byte	0x23
 2481 008b 00        		.uleb128 0x0
 2482 008c 07        		.uleb128 0x7
 2483 008d 0000 0000 		.long	.LASF10
 2484 0091 03        		.byte	0x3
 2485 0092 0D        		.byte	0xd
 2486 0093 5700 0000 		.long	0x57
 2487 0097 02        		.byte	0x2
 2488 0098 23        		.byte	0x23
 2489 0099 04        		.uleb128 0x4
 2490 009a 07        		.uleb128 0x7
 2491 009b 0000 0000 		.long	.LASF11
 2492 009f 03        		.byte	0x3
 2493 00a0 0E        		.byte	0xe
 2494 00a1 5700 0000 		.long	0x57
 2495 00a5 02        		.byte	0x2
 2496 00a6 23        		.byte	0x23
 2497 00a7 08        		.uleb128 0x8
 2498 00a8 07        		.uleb128 0x7
 2499 00a9 0000 0000 		.long	.LASF12
 2500 00ad 03        		.byte	0x3
 2501 00ae 0F        		.byte	0xf
 2502 00af 2C00 0000 		.long	0x2c
 2503 00b3 02        		.byte	0x2
 2504 00b4 23        		.byte	0x23
 2505 00b5 0C        		.uleb128 0xc
 2506 00b6 07        		.uleb128 0x7
 2507 00b7 0000 0000 		.long	.LASF13
 2508 00bb 03        		.byte	0x3
 2509 00bc 10        		.byte	0x10
 2510 00bd 2C00 0000 		.long	0x2c
 2511 00c1 02        		.byte	0x2
 2512 00c2 23        		.byte	0x23
 2513 00c3 0D        		.uleb128 0xd
 2514 00c4 07        		.uleb128 0x7
 2515 00c5 0000 0000 		.long	.LASF14
 2516 00c9 03        		.byte	0x3
 2517 00ca 12        		.byte	0x12
 2518 00cb 5700 0000 		.long	0x57
GAS LISTING C:\Users\alex\AppData\Local\Temp/ccnCc1uD.s 			page 46


 2519 00cf 02        		.byte	0x2
 2520 00d0 23        		.byte	0x23
 2521 00d1 0E        		.uleb128 0xe
 2522 00d2 07        		.uleb128 0x7
 2523 00d3 0000 0000 		.long	.LASF15
 2524 00d7 03        		.byte	0x3
 2525 00d8 13        		.byte	0x13
 2526 00d9 5700 0000 		.long	0x57
 2527 00dd 02        		.byte	0x2
 2528 00de 23        		.byte	0x23
 2529 00df 12        		.uleb128 0x12
 2530 00e0 07        		.uleb128 0x7
 2531 00e1 0000 0000 		.long	.LASF16
 2532 00e5 03        		.byte	0x3
 2533 00e6 14        		.byte	0x14
 2534 00e7 5700 0000 		.long	0x57
 2535 00eb 02        		.byte	0x2
 2536 00ec 23        		.byte	0x23
 2537 00ed 16        		.uleb128 0x16
 2538 00ee 07        		.uleb128 0x7
 2539 00ef 0000 0000 		.long	.LASF17
 2540 00f3 03        		.byte	0x3
 2541 00f4 15        		.byte	0x15
 2542 00f5 2C00 0000 		.long	0x2c
 2543 00f9 02        		.byte	0x2
 2544 00fa 23        		.byte	0x23
 2545 00fb 1A        		.uleb128 0x1a
 2546 00fc 07        		.uleb128 0x7
 2547 00fd 0000 0000 		.long	.LASF18
 2548 0101 03        		.byte	0x3
 2549 0102 16        		.byte	0x16
 2550 0103 5700 0000 		.long	0x57
 2551 0107 02        		.byte	0x2
 2552 0108 23        		.byte	0x23
 2553 0109 1B        		.uleb128 0x1b
 2554 010a 07        		.uleb128 0x7
 2555 010b 0000 0000 		.long	.LASF19
 2556 010f 03        		.byte	0x3
 2557 0110 17        		.byte	0x17
 2558 0111 2C00 0000 		.long	0x2c
 2559 0115 02        		.byte	0x2
 2560 0116 23        		.byte	0x23
 2561 0117 1F        		.uleb128 0x1f
 2562 0118 00        		.byte	0x0
 2563 0119 03        		.uleb128 0x3
 2564 011a 0000 0000 		.long	.LASF20
 2565 011e 03        		.byte	0x3
 2566 011f 18        		.byte	0x18
 2567 0120 7600 0000 		.long	0x76
 2568 0124 08        		.uleb128 0x8
 2569 0125 01        		.byte	0x1
 2570 0126 0000 0000 		.long	.LASF25
 2571 012a 01        		.byte	0x1
 2572 012b 24        		.byte	0x24
 2573 012c 01        		.byte	0x1
 2574 012d 5700 0000 		.long	0x57
 2575 0131 0000 0000 		.long	.LFB4
GAS LISTING C:\Users\alex\AppData\Local\Temp/ccnCc1uD.s 			page 47


 2576 0135 0000 0000 		.long	.LFE4
 2577 0139 02        		.byte	0x2
 2578 013a 90        		.byte	0x90
 2579 013b 20        		.uleb128 0x20
 2580 013c 5D01 0000 		.long	0x15d
 2581 0140 09        		.uleb128 0x9
 2582 0141 0000 0000 		.long	.LASF21
 2583 0145 01        		.byte	0x1
 2584 0146 23        		.byte	0x23
 2585 0147 5700 0000 		.long	0x57
 2586 014b 02        		.byte	0x2
 2587 014c 8C        		.byte	0x8c
 2588 014d 05        		.sleb128 5
 2589 014e 0A        		.uleb128 0xa
 2590 014f 0000 0000 		.long	.LASF22
 2591 0153 01        		.byte	0x1
 2592 0154 25        		.byte	0x25
 2593 0155 5700 0000 		.long	0x57
 2594 0159 02        		.byte	0x2
 2595 015a 8C        		.byte	0x8c
 2596 015b 01        		.sleb128 1
 2597 015c 00        		.byte	0x0
 2598 015d 0B        		.uleb128 0xb
 2599 015e 01        		.byte	0x1
 2600 015f 0000 0000 		.long	.LASF52
 2601 0163 01        		.byte	0x1
 2602 0164 2E        		.byte	0x2e
 2603 0165 01        		.byte	0x1
 2604 0166 0000 0000 		.long	.LFB5
 2605 016a 0000 0000 		.long	.LFE5
 2606 016e 02        		.byte	0x2
 2607 016f 90        		.byte	0x90
 2608 0170 20        		.uleb128 0x20
 2609 0171 A001 0000 		.long	0x1a0
 2610 0175 0C        		.uleb128 0xc
 2611 0176 7661 6C00 		.string	"val"
 2612 017a 01        		.byte	0x1
 2613 017b 2C        		.byte	0x2c
 2614 017c 5700 0000 		.long	0x57
 2615 0180 02        		.byte	0x2
 2616 0181 8C        		.byte	0x8c
 2617 0182 09        		.sleb128 9
 2618 0183 0A        		.uleb128 0xa
 2619 0184 0000 0000 		.long	.LASF23
 2620 0188 01        		.byte	0x1
 2621 0189 2F        		.byte	0x2f
 2622 018a 5700 0000 		.long	0x57
 2623 018e 02        		.byte	0x2
 2624 018f 8C        		.byte	0x8c
 2625 0190 05        		.sleb128 5
 2626 0191 0A        		.uleb128 0xa
 2627 0192 0000 0000 		.long	.LASF24
 2628 0196 01        		.byte	0x1
 2629 0197 2F        		.byte	0x2f
 2630 0198 5700 0000 		.long	0x57
 2631 019c 02        		.byte	0x2
 2632 019d 8C        		.byte	0x8c
GAS LISTING C:\Users\alex\AppData\Local\Temp/ccnCc1uD.s 			page 48


 2633 019e 01        		.sleb128 1
 2634 019f 00        		.byte	0x0
 2635 01a0 08        		.uleb128 0x8
 2636 01a1 01        		.byte	0x1
 2637 01a2 0000 0000 		.long	.LASF26
 2638 01a6 01        		.byte	0x1
 2639 01a7 3A        		.byte	0x3a
 2640 01a8 01        		.byte	0x1
 2641 01a9 3E00 0000 		.long	0x3e
 2642 01ad 0000 0000 		.long	.LFB6
 2643 01b1 0000 0000 		.long	.LFE6
 2644 01b5 02        		.byte	0x2
 2645 01b6 90        		.byte	0x90
 2646 01b7 20        		.uleb128 0x20
 2647 01b8 0002 0000 		.long	0x200
 2648 01bc 0C        		.uleb128 0xc
 2649 01bd 7300      		.string	"s"
 2650 01bf 01        		.byte	0x1
 2651 01c0 38        		.byte	0x38
 2652 01c1 0002 0000 		.long	0x200
 2653 01c5 02        		.byte	0x2
 2654 01c6 8C        		.byte	0x8c
 2655 01c7 09        		.sleb128 9
 2656 01c8 0C        		.uleb128 0xc
 2657 01c9 6572 7200 		.string	"err"
 2658 01cd 01        		.byte	0x1
 2659 01ce 38        		.byte	0x38
 2660 01cf 0D02 0000 		.long	0x20d
 2661 01d3 02        		.byte	0x2
 2662 01d4 8C        		.byte	0x8c
 2663 01d5 0B        		.sleb128 11
 2664 01d6 0A        		.uleb128 0xa
 2665 01d7 0000 0000 		.long	.LASF21
 2666 01db 01        		.byte	0x1
 2667 01dc 3B        		.byte	0x3b
 2668 01dd 5700 0000 		.long	0x57
 2669 01e1 02        		.byte	0x2
 2670 01e2 8C        		.byte	0x8c
 2671 01e3 03        		.sleb128 3
 2672 01e4 0A        		.uleb128 0xa
 2673 01e5 0000 0000 		.long	.LASF22
 2674 01e9 01        		.byte	0x1
 2675 01ea 3C        		.byte	0x3c
 2676 01eb 3E00 0000 		.long	0x3e
 2677 01ef 02        		.byte	0x2
 2678 01f0 8C        		.byte	0x8c
 2679 01f1 01        		.sleb128 1
 2680 01f2 0D        		.uleb128 0xd
 2681 01f3 7332 00   		.string	"s2"
 2682 01f6 01        		.byte	0x1
 2683 01f7 3D        		.byte	0x3d
 2684 01f8 0002 0000 		.long	0x200
 2685 01fc 02        		.byte	0x2
 2686 01fd 8C        		.byte	0x8c
 2687 01fe 07        		.sleb128 7
 2688 01ff 00        		.byte	0x0
 2689 0200 0E        		.uleb128 0xe
GAS LISTING C:\Users\alex\AppData\Local\Temp/ccnCc1uD.s 			page 49


 2690 0201 02        		.byte	0x2
 2691 0202 0602 0000 		.long	0x206
 2692 0206 02        		.uleb128 0x2
 2693 0207 01        		.byte	0x1
 2694 0208 08        		.byte	0x8
 2695 0209 0000 0000 		.long	.LASF27
 2696 020d 0E        		.uleb128 0xe
 2697 020e 02        		.byte	0x2
 2698 020f 4900 0000 		.long	0x49
 2699 0213 08        		.uleb128 0x8
 2700 0214 01        		.byte	0x1
 2701 0215 0000 0000 		.long	.LASF28
 2702 0219 01        		.byte	0x1
 2703 021a 5D        		.byte	0x5d
 2704 021b 01        		.byte	0x1
 2705 021c 4900 0000 		.long	0x49
 2706 0220 0000 0000 		.long	.LFB7
 2707 0224 0000 0000 		.long	.LFE7
 2708 0228 02        		.byte	0x2
 2709 0229 90        		.byte	0x90
 2710 022a 20        		.uleb128 0x20
 2711 022b 6502 0000 		.long	0x265
 2712 022f 0C        		.uleb128 0xc
 2713 0230 7300      		.string	"s"
 2714 0232 01        		.byte	0x1
 2715 0233 5B        		.byte	0x5b
 2716 0234 0002 0000 		.long	0x200
 2717 0238 02        		.byte	0x2
 2718 0239 8C        		.byte	0x8c
 2719 023a 06        		.sleb128 6
 2720 023b 0D        		.uleb128 0xd
 2721 023c 7661 6C00 		.string	"val"
 2722 0240 01        		.byte	0x1
 2723 0241 5E        		.byte	0x5e
 2724 0242 2C00 0000 		.long	0x2c
 2725 0246 02        		.byte	0x2
 2726 0247 8C        		.byte	0x8c
 2727 0248 01        		.sleb128 1
 2728 0249 0D        		.uleb128 0xd
 2729 024a 6572 7200 		.string	"err"
 2730 024e 01        		.byte	0x1
 2731 024f 5F        		.byte	0x5f
 2732 0250 4900 0000 		.long	0x49
 2733 0254 02        		.byte	0x2
 2734 0255 8C        		.byte	0x8c
 2735 0256 02        		.sleb128 2
 2736 0257 0D        		.uleb128 0xd
 2737 0258 7332 00   		.string	"s2"
 2738 025b 01        		.byte	0x1
 2739 025c 60        		.byte	0x60
 2740 025d 0002 0000 		.long	0x200
 2741 0261 02        		.byte	0x2
 2742 0262 8C        		.byte	0x8c
 2743 0263 04        		.sleb128 4
 2744 0264 00        		.byte	0x0
 2745 0265 08        		.uleb128 0x8
 2746 0266 01        		.byte	0x1
GAS LISTING C:\Users\alex\AppData\Local\Temp/ccnCc1uD.s 			page 50


 2747 0267 0000 0000 		.long	.LASF29
 2748 026b 01        		.byte	0x1
 2749 026c 71        		.byte	0x71
 2750 026d 01        		.byte	0x1
 2751 026e 4900 0000 		.long	0x49
 2752 0272 0000 0000 		.long	.LFB8
 2753 0276 0000 0000 		.long	.LFE8
 2754 027a 02        		.byte	0x2
 2755 027b 90        		.byte	0x90
 2756 027c 20        		.uleb128 0x20
 2757 027d 8E02 0000 		.long	0x28e
 2758 0281 0C        		.uleb128 0xc
 2759 0282 7300      		.string	"s"
 2760 0284 01        		.byte	0x1
 2761 0285 70        		.byte	0x70
 2762 0286 0002 0000 		.long	0x200
 2763 028a 02        		.byte	0x2
 2764 028b 8C        		.byte	0x8c
 2765 028c 01        		.sleb128 1
 2766 028d 00        		.byte	0x0
 2767 028e 08        		.uleb128 0x8
 2768 028f 01        		.byte	0x1
 2769 0290 0000 0000 		.long	.LASF30
 2770 0294 01        		.byte	0x1
 2771 0295 7A        		.byte	0x7a
 2772 0296 01        		.byte	0x1
 2773 0297 4900 0000 		.long	0x49
 2774 029b 0000 0000 		.long	.LFB9
 2775 029f 0000 0000 		.long	.LFE9
 2776 02a3 02        		.byte	0x2
 2777 02a4 90        		.byte	0x90
 2778 02a5 20        		.uleb128 0x20
 2779 02a6 D302 0000 		.long	0x2d3
 2780 02aa 0C        		.uleb128 0xc
 2781 02ab 7300      		.string	"s"
 2782 02ad 01        		.byte	0x1
 2783 02ae 79        		.byte	0x79
 2784 02af 0002 0000 		.long	0x200
 2785 02b3 02        		.byte	0x2
 2786 02b4 8C        		.byte	0x8c
 2787 02b5 07        		.sleb128 7
 2788 02b6 0D        		.uleb128 0xd
 2789 02b7 6572 7200 		.string	"err"
 2790 02bb 01        		.byte	0x1
 2791 02bc 7B        		.byte	0x7b
 2792 02bd 4900 0000 		.long	0x49
 2793 02c1 02        		.byte	0x2
 2794 02c2 8C        		.byte	0x8c
 2795 02c3 05        		.sleb128 5
 2796 02c4 0A        		.uleb128 0xa
 2797 02c5 0000 0000 		.long	.LASF22
 2798 02c9 01        		.byte	0x1
 2799 02ca 7C        		.byte	0x7c
 2800 02cb 5700 0000 		.long	0x57
 2801 02cf 02        		.byte	0x2
 2802 02d0 8C        		.byte	0x8c
 2803 02d1 01        		.sleb128 1
GAS LISTING C:\Users\alex\AppData\Local\Temp/ccnCc1uD.s 			page 51


 2804 02d2 00        		.byte	0x0
 2805 02d3 08        		.uleb128 0x8
 2806 02d4 01        		.byte	0x1
 2807 02d5 0000 0000 		.long	.LASF31
 2808 02d9 01        		.byte	0x1
 2809 02da 8A        		.byte	0x8a
 2810 02db 01        		.byte	0x1
 2811 02dc 4900 0000 		.long	0x49
 2812 02e0 0000 0000 		.long	.LFB10
 2813 02e4 0000 0000 		.long	.LFE10
 2814 02e8 02        		.byte	0x2
 2815 02e9 90        		.byte	0x90
 2816 02ea 20        		.uleb128 0x20
 2817 02eb 1803 0000 		.long	0x318
 2818 02ef 0C        		.uleb128 0xc
 2819 02f0 7300      		.string	"s"
 2820 02f2 01        		.byte	0x1
 2821 02f3 89        		.byte	0x89
 2822 02f4 0002 0000 		.long	0x200
 2823 02f8 02        		.byte	0x2
 2824 02f9 8C        		.byte	0x8c
 2825 02fa 07        		.sleb128 7
 2826 02fb 0D        		.uleb128 0xd
 2827 02fc 6572 7200 		.string	"err"
 2828 0300 01        		.byte	0x1
 2829 0301 8B        		.byte	0x8b
 2830 0302 4900 0000 		.long	0x49
 2831 0306 02        		.byte	0x2
 2832 0307 8C        		.byte	0x8c
 2833 0308 05        		.sleb128 5
 2834 0309 0A        		.uleb128 0xa
 2835 030a 0000 0000 		.long	.LASF22
 2836 030e 01        		.byte	0x1
 2837 030f 8C        		.byte	0x8c
 2838 0310 5700 0000 		.long	0x57
 2839 0314 02        		.byte	0x2
 2840 0315 8C        		.byte	0x8c
 2841 0316 01        		.sleb128 1
 2842 0317 00        		.byte	0x0
 2843 0318 08        		.uleb128 0x8
 2844 0319 01        		.byte	0x1
 2845 031a 0000 0000 		.long	.LASF32
 2846 031e 01        		.byte	0x1
 2847 031f 9D        		.byte	0x9d
 2848 0320 01        		.byte	0x1
 2849 0321 4900 0000 		.long	0x49
 2850 0325 0000 0000 		.long	.LFB11
 2851 0329 0000 0000 		.long	.LFE11
 2852 032d 02        		.byte	0x2
 2853 032e 90        		.byte	0x90
 2854 032f 20        		.uleb128 0x20
 2855 0330 7803 0000 		.long	0x378
 2856 0334 0C        		.uleb128 0xc
 2857 0335 7300      		.string	"s"
 2858 0337 01        		.byte	0x1
 2859 0338 9C        		.byte	0x9c
 2860 0339 0002 0000 		.long	0x200
GAS LISTING C:\Users\alex\AppData\Local\Temp/ccnCc1uD.s 			page 52


 2861 033d 02        		.byte	0x2
 2862 033e 8C        		.byte	0x8c
 2863 033f 0B        		.sleb128 11
 2864 0340 0A        		.uleb128 0xa
 2865 0341 0000 0000 		.long	.LASF21
 2866 0345 01        		.byte	0x1
 2867 0346 9E        		.byte	0x9e
 2868 0347 5700 0000 		.long	0x57
 2869 034b 02        		.byte	0x2
 2870 034c 8C        		.byte	0x8c
 2871 034d 03        		.sleb128 3
 2872 034e 0A        		.uleb128 0xa
 2873 034f 0000 0000 		.long	.LASF22
 2874 0353 01        		.byte	0x1
 2875 0354 9F        		.byte	0x9f
 2876 0355 3E00 0000 		.long	0x3e
 2877 0359 02        		.byte	0x2
 2878 035a 8C        		.byte	0x8c
 2879 035b 01        		.sleb128 1
 2880 035c 0D        		.uleb128 0xd
 2881 035d 6572 7200 		.string	"err"
 2882 0361 01        		.byte	0x1
 2883 0362 A0        		.byte	0xa0
 2884 0363 4900 0000 		.long	0x49
 2885 0367 02        		.byte	0x2
 2886 0368 8C        		.byte	0x8c
 2887 0369 07        		.sleb128 7
 2888 036a 0D        		.uleb128 0xd
 2889 036b 7332 00   		.string	"s2"
 2890 036e 01        		.byte	0x1
 2891 036f A1        		.byte	0xa1
 2892 0370 0002 0000 		.long	0x200
 2893 0374 02        		.byte	0x2
 2894 0375 8C        		.byte	0x8c
 2895 0376 09        		.sleb128 9
 2896 0377 00        		.byte	0x0
 2897 0378 08        		.uleb128 0x8
 2898 0379 01        		.byte	0x1
 2899 037a 0000 0000 		.long	.LASF33
 2900 037e 01        		.byte	0x1
 2901 037f C0        		.byte	0xc0
 2902 0380 01        		.byte	0x1
 2903 0381 4900 0000 		.long	0x49
 2904 0385 0000 0000 		.long	.LFB12
 2905 0389 0000 0000 		.long	.LFE12
 2906 038d 02        		.byte	0x2
 2907 038e 90        		.byte	0x90
 2908 038f 20        		.uleb128 0x20
 2909 0390 CA03 0000 		.long	0x3ca
 2910 0394 0C        		.uleb128 0xc
 2911 0395 7300      		.string	"s"
 2912 0397 01        		.byte	0x1
 2913 0398 BF        		.byte	0xbf
 2914 0399 0002 0000 		.long	0x200
 2915 039d 02        		.byte	0x2
 2916 039e 8C        		.byte	0x8c
 2917 039f 06        		.sleb128 6
GAS LISTING C:\Users\alex\AppData\Local\Temp/ccnCc1uD.s 			page 53


 2918 03a0 0D        		.uleb128 0xd
 2919 03a1 7661 6C00 		.string	"val"
 2920 03a5 01        		.byte	0x1
 2921 03a6 C1        		.byte	0xc1
 2922 03a7 2C00 0000 		.long	0x2c
 2923 03ab 02        		.byte	0x2
 2924 03ac 8C        		.byte	0x8c
 2925 03ad 01        		.sleb128 1
 2926 03ae 0D        		.uleb128 0xd
 2927 03af 6572 7200 		.string	"err"
 2928 03b3 01        		.byte	0x1
 2929 03b4 C2        		.byte	0xc2
 2930 03b5 4900 0000 		.long	0x49
 2931 03b9 02        		.byte	0x2
 2932 03ba 8C        		.byte	0x8c
 2933 03bb 02        		.sleb128 2
 2934 03bc 0D        		.uleb128 0xd
 2935 03bd 7332 00   		.string	"s2"
 2936 03c0 01        		.byte	0x1
 2937 03c1 C3        		.byte	0xc3
 2938 03c2 0002 0000 		.long	0x200
 2939 03c6 02        		.byte	0x2
 2940 03c7 8C        		.byte	0x8c
 2941 03c8 04        		.sleb128 4
 2942 03c9 00        		.byte	0x0
 2943 03ca 08        		.uleb128 0x8
 2944 03cb 01        		.byte	0x1
 2945 03cc 0000 0000 		.long	.LASF34
 2946 03d0 01        		.byte	0x1
 2947 03d1 DB        		.byte	0xdb
 2948 03d2 01        		.byte	0x1
 2949 03d3 4900 0000 		.long	0x49
 2950 03d7 0000 0000 		.long	.LFB13
 2951 03db 0000 0000 		.long	.LFE13
 2952 03df 02        		.byte	0x2
 2953 03e0 90        		.byte	0x90
 2954 03e1 20        		.uleb128 0x20
 2955 03e2 0104 0000 		.long	0x401
 2956 03e6 0C        		.uleb128 0xc
 2957 03e7 7300      		.string	"s"
 2958 03e9 01        		.byte	0x1
 2959 03ea DA        		.byte	0xda
 2960 03eb 0002 0000 		.long	0x200
 2961 03ef 02        		.byte	0x2
 2962 03f0 8C        		.byte	0x8c
 2963 03f1 05        		.sleb128 5
 2964 03f2 0A        		.uleb128 0xa
 2965 03f3 0000 0000 		.long	.LASF35
 2966 03f7 01        		.byte	0x1
 2967 03f8 DC        		.byte	0xdc
 2968 03f9 5700 0000 		.long	0x57
 2969 03fd 02        		.byte	0x2
 2970 03fe 8C        		.byte	0x8c
 2971 03ff 01        		.sleb128 1
 2972 0400 00        		.byte	0x0
 2973 0401 08        		.uleb128 0x8
 2974 0402 01        		.byte	0x1
GAS LISTING C:\Users\alex\AppData\Local\Temp/ccnCc1uD.s 			page 54


 2975 0403 0000 0000 		.long	.LASF36
 2976 0407 01        		.byte	0x1
 2977 0408 E5        		.byte	0xe5
 2978 0409 01        		.byte	0x1
 2979 040a 4900 0000 		.long	0x49
 2980 040e 0000 0000 		.long	.LFB14
 2981 0412 0000 0000 		.long	.LFE14
 2982 0416 02        		.byte	0x2
 2983 0417 90        		.byte	0x90
 2984 0418 20        		.uleb128 0x20
 2985 0419 6204 0000 		.long	0x462
 2986 041d 0C        		.uleb128 0xc
 2987 041e 7300      		.string	"s"
 2988 0420 01        		.byte	0x1
 2989 0421 E4        		.byte	0xe4
 2990 0422 0002 0000 		.long	0x200
 2991 0426 02        		.byte	0x2
 2992 0427 8C        		.byte	0x8c
 2993 0428 0B        		.sleb128 11
 2994 0429 0D        		.uleb128 0xd
 2995 042a 7661 6C00 		.string	"val"
 2996 042e 01        		.byte	0x1
 2997 042f E6        		.byte	0xe6
 2998 0430 5700 0000 		.long	0x57
 2999 0434 02        		.byte	0x2
 3000 0435 8C        		.byte	0x8c
 3001 0436 07        		.sleb128 7
 3002 0437 0A        		.uleb128 0xa
 3003 0438 0000 0000 		.long	.LASF35
 3004 043c 01        		.byte	0x1
 3005 043d E7        		.byte	0xe7
 3006 043e 5000 0000 		.long	0x50
 3007 0442 02        		.byte	0x2
 3008 0443 8C        		.byte	0x8c
 3009 0444 05        		.sleb128 5
 3010 0445 0A        		.uleb128 0xa
 3011 0446 0000 0000 		.long	.LASF23
 3012 044a 01        		.byte	0x1
 3013 044b E7        		.byte	0xe7
 3014 044c 5000 0000 		.long	0x50
 3015 0450 02        		.byte	0x2
 3016 0451 8C        		.byte	0x8c
 3017 0452 03        		.sleb128 3
 3018 0453 0A        		.uleb128 0xa
 3019 0454 0000 0000 		.long	.LASF24
 3020 0458 01        		.byte	0x1
 3021 0459 E7        		.byte	0xe7
 3022 045a 5000 0000 		.long	0x50
 3023 045e 02        		.byte	0x2
 3024 045f 8C        		.byte	0x8c
 3025 0460 01        		.sleb128 1
 3026 0461 00        		.byte	0x0
 3027 0462 08        		.uleb128 0x8
 3028 0463 01        		.byte	0x1
 3029 0464 0000 0000 		.long	.LASF37
 3030 0468 01        		.byte	0x1
 3031 0469 F4        		.byte	0xf4
GAS LISTING C:\Users\alex\AppData\Local\Temp/ccnCc1uD.s 			page 55


 3032 046a 01        		.byte	0x1
 3033 046b 4900 0000 		.long	0x49
 3034 046f 0000 0000 		.long	.LFB15
 3035 0473 0000 0000 		.long	.LFE15
 3036 0477 02        		.byte	0x2
 3037 0478 90        		.byte	0x90
 3038 0479 20        		.uleb128 0x20
 3039 047a 8B04 0000 		.long	0x48b
 3040 047e 0C        		.uleb128 0xc
 3041 047f 7300      		.string	"s"
 3042 0481 01        		.byte	0x1
 3043 0482 F3        		.byte	0xf3
 3044 0483 0002 0000 		.long	0x200
 3045 0487 02        		.byte	0x2
 3046 0488 8C        		.byte	0x8c
 3047 0489 01        		.sleb128 1
 3048 048a 00        		.byte	0x0
 3049 048b 08        		.uleb128 0x8
 3050 048c 01        		.byte	0x1
 3051 048d 0000 0000 		.long	.LASF38
 3052 0491 01        		.byte	0x1
 3053 0492 FA        		.byte	0xfa
 3054 0493 01        		.byte	0x1
 3055 0494 4900 0000 		.long	0x49
 3056 0498 0000 0000 		.long	.LFB16
 3057 049c 0000 0000 		.long	.LFE16
 3058 04a0 02        		.byte	0x2
 3059 04a1 90        		.byte	0x90
 3060 04a2 20        		.uleb128 0x20
 3061 04a3 B404 0000 		.long	0x4b4
 3062 04a7 0C        		.uleb128 0xc
 3063 04a8 7300      		.string	"s"
 3064 04aa 01        		.byte	0x1
 3065 04ab F9        		.byte	0xf9
 3066 04ac 0002 0000 		.long	0x200
 3067 04b0 02        		.byte	0x2
 3068 04b1 8C        		.byte	0x8c
 3069 04b2 01        		.sleb128 1
 3070 04b3 00        		.byte	0x0
 3071 04b4 0F        		.uleb128 0xf
 3072 04b5 01        		.byte	0x1
 3073 04b6 0000 0000 		.long	.LASF53
 3074 04ba 01        		.byte	0x1
 3075 04bb 0401      		.word	0x104
 3076 04bd 01        		.byte	0x1
 3077 04be 4900 0000 		.long	0x49
 3078 04c2 0000 0000 		.long	.LFB17
 3079 04c6 0000 0000 		.long	.LFE17
 3080 04ca 02        		.byte	0x2
 3081 04cb 90        		.byte	0x90
 3082 04cc 20        		.uleb128 0x20
 3083 04cd 10        		.uleb128 0x10
 3084 04ce 01        		.byte	0x1
 3085 04cf 0000 0000 		.long	.LASF39
 3086 04d3 01        		.byte	0x1
 3087 04d4 0F01      		.word	0x10f
 3088 04d6 01        		.byte	0x1
GAS LISTING C:\Users\alex\AppData\Local\Temp/ccnCc1uD.s 			page 56


 3089 04d7 4900 0000 		.long	0x49
 3090 04db 0000 0000 		.long	.LFB18
 3091 04df 0000 0000 		.long	.LFE18
 3092 04e3 02        		.byte	0x2
 3093 04e4 90        		.byte	0x90
 3094 04e5 20        		.uleb128 0x20
 3095 04e6 1605 0000 		.long	0x516
 3096 04ea 11        		.uleb128 0x11
 3097 04eb 7300      		.string	"s"
 3098 04ed 01        		.byte	0x1
 3099 04ee 0E01      		.word	0x10e
 3100 04f0 0002 0000 		.long	0x200
 3101 04f4 02        		.byte	0x2
 3102 04f5 8C        		.byte	0x8c
 3103 04f6 07        		.sleb128 7
 3104 04f7 12        		.uleb128 0x12
 3105 04f8 6572 7200 		.string	"err"
 3106 04fc 01        		.byte	0x1
 3107 04fd 1001      		.word	0x110
 3108 04ff 4900 0000 		.long	0x49
 3109 0503 02        		.byte	0x2
 3110 0504 8C        		.byte	0x8c
 3111 0505 05        		.sleb128 5
 3112 0506 13        		.uleb128 0x13
 3113 0507 0000 0000 		.long	.LASF22
 3114 050b 01        		.byte	0x1
 3115 050c 1101      		.word	0x111
 3116 050e 5700 0000 		.long	0x57
 3117 0512 02        		.byte	0x2
 3118 0513 8C        		.byte	0x8c
 3119 0514 01        		.sleb128 1
 3120 0515 00        		.byte	0x0
 3121 0516 10        		.uleb128 0x10
 3122 0517 01        		.byte	0x1
 3123 0518 0000 0000 		.long	.LASF40
 3124 051c 01        		.byte	0x1
 3125 051d 1C01      		.word	0x11c
 3126 051f 01        		.byte	0x1
 3127 0520 4900 0000 		.long	0x49
 3128 0524 0000 0000 		.long	.LFB19
 3129 0528 0000 0000 		.long	.LFE19
 3130 052c 02        		.byte	0x2
 3131 052d 90        		.byte	0x90
 3132 052e 20        		.uleb128 0x20
 3133 052f 4105 0000 		.long	0x541
 3134 0533 11        		.uleb128 0x11
 3135 0534 7300      		.string	"s"
 3136 0536 01        		.byte	0x1
 3137 0537 1B01      		.word	0x11b
 3138 0539 0002 0000 		.long	0x200
 3139 053d 02        		.byte	0x2
 3140 053e 8C        		.byte	0x8c
 3141 053f 01        		.sleb128 1
 3142 0540 00        		.byte	0x0
 3143 0541 10        		.uleb128 0x10
 3144 0542 01        		.byte	0x1
 3145 0543 0000 0000 		.long	.LASF41
GAS LISTING C:\Users\alex\AppData\Local\Temp/ccnCc1uD.s 			page 57


 3146 0547 01        		.byte	0x1
 3147 0548 2401      		.word	0x124
 3148 054a 01        		.byte	0x1
 3149 054b 4900 0000 		.long	0x49
 3150 054f 0000 0000 		.long	.LFB20
 3151 0553 0000 0000 		.long	.LFE20
 3152 0557 02        		.byte	0x2
 3153 0558 90        		.byte	0x90
 3154 0559 20        		.uleb128 0x20
 3155 055a 8A05 0000 		.long	0x58a
 3156 055e 11        		.uleb128 0x11
 3157 055f 7300      		.string	"s"
 3158 0561 01        		.byte	0x1
 3159 0562 2301      		.word	0x123
 3160 0564 0002 0000 		.long	0x200
 3161 0568 02        		.byte	0x2
 3162 0569 8C        		.byte	0x8c
 3163 056a 07        		.sleb128 7
 3164 056b 12        		.uleb128 0x12
 3165 056c 6572 7200 		.string	"err"
 3166 0570 01        		.byte	0x1
 3167 0571 2501      		.word	0x125
 3168 0573 4900 0000 		.long	0x49
 3169 0577 02        		.byte	0x2
 3170 0578 8C        		.byte	0x8c
 3171 0579 05        		.sleb128 5
 3172 057a 13        		.uleb128 0x13
 3173 057b 0000 0000 		.long	.LASF22
 3174 057f 01        		.byte	0x1
 3175 0580 2601      		.word	0x126
 3176 0582 5700 0000 		.long	0x57
 3177 0586 02        		.byte	0x2
 3178 0587 8C        		.byte	0x8c
 3179 0588 01        		.sleb128 1
 3180 0589 00        		.byte	0x0
 3181 058a 10        		.uleb128 0x10
 3182 058b 01        		.byte	0x1
 3183 058c 0000 0000 		.long	.LASF42
 3184 0590 01        		.byte	0x1
 3185 0591 3101      		.word	0x131
 3186 0593 01        		.byte	0x1
 3187 0594 4900 0000 		.long	0x49
 3188 0598 0000 0000 		.long	.LFB21
 3189 059c 0000 0000 		.long	.LFE21
 3190 05a0 02        		.byte	0x2
 3191 05a1 90        		.byte	0x90
 3192 05a2 20        		.uleb128 0x20
 3193 05a3 B505 0000 		.long	0x5b5
 3194 05a7 11        		.uleb128 0x11
 3195 05a8 7300      		.string	"s"
 3196 05aa 01        		.byte	0x1
 3197 05ab 3001      		.word	0x130
 3198 05ad 0002 0000 		.long	0x200
 3199 05b1 02        		.byte	0x2
 3200 05b2 8C        		.byte	0x8c
 3201 05b3 01        		.sleb128 1
 3202 05b4 00        		.byte	0x0
GAS LISTING C:\Users\alex\AppData\Local\Temp/ccnCc1uD.s 			page 58


 3203 05b5 10        		.uleb128 0x10
 3204 05b6 01        		.byte	0x1
 3205 05b7 0000 0000 		.long	.LASF43
 3206 05bb 01        		.byte	0x1
 3207 05bc 3801      		.word	0x138
 3208 05be 01        		.byte	0x1
 3209 05bf 4900 0000 		.long	0x49
 3210 05c3 0000 0000 		.long	.LFB22
 3211 05c7 0000 0000 		.long	.LFE22
 3212 05cb 02        		.byte	0x2
 3213 05cc 90        		.byte	0x90
 3214 05cd 20        		.uleb128 0x20
 3215 05ce FE05 0000 		.long	0x5fe
 3216 05d2 11        		.uleb128 0x11
 3217 05d3 7300      		.string	"s"
 3218 05d5 01        		.byte	0x1
 3219 05d6 3701      		.word	0x137
 3220 05d8 0002 0000 		.long	0x200
 3221 05dc 02        		.byte	0x2
 3222 05dd 8C        		.byte	0x8c
 3223 05de 07        		.sleb128 7
 3224 05df 12        		.uleb128 0x12
 3225 05e0 6572 7200 		.string	"err"
 3226 05e4 01        		.byte	0x1
 3227 05e5 3901      		.word	0x139
 3228 05e7 4900 0000 		.long	0x49
 3229 05eb 02        		.byte	0x2
 3230 05ec 8C        		.byte	0x8c
 3231 05ed 05        		.sleb128 5
 3232 05ee 13        		.uleb128 0x13
 3233 05ef 0000 0000 		.long	.LASF22
 3234 05f3 01        		.byte	0x1
 3235 05f4 3A01      		.word	0x13a
 3236 05f6 5700 0000 		.long	0x57
 3237 05fa 02        		.byte	0x2
 3238 05fb 8C        		.byte	0x8c
 3239 05fc 01        		.sleb128 1
 3240 05fd 00        		.byte	0x0
 3241 05fe 10        		.uleb128 0x10
 3242 05ff 01        		.byte	0x1
 3243 0600 0000 0000 		.long	.LASF44
 3244 0604 01        		.byte	0x1
 3245 0605 4401      		.word	0x144
 3246 0607 01        		.byte	0x1
 3247 0608 4900 0000 		.long	0x49
 3248 060c 0000 0000 		.long	.LFB23
 3249 0610 0000 0000 		.long	.LFE23
 3250 0614 02        		.byte	0x2
 3251 0615 90        		.byte	0x90
 3252 0616 20        		.uleb128 0x20
 3253 0617 2906 0000 		.long	0x629
 3254 061b 11        		.uleb128 0x11
 3255 061c 7300      		.string	"s"
 3256 061e 01        		.byte	0x1
 3257 061f 4301      		.word	0x143
 3258 0621 0002 0000 		.long	0x200
 3259 0625 02        		.byte	0x2
GAS LISTING C:\Users\alex\AppData\Local\Temp/ccnCc1uD.s 			page 59


 3260 0626 8C        		.byte	0x8c
 3261 0627 01        		.sleb128 1
 3262 0628 00        		.byte	0x0
 3263 0629 10        		.uleb128 0x10
 3264 062a 01        		.byte	0x1
 3265 062b 0000 0000 		.long	.LASF45
 3266 062f 01        		.byte	0x1
 3267 0630 4C01      		.word	0x14c
 3268 0632 01        		.byte	0x1
 3269 0633 4900 0000 		.long	0x49
 3270 0637 0000 0000 		.long	.LFB24
 3271 063b 0000 0000 		.long	.LFE24
 3272 063f 02        		.byte	0x2
 3273 0640 90        		.byte	0x90
 3274 0641 20        		.uleb128 0x20
 3275 0642 7206 0000 		.long	0x672
 3276 0646 11        		.uleb128 0x11
 3277 0647 7300      		.string	"s"
 3278 0649 01        		.byte	0x1
 3279 064a 4B01      		.word	0x14b
 3280 064c 0002 0000 		.long	0x200
 3281 0650 02        		.byte	0x2
 3282 0651 8C        		.byte	0x8c
 3283 0652 07        		.sleb128 7
 3284 0653 12        		.uleb128 0x12
 3285 0654 7661 6C00 		.string	"val"
 3286 0658 01        		.byte	0x1
 3287 0659 4D01      		.word	0x14d
 3288 065b 5700 0000 		.long	0x57
 3289 065f 02        		.byte	0x2
 3290 0660 8C        		.byte	0x8c
 3291 0661 03        		.sleb128 3
 3292 0662 12        		.uleb128 0x12
 3293 0663 6572 7200 		.string	"err"
 3294 0667 01        		.byte	0x1
 3295 0668 4E01      		.word	0x14e
 3296 066a 4900 0000 		.long	0x49
 3297 066e 02        		.byte	0x2
 3298 066f 8C        		.byte	0x8c
 3299 0670 01        		.sleb128 1
 3300 0671 00        		.byte	0x0
 3301 0672 10        		.uleb128 0x10
 3302 0673 01        		.byte	0x1
 3303 0674 0000 0000 		.long	.LASF46
 3304 0678 01        		.byte	0x1
 3305 0679 5C01      		.word	0x15c
 3306 067b 01        		.byte	0x1
 3307 067c 4900 0000 		.long	0x49
 3308 0680 0000 0000 		.long	.LFB25
 3309 0684 0000 0000 		.long	.LFE25
 3310 0688 02        		.byte	0x2
 3311 0689 90        		.byte	0x90
 3312 068a 20        		.uleb128 0x20
 3313 068b 9D06 0000 		.long	0x69d
 3314 068f 11        		.uleb128 0x11
 3315 0690 7300      		.string	"s"
 3316 0692 01        		.byte	0x1
GAS LISTING C:\Users\alex\AppData\Local\Temp/ccnCc1uD.s 			page 60


 3317 0693 5B01      		.word	0x15b
 3318 0695 0002 0000 		.long	0x200
 3319 0699 02        		.byte	0x2
 3320 069a 8C        		.byte	0x8c
 3321 069b 01        		.sleb128 1
 3322 069c 00        		.byte	0x0
 3323 069d 14        		.uleb128 0x14
 3324 069e 0602 0000 		.long	0x206
 3325 06a2 AD06 0000 		.long	0x6ad
 3326 06a6 15        		.uleb128 0x15
 3327 06a7 AD06 0000 		.long	0x6ad
 3328 06ab 4F        		.byte	0x4f
 3329 06ac 00        		.byte	0x0
 3330 06ad 05        		.uleb128 0x5
 3331 06ae 02        		.byte	0x2
 3332 06af 07        		.byte	0x7
 3333 06b0 16        		.uleb128 0x16
 3334 06b1 0000 0000 		.long	.LASF47
 3335 06b5 01        		.byte	0x1
 3336 06b6 17        		.byte	0x17
 3337 06b7 9D06 0000 		.long	0x69d
 3338 06bb 01        		.byte	0x1
 3339 06bc 05        		.byte	0x5
 3340 06bd 03        		.byte	0x3
 3341 06be 0000 0000 		.long	return_buf
 3342 06c2 17        		.uleb128 0x17
 3343 06c3 6465 7600 		.string	"dev"
 3344 06c7 01        		.byte	0x1
 3345 06c8 19        		.byte	0x19
 3346 06c9 2C00 0000 		.long	0x2c
 3347 06cd 01        		.byte	0x1
 3348 06ce 05        		.byte	0x5
 3349 06cf 03        		.byte	0x3
 3350 06d0 0000 0000 		.long	dev
 3351 06d4 14        		.uleb128 0x14
 3352 06d5 1901 0000 		.long	0x119
 3353 06d9 E406 0000 		.long	0x6e4
 3354 06dd 15        		.uleb128 0x15
 3355 06de AD06 0000 		.long	0x6ad
 3356 06e2 03        		.byte	0x3
 3357 06e3 00        		.byte	0x0
 3358 06e4 16        		.uleb128 0x16
 3359 06e5 0000 0000 		.long	.LASF48
 3360 06e9 01        		.byte	0x1
 3361 06ea 1A        		.byte	0x1a
 3362 06eb D406 0000 		.long	0x6d4
 3363 06ef 01        		.byte	0x1
 3364 06f0 05        		.byte	0x5
 3365 06f1 03        		.byte	0x3
 3366 06f2 0000 0000 		.long	powersupply
 3367 06f6 00        		.byte	0x0
 3368               		.section	.debug_abbrev
 3369 0000 01        		.uleb128 0x1
 3370 0001 11        		.uleb128 0x11
 3371 0002 01        		.byte	0x1
 3372 0003 25        		.uleb128 0x25
 3373 0004 0E        		.uleb128 0xe
GAS LISTING C:\Users\alex\AppData\Local\Temp/ccnCc1uD.s 			page 61


 3374 0005 13        		.uleb128 0x13
 3375 0006 0B        		.uleb128 0xb
 3376 0007 03        		.uleb128 0x3
 3377 0008 0E        		.uleb128 0xe
 3378 0009 1B        		.uleb128 0x1b
 3379 000a 0E        		.uleb128 0xe
 3380 000b 11        		.uleb128 0x11
 3381 000c 01        		.uleb128 0x1
 3382 000d 12        		.uleb128 0x12
 3383 000e 01        		.uleb128 0x1
 3384 000f 10        		.uleb128 0x10
 3385 0010 06        		.uleb128 0x6
 3386 0011 00        		.byte	0x0
 3387 0012 00        		.byte	0x0
 3388 0013 02        		.uleb128 0x2
 3389 0014 24        		.uleb128 0x24
 3390 0015 00        		.byte	0x0
 3391 0016 0B        		.uleb128 0xb
 3392 0017 0B        		.uleb128 0xb
 3393 0018 3E        		.uleb128 0x3e
 3394 0019 0B        		.uleb128 0xb
 3395 001a 03        		.uleb128 0x3
 3396 001b 0E        		.uleb128 0xe
 3397 001c 00        		.byte	0x0
 3398 001d 00        		.byte	0x0
 3399 001e 03        		.uleb128 0x3
 3400 001f 16        		.uleb128 0x16
 3401 0020 00        		.byte	0x0
 3402 0021 03        		.uleb128 0x3
 3403 0022 0E        		.uleb128 0xe
 3404 0023 3A        		.uleb128 0x3a
 3405 0024 0B        		.uleb128 0xb
 3406 0025 3B        		.uleb128 0x3b
 3407 0026 0B        		.uleb128 0xb
 3408 0027 49        		.uleb128 0x49
 3409 0028 13        		.uleb128 0x13
 3410 0029 00        		.byte	0x0
 3411 002a 00        		.byte	0x0
 3412 002b 04        		.uleb128 0x4
 3413 002c 24        		.uleb128 0x24
 3414 002d 00        		.byte	0x0
 3415 002e 0B        		.uleb128 0xb
 3416 002f 0B        		.uleb128 0xb
 3417 0030 3E        		.uleb128 0x3e
 3418 0031 0B        		.uleb128 0xb
 3419 0032 03        		.uleb128 0x3
 3420 0033 08        		.uleb128 0x8
 3421 0034 00        		.byte	0x0
 3422 0035 00        		.byte	0x0
 3423 0036 05        		.uleb128 0x5
 3424 0037 24        		.uleb128 0x24
 3425 0038 00        		.byte	0x0
 3426 0039 0B        		.uleb128 0xb
 3427 003a 0B        		.uleb128 0xb
 3428 003b 3E        		.uleb128 0x3e
 3429 003c 0B        		.uleb128 0xb
 3430 003d 00        		.byte	0x0
GAS LISTING C:\Users\alex\AppData\Local\Temp/ccnCc1uD.s 			page 62


 3431 003e 00        		.byte	0x0
 3432 003f 06        		.uleb128 0x6
 3433 0040 13        		.uleb128 0x13
 3434 0041 01        		.byte	0x1
 3435 0042 0B        		.uleb128 0xb
 3436 0043 0B        		.uleb128 0xb
 3437 0044 3A        		.uleb128 0x3a
 3438 0045 0B        		.uleb128 0xb
 3439 0046 3B        		.uleb128 0x3b
 3440 0047 0B        		.uleb128 0xb
 3441 0048 01        		.uleb128 0x1
 3442 0049 13        		.uleb128 0x13
 3443 004a 00        		.byte	0x0
 3444 004b 00        		.byte	0x0
 3445 004c 07        		.uleb128 0x7
 3446 004d 0D        		.uleb128 0xd
 3447 004e 00        		.byte	0x0
 3448 004f 03        		.uleb128 0x3
 3449 0050 0E        		.uleb128 0xe
 3450 0051 3A        		.uleb128 0x3a
 3451 0052 0B        		.uleb128 0xb
 3452 0053 3B        		.uleb128 0x3b
 3453 0054 0B        		.uleb128 0xb
 3454 0055 49        		.uleb128 0x49
 3455 0056 13        		.uleb128 0x13
 3456 0057 38        		.uleb128 0x38
 3457 0058 0A        		.uleb128 0xa
 3458 0059 00        		.byte	0x0
 3459 005a 00        		.byte	0x0
 3460 005b 08        		.uleb128 0x8
 3461 005c 2E        		.uleb128 0x2e
 3462 005d 01        		.byte	0x1
 3463 005e 3F        		.uleb128 0x3f
 3464 005f 0C        		.uleb128 0xc
 3465 0060 03        		.uleb128 0x3
 3466 0061 0E        		.uleb128 0xe
 3467 0062 3A        		.uleb128 0x3a
 3468 0063 0B        		.uleb128 0xb
 3469 0064 3B        		.uleb128 0x3b
 3470 0065 0B        		.uleb128 0xb
 3471 0066 27        		.uleb128 0x27
 3472 0067 0C        		.uleb128 0xc
 3473 0068 49        		.uleb128 0x49
 3474 0069 13        		.uleb128 0x13
 3475 006a 11        		.uleb128 0x11
 3476 006b 01        		.uleb128 0x1
 3477 006c 12        		.uleb128 0x12
 3478 006d 01        		.uleb128 0x1
 3479 006e 40        		.uleb128 0x40
 3480 006f 0A        		.uleb128 0xa
 3481 0070 01        		.uleb128 0x1
 3482 0071 13        		.uleb128 0x13
 3483 0072 00        		.byte	0x0
 3484 0073 00        		.byte	0x0
 3485 0074 09        		.uleb128 0x9
 3486 0075 05        		.uleb128 0x5
 3487 0076 00        		.byte	0x0
GAS LISTING C:\Users\alex\AppData\Local\Temp/ccnCc1uD.s 			page 63


 3488 0077 03        		.uleb128 0x3
 3489 0078 0E        		.uleb128 0xe
 3490 0079 3A        		.uleb128 0x3a
 3491 007a 0B        		.uleb128 0xb
 3492 007b 3B        		.uleb128 0x3b
 3493 007c 0B        		.uleb128 0xb
 3494 007d 49        		.uleb128 0x49
 3495 007e 13        		.uleb128 0x13
 3496 007f 02        		.uleb128 0x2
 3497 0080 0A        		.uleb128 0xa
 3498 0081 00        		.byte	0x0
 3499 0082 00        		.byte	0x0
 3500 0083 0A        		.uleb128 0xa
 3501 0084 34        		.uleb128 0x34
 3502 0085 00        		.byte	0x0
 3503 0086 03        		.uleb128 0x3
 3504 0087 0E        		.uleb128 0xe
 3505 0088 3A        		.uleb128 0x3a
 3506 0089 0B        		.uleb128 0xb
 3507 008a 3B        		.uleb128 0x3b
 3508 008b 0B        		.uleb128 0xb
 3509 008c 49        		.uleb128 0x49
 3510 008d 13        		.uleb128 0x13
 3511 008e 02        		.uleb128 0x2
 3512 008f 0A        		.uleb128 0xa
 3513 0090 00        		.byte	0x0
 3514 0091 00        		.byte	0x0
 3515 0092 0B        		.uleb128 0xb
 3516 0093 2E        		.uleb128 0x2e
 3517 0094 01        		.byte	0x1
 3518 0095 3F        		.uleb128 0x3f
 3519 0096 0C        		.uleb128 0xc
 3520 0097 03        		.uleb128 0x3
 3521 0098 0E        		.uleb128 0xe
 3522 0099 3A        		.uleb128 0x3a
 3523 009a 0B        		.uleb128 0xb
 3524 009b 3B        		.uleb128 0x3b
 3525 009c 0B        		.uleb128 0xb
 3526 009d 27        		.uleb128 0x27
 3527 009e 0C        		.uleb128 0xc
 3528 009f 11        		.uleb128 0x11
 3529 00a0 01        		.uleb128 0x1
 3530 00a1 12        		.uleb128 0x12
 3531 00a2 01        		.uleb128 0x1
 3532 00a3 40        		.uleb128 0x40
 3533 00a4 0A        		.uleb128 0xa
 3534 00a5 01        		.uleb128 0x1
 3535 00a6 13        		.uleb128 0x13
 3536 00a7 00        		.byte	0x0
 3537 00a8 00        		.byte	0x0
 3538 00a9 0C        		.uleb128 0xc
 3539 00aa 05        		.uleb128 0x5
 3540 00ab 00        		.byte	0x0
 3541 00ac 03        		.uleb128 0x3
 3542 00ad 08        		.uleb128 0x8
 3543 00ae 3A        		.uleb128 0x3a
 3544 00af 0B        		.uleb128 0xb
GAS LISTING C:\Users\alex\AppData\Local\Temp/ccnCc1uD.s 			page 64


 3545 00b0 3B        		.uleb128 0x3b
 3546 00b1 0B        		.uleb128 0xb
 3547 00b2 49        		.uleb128 0x49
 3548 00b3 13        		.uleb128 0x13
 3549 00b4 02        		.uleb128 0x2
 3550 00b5 0A        		.uleb128 0xa
 3551 00b6 00        		.byte	0x0
 3552 00b7 00        		.byte	0x0
 3553 00b8 0D        		.uleb128 0xd
 3554 00b9 34        		.uleb128 0x34
 3555 00ba 00        		.byte	0x0
 3556 00bb 03        		.uleb128 0x3
 3557 00bc 08        		.uleb128 0x8
 3558 00bd 3A        		.uleb128 0x3a
 3559 00be 0B        		.uleb128 0xb
 3560 00bf 3B        		.uleb128 0x3b
 3561 00c0 0B        		.uleb128 0xb
 3562 00c1 49        		.uleb128 0x49
 3563 00c2 13        		.uleb128 0x13
 3564 00c3 02        		.uleb128 0x2
 3565 00c4 0A        		.uleb128 0xa
 3566 00c5 00        		.byte	0x0
 3567 00c6 00        		.byte	0x0
 3568 00c7 0E        		.uleb128 0xe
 3569 00c8 0F        		.uleb128 0xf
 3570 00c9 00        		.byte	0x0
 3571 00ca 0B        		.uleb128 0xb
 3572 00cb 0B        		.uleb128 0xb
 3573 00cc 49        		.uleb128 0x49
 3574 00cd 13        		.uleb128 0x13
 3575 00ce 00        		.byte	0x0
 3576 00cf 00        		.byte	0x0
 3577 00d0 0F        		.uleb128 0xf
 3578 00d1 2E        		.uleb128 0x2e
 3579 00d2 00        		.byte	0x0
 3580 00d3 3F        		.uleb128 0x3f
 3581 00d4 0C        		.uleb128 0xc
 3582 00d5 03        		.uleb128 0x3
 3583 00d6 0E        		.uleb128 0xe
 3584 00d7 3A        		.uleb128 0x3a
 3585 00d8 0B        		.uleb128 0xb
 3586 00d9 3B        		.uleb128 0x3b
 3587 00da 05        		.uleb128 0x5
 3588 00db 27        		.uleb128 0x27
 3589 00dc 0C        		.uleb128 0xc
 3590 00dd 49        		.uleb128 0x49
 3591 00de 13        		.uleb128 0x13
 3592 00df 11        		.uleb128 0x11
 3593 00e0 01        		.uleb128 0x1
 3594 00e1 12        		.uleb128 0x12
 3595 00e2 01        		.uleb128 0x1
 3596 00e3 40        		.uleb128 0x40
 3597 00e4 0A        		.uleb128 0xa
 3598 00e5 00        		.byte	0x0
 3599 00e6 00        		.byte	0x0
 3600 00e7 10        		.uleb128 0x10
 3601 00e8 2E        		.uleb128 0x2e
GAS LISTING C:\Users\alex\AppData\Local\Temp/ccnCc1uD.s 			page 65


 3602 00e9 01        		.byte	0x1
 3603 00ea 3F        		.uleb128 0x3f
 3604 00eb 0C        		.uleb128 0xc
 3605 00ec 03        		.uleb128 0x3
 3606 00ed 0E        		.uleb128 0xe
 3607 00ee 3A        		.uleb128 0x3a
 3608 00ef 0B        		.uleb128 0xb
 3609 00f0 3B        		.uleb128 0x3b
 3610 00f1 05        		.uleb128 0x5
 3611 00f2 27        		.uleb128 0x27
 3612 00f3 0C        		.uleb128 0xc
 3613 00f4 49        		.uleb128 0x49
 3614 00f5 13        		.uleb128 0x13
 3615 00f6 11        		.uleb128 0x11
 3616 00f7 01        		.uleb128 0x1
 3617 00f8 12        		.uleb128 0x12
 3618 00f9 01        		.uleb128 0x1
 3619 00fa 40        		.uleb128 0x40
 3620 00fb 0A        		.uleb128 0xa
 3621 00fc 01        		.uleb128 0x1
 3622 00fd 13        		.uleb128 0x13
 3623 00fe 00        		.byte	0x0
 3624 00ff 00        		.byte	0x0
 3625 0100 11        		.uleb128 0x11
 3626 0101 05        		.uleb128 0x5
 3627 0102 00        		.byte	0x0
 3628 0103 03        		.uleb128 0x3
 3629 0104 08        		.uleb128 0x8
 3630 0105 3A        		.uleb128 0x3a
 3631 0106 0B        		.uleb128 0xb
 3632 0107 3B        		.uleb128 0x3b
 3633 0108 05        		.uleb128 0x5
 3634 0109 49        		.uleb128 0x49
 3635 010a 13        		.uleb128 0x13
 3636 010b 02        		.uleb128 0x2
 3637 010c 0A        		.uleb128 0xa
 3638 010d 00        		.byte	0x0
 3639 010e 00        		.byte	0x0
 3640 010f 12        		.uleb128 0x12
 3641 0110 34        		.uleb128 0x34
 3642 0111 00        		.byte	0x0
 3643 0112 03        		.uleb128 0x3
 3644 0113 08        		.uleb128 0x8
 3645 0114 3A        		.uleb128 0x3a
 3646 0115 0B        		.uleb128 0xb
 3647 0116 3B        		.uleb128 0x3b
 3648 0117 05        		.uleb128 0x5
 3649 0118 49        		.uleb128 0x49
 3650 0119 13        		.uleb128 0x13
 3651 011a 02        		.uleb128 0x2
 3652 011b 0A        		.uleb128 0xa
 3653 011c 00        		.byte	0x0
 3654 011d 00        		.byte	0x0
 3655 011e 13        		.uleb128 0x13
 3656 011f 34        		.uleb128 0x34
 3657 0120 00        		.byte	0x0
 3658 0121 03        		.uleb128 0x3
GAS LISTING C:\Users\alex\AppData\Local\Temp/ccnCc1uD.s 			page 66


 3659 0122 0E        		.uleb128 0xe
 3660 0123 3A        		.uleb128 0x3a
 3661 0124 0B        		.uleb128 0xb
 3662 0125 3B        		.uleb128 0x3b
 3663 0126 05        		.uleb128 0x5
 3664 0127 49        		.uleb128 0x49
 3665 0128 13        		.uleb128 0x13
 3666 0129 02        		.uleb128 0x2
 3667 012a 0A        		.uleb128 0xa
 3668 012b 00        		.byte	0x0
 3669 012c 00        		.byte	0x0
 3670 012d 14        		.uleb128 0x14
 3671 012e 01        		.uleb128 0x1
 3672 012f 01        		.byte	0x1
 3673 0130 49        		.uleb128 0x49
 3674 0131 13        		.uleb128 0x13
 3675 0132 01        		.uleb128 0x1
 3676 0133 13        		.uleb128 0x13
 3677 0134 00        		.byte	0x0
 3678 0135 00        		.byte	0x0
 3679 0136 15        		.uleb128 0x15
 3680 0137 21        		.uleb128 0x21
 3681 0138 00        		.byte	0x0
 3682 0139 49        		.uleb128 0x49
 3683 013a 13        		.uleb128 0x13
 3684 013b 2F        		.uleb128 0x2f
 3685 013c 0B        		.uleb128 0xb
 3686 013d 00        		.byte	0x0
 3687 013e 00        		.byte	0x0
 3688 013f 16        		.uleb128 0x16
 3689 0140 34        		.uleb128 0x34
 3690 0141 00        		.byte	0x0
 3691 0142 03        		.uleb128 0x3
 3692 0143 0E        		.uleb128 0xe
 3693 0144 3A        		.uleb128 0x3a
 3694 0145 0B        		.uleb128 0xb
 3695 0146 3B        		.uleb128 0x3b
 3696 0147 0B        		.uleb128 0xb
 3697 0148 49        		.uleb128 0x49
 3698 0149 13        		.uleb128 0x13
 3699 014a 3F        		.uleb128 0x3f
 3700 014b 0C        		.uleb128 0xc
 3701 014c 02        		.uleb128 0x2
 3702 014d 0A        		.uleb128 0xa
 3703 014e 00        		.byte	0x0
 3704 014f 00        		.byte	0x0
 3705 0150 17        		.uleb128 0x17
 3706 0151 34        		.uleb128 0x34
 3707 0152 00        		.byte	0x0
 3708 0153 03        		.uleb128 0x3
 3709 0154 08        		.uleb128 0x8
 3710 0155 3A        		.uleb128 0x3a
 3711 0156 0B        		.uleb128 0xb
 3712 0157 3B        		.uleb128 0x3b
 3713 0158 0B        		.uleb128 0xb
 3714 0159 49        		.uleb128 0x49
 3715 015a 13        		.uleb128 0x13
GAS LISTING C:\Users\alex\AppData\Local\Temp/ccnCc1uD.s 			page 67


 3716 015b 3F        		.uleb128 0x3f
 3717 015c 0C        		.uleb128 0xc
 3718 015d 02        		.uleb128 0x2
 3719 015e 0A        		.uleb128 0xa
 3720 015f 00        		.byte	0x0
 3721 0160 00        		.byte	0x0
 3722 0161 00        		.byte	0x0
 3723               		.section	.debug_pubnames,"",@progbits
 3724 0000 C801 0000 		.long	0x1c8
 3725 0004 0200      		.word	0x2
 3726 0006 0000 0000 		.long	.Ldebug_info0
 3727 000a F706 0000 		.long	0x6f7
 3728 000e 2401 0000 		.long	0x124
 3729 0012 6C6F 6E67 		.string	"long2dacval"
 3729      3264 6163 
 3729      7661 6C00 
 3730 001e 5D01 0000 		.long	0x15d
 3731 0022 7072 696E 		.string	"print_dacval"
 3731      745F 6461 
 3731      6376 616C 
 3731      00
 3732 002f A001 0000 		.long	0x1a0
 3733 0033 6765 745F 		.string	"get_dacval"
 3733      6461 6376 
 3733      616C 00
 3734 003e 1302 0000 		.long	0x213
 3735 0042 7365 745F 		.string	"set_instrument_nsel"
 3735      696E 7374 
 3735      7275 6D65 
 3735      6E74 5F6E 
 3735      7365 6C00 
 3736 0056 6502 0000 		.long	0x265
 3737 005a 6765 745F 		.string	"get_instrument_nsel"
 3737      696E 7374 
 3737      7275 6D65 
 3737      6E74 5F6E 
 3737      7365 6C00 
 3738 006e 8E02 0000 		.long	0x28e
 3739 0072 7365 745F 		.string	"set_voltage"
 3739      766F 6C74 
 3739      6167 6500 
 3740 007e D302 0000 		.long	0x2d3
 3741 0082 7365 745F 		.string	"set_ovp_voltage"
 3741      6F76 705F 
 3741      766F 6C74 
 3741      6167 6500 
 3742 0092 1803 0000 		.long	0x318
 3743 0096 7365 745F 		.string	"set_current"
 3743      6375 7272 
 3743      656E 7400 
 3744 00a2 7803 0000 		.long	0x378
 3745 00a6 7365 745F 		.string	"set_standby"
 3745      7374 616E 
 3745      6462 7900 
 3746 00b2 CA03 0000 		.long	0x3ca
 3747 00b6 6765 745F 		.string	"get_voltage"
 3747      766F 6C74 
GAS LISTING C:\Users\alex\AppData\Local\Temp/ccnCc1uD.s 			page 68


 3747      6167 6500 
 3748 00c2 0104 0000 		.long	0x401
 3749 00c6 6765 745F 		.string	"get_current"
 3749      6375 7272 
 3749      656E 7400 
 3750 00d2 6204 0000 		.long	0x462
 3751 00d6 6765 745F 		.string	"get_ovp_voltage"
 3751      6F76 705F 
 3751      766F 6C74 
 3751      6167 6500 
 3752 00e6 8B04 0000 		.long	0x48b
 3753 00ea 6765 745F 		.string	"get_standby"
 3753      7374 616E 
 3753      6462 7900 
 3754 00f6 B404 0000 		.long	0x4b4
 3755 00fa 6465 7669 		.string	"device_reset"
 3755      6365 5F72 
 3755      6573 6574 
 3755      00
 3756 0107 CD04 0000 		.long	0x4cd
 3757 010b 7365 745F 		.string	"set_sweep_start"
 3757      7377 6565 
 3757      705F 7374 
 3757      6172 7400 
 3758 011b 1605 0000 		.long	0x516
 3759 011f 6765 745F 		.string	"get_sweep_start"
 3759      7377 6565 
 3759      705F 7374 
 3759      6172 7400 
 3760 012f 4105 0000 		.long	0x541
 3761 0133 7365 745F 		.string	"set_sweep_stop"
 3761      7377 6565 
 3761      705F 7374 
 3761      6F70 00
 3762 0142 8A05 0000 		.long	0x58a
 3763 0146 6765 745F 		.string	"get_sweep_stop"
 3763      7377 6565 
 3763      705F 7374 
 3763      6F70 00
 3764 0155 B505 0000 		.long	0x5b5
 3765 0159 7365 745F 		.string	"set_sweep_step"
 3765      7377 6565 
 3765      705F 7374 
 3765      6570 00
 3766 0168 FE05 0000 		.long	0x5fe
 3767 016c 6765 745F 		.string	"get_sweep_step"
 3767      7377 6565 
 3767      705F 7374 
 3767      6570 00
 3768 017b 2906 0000 		.long	0x629
 3769 017f 7365 745F 		.string	"set_sweep_time"
 3769      7377 6565 
 3769      705F 7469 
 3769      6D65 00
 3770 018e 7206 0000 		.long	0x672
 3771 0192 6765 745F 		.string	"get_sweep_time"
 3771      7377 6565 
GAS LISTING C:\Users\alex\AppData\Local\Temp/ccnCc1uD.s 			page 69


 3771      705F 7469 
 3771      6D65 00
 3772 01a1 B006 0000 		.long	0x6b0
 3773 01a5 7265 7475 		.string	"return_buf"
 3773      726E 5F62 
 3773      7566 00
 3774 01b0 C206 0000 		.long	0x6c2
 3775 01b4 6465 7600 		.string	"dev"
 3776 01b8 E406 0000 		.long	0x6e4
 3777 01bc 706F 7765 		.string	"powersupply"
 3777      7273 7570 
 3777      706C 7900 
 3778 01c8 0000 0000 		.long	0x0
 3779               		.section	.debug_aranges,"",@progbits
 3780 0000 1C00 0000 		.long	0x1c
 3781 0004 0200      		.word	0x2
 3782 0006 0000 0000 		.long	.Ldebug_info0
 3783 000a 04        		.byte	0x4
 3784 000b 00        		.byte	0x0
 3785 000c 0000      		.word	0x0
 3786 000e 0000      		.word	0x0
 3787 0010 0000 0000 		.long	.Ltext0
 3788 0014 4A0E 0000 		.long	.Letext0-.Ltext0
 3789 0018 0000 0000 		.long	0x0
 3790 001c 0000 0000 		.long	0x0
 3791               		.section	.debug_line
 3792 0000 F704 0000 		.long	.LELT0-.LSLT0
 3793               	.LSLT0:
 3794 0004 0200      		.word	0x2
 3795 0006 6700 0000 		.long	.LELTP0-.LASLTP0
 3796               	.LASLTP0:
 3797 000a 01        		.byte	0x1
 3798 000b 01        		.byte	0x1
 3799 000c F6        		.byte	0xf6
 3800 000d F5        		.byte	0xf5
 3801 000e 0A        		.byte	0xa
 3802 000f 00        		.byte	0x0
 3803 0010 01        		.byte	0x1
 3804 0011 01        		.byte	0x1
 3805 0012 01        		.byte	0x1
 3806 0013 01        		.byte	0x1
 3807 0014 00        		.byte	0x0
 3808 0015 00        		.byte	0x0
 3809 0016 00        		.byte	0x0
 3810 0017 01        		.byte	0x1
 3811 0018 643A 2F77 		.ascii	"d:/winavr-20100110/lib/gcc/../../avr/include"
 3811      696E 6176 
 3811      722D 3230 
 3811      3130 3031 
 3811      3130 2F6C 
 3812 0044 00        		.byte	0
 3813 0045 00        		.byte	0x0
 3814 0046 6876 5F73 		.string	"hv_supply.c"
 3814      7570 706C 
 3814      792E 6300 
 3815 0052 00        		.uleb128 0x0
 3816 0053 00        		.uleb128 0x0
GAS LISTING C:\Users\alex\AppData\Local\Temp/ccnCc1uD.s 			page 70


 3817 0054 00        		.uleb128 0x0
 3818 0055 7374 6469 		.string	"stdint.h"
 3818      6E74 2E68 
 3818      00
 3819 005e 01        		.uleb128 0x1
 3820 005f 00        		.uleb128 0x0
 3821 0060 00        		.uleb128 0x0
 3822 0061 6876 5F73 		.string	"hv_supply.h"
 3822      7570 706C 
 3822      792E 6800 
 3823 006d 00        		.uleb128 0x0
 3824 006e 00        		.uleb128 0x0
 3825 006f 00        		.uleb128 0x0
 3826 0070 00        		.byte	0x0
 3827               	.LELTP0:
 3828 0071 00        		.byte	0x0
 3829 0072 05        		.uleb128 0x5
 3830 0073 02        		.byte	0x2
 3831 0074 0000 0000 		.long	.LM1
 3832 0078 37        		.byte	0x37
 3833 0079 00        		.byte	0x0
 3834 007a 05        		.uleb128 0x5
 3835 007b 02        		.byte	0x2
 3836 007c 0000 0000 		.long	.LM2
 3837 0080 16        		.byte	0x16
 3838 0081 00        		.byte	0x0
 3839 0082 05        		.uleb128 0x5
 3840 0083 02        		.byte	0x2
 3841 0084 0000 0000 		.long	.LM3
 3842 0088 15        		.byte	0x15
 3843 0089 00        		.byte	0x0
 3844 008a 05        		.uleb128 0x5
 3845 008b 02        		.byte	0x2
 3846 008c 0000 0000 		.long	.LM4
 3847 0090 15        		.byte	0x15
 3848 0091 00        		.byte	0x0
 3849 0092 05        		.uleb128 0x5
 3850 0093 02        		.byte	0x2
 3851 0094 0000 0000 		.long	.LM5
 3852 0098 1A        		.byte	0x1a
 3853 0099 00        		.byte	0x0
 3854 009a 05        		.uleb128 0x5
 3855 009b 02        		.byte	0x2
 3856 009c 0000 0000 		.long	.LM6
 3857 00a0 17        		.byte	0x17
 3858 00a1 00        		.byte	0x0
 3859 00a2 05        		.uleb128 0x5
 3860 00a3 02        		.byte	0x2
 3861 00a4 0000 0000 		.long	.LM7
 3862 00a8 15        		.byte	0x15
 3863 00a9 00        		.byte	0x0
 3864 00aa 05        		.uleb128 0x5
 3865 00ab 02        		.byte	0x2
 3866 00ac 0000 0000 		.long	.LM8
 3867 00b0 16        		.byte	0x16
 3868 00b1 00        		.byte	0x0
 3869 00b2 05        		.uleb128 0x5
GAS LISTING C:\Users\alex\AppData\Local\Temp/ccnCc1uD.s 			page 71


 3870 00b3 02        		.byte	0x2
 3871 00b4 0000 0000 		.long	.LM9
 3872 00b8 15        		.byte	0x15
 3873 00b9 00        		.byte	0x0
 3874 00ba 05        		.uleb128 0x5
 3875 00bb 02        		.byte	0x2
 3876 00bc 0000 0000 		.long	.LM10
 3877 00c0 19        		.byte	0x19
 3878 00c1 00        		.byte	0x0
 3879 00c2 05        		.uleb128 0x5
 3880 00c3 02        		.byte	0x2
 3881 00c4 0000 0000 		.long	.LM11
 3882 00c8 15        		.byte	0x15
 3883 00c9 00        		.byte	0x0
 3884 00ca 05        		.uleb128 0x5
 3885 00cb 02        		.byte	0x2
 3886 00cc 0000 0000 		.long	.LM12
 3887 00d0 19        		.byte	0x19
 3888 00d1 00        		.byte	0x0
 3889 00d2 05        		.uleb128 0x5
 3890 00d3 02        		.byte	0x2
 3891 00d4 0000 0000 		.long	.LM13
 3892 00d8 16        		.byte	0x16
 3893 00d9 00        		.byte	0x0
 3894 00da 05        		.uleb128 0x5
 3895 00db 02        		.byte	0x2
 3896 00dc 0000 0000 		.long	.LM14
 3897 00e0 16        		.byte	0x16
 3898 00e1 00        		.byte	0x0
 3899 00e2 05        		.uleb128 0x5
 3900 00e3 02        		.byte	0x2
 3901 00e4 0000 0000 		.long	.LM15
 3902 00e8 15        		.byte	0x15
 3903 00e9 00        		.byte	0x0
 3904 00ea 05        		.uleb128 0x5
 3905 00eb 02        		.byte	0x2
 3906 00ec 0000 0000 		.long	.LM16
 3907 00f0 15        		.byte	0x15
 3908 00f1 00        		.byte	0x0
 3909 00f2 05        		.uleb128 0x5
 3910 00f3 02        		.byte	0x2
 3911 00f4 0000 0000 		.long	.LM17
 3912 00f8 16        		.byte	0x16
 3913 00f9 00        		.byte	0x0
 3914 00fa 05        		.uleb128 0x5
 3915 00fb 02        		.byte	0x2
 3916 00fc 0000 0000 		.long	.LM18
 3917 0100 16        		.byte	0x16
 3918 0101 00        		.byte	0x0
 3919 0102 05        		.uleb128 0x5
 3920 0103 02        		.byte	0x2
 3921 0104 0000 0000 		.long	.LM19
 3922 0108 16        		.byte	0x16
 3923 0109 00        		.byte	0x0
 3924 010a 05        		.uleb128 0x5
 3925 010b 02        		.byte	0x2
 3926 010c 0000 0000 		.long	.LM20
GAS LISTING C:\Users\alex\AppData\Local\Temp/ccnCc1uD.s 			page 72


 3927 0110 16        		.byte	0x16
 3928 0111 00        		.byte	0x0
 3929 0112 05        		.uleb128 0x5
 3930 0113 02        		.byte	0x2
 3931 0114 0000 0000 		.long	.LM21
 3932 0118 16        		.byte	0x16
 3933 0119 00        		.byte	0x0
 3934 011a 05        		.uleb128 0x5
 3935 011b 02        		.byte	0x2
 3936 011c 0000 0000 		.long	.LM22
 3937 0120 17        		.byte	0x17
 3938 0121 00        		.byte	0x0
 3939 0122 05        		.uleb128 0x5
 3940 0123 02        		.byte	0x2
 3941 0124 0000 0000 		.long	.LM23
 3942 0128 15        		.byte	0x15
 3943 0129 00        		.byte	0x0
 3944 012a 05        		.uleb128 0x5
 3945 012b 02        		.byte	0x2
 3946 012c 0000 0000 		.long	.LM24
 3947 0130 1D        		.byte	0x1d
 3948 0131 00        		.byte	0x0
 3949 0132 05        		.uleb128 0x5
 3950 0133 02        		.byte	0x2
 3951 0134 0000 0000 		.long	.LM25
 3952 0138 19        		.byte	0x19
 3953 0139 00        		.byte	0x0
 3954 013a 05        		.uleb128 0x5
 3955 013b 02        		.byte	0x2
 3956 013c 0000 0000 		.long	.LM26
 3957 0140 16        		.byte	0x16
 3958 0141 00        		.byte	0x0
 3959 0142 05        		.uleb128 0x5
 3960 0143 02        		.byte	0x2
 3961 0144 0000 0000 		.long	.LM27
 3962 0148 16        		.byte	0x16
 3963 0149 00        		.byte	0x0
 3964 014a 05        		.uleb128 0x5
 3965 014b 02        		.byte	0x2
 3966 014c 0000 0000 		.long	.LM28
 3967 0150 15        		.byte	0x15
 3968 0151 00        		.byte	0x0
 3969 0152 05        		.uleb128 0x5
 3970 0153 02        		.byte	0x2
 3971 0154 0000 0000 		.long	.LM29
 3972 0158 16        		.byte	0x16
 3973 0159 00        		.byte	0x0
 3974 015a 05        		.uleb128 0x5
 3975 015b 02        		.byte	0x2
 3976 015c 0000 0000 		.long	.LM30
 3977 0160 16        		.byte	0x16
 3978 0161 00        		.byte	0x0
 3979 0162 05        		.uleb128 0x5
 3980 0163 02        		.byte	0x2
 3981 0164 0000 0000 		.long	.LM31
 3982 0168 15        		.byte	0x15
 3983 0169 00        		.byte	0x0
GAS LISTING C:\Users\alex\AppData\Local\Temp/ccnCc1uD.s 			page 73


 3984 016a 05        		.uleb128 0x5
 3985 016b 02        		.byte	0x2
 3986 016c 0000 0000 		.long	.LM32
 3987 0170 19        		.byte	0x19
 3988 0171 00        		.byte	0x0
 3989 0172 05        		.uleb128 0x5
 3990 0173 02        		.byte	0x2
 3991 0174 0000 0000 		.long	.LM33
 3992 0178 15        		.byte	0x15
 3993 0179 00        		.byte	0x0
 3994 017a 05        		.uleb128 0x5
 3995 017b 02        		.byte	0x2
 3996 017c 0000 0000 		.long	.LM34
 3997 0180 15        		.byte	0x15
 3998 0181 00        		.byte	0x0
 3999 0182 05        		.uleb128 0x5
 4000 0183 02        		.byte	0x2
 4001 0184 0000 0000 		.long	.LM35
 4002 0188 15        		.byte	0x15
 4003 0189 00        		.byte	0x0
 4004 018a 05        		.uleb128 0x5
 4005 018b 02        		.byte	0x2
 4006 018c 0000 0000 		.long	.LM36
 4007 0190 1A        		.byte	0x1a
 4008 0191 00        		.byte	0x0
 4009 0192 05        		.uleb128 0x5
 4010 0193 02        		.byte	0x2
 4011 0194 0000 0000 		.long	.LM37
 4012 0198 18        		.byte	0x18
 4013 0199 00        		.byte	0x0
 4014 019a 05        		.uleb128 0x5
 4015 019b 02        		.byte	0x2
 4016 019c 0000 0000 		.long	.LM38
 4017 01a0 15        		.byte	0x15
 4018 01a1 00        		.byte	0x0
 4019 01a2 05        		.uleb128 0x5
 4020 01a3 02        		.byte	0x2
 4021 01a4 0000 0000 		.long	.LM39
 4022 01a8 15        		.byte	0x15
 4023 01a9 00        		.byte	0x0
 4024 01aa 05        		.uleb128 0x5
 4025 01ab 02        		.byte	0x2
 4026 01ac 0000 0000 		.long	.LM40
 4027 01b0 16        		.byte	0x16
 4028 01b1 00        		.byte	0x0
 4029 01b2 05        		.uleb128 0x5
 4030 01b3 02        		.byte	0x2
 4031 01b4 0000 0000 		.long	.LM41
 4032 01b8 15        		.byte	0x15
 4033 01b9 00        		.byte	0x0
 4034 01ba 05        		.uleb128 0x5
 4035 01bb 02        		.byte	0x2
 4036 01bc 0000 0000 		.long	.LM42
 4037 01c0 15        		.byte	0x15
 4038 01c1 00        		.byte	0x0
 4039 01c2 05        		.uleb128 0x5
 4040 01c3 02        		.byte	0x2
GAS LISTING C:\Users\alex\AppData\Local\Temp/ccnCc1uD.s 			page 74


 4041 01c4 0000 0000 		.long	.LM43
 4042 01c8 1A        		.byte	0x1a
 4043 01c9 00        		.byte	0x0
 4044 01ca 05        		.uleb128 0x5
 4045 01cb 02        		.byte	0x2
 4046 01cc 0000 0000 		.long	.LM44
 4047 01d0 18        		.byte	0x18
 4048 01d1 00        		.byte	0x0
 4049 01d2 05        		.uleb128 0x5
 4050 01d3 02        		.byte	0x2
 4051 01d4 0000 0000 		.long	.LM45
 4052 01d8 15        		.byte	0x15
 4053 01d9 00        		.byte	0x0
 4054 01da 05        		.uleb128 0x5
 4055 01db 02        		.byte	0x2
 4056 01dc 0000 0000 		.long	.LM46
 4057 01e0 15        		.byte	0x15
 4058 01e1 00        		.byte	0x0
 4059 01e2 05        		.uleb128 0x5
 4060 01e3 02        		.byte	0x2
 4061 01e4 0000 0000 		.long	.LM47
 4062 01e8 16        		.byte	0x16
 4063 01e9 00        		.byte	0x0
 4064 01ea 05        		.uleb128 0x5
 4065 01eb 02        		.byte	0x2
 4066 01ec 0000 0000 		.long	.LM48
 4067 01f0 16        		.byte	0x16
 4068 01f1 00        		.byte	0x0
 4069 01f2 05        		.uleb128 0x5
 4070 01f3 02        		.byte	0x2
 4071 01f4 0000 0000 		.long	.LM49
 4072 01f8 16        		.byte	0x16
 4073 01f9 00        		.byte	0x0
 4074 01fa 05        		.uleb128 0x5
 4075 01fb 02        		.byte	0x2
 4076 01fc 0000 0000 		.long	.LM50
 4077 0200 15        		.byte	0x15
 4078 0201 00        		.byte	0x0
 4079 0202 05        		.uleb128 0x5
 4080 0203 02        		.byte	0x2
 4081 0204 0000 0000 		.long	.LM51
 4082 0208 1A        		.byte	0x1a
 4083 0209 00        		.byte	0x0
 4084 020a 05        		.uleb128 0x5
 4085 020b 02        		.byte	0x2
 4086 020c 0000 0000 		.long	.LM52
 4087 0210 15        		.byte	0x15
 4088 0211 00        		.byte	0x0
 4089 0212 05        		.uleb128 0x5
 4090 0213 02        		.byte	0x2
 4091 0214 0000 0000 		.long	.LM53
 4092 0218 16        		.byte	0x16
 4093 0219 00        		.byte	0x0
 4094 021a 05        		.uleb128 0x5
 4095 021b 02        		.byte	0x2
 4096 021c 0000 0000 		.long	.LM54
 4097 0220 18        		.byte	0x18
GAS LISTING C:\Users\alex\AppData\Local\Temp/ccnCc1uD.s 			page 75


 4098 0221 00        		.byte	0x0
 4099 0222 05        		.uleb128 0x5
 4100 0223 02        		.byte	0x2
 4101 0224 0000 0000 		.long	.LM55
 4102 0228 17        		.byte	0x17
 4103 0229 00        		.byte	0x0
 4104 022a 05        		.uleb128 0x5
 4105 022b 02        		.byte	0x2
 4106 022c 0000 0000 		.long	.LM56
 4107 0230 15        		.byte	0x15
 4108 0231 00        		.byte	0x0
 4109 0232 05        		.uleb128 0x5
 4110 0233 02        		.byte	0x2
 4111 0234 0000 0000 		.long	.LM57
 4112 0238 16        		.byte	0x16
 4113 0239 00        		.byte	0x0
 4114 023a 05        		.uleb128 0x5
 4115 023b 02        		.byte	0x2
 4116 023c 0000 0000 		.long	.LM58
 4117 0240 16        		.byte	0x16
 4118 0241 00        		.byte	0x0
 4119 0242 05        		.uleb128 0x5
 4120 0243 02        		.byte	0x2
 4121 0244 0000 0000 		.long	.LM59
 4122 0248 16        		.byte	0x16
 4123 0249 00        		.byte	0x0
 4124 024a 05        		.uleb128 0x5
 4125 024b 02        		.byte	0x2
 4126 024c 0000 0000 		.long	.LM60
 4127 0250 16        		.byte	0x16
 4128 0251 00        		.byte	0x0
 4129 0252 05        		.uleb128 0x5
 4130 0253 02        		.byte	0x2
 4131 0254 0000 0000 		.long	.LM61
 4132 0258 16        		.byte	0x16
 4133 0259 00        		.byte	0x0
 4134 025a 05        		.uleb128 0x5
 4135 025b 02        		.byte	0x2
 4136 025c 0000 0000 		.long	.LM62
 4137 0260 15        		.byte	0x15
 4138 0261 00        		.byte	0x0
 4139 0262 05        		.uleb128 0x5
 4140 0263 02        		.byte	0x2
 4141 0264 0000 0000 		.long	.LM63
 4142 0268 16        		.byte	0x16
 4143 0269 00        		.byte	0x0
 4144 026a 05        		.uleb128 0x5
 4145 026b 02        		.byte	0x2
 4146 026c 0000 0000 		.long	.LM64
 4147 0270 16        		.byte	0x16
 4148 0271 00        		.byte	0x0
 4149 0272 05        		.uleb128 0x5
 4150 0273 02        		.byte	0x2
 4151 0274 0000 0000 		.long	.LM65
 4152 0278 15        		.byte	0x15
 4153 0279 00        		.byte	0x0
 4154 027a 05        		.uleb128 0x5
GAS LISTING C:\Users\alex\AppData\Local\Temp/ccnCc1uD.s 			page 76


 4155 027b 02        		.byte	0x2
 4156 027c 0000 0000 		.long	.LM66
 4157 0280 1C        		.byte	0x1c
 4158 0281 00        		.byte	0x0
 4159 0282 05        		.uleb128 0x5
 4160 0283 02        		.byte	0x2
 4161 0284 0000 0000 		.long	.LM67
 4162 0288 19        		.byte	0x19
 4163 0289 00        		.byte	0x0
 4164 028a 05        		.uleb128 0x5
 4165 028b 02        		.byte	0x2
 4166 028c 0000 0000 		.long	.LM68
 4167 0290 16        		.byte	0x16
 4168 0291 00        		.byte	0x0
 4169 0292 05        		.uleb128 0x5
 4170 0293 02        		.byte	0x2
 4171 0294 0000 0000 		.long	.LM69
 4172 0298 16        		.byte	0x16
 4173 0299 00        		.byte	0x0
 4174 029a 05        		.uleb128 0x5
 4175 029b 02        		.byte	0x2
 4176 029c 0000 0000 		.long	.LM70
 4177 02a0 15        		.byte	0x15
 4178 02a1 00        		.byte	0x0
 4179 02a2 05        		.uleb128 0x5
 4180 02a3 02        		.byte	0x2
 4181 02a4 0000 0000 		.long	.LM71
 4182 02a8 16        		.byte	0x16
 4183 02a9 00        		.byte	0x0
 4184 02aa 05        		.uleb128 0x5
 4185 02ab 02        		.byte	0x2
 4186 02ac 0000 0000 		.long	.LM72
 4187 02b0 15        		.byte	0x15
 4188 02b1 00        		.byte	0x0
 4189 02b2 05        		.uleb128 0x5
 4190 02b3 02        		.byte	0x2
 4191 02b4 0000 0000 		.long	.LM73
 4192 02b8 15        		.byte	0x15
 4193 02b9 00        		.byte	0x0
 4194 02ba 05        		.uleb128 0x5
 4195 02bb 02        		.byte	0x2
 4196 02bc 0000 0000 		.long	.LM74
 4197 02c0 16        		.byte	0x16
 4198 02c1 00        		.byte	0x0
 4199 02c2 05        		.uleb128 0x5
 4200 02c3 02        		.byte	0x2
 4201 02c4 0000 0000 		.long	.LM75
 4202 02c8 15        		.byte	0x15
 4203 02c9 00        		.byte	0x0
 4204 02ca 05        		.uleb128 0x5
 4205 02cb 02        		.byte	0x2
 4206 02cc 0000 0000 		.long	.LM76
 4207 02d0 15        		.byte	0x15
 4208 02d1 00        		.byte	0x0
 4209 02d2 05        		.uleb128 0x5
 4210 02d3 02        		.byte	0x2
 4211 02d4 0000 0000 		.long	.LM77
GAS LISTING C:\Users\alex\AppData\Local\Temp/ccnCc1uD.s 			page 77


 4212 02d8 17        		.byte	0x17
 4213 02d9 00        		.byte	0x0
 4214 02da 05        		.uleb128 0x5
 4215 02db 02        		.byte	0x2
 4216 02dc 0000 0000 		.long	.LM78
 4217 02e0 15        		.byte	0x15
 4218 02e1 00        		.byte	0x0
 4219 02e2 05        		.uleb128 0x5
 4220 02e3 02        		.byte	0x2
 4221 02e4 0000 0000 		.long	.LM79
 4222 02e8 19        		.byte	0x19
 4223 02e9 00        		.byte	0x0
 4224 02ea 05        		.uleb128 0x5
 4225 02eb 02        		.byte	0x2
 4226 02ec 0000 0000 		.long	.LM80
 4227 02f0 17        		.byte	0x17
 4228 02f1 00        		.byte	0x0
 4229 02f2 05        		.uleb128 0x5
 4230 02f3 02        		.byte	0x2
 4231 02f4 0000 0000 		.long	.LM81
 4232 02f8 15        		.byte	0x15
 4233 02f9 00        		.byte	0x0
 4234 02fa 05        		.uleb128 0x5
 4235 02fb 02        		.byte	0x2
 4236 02fc 0000 0000 		.long	.LM82
 4237 0300 16        		.byte	0x16
 4238 0301 00        		.byte	0x0
 4239 0302 05        		.uleb128 0x5
 4240 0303 02        		.byte	0x2
 4241 0304 0000 0000 		.long	.LM83
 4242 0308 15        		.byte	0x15
 4243 0309 00        		.byte	0x0
 4244 030a 05        		.uleb128 0x5
 4245 030b 02        		.byte	0x2
 4246 030c 0000 0000 		.long	.LM84
 4247 0310 17        		.byte	0x17
 4248 0311 00        		.byte	0x0
 4249 0312 05        		.uleb128 0x5
 4250 0313 02        		.byte	0x2
 4251 0314 0000 0000 		.long	.LM85
 4252 0318 18        		.byte	0x18
 4253 0319 00        		.byte	0x0
 4254 031a 05        		.uleb128 0x5
 4255 031b 02        		.byte	0x2
 4256 031c 0000 0000 		.long	.LM86
 4257 0320 15        		.byte	0x15
 4258 0321 00        		.byte	0x0
 4259 0322 05        		.uleb128 0x5
 4260 0323 02        		.byte	0x2
 4261 0324 0000 0000 		.long	.LM87
 4262 0328 16        		.byte	0x16
 4263 0329 00        		.byte	0x0
 4264 032a 05        		.uleb128 0x5
 4265 032b 02        		.byte	0x2
 4266 032c 0000 0000 		.long	.LM88
 4267 0330 15        		.byte	0x15
 4268 0331 00        		.byte	0x0
GAS LISTING C:\Users\alex\AppData\Local\Temp/ccnCc1uD.s 			page 78


 4269 0332 05        		.uleb128 0x5
 4270 0333 02        		.byte	0x2
 4271 0334 0000 0000 		.long	.LM89
 4272 0338 16        		.byte	0x16
 4273 0339 00        		.byte	0x0
 4274 033a 05        		.uleb128 0x5
 4275 033b 02        		.byte	0x2
 4276 033c 0000 0000 		.long	.LM90
 4277 0340 15        		.byte	0x15
 4278 0341 00        		.byte	0x0
 4279 0342 05        		.uleb128 0x5
 4280 0343 02        		.byte	0x2
 4281 0344 0000 0000 		.long	.LM91
 4282 0348 15        		.byte	0x15
 4283 0349 00        		.byte	0x0
 4284 034a 05        		.uleb128 0x5
 4285 034b 02        		.byte	0x2
 4286 034c 0000 0000 		.long	.LM92
 4287 0350 17        		.byte	0x17
 4288 0351 00        		.byte	0x0
 4289 0352 05        		.uleb128 0x5
 4290 0353 02        		.byte	0x2
 4291 0354 0000 0000 		.long	.LM93
 4292 0358 15        		.byte	0x15
 4293 0359 00        		.byte	0x0
 4294 035a 05        		.uleb128 0x5
 4295 035b 02        		.byte	0x2
 4296 035c 0000 0000 		.long	.LM94
 4297 0360 15        		.byte	0x15
 4298 0361 00        		.byte	0x0
 4299 0362 05        		.uleb128 0x5
 4300 0363 02        		.byte	0x2
 4301 0364 0000 0000 		.long	.LM95
 4302 0368 15        		.byte	0x15
 4303 0369 00        		.byte	0x0
 4304 036a 05        		.uleb128 0x5
 4305 036b 02        		.byte	0x2
 4306 036c 0000 0000 		.long	.LM96
 4307 0370 17        		.byte	0x17
 4308 0371 00        		.byte	0x0
 4309 0372 05        		.uleb128 0x5
 4310 0373 02        		.byte	0x2
 4311 0374 0000 0000 		.long	.LM97
 4312 0378 16        		.byte	0x16
 4313 0379 00        		.byte	0x0
 4314 037a 05        		.uleb128 0x5
 4315 037b 02        		.byte	0x2
 4316 037c 0000 0000 		.long	.LM98
 4317 0380 15        		.byte	0x15
 4318 0381 00        		.byte	0x0
 4319 0382 05        		.uleb128 0x5
 4320 0383 02        		.byte	0x2
 4321 0384 0000 0000 		.long	.LM99
 4322 0388 1B        		.byte	0x1b
 4323 0389 00        		.byte	0x0
 4324 038a 05        		.uleb128 0x5
 4325 038b 02        		.byte	0x2
GAS LISTING C:\Users\alex\AppData\Local\Temp/ccnCc1uD.s 			page 79


 4326 038c 0000 0000 		.long	.LM100
 4327 0390 15        		.byte	0x15
 4328 0391 00        		.byte	0x0
 4329 0392 05        		.uleb128 0x5
 4330 0393 02        		.byte	0x2
 4331 0394 0000 0000 		.long	.LM101
 4332 0398 15        		.byte	0x15
 4333 0399 00        		.byte	0x0
 4334 039a 05        		.uleb128 0x5
 4335 039b 02        		.byte	0x2
 4336 039c 0000 0000 		.long	.LM102
 4337 03a0 15        		.byte	0x15
 4338 03a1 00        		.byte	0x0
 4339 03a2 05        		.uleb128 0x5
 4340 03a3 02        		.byte	0x2
 4341 03a4 0000 0000 		.long	.LM103
 4342 03a8 15        		.byte	0x15
 4343 03a9 00        		.byte	0x0
 4344 03aa 05        		.uleb128 0x5
 4345 03ab 02        		.byte	0x2
 4346 03ac 0000 0000 		.long	.LM104
 4347 03b0 15        		.byte	0x15
 4348 03b1 00        		.byte	0x0
 4349 03b2 05        		.uleb128 0x5
 4350 03b3 02        		.byte	0x2
 4351 03b4 0000 0000 		.long	.LM105
 4352 03b8 15        		.byte	0x15
 4353 03b9 00        		.byte	0x0
 4354 03ba 05        		.uleb128 0x5
 4355 03bb 02        		.byte	0x2
 4356 03bc 0000 0000 		.long	.LM106
 4357 03c0 19        		.byte	0x19
 4358 03c1 00        		.byte	0x0
 4359 03c2 05        		.uleb128 0x5
 4360 03c3 02        		.byte	0x2
 4361 03c4 0000 0000 		.long	.LM107
 4362 03c8 18        		.byte	0x18
 4363 03c9 00        		.byte	0x0
 4364 03ca 05        		.uleb128 0x5
 4365 03cb 02        		.byte	0x2
 4366 03cc 0000 0000 		.long	.LM108
 4367 03d0 15        		.byte	0x15
 4368 03d1 00        		.byte	0x0
 4369 03d2 05        		.uleb128 0x5
 4370 03d3 02        		.byte	0x2
 4371 03d4 0000 0000 		.long	.LM109
 4372 03d8 15        		.byte	0x15
 4373 03d9 00        		.byte	0x0
 4374 03da 05        		.uleb128 0x5
 4375 03db 02        		.byte	0x2
 4376 03dc 0000 0000 		.long	.LM110
 4377 03e0 16        		.byte	0x16
 4378 03e1 00        		.byte	0x0
 4379 03e2 05        		.uleb128 0x5
 4380 03e3 02        		.byte	0x2
 4381 03e4 0000 0000 		.long	.LM111
 4382 03e8 15        		.byte	0x15
GAS LISTING C:\Users\alex\AppData\Local\Temp/ccnCc1uD.s 			page 80


 4383 03e9 00        		.byte	0x0
 4384 03ea 05        		.uleb128 0x5
 4385 03eb 02        		.byte	0x2
 4386 03ec 0000 0000 		.long	.LM112
 4387 03f0 18        		.byte	0x18
 4388 03f1 00        		.byte	0x0
 4389 03f2 05        		.uleb128 0x5
 4390 03f3 02        		.byte	0x2
 4391 03f4 0000 0000 		.long	.LM113
 4392 03f8 16        		.byte	0x16
 4393 03f9 00        		.byte	0x0
 4394 03fa 05        		.uleb128 0x5
 4395 03fb 02        		.byte	0x2
 4396 03fc 0000 0000 		.long	.LM114
 4397 0400 15        		.byte	0x15
 4398 0401 00        		.byte	0x0
 4399 0402 05        		.uleb128 0x5
 4400 0403 02        		.byte	0x2
 4401 0404 0000 0000 		.long	.LM115
 4402 0408 15        		.byte	0x15
 4403 0409 00        		.byte	0x0
 4404 040a 05        		.uleb128 0x5
 4405 040b 02        		.byte	0x2
 4406 040c 0000 0000 		.long	.LM116
 4407 0410 18        		.byte	0x18
 4408 0411 00        		.byte	0x0
 4409 0412 05        		.uleb128 0x5
 4410 0413 02        		.byte	0x2
 4411 0414 0000 0000 		.long	.LM117
 4412 0418 18        		.byte	0x18
 4413 0419 00        		.byte	0x0
 4414 041a 05        		.uleb128 0x5
 4415 041b 02        		.byte	0x2
 4416 041c 0000 0000 		.long	.LM118
 4417 0420 15        		.byte	0x15
 4418 0421 00        		.byte	0x0
 4419 0422 05        		.uleb128 0x5
 4420 0423 02        		.byte	0x2
 4421 0424 0000 0000 		.long	.LM119
 4422 0428 15        		.byte	0x15
 4423 0429 00        		.byte	0x0
 4424 042a 05        		.uleb128 0x5
 4425 042b 02        		.byte	0x2
 4426 042c 0000 0000 		.long	.LM120
 4427 0430 16        		.byte	0x16
 4428 0431 00        		.byte	0x0
 4429 0432 05        		.uleb128 0x5
 4430 0433 02        		.byte	0x2
 4431 0434 0000 0000 		.long	.LM121
 4432 0438 15        		.byte	0x15
 4433 0439 00        		.byte	0x0
 4434 043a 05        		.uleb128 0x5
 4435 043b 02        		.byte	0x2
 4436 043c 0000 0000 		.long	.LM122
 4437 0440 18        		.byte	0x18
 4438 0441 00        		.byte	0x0
 4439 0442 05        		.uleb128 0x5
GAS LISTING C:\Users\alex\AppData\Local\Temp/ccnCc1uD.s 			page 81


 4440 0443 02        		.byte	0x2
 4441 0444 0000 0000 		.long	.LM123
 4442 0448 15        		.byte	0x15
 4443 0449 00        		.byte	0x0
 4444 044a 05        		.uleb128 0x5
 4445 044b 02        		.byte	0x2
 4446 044c 0000 0000 		.long	.LM124
 4447 0450 15        		.byte	0x15
 4448 0451 00        		.byte	0x0
 4449 0452 05        		.uleb128 0x5
 4450 0453 02        		.byte	0x2
 4451 0454 0000 0000 		.long	.LM125
 4452 0458 15        		.byte	0x15
 4453 0459 00        		.byte	0x0
 4454 045a 05        		.uleb128 0x5
 4455 045b 02        		.byte	0x2
 4456 045c 0000 0000 		.long	.LM126
 4457 0460 18        		.byte	0x18
 4458 0461 00        		.byte	0x0
 4459 0462 05        		.uleb128 0x5
 4460 0463 02        		.byte	0x2
 4461 0464 0000 0000 		.long	.LM127
 4462 0468 18        		.byte	0x18
 4463 0469 00        		.byte	0x0
 4464 046a 05        		.uleb128 0x5
 4465 046b 02        		.byte	0x2
 4466 046c 0000 0000 		.long	.LM128
 4467 0470 15        		.byte	0x15
 4468 0471 00        		.byte	0x0
 4469 0472 05        		.uleb128 0x5
 4470 0473 02        		.byte	0x2
 4471 0474 0000 0000 		.long	.LM129
 4472 0478 15        		.byte	0x15
 4473 0479 00        		.byte	0x0
 4474 047a 05        		.uleb128 0x5
 4475 047b 02        		.byte	0x2
 4476 047c 0000 0000 		.long	.LM130
 4477 0480 15        		.byte	0x15
 4478 0481 00        		.byte	0x0
 4479 0482 05        		.uleb128 0x5
 4480 0483 02        		.byte	0x2
 4481 0484 0000 0000 		.long	.LM131
 4482 0488 15        		.byte	0x15
 4483 0489 00        		.byte	0x0
 4484 048a 05        		.uleb128 0x5
 4485 048b 02        		.byte	0x2
 4486 048c 0000 0000 		.long	.LM132
 4487 0490 18        		.byte	0x18
 4488 0491 00        		.byte	0x0
 4489 0492 05        		.uleb128 0x5
 4490 0493 02        		.byte	0x2
 4491 0494 0000 0000 		.long	.LM133
 4492 0498 15        		.byte	0x15
 4493 0499 00        		.byte	0x0
 4494 049a 05        		.uleb128 0x5
 4495 049b 02        		.byte	0x2
 4496 049c 0000 0000 		.long	.LM134
GAS LISTING C:\Users\alex\AppData\Local\Temp/ccnCc1uD.s 			page 82


 4497 04a0 15        		.byte	0x15
 4498 04a1 00        		.byte	0x0
 4499 04a2 05        		.uleb128 0x5
 4500 04a3 02        		.byte	0x2
 4501 04a4 0000 0000 		.long	.LM135
 4502 04a8 15        		.byte	0x15
 4503 04a9 00        		.byte	0x0
 4504 04aa 05        		.uleb128 0x5
 4505 04ab 02        		.byte	0x2
 4506 04ac 0000 0000 		.long	.LM136
 4507 04b0 19        		.byte	0x19
 4508 04b1 00        		.byte	0x0
 4509 04b2 05        		.uleb128 0x5
 4510 04b3 02        		.byte	0x2
 4511 04b4 0000 0000 		.long	.LM137
 4512 04b8 18        		.byte	0x18
 4513 04b9 00        		.byte	0x0
 4514 04ba 05        		.uleb128 0x5
 4515 04bb 02        		.byte	0x2
 4516 04bc 0000 0000 		.long	.LM138
 4517 04c0 15        		.byte	0x15
 4518 04c1 00        		.byte	0x0
 4519 04c2 05        		.uleb128 0x5
 4520 04c3 02        		.byte	0x2
 4521 04c4 0000 0000 		.long	.LM139
 4522 04c8 16        		.byte	0x16
 4523 04c9 00        		.byte	0x0
 4524 04ca 05        		.uleb128 0x5
 4525 04cb 02        		.byte	0x2
 4526 04cc 0000 0000 		.long	.LM140
 4527 04d0 18        		.byte	0x18
 4528 04d1 00        		.byte	0x0
 4529 04d2 05        		.uleb128 0x5
 4530 04d3 02        		.byte	0x2
 4531 04d4 0000 0000 		.long	.LM141
 4532 04d8 15        		.byte	0x15
 4533 04d9 00        		.byte	0x0
 4534 04da 05        		.uleb128 0x5
 4535 04db 02        		.byte	0x2
 4536 04dc 0000 0000 		.long	.LM142
 4537 04e0 18        		.byte	0x18
 4538 04e1 00        		.byte	0x0
 4539 04e2 05        		.uleb128 0x5
 4540 04e3 02        		.byte	0x2
 4541 04e4 0000 0000 		.long	.LM143
 4542 04e8 17        		.byte	0x17
 4543 04e9 00        		.byte	0x0
 4544 04ea 05        		.uleb128 0x5
 4545 04eb 02        		.byte	0x2
 4546 04ec 0000 0000 		.long	.LM144
 4547 04f0 15        		.byte	0x15
 4548 04f1 00        		.byte	0x0
 4549 04f2 05        		.uleb128 0x5
 4550 04f3 02        		.byte	0x2
 4551 04f4 0000 0000 		.long	.Letext0
 4552 04f8 00        		.byte	0x0
 4553 04f9 01        		.uleb128 0x1
GAS LISTING C:\Users\alex\AppData\Local\Temp/ccnCc1uD.s 			page 83


 4554 04fa 01        		.byte	0x1
 4555               	.LELT0:
 4556 04fb 1600 0000 		.section	.debug_str,"MS",@progbits,1
 4556      0200 1000 
 4556      0000 0101 
 4556      FB0E 0A00 
 4556      0101 0101 
 4557               	.LASF42:
 4558 0000 6765 745F 		.string	"get_sweep_stop"
 4558      7377 6565 
 4558      705F 7374 
 4558      6F70 00
 4559               	.LASF49:
 4560 000f 474E 5520 		.string	"GNU C 4.3.3"
 4560      4320 342E 
 4560      332E 3300 
 4561               	.LASF19:
 4562 001b 656E 6162 		.string	"enable"
 4562      6C65 00
 4563               	.LASF16:
 4564 0022 7377 7374 		.string	"swstep"
 4564      6570 00
 4565               	.LASF53:
 4566 0029 6465 7669 		.string	"device_reset"
 4566      6365 5F72 
 4566      6573 6574 
 4566      00
 4567               	.LASF50:
 4568 0036 6876 5F73 		.string	"hv_supply.c"
 4568      7570 706C 
 4568      792E 6300 
 4569               	.LASF29:
 4570 0042 6765 745F 		.string	"get_instrument_nsel"
 4570      696E 7374 
 4570      7275 6D65 
 4570      6E74 5F6E 
 4570      7365 6C00 
 4571               	.LASF20:
 4572 0056 7374 725F 		.string	"str_powersupply"
 4572      706F 7765 
 4572      7273 7570 
 4572      706C 7900 
 4573               	.LASF39:
 4574 0066 7365 745F 		.string	"set_sweep_start"
 4574      7377 6565 
 4574      705F 7374 
 4574      6172 7400 
 4575               	.LASF36:
 4576 0076 6765 745F 		.string	"get_current"
 4576      6375 7272 
 4576      656E 7400 
 4577               	.LASF13:
 4578 0082 6D6F 6465 		.string	"mode"
 4578      00
 4579               	.LASF40:
 4580 0087 6765 745F 		.string	"get_sweep_start"
 4580      7377 6565 
GAS LISTING C:\Users\alex\AppData\Local\Temp/ccnCc1uD.s 			page 84


 4580      705F 7374 
 4580      6172 7400 
 4581               	.LASF2:
 4582 0097 7569 6E74 		.string	"uint8_t"
 4582      385F 7400 
 4583               	.LASF46:
 4584 009f 6765 745F 		.string	"get_sweep_time"
 4584      7377 6565 
 4584      705F 7469 
 4584      6D65 00
 4585               	.LASF30:
 4586 00ae 7365 745F 		.string	"set_voltage"
 4586      766F 6C74 
 4586      6167 6500 
 4587               	.LASF52:
 4588 00ba 7072 696E 		.string	"print_dacval"
 4588      745F 6461 
 4588      6376 616C 
 4588      00
 4589               	.LASF21:
 4590 00c7 6C76 616C 		.string	"lval"
 4590      00
 4591               	.LASF7:
 4592 00cc 6C6F 6E67 		.string	"long long int"
 4592      206C 6F6E 
 4592      6720 696E 
 4592      7400 
 4593               	.LASF5:
 4594 00da 6C6F 6E67 		.string	"long int"
 4594      2069 6E74 
 4594      00
 4595               	.LASF9:
 4596 00e3 766F 6C74 		.string	"voltage"
 4596      6167 6500 
 4597               	.LASF51:
 4598 00eb 453A 5C61 		.string	"E:\\avr\\hv_et_lab_driver"
 4598      7672 5C68 
 4598      765F 6574 
 4598      5F6C 6162 
 4598      5F64 7269 
 4599               	.LASF23:
 4600 0103 6869 6768 		.string	"highval"
 4600      7661 6C00 
 4601               	.LASF1:
 4602 010b 756E 7369 		.string	"unsigned char"
 4602      676E 6564 
 4602      2063 6861 
 4602      7200 
 4603               	.LASF45:
 4604 0119 7365 745F 		.string	"set_sweep_time"
 4604      7377 6565 
 4604      705F 7469 
 4604      6D65 00
 4605               	.LASF24:
 4606 0128 6C6F 7776 		.string	"lowval"
 4606      616C 00
 4607               	.LASF0:
GAS LISTING C:\Users\alex\AppData\Local\Temp/ccnCc1uD.s 			page 85


 4608 012f 7369 676E 		.string	"signed char"
 4608      6564 2063 
 4608      6861 7200 
 4609               	.LASF8:
 4610 013b 6C6F 6E67 		.string	"long long unsigned int"
 4610      206C 6F6E 
 4610      6720 756E 
 4610      7369 676E 
 4610      6564 2069 
 4611               	.LASF4:
 4612 0152 756E 7369 		.string	"unsigned int"
 4612      676E 6564 
 4612      2069 6E74 
 4612      00
 4613               	.LASF41:
 4614 015f 7365 745F 		.string	"set_sweep_stop"
 4614      7377 6565 
 4614      705F 7374 
 4614      6F70 00
 4615               	.LASF11:
 4616 016e 6375 7272 		.string	"current"
 4616      656E 7400 
 4617               	.LASF33:
 4618 0176 7365 745F 		.string	"set_standby"
 4618      7374 616E 
 4618      6462 7900 
 4619               	.LASF17:
 4620 0182 7377 7479 		.string	"swtype"
 4620      7065 00
 4621               	.LASF44:
 4622 0189 6765 745F 		.string	"get_sweep_step"
 4622      7377 6565 
 4622      705F 7374 
 4622      6570 00
 4623               	.LASF27:
 4624 0198 6368 6172 		.string	"char"
 4624      00
 4625               	.LASF14:
 4626 019d 7377 7374 		.string	"swstart"
 4626      6172 7400 
 4627               	.LASF31:
 4628 01a5 7365 745F 		.string	"set_ovp_voltage"
 4628      6F76 705F 
 4628      766F 6C74 
 4628      6167 6500 
 4629               	.LASF18:
 4630 01b5 7377 7469 		.string	"swtime"
 4630      6D65 00
 4631               	.LASF3:
 4632 01bc 696E 7431 		.string	"int16_t"
 4632      365F 7400 
 4633               	.LASF48:
 4634 01c4 706F 7765 		.string	"powersupply"
 4634      7273 7570 
 4634      706C 7900 
 4635               	.LASF12:
 4636 01d0 7374 616E 		.string	"standby"
GAS LISTING C:\Users\alex\AppData\Local\Temp/ccnCc1uD.s 			page 86


 4636      6462 7900 
 4637               	.LASF47:
 4638 01d8 7265 7475 		.string	"return_buf"
 4638      726E 5F62 
 4638      7566 00
 4639               	.LASF15:
 4640 01e3 7377 7374 		.string	"swstop"
 4640      6F70 00
 4641               	.LASF37:
 4642 01ea 6765 745F 		.string	"get_ovp_voltage"
 4642      6F76 705F 
 4642      766F 6C74 
 4642      6167 6500 
 4643               	.LASF6:
 4644 01fa 6C6F 6E67 		.string	"long unsigned int"
 4644      2075 6E73 
 4644      6967 6E65 
 4644      6420 696E 
 4644      7400 
 4645               	.LASF38:
 4646 020c 6765 745F 		.string	"get_standby"
 4646      7374 616E 
 4646      6462 7900 
 4647               	.LASF34:
 4648 0218 6765 745F 		.string	"get_voltage"
 4648      766F 6C74 
 4648      6167 6500 
 4649               	.LASF26:
 4650 0224 6765 745F 		.string	"get_dacval"
 4650      6461 6376 
 4650      616C 00
 4651               	.LASF35:
 4652 022f 6164 6376 		.string	"adcval"
 4652      616C 00
 4653               	.LASF10:
 4654 0236 6F76 705F 		.string	"ovp_voltage"
 4654      766F 6C74 
 4654      6167 6500 
 4655               	.LASF43:
 4656 0242 7365 745F 		.string	"set_sweep_step"
 4656      7377 6565 
 4656      705F 7374 
 4656      6570 00
 4657               	.LASF28:
 4658 0251 7365 745F 		.string	"set_instrument_nsel"
 4658      696E 7374 
 4658      7275 6D65 
 4658      6E74 5F6E 
 4658      7365 6C00 
 4659               	.LASF25:
 4660 0265 6C6F 6E67 		.string	"long2dacval"
 4660      3264 6163 
 4660      7661 6C00 
 4661               	.LASF22:
 4662 0271 6461 6376 		.string	"dacval"
 4662      616C 00
 4663               	.LASF32:
GAS LISTING C:\Users\alex\AppData\Local\Temp/ccnCc1uD.s 			page 87


 4664 0278 7365 745F 		.string	"set_current"
 4664      6375 7272 
 4664      656E 7400 
 4665               	.global __do_copy_data
 4666               	.global __do_clear_bss
GAS LISTING C:\Users\alex\AppData\Local\Temp/ccnCc1uD.s 			page 88


DEFINED SYMBOLS
                            *ABS*:00000000 hv_supply.c
C:\Users\alex\AppData\Local\Temp/ccnCc1uD.s:2      *ABS*:0000003f __SREG__
C:\Users\alex\AppData\Local\Temp/ccnCc1uD.s:3      *ABS*:0000003e __SP_H__
C:\Users\alex\AppData\Local\Temp/ccnCc1uD.s:4      *ABS*:0000003d __SP_L__
C:\Users\alex\AppData\Local\Temp/ccnCc1uD.s:5      *ABS*:00000034 __CCP__
C:\Users\alex\AppData\Local\Temp/ccnCc1uD.s:6      *ABS*:00000000 __tmp_reg__
C:\Users\alex\AppData\Local\Temp/ccnCc1uD.s:7      *ABS*:00000001 __zero_reg__
C:\Users\alex\AppData\Local\Temp/ccnCc1uD.s:21     .bss:00000000 dev
C:\Users\alex\AppData\Local\Temp/ccnCc1uD.s:26     .text:00000000 long2dacval
C:\Users\alex\AppData\Local\Temp/ccnCc1uD.s:136    .text:000000ba print_dacval
C:\Users\alex\AppData\Local\Temp/ccnCc1uD.s:365    .text:0000025a get_dacval
C:\Users\alex\AppData\Local\Temp/ccnCc1uD.s:582    .text:000003d8 set_instrument_nsel
C:\Users\alex\AppData\Local\Temp/ccnCc1uD.s:700    .text:0000049c get_instrument_nsel
C:\Users\alex\AppData\Local\Temp/ccnCc1uD.s:746    .text:000004e2 set_voltage
                            *COM*:00000080 powersupply
C:\Users\alex\AppData\Local\Temp/ccnCc1uD.s:848    .text:00000588 set_ovp_voltage
C:\Users\alex\AppData\Local\Temp/ccnCc1uD.s:982    .text:00000666 set_current
C:\Users\alex\AppData\Local\Temp/ccnCc1uD.s:1221   .text:00000810 set_standby
C:\Users\alex\AppData\Local\Temp/ccnCc1uD.s:1364   .text:00000902 get_voltage
C:\Users\alex\AppData\Local\Temp/ccnCc1uD.s:1416   .text:00000952 get_current
C:\Users\alex\AppData\Local\Temp/ccnCc1uD.s:1581   .text:00000a7e get_ovp_voltage
C:\Users\alex\AppData\Local\Temp/ccnCc1uD.s:1632   .text:00000ace get_standby
C:\Users\alex\AppData\Local\Temp/ccnCc1uD.s:1668   .text:00000aea device_reset
C:\Users\alex\AppData\Local\Temp/ccnCc1uD.s:1705   .text:00000b1c set_sweep_start
C:\Users\alex\AppData\Local\Temp/ccnCc1uD.s:1793   .text:00000bae get_sweep_start
C:\Users\alex\AppData\Local\Temp/ccnCc1uD.s:1841   .text:00000bf8 set_sweep_stop
C:\Users\alex\AppData\Local\Temp/ccnCc1uD.s:1929   .text:00000c8a get_sweep_stop
C:\Users\alex\AppData\Local\Temp/ccnCc1uD.s:1977   .text:00000cd4 set_sweep_step
C:\Users\alex\AppData\Local\Temp/ccnCc1uD.s:2065   .text:00000d66 get_sweep_step
C:\Users\alex\AppData\Local\Temp/ccnCc1uD.s:2113   .text:00000db0 set_sweep_time
C:\Users\alex\AppData\Local\Temp/ccnCc1uD.s:2192   .text:00000e2e get_sweep_time
                            *COM*:00000050 return_buf

UNDEFINED SYMBOLS
uart_printf
scpi_get_longfrac
scpi_check_buf_empty
scpi_get_digit
mcp4922_putw
mcp3204_getw
scpi_parse_line
__do_copy_data
__do_clear_bss
