GAS LISTING C:\Users\alex\AppData\Local\Temp/cc0yDkA3.s 			page 1


   1               		.file	"main.c"
   2               	__SREG__ = 0x3f
   3               	__SP_H__ = 0x3e
   4               	__SP_L__ = 0x3d
   5               	__CCP__  = 0x34
   6               	__tmp_reg__ = 0
   7               	__zero_reg__ = 1
   8               		.section	.debug_abbrev,"",@progbits
   9               	.Ldebug_abbrev0:
  10               		.section	.debug_info,"",@progbits
  11               	.Ldebug_info0:
  12               		.section	.debug_line,"",@progbits
  13               	.Ldebug_line0:
  14               		.text
  15               	.Ltext0:
  16               	.global	values
  17               		.data
  18               		.type	values, @object
  19               		.size	values, 16
  20               	values:
  21 0000 0100      		.word	1
  22 0002 0200      		.word	2
  23 0004 0400      		.word	4
  24 0006 0800      		.word	8
  25 0008 1000      		.word	16
  26 000a 2000      		.word	32
  27 000c 4000      		.word	64
  28 000e 8000      		.word	128
  29               	.LC0:
  30 0010 0D0A 00   		.string	"\r\n"
  31               	.LC1:
  32 0013 0D0A 636F 		.string	"\r\ncopypos:%d\r\n"
  32      7079 706F 
  32      733A 2564 
  32      0D0A 00
  33               	.LC2:
  34 0022 4F56 0D0A 		.string	"OV\r\n"
  34      00
  35               	.LC3:
  36 0027 0D0A 0D0A 		.string	"\r\n\r\nmain:got [%s], len %d\r\n"
  36      6D61 696E 
  36      3A67 6F74 
  36      205B 2573 
  36      5D2C 206C 
  37               		.text
  38               	.global	command_loop
  39               		.type	command_loop, @function
  40               	command_loop:
  41               	.LFB2:
  42               	.LM1:
  43 0000 DF93      		push r29
  44 0002 CF93      		push r28
  45 0004 CDB7      		in r28,__SP_L__
  46 0006 DEB7      		in r29,__SP_H__
  47 0008 C558      		subi r28,lo8(-(-133))
  48 000a D040      		sbci r29,hi8(-(-133))
  49 000c 0FB6      		in __tmp_reg__,__SREG__
GAS LISTING C:\Users\alex\AppData\Local\Temp/cc0yDkA3.s 			page 2


  50 000e F894      		cli
  51 0010 DEBF      		out __SP_H__,r29
  52 0012 0FBE      		out __SREG__,__tmp_reg__
  53 0014 CDBF      		out __SP_L__,r28
  54               	/* prologue: function */
  55               	/* frame size = 133 */
  56               	.LM2:
  57 0016 1982      		std Y+1,__zero_reg__
  58               	.L13:
  59               	.LM3:
  60 0018 8091 0000 		lds r24,uart_done
  61 001c 8823      		tst r24
  62 001e 01F0      		breq .L13
  63               	.LM4:
  64 0020 1092 0000 		sts uart_done,__zero_reg__
  65               	.LM5:
  66 0024 00D0      		rcall .
  67 0026 EDB7      		in r30,__SP_L__
  68 0028 FEB7      		in r31,__SP_H__
  69 002a 3196      		adiw r30,1
  70 002c 80E0      		ldi r24,lo8(.LC0)
  71 002e 90E0      		ldi r25,hi8(.LC0)
  72 0030 9183      		std Z+1,r25
  73 0032 8083      		st Z,r24
  74 0034 0E94 0000 		call uart_printf
  75 0038 0F90      		pop __tmp_reg__
  76 003a 0F90      		pop __tmp_reg__
  77               	.LM6:
  78 003c 1B82      		std Y+3,__zero_reg__
  79 003e 00C0      		rjmp .L3
  80               	.L8:
  81               	.LM7:
  82 0040 8B81      		ldd r24,Y+3
  83 0042 882F      		mov r24,r24
  84 0044 90E0      		ldi r25,lo8(0)
  85 0046 FC01      		movw r30,r24
  86 0048 E050      		subi r30,lo8(-(uart_buf))
  87 004a F040      		sbci r31,hi8(-(uart_buf))
  88 004c 8081      		ld r24,Z
  89 004e 8A83      		std Y+2,r24
  90               	.LM8:
  91 0050 8A81      		ldd r24,Y+2
  92 0052 282F      		mov r18,r24
  93 0054 30E0      		ldi r19,lo8(0)
  94 0056 CC57      		subi r28,lo8(-132)
  95 0058 DF4F      		sbci r29,hi8(-132)
  96 005a 3983      		std Y+1,r19
  97 005c 2883      		st Y,r18
  98 005e C458      		subi r28,lo8(132)
  99 0060 D040      		sbci r29,hi8(132)
 100 0062 CC57      		subi r28,lo8(-132)
 101 0064 DF4F      		sbci r29,hi8(-132)
 102 0066 8881      		ld r24,Y
 103 0068 9981      		ldd r25,Y+1
 104 006a C458      		subi r28,lo8(132)
 105 006c D040      		sbci r29,hi8(132)
 106 006e 0097      		sbiw r24,0
GAS LISTING C:\Users\alex\AppData\Local\Temp/cc0yDkA3.s 			page 3


 107 0070 01F0      		breq .L5
 108 0072 CC57      		subi r28,lo8(-132)
 109 0074 DF4F      		sbci r29,hi8(-132)
 110 0076 2881      		ld r18,Y
 111 0078 3981      		ldd r19,Y+1
 112 007a C458      		subi r28,lo8(132)
 113 007c D040      		sbci r29,hi8(132)
 114 007e 2A30      		cpi r18,10
 115 0080 3105      		cpc r19,__zero_reg__
 116 0082 01F0      		breq .L6
 117 0084 00C0      		rjmp .L15
 118               	.L5:
 119               	.LM9:
 120 0086 8EE7      		ldi r24,lo8(126)
 121 0088 0E94 0000 		call uart_putc
 122 008c 00C0      		rjmp .L7
 123               	.L6:
 124               	.LM10:
 125 008e 8AE2      		ldi r24,lo8(42)
 126 0090 0E94 0000 		call uart_putc
 127 0094 00C0      		rjmp .L7
 128               	.L15:
 129               	.LM11:
 130 0096 8B81      		ldd r24,Y+3
 131 0098 882F      		mov r24,r24
 132 009a 90E0      		ldi r25,lo8(0)
 133 009c FC01      		movw r30,r24
 134 009e E050      		subi r30,lo8(-(uart_buf))
 135 00a0 F040      		sbci r31,hi8(-(uart_buf))
 136 00a2 8081      		ld r24,Z
 137 00a4 0E94 0000 		call uart_putc
 138               	.L7:
 139               	.LM12:
 140 00a8 8B81      		ldd r24,Y+3
 141 00aa 8F5F      		subi r24,lo8(-(1))
 142 00ac 8B83      		std Y+3,r24
 143               	.L3:
 144 00ae 8B81      		ldd r24,Y+3
 145 00b0 8032      		cpi r24,lo8(32)
 146 00b2 00F0      		brlo .L8
 147               	.LM13:
 148 00b4 8981      		ldd r24,Y+1
 149 00b6 282F      		mov r18,r24
 150 00b8 30E0      		ldi r19,lo8(0)
 151 00ba 00D0      		rcall .
 152 00bc 00D0      		rcall .
 153 00be EDB7      		in r30,__SP_L__
 154 00c0 FEB7      		in r31,__SP_H__
 155 00c2 3196      		adiw r30,1
 156 00c4 80E0      		ldi r24,lo8(.LC1)
 157 00c6 90E0      		ldi r25,hi8(.LC1)
 158 00c8 9183      		std Z+1,r25
 159 00ca 8083      		st Z,r24
 160 00cc 3383      		std Z+3,r19
 161 00ce 2283      		std Z+2,r18
 162 00d0 0E94 0000 		call uart_printf
 163 00d4 0F90      		pop __tmp_reg__
GAS LISTING C:\Users\alex\AppData\Local\Temp/cc0yDkA3.s 			page 4


 164 00d6 0F90      		pop __tmp_reg__
 165 00d8 0F90      		pop __tmp_reg__
 166 00da 0F90      		pop __tmp_reg__
 167               	.LM14:
 168 00dc 1B82      		std Y+3,__zero_reg__
 169 00de 00C0      		rjmp .L9
 170               	.L12:
 171               	.LM15:
 172 00e0 8981      		ldd r24,Y+1
 173 00e2 8032      		cpi r24,lo8(32)
 174 00e4 00F0      		brlo .L10
 175               	.LM16:
 176 00e6 00D0      		rcall .
 177 00e8 EDB7      		in r30,__SP_L__
 178 00ea FEB7      		in r31,__SP_H__
 179 00ec 3196      		adiw r30,1
 180 00ee 80E0      		ldi r24,lo8(.LC2)
 181 00f0 90E0      		ldi r25,hi8(.LC2)
 182 00f2 9183      		std Z+1,r25
 183 00f4 8083      		st Z,r24
 184 00f6 0E94 0000 		call uart_printf
 185 00fa 0F90      		pop __tmp_reg__
 186 00fc 0F90      		pop __tmp_reg__
 187               	.LM17:
 188 00fe 1982      		std Y+1,__zero_reg__
 189               	.L10:
 190               	.LM18:
 191 0100 8B81      		ldd r24,Y+3
 192 0102 282F      		mov r18,r24
 193 0104 30E0      		ldi r19,lo8(0)
 194 0106 8981      		ldd r24,Y+1
 195 0108 882F      		mov r24,r24
 196 010a 90E0      		ldi r25,lo8(0)
 197 010c FC01      		movw r30,r24
 198 010e E050      		subi r30,lo8(-(uart_buf))
 199 0110 F040      		sbci r31,hi8(-(uart_buf))
 200 0112 4081      		ld r20,Z
 201 0114 CE01      		movw r24,r28
 202 0116 0496      		adiw r24,4
 203 0118 FC01      		movw r30,r24
 204 011a E20F      		add r30,r18
 205 011c F31F      		adc r31,r19
 206 011e 4083      		st Z,r20
 207               	.LM19:
 208 0120 8981      		ldd r24,Y+1
 209 0122 882F      		mov r24,r24
 210 0124 90E0      		ldi r25,lo8(0)
 211 0126 FC01      		movw r30,r24
 212 0128 E050      		subi r30,lo8(-(uart_buf))
 213 012a F040      		sbci r31,hi8(-(uart_buf))
 214 012c 1082      		st Z,__zero_reg__
 215               	.LM20:
 216 012e 8B81      		ldd r24,Y+3
 217 0130 282F      		mov r18,r24
 218 0132 30E0      		ldi r19,lo8(0)
 219 0134 CE01      		movw r24,r28
 220 0136 0496      		adiw r24,4
GAS LISTING C:\Users\alex\AppData\Local\Temp/cc0yDkA3.s 			page 5


 221 0138 FC01      		movw r30,r24
 222 013a E20F      		add r30,r18
 223 013c F31F      		adc r31,r19
 224 013e 8081      		ld r24,Z
 225 0140 8A30      		cpi r24,lo8(10)
 226 0142 01F0      		breq .L11
 227               	.LM21:
 228 0144 8B81      		ldd r24,Y+3
 229 0146 8F5F      		subi r24,lo8(-(1))
 230 0148 8B83      		std Y+3,r24
 231 014a 8981      		ldd r24,Y+1
 232 014c 8F5F      		subi r24,lo8(-(1))
 233 014e 8983      		std Y+1,r24
 234               	.L9:
 235 0150 8B81      		ldd r24,Y+3
 236 0152 8032      		cpi r24,lo8(32)
 237 0154 00F0      		brlo .L12
 238               	.L11:
 239               	.LM22:
 240 0156 8981      		ldd r24,Y+1
 241 0158 8F5F      		subi r24,lo8(-(1))
 242 015a 8983      		std Y+1,r24
 243               	.LM23:
 244 015c 8B81      		ldd r24,Y+3
 245 015e 282F      		mov r18,r24
 246 0160 30E0      		ldi r19,lo8(0)
 247 0162 CE01      		movw r24,r28
 248 0164 0496      		adiw r24,4
 249 0166 FC01      		movw r30,r24
 250 0168 E20F      		add r30,r18
 251 016a F31F      		adc r31,r19
 252 016c 1082      		st Z,__zero_reg__
 253               	.LM24:
 254 016e 8B81      		ldd r24,Y+3
 255 0170 282F      		mov r18,r24
 256 0172 30E0      		ldi r19,lo8(0)
 257 0174 00D0      		rcall .
 258 0176 00D0      		rcall .
 259 0178 00D0      		rcall .
 260 017a EDB7      		in r30,__SP_L__
 261 017c FEB7      		in r31,__SP_H__
 262 017e 3196      		adiw r30,1
 263 0180 80E0      		ldi r24,lo8(.LC3)
 264 0182 90E0      		ldi r25,hi8(.LC3)
 265 0184 9183      		std Z+1,r25
 266 0186 8083      		st Z,r24
 267 0188 CE01      		movw r24,r28
 268 018a 0496      		adiw r24,4
 269 018c 9383      		std Z+3,r25
 270 018e 8283      		std Z+2,r24
 271 0190 3583      		std Z+5,r19
 272 0192 2483      		std Z+4,r18
 273 0194 0E94 0000 		call uart_printf
 274 0198 8DB7      		in r24,__SP_L__
 275 019a 9EB7      		in r25,__SP_H__
 276 019c 0696      		adiw r24,6
 277 019e 0FB6      		in __tmp_reg__,__SREG__
GAS LISTING C:\Users\alex\AppData\Local\Temp/cc0yDkA3.s 			page 6


 278 01a0 F894      		cli
 279 01a2 9EBF      		out __SP_H__,r25
 280 01a4 0FBE      		out __SREG__,__tmp_reg__
 281 01a6 8DBF      		out __SP_L__,r24
 282               	.LM25:
 283 01a8 8B81      		ldd r24,Y+3
 284 01aa 8823      		tst r24
 285 01ac 01F4      		brne .+2
 286 01ae 00C0      		rjmp .L13
 287               	.LM26:
 288 01b0 CE01      		movw r24,r28
 289 01b2 0496      		adiw r24,4
 290 01b4 0E94 0000 		call scpi_parse_line
 291 01b8 00C0      		rjmp .L13
 292               	.LFE2:
 293               		.size	command_loop, .-command_loop
 294               		.data
 295               	.LC4:
 296 0043 7265 763A 		.string	"rev:%d\n"
 296      2564 0A00 
 297               	.LC5:
 298 004b 5253 540A 		.string	"RST\n"
 298      00
 299               		.text
 300               	.global	main
 301               		.type	main, @function
 302               	main:
 303               	.LFB3:
 304               	.LM27:
 305 01ba 0F93      		push r16
 306 01bc DF93      		push r29
 307 01be CF93      		push r28
 308 01c0 00D0      		rcall .
 309 01c2 CDB7      		in r28,__SP_L__
 310 01c4 DEB7      		in r29,__SP_H__
 311               	/* prologue: function */
 312               	/* frame size = 2 */
 313               	.LM28:
 314 01c6 1A82      		std Y+2,__zero_reg__
 315 01c8 1982      		std Y+1,__zero_reg__
 316               	.LM29:
 317 01ca 0E94 0000 		call uart_init
 318               	.LM30:
 319 01ce 80E0      		ldi r24,lo8(0)
 320 01d0 66E3      		ldi r22,lo8(54)
 321 01d2 43E3      		ldi r20,lo8(51)
 322 01d4 24E3      		ldi r18,lo8(52)
 323 01d6 05E3      		ldi r16,lo8(53)
 324 01d8 0E94 0000 		call init_mcp3204
 325               	.LM31:
 326 01dc 80E0      		ldi r24,lo8(0)
 327 01de 60E0      		ldi r22,lo8(0)
 328 01e0 41E0      		ldi r20,lo8(1)
 329 01e2 22E0      		ldi r18,lo8(2)
 330 01e4 03E0      		ldi r16,lo8(3)
 331 01e6 0E94 0000 		call init_mcp4922
 332               	.LM32:
GAS LISTING C:\Users\alex\AppData\Local\Temp/cc0yDkA3.s 			page 7


 333 01ea 81E0      		ldi r24,lo8(1)
 334 01ec 64E2      		ldi r22,lo8(36)
 335 01ee 43E2      		ldi r20,lo8(35)
 336 01f0 22E2      		ldi r18,lo8(34)
 337 01f2 00E2      		ldi r16,lo8(32)
 338 01f4 0E94 0000 		call init_mcp4922
 339               	.LM33:
 340 01f8 00D0      		rcall .
 341 01fa 00D0      		rcall .
 342 01fc EDB7      		in r30,__SP_L__
 343 01fe FEB7      		in r31,__SP_H__
 344 0200 3196      		adiw r30,1
 345 0202 80E0      		ldi r24,lo8(.LC4)
 346 0204 90E0      		ldi r25,hi8(.LC4)
 347 0206 9183      		std Z+1,r25
 348 0208 8083      		st Z,r24
 349 020a 8981      		ldd r24,Y+1
 350 020c 9A81      		ldd r25,Y+2
 351 020e 9383      		std Z+3,r25
 352 0210 8283      		std Z+2,r24
 353 0212 0E94 0000 		call uart_printf
 354 0216 0F90      		pop __tmp_reg__
 355 0218 0F90      		pop __tmp_reg__
 356 021a 0F90      		pop __tmp_reg__
 357 021c 0F90      		pop __tmp_reg__
 358               	.LM34:
 359 021e 80E0      		ldi r24,lo8(.LC5)
 360 0220 90E0      		ldi r25,hi8(.LC5)
 361 0222 0E94 0000 		call scpi_parse_line
 362               	.LM35:
 363 0226 0E94 0000 		call command_loop
 364               	.LM36:
 365 022a 80E0      		ldi r24,lo8(0)
 366 022c 90E0      		ldi r25,hi8(0)
 367               	/* epilogue start */
 368               	.LM37:
 369 022e 0F90      		pop __tmp_reg__
 370 0230 0F90      		pop __tmp_reg__
 371 0232 CF91      		pop r28
 372 0234 DF91      		pop r29
 373 0236 0F91      		pop r16
 374 0238 0895      		ret
 375               	.LFE3:
 376               		.size	main, .-main
 377               		.comm vol,2,1
 378               		.comm ch,2,1
 379               		.comm bal,2,1
 380               		.section	.debug_frame,"",@progbits
 381               	.Lframe0:
 382 0000 0C00 0000 		.long	.LECIE0-.LSCIE0
 383               	.LSCIE0:
 384 0004 FFFF FFFF 		.long	0xffffffff
 385 0008 01        		.byte	0x1
 386 0009 00        		.string	""
 387 000a 01        		.uleb128 0x1
 388 000b 7F        		.sleb128 -1
 389 000c 24        		.byte	0x24
GAS LISTING C:\Users\alex\AppData\Local\Temp/cc0yDkA3.s 			page 8


 390 000d 0C        		.byte	0xc
 391 000e 20        		.uleb128 0x20
 392 000f 00        		.uleb128 0x0
 393               		.p2align	2
 394               	.LECIE0:
 395               	.LSFDE0:
 396 0010 0C00 0000 		.long	.LEFDE0-.LASFDE0
 397               	.LASFDE0:
 398 0014 0000 0000 		.long	.Lframe0
 399 0018 0000 0000 		.long	.LFB2
 400 001c BA01 0000 		.long	.LFE2-.LFB2
 401               		.p2align	2
 402               	.LEFDE0:
 403               	.LSFDE2:
 404 0020 0C00 0000 		.long	.LEFDE2-.LASFDE2
 405               	.LASFDE2:
 406 0024 0000 0000 		.long	.Lframe0
 407 0028 0000 0000 		.long	.LFB3
 408 002c 8000 0000 		.long	.LFE3-.LFB3
 409               		.p2align	2
 410               	.LEFDE2:
 411               		.text
 412               	.Letext0:
 413               		.section	.debug_info
 414 0000 7801 0000 		.long	0x178
 415 0004 0200      		.word	0x2
 416 0006 0000 0000 		.long	.Ldebug_abbrev0
 417 000a 04        		.byte	0x4
 418 000b 01        		.uleb128 0x1
 419 000c 0000 0000 		.long	.LASF12
 420 0010 01        		.byte	0x1
 421 0011 0000 0000 		.long	.LASF13
 422 0015 0000 0000 		.long	.LASF14
 423 0019 0000 0000 		.long	.Ltext0
 424 001d 0000 0000 		.long	.Letext0
 425 0021 0000 0000 		.long	.Ldebug_line0
 426 0025 02        		.uleb128 0x2
 427 0026 01        		.byte	0x1
 428 0027 06        		.byte	0x6
 429 0028 0000 0000 		.long	.LASF0
 430 002c 03        		.uleb128 0x3
 431 002d 0000 0000 		.long	.LASF15
 432 0031 03        		.byte	0x3
 433 0032 7A        		.byte	0x7a
 434 0033 3700 0000 		.long	0x37
 435 0037 02        		.uleb128 0x2
 436 0038 01        		.byte	0x1
 437 0039 08        		.byte	0x8
 438 003a 0000 0000 		.long	.LASF1
 439 003e 04        		.uleb128 0x4
 440 003f 02        		.byte	0x2
 441 0040 05        		.byte	0x5
 442 0041 696E 7400 		.string	"int"
 443 0045 02        		.uleb128 0x2
 444 0046 02        		.byte	0x2
 445 0047 07        		.byte	0x7
 446 0048 0000 0000 		.long	.LASF2
GAS LISTING C:\Users\alex\AppData\Local\Temp/cc0yDkA3.s 			page 9


 447 004c 02        		.uleb128 0x2
 448 004d 04        		.byte	0x4
 449 004e 05        		.byte	0x5
 450 004f 0000 0000 		.long	.LASF3
 451 0053 02        		.uleb128 0x2
 452 0054 04        		.byte	0x4
 453 0055 07        		.byte	0x7
 454 0056 0000 0000 		.long	.LASF4
 455 005a 02        		.uleb128 0x2
 456 005b 08        		.byte	0x8
 457 005c 05        		.byte	0x5
 458 005d 0000 0000 		.long	.LASF5
 459 0061 02        		.uleb128 0x2
 460 0062 08        		.byte	0x8
 461 0063 07        		.byte	0x7
 462 0064 0000 0000 		.long	.LASF6
 463 0068 05        		.uleb128 0x5
 464 0069 01        		.byte	0x1
 465 006a 0000 0000 		.long	.LASF16
 466 006e 01        		.byte	0x1
 467 006f 2A        		.byte	0x2a
 468 0070 01        		.byte	0x1
 469 0071 0000 0000 		.long	.LFB2
 470 0075 0000 0000 		.long	.LFE2
 471 0079 02        		.byte	0x2
 472 007a 90        		.byte	0x90
 473 007b 20        		.uleb128 0x20
 474 007c B500 0000 		.long	0xb5
 475 0080 06        		.uleb128 0x6
 476 0081 6900      		.string	"i"
 477 0083 01        		.byte	0x1
 478 0084 2B        		.byte	0x2b
 479 0085 2C00 0000 		.long	0x2c
 480 0089 02        		.byte	0x2
 481 008a 8C        		.byte	0x8c
 482 008b 03        		.sleb128 3
 483 008c 06        		.uleb128 0x6
 484 008d 6200      		.string	"b"
 485 008f 01        		.byte	0x1
 486 0090 2B        		.byte	0x2b
 487 0091 2C00 0000 		.long	0x2c
 488 0095 02        		.byte	0x2
 489 0096 8C        		.byte	0x8c
 490 0097 02        		.sleb128 2
 491 0098 07        		.uleb128 0x7
 492 0099 0000 0000 		.long	.LASF7
 493 009d 01        		.byte	0x1
 494 009e 2B        		.byte	0x2b
 495 009f 2C00 0000 		.long	0x2c
 496 00a3 02        		.byte	0x2
 497 00a4 8C        		.byte	0x8c
 498 00a5 01        		.sleb128 1
 499 00a6 06        		.uleb128 0x6
 500 00a7 6275 6600 		.string	"buf"
 501 00ab 01        		.byte	0x1
 502 00ac 2C        		.byte	0x2c
 503 00ad B500 0000 		.long	0xb5
GAS LISTING C:\Users\alex\AppData\Local\Temp/cc0yDkA3.s 			page 10


 504 00b1 02        		.byte	0x2
 505 00b2 8C        		.byte	0x8c
 506 00b3 04        		.sleb128 4
 507 00b4 00        		.byte	0x0
 508 00b5 08        		.uleb128 0x8
 509 00b6 C800 0000 		.long	0xc8
 510 00ba C500 0000 		.long	0xc5
 511 00be 09        		.uleb128 0x9
 512 00bf C500 0000 		.long	0xc5
 513 00c3 7F        		.byte	0x7f
 514 00c4 00        		.byte	0x0
 515 00c5 0A        		.uleb128 0xa
 516 00c6 02        		.byte	0x2
 517 00c7 07        		.byte	0x7
 518 00c8 02        		.uleb128 0x2
 519 00c9 01        		.byte	0x1
 520 00ca 08        		.byte	0x8
 521 00cb 0000 0000 		.long	.LASF8
 522 00cf 0B        		.uleb128 0xb
 523 00d0 01        		.byte	0x1
 524 00d1 0000 0000 		.long	.LASF17
 525 00d5 01        		.byte	0x1
 526 00d6 5A        		.byte	0x5a
 527 00d7 01        		.byte	0x1
 528 00d8 3E00 0000 		.long	0x3e
 529 00dc 0000 0000 		.long	.LFB3
 530 00e0 0000 0000 		.long	.LFE3
 531 00e4 02        		.byte	0x2
 532 00e5 90        		.byte	0x90
 533 00e6 20        		.uleb128 0x20
 534 00e7 FA00 0000 		.long	0xfa
 535 00eb 06        		.uleb128 0x6
 536 00ec 7265 7600 		.string	"rev"
 537 00f0 01        		.byte	0x1
 538 00f1 5B        		.byte	0x5b
 539 00f2 3E00 0000 		.long	0x3e
 540 00f6 02        		.byte	0x2
 541 00f7 8C        		.byte	0x8c
 542 00f8 01        		.sleb128 1
 543 00f9 00        		.byte	0x0
 544 00fa 0C        		.uleb128 0xc
 545 00fb 0000 0000 		.long	.LASF9
 546 00ff 02        		.byte	0x2
 547 0100 0D        		.byte	0xd
 548 0101 2C00 0000 		.long	0x2c
 549 0105 01        		.byte	0x1
 550 0106 01        		.byte	0x1
 551 0107 08        		.uleb128 0x8
 552 0108 C800 0000 		.long	0xc8
 553 010c 1701 0000 		.long	0x117
 554 0110 09        		.uleb128 0x9
 555 0111 C500 0000 		.long	0xc5
 556 0115 1F        		.byte	0x1f
 557 0116 00        		.byte	0x0
 558 0117 0C        		.uleb128 0xc
 559 0118 0000 0000 		.long	.LASF10
 560 011c 02        		.byte	0x2
GAS LISTING C:\Users\alex\AppData\Local\Temp/cc0yDkA3.s 			page 11


 561 011d 0E        		.byte	0xe
 562 011e 0701 0000 		.long	0x107
 563 0122 01        		.byte	0x1
 564 0123 01        		.byte	0x1
 565 0124 0D        		.uleb128 0xd
 566 0125 766F 6C00 		.string	"vol"
 567 0129 01        		.byte	0x1
 568 012a 20        		.byte	0x20
 569 012b 4500 0000 		.long	0x45
 570 012f 01        		.byte	0x1
 571 0130 05        		.byte	0x5
 572 0131 03        		.byte	0x3
 573 0132 0000 0000 		.long	vol
 574 0136 0D        		.uleb128 0xd
 575 0137 6368 00   		.string	"ch"
 576 013a 01        		.byte	0x1
 577 013b 20        		.byte	0x20
 578 013c 4500 0000 		.long	0x45
 579 0140 01        		.byte	0x1
 580 0141 05        		.byte	0x5
 581 0142 03        		.byte	0x3
 582 0143 0000 0000 		.long	ch
 583 0147 0D        		.uleb128 0xd
 584 0148 6261 6C00 		.string	"bal"
 585 014c 01        		.byte	0x1
 586 014d 21        		.byte	0x21
 587 014e 3E00 0000 		.long	0x3e
 588 0152 01        		.byte	0x1
 589 0153 05        		.byte	0x5
 590 0154 03        		.byte	0x3
 591 0155 0000 0000 		.long	bal
 592 0159 08        		.uleb128 0x8
 593 015a 3E00 0000 		.long	0x3e
 594 015e 6901 0000 		.long	0x169
 595 0162 09        		.uleb128 0x9
 596 0163 C500 0000 		.long	0xc5
 597 0167 07        		.byte	0x7
 598 0168 00        		.byte	0x0
 599 0169 0E        		.uleb128 0xe
 600 016a 0000 0000 		.long	.LASF11
 601 016e 01        		.byte	0x1
 602 016f 26        		.byte	0x26
 603 0170 5901 0000 		.long	0x159
 604 0174 01        		.byte	0x1
 605 0175 05        		.byte	0x5
 606 0176 03        		.byte	0x3
 607 0177 0000 0000 		.long	values
 608 017b 00        		.byte	0x0
 609               		.section	.debug_abbrev
 610 0000 01        		.uleb128 0x1
 611 0001 11        		.uleb128 0x11
 612 0002 01        		.byte	0x1
 613 0003 25        		.uleb128 0x25
 614 0004 0E        		.uleb128 0xe
 615 0005 13        		.uleb128 0x13
 616 0006 0B        		.uleb128 0xb
 617 0007 03        		.uleb128 0x3
GAS LISTING C:\Users\alex\AppData\Local\Temp/cc0yDkA3.s 			page 12


 618 0008 0E        		.uleb128 0xe
 619 0009 1B        		.uleb128 0x1b
 620 000a 0E        		.uleb128 0xe
 621 000b 11        		.uleb128 0x11
 622 000c 01        		.uleb128 0x1
 623 000d 12        		.uleb128 0x12
 624 000e 01        		.uleb128 0x1
 625 000f 10        		.uleb128 0x10
 626 0010 06        		.uleb128 0x6
 627 0011 00        		.byte	0x0
 628 0012 00        		.byte	0x0
 629 0013 02        		.uleb128 0x2
 630 0014 24        		.uleb128 0x24
 631 0015 00        		.byte	0x0
 632 0016 0B        		.uleb128 0xb
 633 0017 0B        		.uleb128 0xb
 634 0018 3E        		.uleb128 0x3e
 635 0019 0B        		.uleb128 0xb
 636 001a 03        		.uleb128 0x3
 637 001b 0E        		.uleb128 0xe
 638 001c 00        		.byte	0x0
 639 001d 00        		.byte	0x0
 640 001e 03        		.uleb128 0x3
 641 001f 16        		.uleb128 0x16
 642 0020 00        		.byte	0x0
 643 0021 03        		.uleb128 0x3
 644 0022 0E        		.uleb128 0xe
 645 0023 3A        		.uleb128 0x3a
 646 0024 0B        		.uleb128 0xb
 647 0025 3B        		.uleb128 0x3b
 648 0026 0B        		.uleb128 0xb
 649 0027 49        		.uleb128 0x49
 650 0028 13        		.uleb128 0x13
 651 0029 00        		.byte	0x0
 652 002a 00        		.byte	0x0
 653 002b 04        		.uleb128 0x4
 654 002c 24        		.uleb128 0x24
 655 002d 00        		.byte	0x0
 656 002e 0B        		.uleb128 0xb
 657 002f 0B        		.uleb128 0xb
 658 0030 3E        		.uleb128 0x3e
 659 0031 0B        		.uleb128 0xb
 660 0032 03        		.uleb128 0x3
 661 0033 08        		.uleb128 0x8
 662 0034 00        		.byte	0x0
 663 0035 00        		.byte	0x0
 664 0036 05        		.uleb128 0x5
 665 0037 2E        		.uleb128 0x2e
 666 0038 01        		.byte	0x1
 667 0039 3F        		.uleb128 0x3f
 668 003a 0C        		.uleb128 0xc
 669 003b 03        		.uleb128 0x3
 670 003c 0E        		.uleb128 0xe
 671 003d 3A        		.uleb128 0x3a
 672 003e 0B        		.uleb128 0xb
 673 003f 3B        		.uleb128 0x3b
 674 0040 0B        		.uleb128 0xb
GAS LISTING C:\Users\alex\AppData\Local\Temp/cc0yDkA3.s 			page 13


 675 0041 27        		.uleb128 0x27
 676 0042 0C        		.uleb128 0xc
 677 0043 11        		.uleb128 0x11
 678 0044 01        		.uleb128 0x1
 679 0045 12        		.uleb128 0x12
 680 0046 01        		.uleb128 0x1
 681 0047 40        		.uleb128 0x40
 682 0048 0A        		.uleb128 0xa
 683 0049 01        		.uleb128 0x1
 684 004a 13        		.uleb128 0x13
 685 004b 00        		.byte	0x0
 686 004c 00        		.byte	0x0
 687 004d 06        		.uleb128 0x6
 688 004e 34        		.uleb128 0x34
 689 004f 00        		.byte	0x0
 690 0050 03        		.uleb128 0x3
 691 0051 08        		.uleb128 0x8
 692 0052 3A        		.uleb128 0x3a
 693 0053 0B        		.uleb128 0xb
 694 0054 3B        		.uleb128 0x3b
 695 0055 0B        		.uleb128 0xb
 696 0056 49        		.uleb128 0x49
 697 0057 13        		.uleb128 0x13
 698 0058 02        		.uleb128 0x2
 699 0059 0A        		.uleb128 0xa
 700 005a 00        		.byte	0x0
 701 005b 00        		.byte	0x0
 702 005c 07        		.uleb128 0x7
 703 005d 34        		.uleb128 0x34
 704 005e 00        		.byte	0x0
 705 005f 03        		.uleb128 0x3
 706 0060 0E        		.uleb128 0xe
 707 0061 3A        		.uleb128 0x3a
 708 0062 0B        		.uleb128 0xb
 709 0063 3B        		.uleb128 0x3b
 710 0064 0B        		.uleb128 0xb
 711 0065 49        		.uleb128 0x49
 712 0066 13        		.uleb128 0x13
 713 0067 02        		.uleb128 0x2
 714 0068 0A        		.uleb128 0xa
 715 0069 00        		.byte	0x0
 716 006a 00        		.byte	0x0
 717 006b 08        		.uleb128 0x8
 718 006c 01        		.uleb128 0x1
 719 006d 01        		.byte	0x1
 720 006e 49        		.uleb128 0x49
 721 006f 13        		.uleb128 0x13
 722 0070 01        		.uleb128 0x1
 723 0071 13        		.uleb128 0x13
 724 0072 00        		.byte	0x0
 725 0073 00        		.byte	0x0
 726 0074 09        		.uleb128 0x9
 727 0075 21        		.uleb128 0x21
 728 0076 00        		.byte	0x0
 729 0077 49        		.uleb128 0x49
 730 0078 13        		.uleb128 0x13
 731 0079 2F        		.uleb128 0x2f
GAS LISTING C:\Users\alex\AppData\Local\Temp/cc0yDkA3.s 			page 14


 732 007a 0B        		.uleb128 0xb
 733 007b 00        		.byte	0x0
 734 007c 00        		.byte	0x0
 735 007d 0A        		.uleb128 0xa
 736 007e 24        		.uleb128 0x24
 737 007f 00        		.byte	0x0
 738 0080 0B        		.uleb128 0xb
 739 0081 0B        		.uleb128 0xb
 740 0082 3E        		.uleb128 0x3e
 741 0083 0B        		.uleb128 0xb
 742 0084 00        		.byte	0x0
 743 0085 00        		.byte	0x0
 744 0086 0B        		.uleb128 0xb
 745 0087 2E        		.uleb128 0x2e
 746 0088 01        		.byte	0x1
 747 0089 3F        		.uleb128 0x3f
 748 008a 0C        		.uleb128 0xc
 749 008b 03        		.uleb128 0x3
 750 008c 0E        		.uleb128 0xe
 751 008d 3A        		.uleb128 0x3a
 752 008e 0B        		.uleb128 0xb
 753 008f 3B        		.uleb128 0x3b
 754 0090 0B        		.uleb128 0xb
 755 0091 27        		.uleb128 0x27
 756 0092 0C        		.uleb128 0xc
 757 0093 49        		.uleb128 0x49
 758 0094 13        		.uleb128 0x13
 759 0095 11        		.uleb128 0x11
 760 0096 01        		.uleb128 0x1
 761 0097 12        		.uleb128 0x12
 762 0098 01        		.uleb128 0x1
 763 0099 40        		.uleb128 0x40
 764 009a 0A        		.uleb128 0xa
 765 009b 01        		.uleb128 0x1
 766 009c 13        		.uleb128 0x13
 767 009d 00        		.byte	0x0
 768 009e 00        		.byte	0x0
 769 009f 0C        		.uleb128 0xc
 770 00a0 34        		.uleb128 0x34
 771 00a1 00        		.byte	0x0
 772 00a2 03        		.uleb128 0x3
 773 00a3 0E        		.uleb128 0xe
 774 00a4 3A        		.uleb128 0x3a
 775 00a5 0B        		.uleb128 0xb
 776 00a6 3B        		.uleb128 0x3b
 777 00a7 0B        		.uleb128 0xb
 778 00a8 49        		.uleb128 0x49
 779 00a9 13        		.uleb128 0x13
 780 00aa 3F        		.uleb128 0x3f
 781 00ab 0C        		.uleb128 0xc
 782 00ac 3C        		.uleb128 0x3c
 783 00ad 0C        		.uleb128 0xc
 784 00ae 00        		.byte	0x0
 785 00af 00        		.byte	0x0
 786 00b0 0D        		.uleb128 0xd
 787 00b1 34        		.uleb128 0x34
 788 00b2 00        		.byte	0x0
GAS LISTING C:\Users\alex\AppData\Local\Temp/cc0yDkA3.s 			page 15


 789 00b3 03        		.uleb128 0x3
 790 00b4 08        		.uleb128 0x8
 791 00b5 3A        		.uleb128 0x3a
 792 00b6 0B        		.uleb128 0xb
 793 00b7 3B        		.uleb128 0x3b
 794 00b8 0B        		.uleb128 0xb
 795 00b9 49        		.uleb128 0x49
 796 00ba 13        		.uleb128 0x13
 797 00bb 3F        		.uleb128 0x3f
 798 00bc 0C        		.uleb128 0xc
 799 00bd 02        		.uleb128 0x2
 800 00be 0A        		.uleb128 0xa
 801 00bf 00        		.byte	0x0
 802 00c0 00        		.byte	0x0
 803 00c1 0E        		.uleb128 0xe
 804 00c2 34        		.uleb128 0x34
 805 00c3 00        		.byte	0x0
 806 00c4 03        		.uleb128 0x3
 807 00c5 0E        		.uleb128 0xe
 808 00c6 3A        		.uleb128 0x3a
 809 00c7 0B        		.uleb128 0xb
 810 00c8 3B        		.uleb128 0x3b
 811 00c9 0B        		.uleb128 0xb
 812 00ca 49        		.uleb128 0x49
 813 00cb 13        		.uleb128 0x13
 814 00cc 3F        		.uleb128 0x3f
 815 00cd 0C        		.uleb128 0xc
 816 00ce 02        		.uleb128 0x2
 817 00cf 0A        		.uleb128 0xa
 818 00d0 00        		.byte	0x0
 819 00d1 00        		.byte	0x0
 820 00d2 00        		.byte	0x0
 821               		.section	.debug_pubnames,"",@progbits
 822 0000 4A00 0000 		.long	0x4a
 823 0004 0200      		.word	0x2
 824 0006 0000 0000 		.long	.Ldebug_info0
 825 000a 7C01 0000 		.long	0x17c
 826 000e 6800 0000 		.long	0x68
 827 0012 636F 6D6D 		.string	"command_loop"
 827      616E 645F 
 827      6C6F 6F70 
 827      00
 828 001f CF00 0000 		.long	0xcf
 829 0023 6D61 696E 		.string	"main"
 829      00
 830 0028 2401 0000 		.long	0x124
 831 002c 766F 6C00 		.string	"vol"
 832 0030 3601 0000 		.long	0x136
 833 0034 6368 00   		.string	"ch"
 834 0037 4701 0000 		.long	0x147
 835 003b 6261 6C00 		.string	"bal"
 836 003f 6901 0000 		.long	0x169
 837 0043 7661 6C75 		.string	"values"
 837      6573 00
 838 004a 0000 0000 		.long	0x0
 839               		.section	.debug_aranges,"",@progbits
 840 0000 1C00 0000 		.long	0x1c
GAS LISTING C:\Users\alex\AppData\Local\Temp/cc0yDkA3.s 			page 16


 841 0004 0200      		.word	0x2
 842 0006 0000 0000 		.long	.Ldebug_info0
 843 000a 04        		.byte	0x4
 844 000b 00        		.byte	0x0
 845 000c 0000      		.word	0x0
 846 000e 0000      		.word	0x0
 847 0010 0000 0000 		.long	.Ltext0
 848 0014 3A02 0000 		.long	.Letext0-.Ltext0
 849 0018 0000 0000 		.long	0x0
 850 001c 0000 0000 		.long	0x0
 851               		.section	.debug_line
 852 0000 A401 0000 		.long	.LELT0-.LSLT0
 853               	.LSLT0:
 854 0004 0200      		.word	0x2
 855 0006 6C00 0000 		.long	.LELTP0-.LASLTP0
 856               	.LASLTP0:
 857 000a 01        		.byte	0x1
 858 000b 01        		.byte	0x1
 859 000c F6        		.byte	0xf6
 860 000d F5        		.byte	0xf5
 861 000e 0A        		.byte	0xa
 862 000f 00        		.byte	0x0
 863 0010 01        		.byte	0x1
 864 0011 01        		.byte	0x1
 865 0012 01        		.byte	0x1
 866 0013 01        		.byte	0x1
 867 0014 00        		.byte	0x0
 868 0015 00        		.byte	0x0
 869 0016 00        		.byte	0x0
 870 0017 01        		.byte	0x1
 871 0018 643A 2F77 		.ascii	"d:/winavr-20100110/lib/gcc/../../avr/include"
 871      696E 6176 
 871      722D 3230 
 871      3130 3031 
 871      3130 2F6C 
 872 0044 00        		.byte	0
 873 0045 653A 5C61 		.ascii	"e:\\avr\\include"
 873      7672 5C69 
 873      6E63 6C75 
 873      6465 
 874 0053 00        		.byte	0
 875 0054 00        		.byte	0x0
 876 0055 6D61 696E 		.string	"main.c"
 876      2E63 00
 877 005c 00        		.uleb128 0x0
 878 005d 00        		.uleb128 0x0
 879 005e 00        		.uleb128 0x0
 880 005f 7561 7274 		.string	"uart.h"
 880      2E68 00
 881 0066 02        		.uleb128 0x2
 882 0067 00        		.uleb128 0x0
 883 0068 00        		.uleb128 0x0
 884 0069 7374 6469 		.string	"stdint.h"
 884      6E74 2E68 
 884      00
 885 0072 01        		.uleb128 0x1
 886 0073 00        		.uleb128 0x0
GAS LISTING C:\Users\alex\AppData\Local\Temp/cc0yDkA3.s 			page 17


 887 0074 00        		.uleb128 0x0
 888 0075 00        		.byte	0x0
 889               	.LELTP0:
 890 0076 00        		.byte	0x0
 891 0077 05        		.uleb128 0x5
 892 0078 02        		.byte	0x2
 893 0079 0000 0000 		.long	.LM1
 894 007d 3D        		.byte	0x3d
 895 007e 00        		.byte	0x0
 896 007f 05        		.uleb128 0x5
 897 0080 02        		.byte	0x2
 898 0081 0000 0000 		.long	.LM2
 899 0085 15        		.byte	0x15
 900 0086 00        		.byte	0x0
 901 0087 05        		.uleb128 0x5
 902 0088 02        		.byte	0x2
 903 0089 0000 0000 		.long	.LM3
 904 008d 18        		.byte	0x18
 905 008e 00        		.byte	0x0
 906 008f 05        		.uleb128 0x5
 907 0090 02        		.byte	0x2
 908 0091 0000 0000 		.long	.LM4
 909 0095 15        		.byte	0x15
 910 0096 00        		.byte	0x0
 911 0097 05        		.uleb128 0x5
 912 0098 02        		.byte	0x2
 913 0099 0000 0000 		.long	.LM5
 914 009d 15        		.byte	0x15
 915 009e 00        		.byte	0x0
 916 009f 05        		.uleb128 0x5
 917 00a0 02        		.byte	0x2
 918 00a1 0000 0000 		.long	.LM6
 919 00a5 15        		.byte	0x15
 920 00a6 00        		.byte	0x0
 921 00a7 05        		.uleb128 0x5
 922 00a8 02        		.byte	0x2
 923 00a9 0000 0000 		.long	.LM7
 924 00ad 15        		.byte	0x15
 925 00ae 00        		.byte	0x0
 926 00af 05        		.uleb128 0x5
 927 00b0 02        		.byte	0x2
 928 00b1 0000 0000 		.long	.LM8
 929 00b5 15        		.byte	0x15
 930 00b6 00        		.byte	0x0
 931 00b7 05        		.uleb128 0x5
 932 00b8 02        		.byte	0x2
 933 00b9 0000 0000 		.long	.LM9
 934 00bd 15        		.byte	0x15
 935 00be 00        		.byte	0x0
 936 00bf 05        		.uleb128 0x5
 937 00c0 02        		.byte	0x2
 938 00c1 0000 0000 		.long	.LM10
 939 00c5 16        		.byte	0x16
 940 00c6 00        		.byte	0x0
 941 00c7 05        		.uleb128 0x5
 942 00c8 02        		.byte	0x2
 943 00c9 0000 0000 		.long	.LM11
GAS LISTING C:\Users\alex\AppData\Local\Temp/cc0yDkA3.s 			page 18


 944 00cd 16        		.byte	0x16
 945 00ce 00        		.byte	0x0
 946 00cf 05        		.uleb128 0x5
 947 00d0 02        		.byte	0x2
 948 00d1 0000 0000 		.long	.LM12
 949 00d5 0D        		.byte	0xd
 950 00d6 00        		.byte	0x0
 951 00d7 05        		.uleb128 0x5
 952 00d8 02        		.byte	0x2
 953 00d9 0000 0000 		.long	.LM13
 954 00dd 20        		.byte	0x20
 955 00de 00        		.byte	0x0
 956 00df 05        		.uleb128 0x5
 957 00e0 02        		.byte	0x2
 958 00e1 0000 0000 		.long	.LM14
 959 00e5 18        		.byte	0x18
 960 00e6 00        		.byte	0x0
 961 00e7 05        		.uleb128 0x5
 962 00e8 02        		.byte	0x2
 963 00e9 0000 0000 		.long	.LM15
 964 00ed 15        		.byte	0x15
 965 00ee 00        		.byte	0x0
 966 00ef 05        		.uleb128 0x5
 967 00f0 02        		.byte	0x2
 968 00f1 0000 0000 		.long	.LM16
 969 00f5 15        		.byte	0x15
 970 00f6 00        		.byte	0x0
 971 00f7 05        		.uleb128 0x5
 972 00f8 02        		.byte	0x2
 973 00f9 0000 0000 		.long	.LM17
 974 00fd 15        		.byte	0x15
 975 00fe 00        		.byte	0x0
 976 00ff 05        		.uleb128 0x5
 977 0100 02        		.byte	0x2
 978 0101 0000 0000 		.long	.LM18
 979 0105 16        		.byte	0x16
 980 0106 00        		.byte	0x0
 981 0107 05        		.uleb128 0x5
 982 0108 02        		.byte	0x2
 983 0109 0000 0000 		.long	.LM19
 984 010d 15        		.byte	0x15
 985 010e 00        		.byte	0x0
 986 010f 05        		.uleb128 0x5
 987 0110 02        		.byte	0x2
 988 0111 0000 0000 		.long	.LM20
 989 0115 16        		.byte	0x16
 990 0116 00        		.byte	0x0
 991 0117 05        		.uleb128 0x5
 992 0118 02        		.byte	0x2
 993 0119 0000 0000 		.long	.LM21
 994 011d 0C        		.byte	0xc
 995 011e 00        		.byte	0x0
 996 011f 05        		.uleb128 0x5
 997 0120 02        		.byte	0x2
 998 0121 0000 0000 		.long	.LM22
 999 0125 1E        		.byte	0x1e
 1000 0126 00        		.byte	0x0
GAS LISTING C:\Users\alex\AppData\Local\Temp/cc0yDkA3.s 			page 19


 1001 0127 05        		.uleb128 0x5
 1002 0128 02        		.byte	0x2
 1003 0129 0000 0000 		.long	.LM23
 1004 012d 15        		.byte	0x15
 1005 012e 00        		.byte	0x0
 1006 012f 05        		.uleb128 0x5
 1007 0130 02        		.byte	0x2
 1008 0131 0000 0000 		.long	.LM24
 1009 0135 15        		.byte	0x15
 1010 0136 00        		.byte	0x0
 1011 0137 05        		.uleb128 0x5
 1012 0138 02        		.byte	0x2
 1013 0139 0000 0000 		.long	.LM25
 1014 013d 15        		.byte	0x15
 1015 013e 00        		.byte	0x0
 1016 013f 05        		.uleb128 0x5
 1017 0140 02        		.byte	0x2
 1018 0141 0000 0000 		.long	.LM26
 1019 0145 15        		.byte	0x15
 1020 0146 00        		.byte	0x0
 1021 0147 05        		.uleb128 0x5
 1022 0148 02        		.byte	0x2
 1023 0149 0000 0000 		.long	.LM27
 1024 014d 1E        		.byte	0x1e
 1025 014e 00        		.byte	0x0
 1026 014f 05        		.uleb128 0x5
 1027 0150 02        		.byte	0x2
 1028 0151 0000 0000 		.long	.LM28
 1029 0155 15        		.byte	0x15
 1030 0156 00        		.byte	0x0
 1031 0157 05        		.uleb128 0x5
 1032 0158 02        		.byte	0x2
 1033 0159 0000 0000 		.long	.LM29
 1034 015d 17        		.byte	0x17
 1035 015e 00        		.byte	0x0
 1036 015f 05        		.uleb128 0x5
 1037 0160 02        		.byte	0x2
 1038 0161 0000 0000 		.long	.LM30
 1039 0165 17        		.byte	0x17
 1040 0166 00        		.byte	0x0
 1041 0167 05        		.uleb128 0x5
 1042 0168 02        		.byte	0x2
 1043 0169 0000 0000 		.long	.LM31
 1044 016d 15        		.byte	0x15
 1045 016e 00        		.byte	0x0
 1046 016f 05        		.uleb128 0x5
 1047 0170 02        		.byte	0x2
 1048 0171 0000 0000 		.long	.LM32
 1049 0175 15        		.byte	0x15
 1050 0176 00        		.byte	0x0
 1051 0177 05        		.uleb128 0x5
 1052 0178 02        		.byte	0x2
 1053 0179 0000 0000 		.long	.LM33
 1054 017d 17        		.byte	0x17
 1055 017e 00        		.byte	0x0
 1056 017f 05        		.uleb128 0x5
 1057 0180 02        		.byte	0x2
GAS LISTING C:\Users\alex\AppData\Local\Temp/cc0yDkA3.s 			page 20


 1058 0181 0000 0000 		.long	.LM34
 1059 0185 16        		.byte	0x16
 1060 0186 00        		.byte	0x0
 1061 0187 05        		.uleb128 0x5
 1062 0188 02        		.byte	0x2
 1063 0189 0000 0000 		.long	.LM35
 1064 018d 15        		.byte	0x15
 1065 018e 00        		.byte	0x0
 1066 018f 05        		.uleb128 0x5
 1067 0190 02        		.byte	0x2
 1068 0191 0000 0000 		.long	.LM36
 1069 0195 33        		.byte	0x33
 1070 0196 00        		.byte	0x0
 1071 0197 05        		.uleb128 0x5
 1072 0198 02        		.byte	0x2
 1073 0199 0000 0000 		.long	.LM37
 1074 019d 15        		.byte	0x15
 1075 019e 00        		.byte	0x0
 1076 019f 05        		.uleb128 0x5
 1077 01a0 02        		.byte	0x2
 1078 01a1 0000 0000 		.long	.Letext0
 1079 01a5 00        		.byte	0x0
 1080 01a6 01        		.uleb128 0x1
 1081 01a7 01        		.byte	0x1
 1082               	.LELT0:
 1083 01a8 1600 0000 		.section	.debug_str,"MS",@progbits,1
 1083      0200 1000 
 1083      0000 0101 
 1083      FB0E 0A00 
 1083      0101 0101 
 1084               	.LASF9:
 1085 0000 7561 7274 		.string	"uart_done"
 1085      5F64 6F6E 
 1085      6500 
 1086               	.LASF7:
 1087 000a 636F 7079 		.string	"copypos"
 1087      706F 7300 
 1088               	.LASF1:
 1089 0012 756E 7369 		.string	"unsigned char"
 1089      676E 6564 
 1089      2063 6861 
 1089      7200 
 1090               	.LASF4:
 1091 0020 6C6F 6E67 		.string	"long unsigned int"
 1091      2075 6E73 
 1091      6967 6E65 
 1091      6420 696E 
 1091      7400 
 1092               	.LASF12:
 1093 0032 474E 5520 		.string	"GNU C 4.3.3"
 1093      4320 342E 
 1093      332E 3300 
 1094               	.LASF14:
 1095 003e 453A 5C61 		.string	"E:\\avr\\hv_et_lab_driver"
 1095      7672 5C68 
 1095      765F 6574 
 1095      5F6C 6162 
GAS LISTING C:\Users\alex\AppData\Local\Temp/cc0yDkA3.s 			page 21


 1095      5F64 7269 
 1096               	.LASF17:
 1097 0056 6D61 696E 		.string	"main"
 1097      00
 1098               	.LASF2:
 1099 005b 756E 7369 		.string	"unsigned int"
 1099      676E 6564 
 1099      2069 6E74 
 1099      00
 1100               	.LASF6:
 1101 0068 6C6F 6E67 		.string	"long long unsigned int"
 1101      206C 6F6E 
 1101      6720 756E 
 1101      7369 676E 
 1101      6564 2069 
 1102               	.LASF15:
 1103 007f 7569 6E74 		.string	"uint8_t"
 1103      385F 7400 
 1104               	.LASF5:
 1105 0087 6C6F 6E67 		.string	"long long int"
 1105      206C 6F6E 
 1105      6720 696E 
 1105      7400 
 1106               	.LASF13:
 1107 0095 6D61 696E 		.string	"main.c"
 1107      2E63 00
 1108               	.LASF8:
 1109 009c 6368 6172 		.string	"char"
 1109      00
 1110               	.LASF11:
 1111 00a1 7661 6C75 		.string	"values"
 1111      6573 00
 1112               	.LASF3:
 1113 00a8 6C6F 6E67 		.string	"long int"
 1113      2069 6E74 
 1113      00
 1114               	.LASF0:
 1115 00b1 7369 676E 		.string	"signed char"
 1115      6564 2063 
 1115      6861 7200 
 1116               	.LASF16:
 1117 00bd 636F 6D6D 		.string	"command_loop"
 1117      616E 645F 
 1117      6C6F 6F70 
 1117      00
 1118               	.LASF10:
 1119 00ca 7561 7274 		.string	"uart_buf"
 1119      5F62 7566 
 1119      00
 1120               	.global __do_copy_data
 1121               	.global __do_clear_bss
GAS LISTING C:\Users\alex\AppData\Local\Temp/cc0yDkA3.s 			page 22


DEFINED SYMBOLS
                            *ABS*:00000000 main.c
C:\Users\alex\AppData\Local\Temp/cc0yDkA3.s:2      *ABS*:0000003f __SREG__
C:\Users\alex\AppData\Local\Temp/cc0yDkA3.s:3      *ABS*:0000003e __SP_H__
C:\Users\alex\AppData\Local\Temp/cc0yDkA3.s:4      *ABS*:0000003d __SP_L__
C:\Users\alex\AppData\Local\Temp/cc0yDkA3.s:5      *ABS*:00000034 __CCP__
C:\Users\alex\AppData\Local\Temp/cc0yDkA3.s:6      *ABS*:00000000 __tmp_reg__
C:\Users\alex\AppData\Local\Temp/cc0yDkA3.s:7      *ABS*:00000001 __zero_reg__
C:\Users\alex\AppData\Local\Temp/cc0yDkA3.s:20     .data:00000000 values
C:\Users\alex\AppData\Local\Temp/cc0yDkA3.s:40     .text:00000000 command_loop
C:\Users\alex\AppData\Local\Temp/cc0yDkA3.s:302    .text:000001ba main
                            *COM*:00000002 vol
                            *COM*:00000002 ch
                            *COM*:00000002 bal

UNDEFINED SYMBOLS
uart_done
uart_printf
uart_buf
uart_putc
scpi_parse_line
uart_init
init_mcp3204
init_mcp4922
__do_copy_data
__do_clear_bss
