GAS LISTING C:\Users\alex\AppData\Local\Temp/ccrUWSCT.s 			page 1


   1               		.file	"scpi.c"
   2               	__SREG__ = 0x3f
   3               	__SP_H__ = 0x3e
   4               	__SP_L__ = 0x3d
   5               	__CCP__  = 0x34
   6               	__tmp_reg__ = 0
   7               	__zero_reg__ = 1
   8               		.section	.debug_abbrev,"",@progbits
   9               	.Ldebug_abbrev0:
  10               		.section	.debug_info,"",@progbits
  11               	.Ldebug_info0:
  12               		.section	.debug_line,"",@progbits
  13               	.Ldebug_line0:
  14               		.text
  15               	.Ltext0:
  16               	.global	scpi_parse_command
  17               		.type	scpi_parse_command, @function
  18               	scpi_parse_command:
  19               	.LFB4:
  20               	.LM1:
  21 0000 DF93      		push r29
  22 0002 CF93      		push r28
  23 0004 CDB7      		in r28,__SP_L__
  24 0006 DEB7      		in r29,__SP_H__
  25 0008 C555      		subi r28,lo8(-(-85))
  26 000a D040      		sbci r29,hi8(-(-85))
  27 000c 0FB6      		in __tmp_reg__,__SREG__
  28 000e F894      		cli
  29 0010 DEBF      		out __SP_H__,r29
  30 0012 0FBE      		out __SREG__,__tmp_reg__
  31 0014 CDBF      		out __SP_L__,r28
  32               	/* prologue: function */
  33               	/* frame size = 85 */
  34 0016 FE01      		movw r30,r28
  35 0018 EE5A      		subi r30,lo8(-(82))
  36 001a FF4F      		sbci r31,hi8(-(82))
  37 001c 9183      		std Z+1,r25
  38 001e 8083      		st Z,r24
  39 0020 FE01      		movw r30,r28
  40 0022 EC5A      		subi r30,lo8(-(84))
  41 0024 FF4F      		sbci r31,hi8(-(84))
  42 0026 7183      		std Z+1,r23
  43 0028 6083      		st Z,r22
  44               	.LM2:
  45 002a 1C86      		std Y+12,__zero_reg__
  46               	.LM3:
  47 002c 8FEF      		ldi r24,lo8(-1)
  48 002e 8B87      		std Y+11,r24
  49               	.LBB2:
  50               	.LM4:
  51 0030 8C85      		ldd r24,Y+12
  52 0032 882F      		mov r24,r24
  53 0034 90E0      		ldi r25,lo8(0)
  54 0036 880F      		lsl r24
  55 0038 991F      		rol r25
  56 003a 8050      		subi r24,lo8(-(keywords))
  57 003c 9040      		sbci r25,hi8(-(keywords))
GAS LISTING C:\Users\alex\AppData\Local\Temp/ccrUWSCT.s 			page 2


  58 003e 9887      		std Y+8,r25
  59 0040 8F83      		std Y+7,r24
  60 0042 8F81      		ldd r24,Y+7
  61 0044 9885      		ldd r25,Y+8
  62 0046 FC01      		movw r30,r24
  63               	/* #APP */
  64               	 ;  46 "scpi.c" 1
  65 0048 8591      		lpm r24, Z+
  66 004a 9491      		lpm r25, Z
  67               		
  68               	 ;  0 "" 2
  69               	/* #NOAPP */
  70 004c 9E83      		std Y+6,r25
  71 004e 8D83      		std Y+5,r24
  72 0050 F887      		std Y+8,r31
  73 0052 EF83      		std Y+7,r30
  74 0054 8D81      		ldd r24,Y+5
  75 0056 9E81      		ldd r25,Y+6
  76               	.LBE2:
  77 0058 9A87      		std Y+10,r25
  78 005a 8987      		std Y+9,r24
  79 005c 00C0      		rjmp .L2
  80               	.L9:
  81               	.LM5:
  82 005e CE01      		movw r24,r28
  83 0060 4296      		adiw r24,18
  84 0062 2985      		ldd r18,Y+9
  85 0064 3A85      		ldd r19,Y+10
  86 0066 B901      		movw r22,r18
  87 0068 0E94 0000 		call strcpy_P
  88               	.LM6:
  89 006c CE01      		movw r24,r28
  90 006e 4296      		adiw r24,18
  91 0070 0E94 0000 		call strlen
  92 0074 8E87      		std Y+14,r24
  93               	.LM7:
  94 0076 188A      		std Y+16,__zero_reg__
  95               	.LM8:
  96 0078 198A      		std Y+17,__zero_reg__
  97 007a 00C0      		rjmp .L3
  98               	.L5:
  99               	.LM9:
 100 007c 8989      		ldd r24,Y+17
 101 007e 282F      		mov r18,r24
 102 0080 30E0      		ldi r19,lo8(0)
 103 0082 CE01      		movw r24,r28
 104 0084 4296      		adiw r24,18
 105 0086 FC01      		movw r30,r24
 106 0088 E20F      		add r30,r18
 107 008a F31F      		adc r31,r19
 108 008c 8081      		ld r24,Z
 109 008e 8F87      		std Y+15,r24
 110               	.LM10:
 111 0090 8F85      		ldd r24,Y+15
 112 0092 882F      		mov r24,r24
 113 0094 90E0      		ldi r25,lo8(0)
 114 0096 0E94 0000 		call islower
GAS LISTING C:\Users\alex\AppData\Local\Temp/ccrUWSCT.s 			page 3


 115 009a 0097      		sbiw r24,0
 116 009c 01F4      		brne .L4
 117               	.LM11:
 118 009e 8889      		ldd r24,Y+16
 119 00a0 282F      		mov r18,r24
 120 00a2 30E0      		ldi r19,lo8(0)
 121 00a4 CE01      		movw r24,r28
 122 00a6 C296      		adiw r24,50
 123 00a8 FC01      		movw r30,r24
 124 00aa E20F      		add r30,r18
 125 00ac F31F      		adc r31,r19
 126 00ae 8F85      		ldd r24,Y+15
 127 00b0 8083      		st Z,r24
 128               	.LM12:
 129 00b2 8889      		ldd r24,Y+16
 130 00b4 8F5F      		subi r24,lo8(-(1))
 131 00b6 888B      		std Y+16,r24
 132               	.L4:
 133               	.LM13:
 134 00b8 8989      		ldd r24,Y+17
 135 00ba 8F5F      		subi r24,lo8(-(1))
 136 00bc 898B      		std Y+17,r24
 137               	.L3:
 138 00be 9989      		ldd r25,Y+17
 139 00c0 8E85      		ldd r24,Y+14
 140 00c2 9817      		cp r25,r24
 141 00c4 00F0      		brlo .L5
 142               	.LM14:
 143 00c6 8889      		ldd r24,Y+16
 144 00c8 8D87      		std Y+13,r24
 145               	.LM15:
 146 00ca 8889      		ldd r24,Y+16
 147 00cc 282F      		mov r18,r24
 148 00ce 30E0      		ldi r19,lo8(0)
 149 00d0 CE01      		movw r24,r28
 150 00d2 C296      		adiw r24,50
 151 00d4 FC01      		movw r30,r24
 152 00d6 E20F      		add r30,r18
 153 00d8 F31F      		adc r31,r19
 154 00da 80E2      		ldi r24,lo8(32)
 155 00dc 8083      		st Z,r24
 156               	.LM16:
 157 00de 8889      		ldd r24,Y+16
 158 00e0 882F      		mov r24,r24
 159 00e2 90E0      		ldi r25,lo8(0)
 160 00e4 9C01      		movw r18,r24
 161 00e6 2F5F      		subi r18,lo8(-(1))
 162 00e8 3F4F      		sbci r19,hi8(-(1))
 163 00ea CE01      		movw r24,r28
 164 00ec C296      		adiw r24,50
 165 00ee FC01      		movw r30,r24
 166 00f0 E20F      		add r30,r18
 167 00f2 F31F      		adc r31,r19
 168 00f4 1082      		st Z,__zero_reg__
 169               	.LM17:
 170 00f6 8E85      		ldd r24,Y+14
 171 00f8 482F      		mov r20,r24
GAS LISTING C:\Users\alex\AppData\Local\Temp/ccrUWSCT.s 			page 4


 172 00fa 50E0      		ldi r21,lo8(0)
 173 00fc CE01      		movw r24,r28
 174 00fe 4296      		adiw r24,18
 175 0100 FE01      		movw r30,r28
 176 0102 EE5A      		subi r30,lo8(-(82))
 177 0104 FF4F      		sbci r31,hi8(-(82))
 178 0106 2081      		ld r18,Z
 179 0108 3181      		ldd r19,Z+1
 180 010a B901      		movw r22,r18
 181 010c 0E94 0000 		call strncasecmp
 182 0110 0097      		sbiw r24,0
 183 0112 01F4      		brne .L6
 184               	.LM18:
 185 0114 8C85      		ldd r24,Y+12
 186 0116 8B87      		std Y+11,r24
 187               	.LM19:
 188 0118 8E85      		ldd r24,Y+14
 189 011a 282F      		mov r18,r24
 190 011c 30E0      		ldi r19,lo8(0)
 191 011e FE01      		movw r30,r28
 192 0120 EE5A      		subi r30,lo8(-(82))
 193 0122 FF4F      		sbci r31,hi8(-(82))
 194 0124 8081      		ld r24,Z
 195 0126 9181      		ldd r25,Z+1
 196 0128 820F      		add r24,r18
 197 012a 931F      		adc r25,r19
 198 012c FE01      		movw r30,r28
 199 012e EC5A      		subi r30,lo8(-(84))
 200 0130 FF4F      		sbci r31,hi8(-(84))
 201 0132 0190      		ld __tmp_reg__,Z+
 202 0134 F081      		ld r31,Z
 203 0136 E02D      		mov r30,__tmp_reg__
 204 0138 9183      		std Z+1,r25
 205 013a 8083      		st Z,r24
 206 013c 00C0      		rjmp .L7
 207               	.L6:
 208               	.LM20:
 209 013e 8D85      		ldd r24,Y+13
 210 0140 482F      		mov r20,r24
 211 0142 50E0      		ldi r21,lo8(0)
 212 0144 CE01      		movw r24,r28
 213 0146 C296      		adiw r24,50
 214 0148 FE01      		movw r30,r28
 215 014a EE5A      		subi r30,lo8(-(82))
 216 014c FF4F      		sbci r31,hi8(-(82))
 217 014e 2081      		ld r18,Z
 218 0150 3181      		ldd r19,Z+1
 219 0152 B901      		movw r22,r18
 220 0154 0E94 0000 		call strncasecmp
 221 0158 0097      		sbiw r24,0
 222 015a 01F4      		brne .L8
 223               	.LM21:
 224 015c 8C85      		ldd r24,Y+12
 225 015e 8B87      		std Y+11,r24
 226               	.LM22:
 227 0160 8D85      		ldd r24,Y+13
 228 0162 282F      		mov r18,r24
GAS LISTING C:\Users\alex\AppData\Local\Temp/ccrUWSCT.s 			page 5


 229 0164 30E0      		ldi r19,lo8(0)
 230 0166 FE01      		movw r30,r28
 231 0168 EE5A      		subi r30,lo8(-(82))
 232 016a FF4F      		sbci r31,hi8(-(82))
 233 016c 8081      		ld r24,Z
 234 016e 9181      		ldd r25,Z+1
 235 0170 820F      		add r24,r18
 236 0172 931F      		adc r25,r19
 237 0174 FE01      		movw r30,r28
 238 0176 EC5A      		subi r30,lo8(-(84))
 239 0178 FF4F      		sbci r31,hi8(-(84))
 240 017a 0190      		ld __tmp_reg__,Z+
 241 017c F081      		ld r31,Z
 242 017e E02D      		mov r30,__tmp_reg__
 243 0180 9183      		std Z+1,r25
 244 0182 8083      		st Z,r24
 245 0184 00C0      		rjmp .L7
 246               	.L8:
 247               	.LM23:
 248 0186 8C85      		ldd r24,Y+12
 249 0188 8F5F      		subi r24,lo8(-(1))
 250 018a 8C87      		std Y+12,r24
 251               	.LBB3:
 252               	.LM24:
 253 018c 8C85      		ldd r24,Y+12
 254 018e 882F      		mov r24,r24
 255 0190 90E0      		ldi r25,lo8(0)
 256 0192 880F      		lsl r24
 257 0194 991F      		rol r25
 258 0196 8050      		subi r24,lo8(-(keywords))
 259 0198 9040      		sbci r25,hi8(-(keywords))
 260 019a 9C83      		std Y+4,r25
 261 019c 8B83      		std Y+3,r24
 262 019e 8B81      		ldd r24,Y+3
 263 01a0 9C81      		ldd r25,Y+4
 264 01a2 FC01      		movw r30,r24
 265               	/* #APP */
 266               	 ;  83 "scpi.c" 1
 267 01a4 8591      		lpm r24, Z+
 268 01a6 9491      		lpm r25, Z
 269               		
 270               	 ;  0 "" 2
 271               	/* #NOAPP */
 272 01a8 9A83      		std Y+2,r25
 273 01aa 8983      		std Y+1,r24
 274 01ac FC83      		std Y+4,r31
 275 01ae EB83      		std Y+3,r30
 276 01b0 8981      		ldd r24,Y+1
 277 01b2 9A81      		ldd r25,Y+2
 278               	.LBE3:
 279 01b4 9A87      		std Y+10,r25
 280 01b6 8987      		std Y+9,r24
 281               	.L2:
 282               	.LM25:
 283 01b8 8985      		ldd r24,Y+9
 284 01ba 9A85      		ldd r25,Y+10
 285 01bc 0097      		sbiw r24,0
GAS LISTING C:\Users\alex\AppData\Local\Temp/ccrUWSCT.s 			page 6


 286 01be 01F0      		breq .+2
 287 01c0 00C0      		rjmp .L9
 288               	.L7:
 289               	.LM26:
 290 01c2 8B85      		ldd r24,Y+11
 291 01c4 882F      		mov r24,r24
 292 01c6 90E0      		ldi r25,lo8(0)
 293               	/* epilogue start */
 294               	.LM27:
 295 01c8 CB5A      		subi r28,lo8(-(85))
 296 01ca DF4F      		sbci r29,hi8(-(85))
 297 01cc 0FB6      		in __tmp_reg__,__SREG__
 298 01ce F894      		cli
 299 01d0 DEBF      		out __SP_H__,r29
 300 01d2 0FBE      		out __SREG__,__tmp_reg__
 301 01d4 CDBF      		out __SP_L__,r28
 302 01d6 CF91      		pop r28
 303 01d8 DF91      		pop r29
 304 01da 0895      		ret
 305               	.LFE4:
 306               		.size	scpi_parse_command, .-scpi_parse_command
 307               		.data
 308               	.LC0:
 309 0000 7363 7069 		.string	"scpi_parse_line:%d s2:[%s]\r\n"
 309      5F70 6172 
 309      7365 5F6C 
 309      696E 653A 
 309      2564 2073 
 310               	.LC1:
 311 001d 4552 524F 		.string	"ERROR: unknown command"
 311      523A 2075 
 311      6E6B 6E6F 
 311      776E 2063 
 311      6F6D 6D61 
 312               	.LC2:
 313 0034 4552 524F 		.string	"ERROR excuting cmd: %d\r\n"
 313      5220 6578 
 313      6375 7469 
 313      6E67 2063 
 313      6D64 3A20 
 314               	.LC3:
 315 004d 6C69 6E65 		.string	"line unterminated"
 315      2075 6E74 
 315      6572 6D69 
 315      6E61 7465 
 315      6400 
 316               	.LC4:
 317 005f 696E 7465 		.string	"integer overrange"
 317      6765 7220 
 317      6F76 6572 
 317      7261 6E67 
 317      6500 
 318               	.LC5:
 319 0071 6C6F 6E67 		.string	"long overrange"
 319      206F 7665 
 319      7272 616E 
 319      6765 00
GAS LISTING C:\Users\alex\AppData\Local\Temp/ccrUWSCT.s 			page 7


 320               	.LC6:
 321 0080 766F 6C74 		.string	"voltage out of range (0..512)"
 321      6167 6520 
 321      6F75 7420 
 321      6F66 2072 
 321      616E 6765 
 322               	.LC7:
 323 009e 6375 7272 		.string	"current out of range (0..2.0)"
 323      656E 7420 
 323      6F75 7420 
 323      6F66 2072 
 323      616E 6765 
 324               	.LC8:
 325 00bc 6F76 7020 		.string	"ovp out of range (0..512)"
 325      6F75 7420 
 325      6F66 2072 
 325      616E 6765 
 325      2028 302E 
 326               	.LC9:
 327 00d6 7374 616E 		.string	"standby: only 1 or 0"
 327      6462 793A 
 327      206F 6E6C 
 327      7920 3120 
 327      6F72 2030 
 328               	.LC10:
 329 00eb 756E 6B6E 		.string	"unknown error (code %d)"
 329      6F77 6E20 
 329      6572 726F 
 329      7220 2863 
 329      6F64 6520 
 330               	.LC11:
 331 0103 0D0A 00   		.string	"\r\n"
 332               		.text
 333               	.global	scpi_parse_line
 334               		.type	scpi_parse_line, @function
 335               	scpi_parse_line:
 336               	.LFB5:
 337               	.LM28:
 338 01dc DF93      		push r29
 339 01de CF93      		push r28
 340 01e0 CDB7      		in r28,__SP_L__
 341 01e2 DEB7      		in r29,__SP_H__
 342 01e4 2A97      		sbiw r28,10
 343 01e6 0FB6      		in __tmp_reg__,__SREG__
 344 01e8 F894      		cli
 345 01ea DEBF      		out __SP_H__,r29
 346 01ec 0FBE      		out __SREG__,__tmp_reg__
 347 01ee CDBF      		out __SP_L__,r28
 348               	/* prologue: function */
 349               	/* frame size = 10 */
 350 01f0 9E83      		std Y+6,r25
 351 01f2 8D83      		std Y+5,r24
 352               	.LM29:
 353 01f4 8D81      		ldd r24,Y+5
 354 01f6 9E81      		ldd r25,Y+6
 355 01f8 9E01      		movw r18,r28
 356 01fa 2D5F      		subi r18,lo8(-(3))
GAS LISTING C:\Users\alex\AppData\Local\Temp/ccrUWSCT.s 			page 8


 357 01fc 3F4F      		sbci r19,hi8(-(3))
 358 01fe B901      		movw r22,r18
 359 0200 0E94 0000 		call scpi_parse_command
 360 0204 8983      		std Y+1,r24
 361               	.LM30:
 362 0206 8981      		ldd r24,Y+1
 363 0208 282F      		mov r18,r24
 364 020a 30E0      		ldi r19,lo8(0)
 365 020c 4B81      		ldd r20,Y+3
 366 020e 5C81      		ldd r21,Y+4
 367 0210 00D0      		rcall .
 368 0212 00D0      		rcall .
 369 0214 00D0      		rcall .
 370 0216 EDB7      		in r30,__SP_L__
 371 0218 FEB7      		in r31,__SP_H__
 372 021a 3196      		adiw r30,1
 373 021c 80E0      		ldi r24,lo8(.LC0)
 374 021e 90E0      		ldi r25,hi8(.LC0)
 375 0220 9183      		std Z+1,r25
 376 0222 8083      		st Z,r24
 377 0224 3383      		std Z+3,r19
 378 0226 2283      		std Z+2,r18
 379 0228 5583      		std Z+5,r21
 380 022a 4483      		std Z+4,r20
 381 022c 0E94 0000 		call uart_printf
 382 0230 2DB7      		in r18,__SP_L__
 383 0232 3EB7      		in r19,__SP_H__
 384 0234 2A5F      		subi r18,lo8(-(6))
 385 0236 3F4F      		sbci r19,hi8(-(6))
 386 0238 0FB6      		in __tmp_reg__,__SREG__
 387 023a F894      		cli
 388 023c 3EBF      		out __SP_H__,r19
 389 023e 0FBE      		out __SREG__,__tmp_reg__
 390 0240 2DBF      		out __SP_L__,r18
 391               	.LM31:
 392 0242 8981      		ldd r24,Y+1
 393 0244 8F3F      		cpi r24,lo8(-1)
 394 0246 01F4      		brne .L12
 395               	.LM32:
 396 0248 00D0      		rcall .
 397 024a EDB7      		in r30,__SP_L__
 398 024c FEB7      		in r31,__SP_H__
 399 024e 3196      		adiw r30,1
 400 0250 80E0      		ldi r24,lo8(.LC1)
 401 0252 90E0      		ldi r25,hi8(.LC1)
 402 0254 9183      		std Z+1,r25
 403 0256 8083      		st Z,r24
 404 0258 0E94 0000 		call uart_printf
 405 025c 0F90      		pop __tmp_reg__
 406 025e 0F90      		pop __tmp_reg__
 407               	.LM33:
 408 0260 8FE0      		ldi r24,lo8(15)
 409 0262 90E0      		ldi r25,hi8(15)
 410 0264 9A87      		std Y+10,r25
 411 0266 8987      		std Y+9,r24
 412 0268 00C0      		rjmp .L13
 413               	.L12:
GAS LISTING C:\Users\alex\AppData\Local\Temp/ccrUWSCT.s 			page 9


 414               	.LM34:
 415 026a 8981      		ldd r24,Y+1
 416 026c 8F3F      		cpi r24,lo8(-1)
 417 026e 01F0      		breq .L14
 418               	.LM35:
 419 0270 2B81      		ldd r18,Y+3
 420 0272 3C81      		ldd r19,Y+4
 421 0274 8981      		ldd r24,Y+1
 422 0276 B901      		movw r22,r18
 423 0278 0E94 0000 		call scpi_function
 424 027c 8A83      		std Y+2,r24
 425               	.L14:
 426               	.LM36:
 427 027e 8A81      		ldd r24,Y+2
 428 0280 8823      		tst r24
 429 0282 01F4      		brne .+2
 430 0284 00C0      		rjmp .L15
 431               	.LM37:
 432 0286 8981      		ldd r24,Y+1
 433 0288 482F      		mov r20,r24
 434 028a 50E0      		ldi r21,lo8(0)
 435 028c 8A81      		ldd r24,Y+2
 436 028e 282F      		mov r18,r24
 437 0290 30E0      		ldi r19,lo8(0)
 438 0292 00D0      		rcall .
 439 0294 00D0      		rcall .
 440 0296 00D0      		rcall .
 441 0298 EDB7      		in r30,__SP_L__
 442 029a FEB7      		in r31,__SP_H__
 443 029c 3196      		adiw r30,1
 444 029e 80E0      		ldi r24,lo8(.LC2)
 445 02a0 90E0      		ldi r25,hi8(.LC2)
 446 02a2 9183      		std Z+1,r25
 447 02a4 8083      		st Z,r24
 448 02a6 5383      		std Z+3,r21
 449 02a8 4283      		std Z+2,r20
 450 02aa 3583      		std Z+5,r19
 451 02ac 2483      		std Z+4,r18
 452 02ae 0E94 0000 		call uart_printf
 453 02b2 2DB7      		in r18,__SP_L__
 454 02b4 3EB7      		in r19,__SP_H__
 455 02b6 2A5F      		subi r18,lo8(-(6))
 456 02b8 3F4F      		sbci r19,hi8(-(6))
 457 02ba 0FB6      		in __tmp_reg__,__SREG__
 458 02bc F894      		cli
 459 02be 3EBF      		out __SP_H__,r19
 460 02c0 0FBE      		out __SREG__,__tmp_reg__
 461 02c2 2DBF      		out __SP_L__,r18
 462               	.LM38:
 463 02c4 8A81      		ldd r24,Y+2
 464 02c6 282F      		mov r18,r24
 465 02c8 30E0      		ldi r19,lo8(0)
 466 02ca 3887      		std Y+8,r19
 467 02cc 2F83      		std Y+7,r18
 468 02ce 8F81      		ldd r24,Y+7
 469 02d0 9885      		ldd r25,Y+8
 470 02d2 8031      		cpi r24,16
GAS LISTING C:\Users\alex\AppData\Local\Temp/ccrUWSCT.s 			page 10


 471 02d4 9105      		cpc r25,__zero_reg__
 472 02d6 01F4      		brne .+2
 473 02d8 00C0      		rjmp .L20
 474 02da 2F81      		ldd r18,Y+7
 475 02dc 3885      		ldd r19,Y+8
 476 02de 2131      		cpi r18,17
 477 02e0 3105      		cpc r19,__zero_reg__
 478 02e2 04F4      		brge .L24
 479 02e4 8F81      		ldd r24,Y+7
 480 02e6 9885      		ldd r25,Y+8
 481 02e8 8230      		cpi r24,2
 482 02ea 9105      		cpc r25,__zero_reg__
 483 02ec 01F0      		breq .L18
 484 02ee 2F81      		ldd r18,Y+7
 485 02f0 3885      		ldd r19,Y+8
 486 02f2 2330      		cpi r18,3
 487 02f4 3105      		cpc r19,__zero_reg__
 488 02f6 01F0      		breq .L19
 489 02f8 8F81      		ldd r24,Y+7
 490 02fa 9885      		ldd r25,Y+8
 491 02fc 8130      		cpi r24,1
 492 02fe 9105      		cpc r25,__zero_reg__
 493 0300 01F0      		breq .L17
 494 0302 00C0      		rjmp .L16
 495               	.L24:
 496 0304 2F81      		ldd r18,Y+7
 497 0306 3885      		ldd r19,Y+8
 498 0308 2231      		cpi r18,18
 499 030a 3105      		cpc r19,__zero_reg__
 500 030c 01F4      		brne .+2
 501 030e 00C0      		rjmp .L22
 502 0310 8F81      		ldd r24,Y+7
 503 0312 9885      		ldd r25,Y+8
 504 0314 8231      		cpi r24,18
 505 0316 9105      		cpc r25,__zero_reg__
 506 0318 04F0      		brlt .L21
 507 031a 2F81      		ldd r18,Y+7
 508 031c 3885      		ldd r19,Y+8
 509 031e 2331      		cpi r18,19
 510 0320 3105      		cpc r19,__zero_reg__
 511 0322 01F4      		brne .+2
 512 0324 00C0      		rjmp .L23
 513 0326 00C0      		rjmp .L16
 514               	.L17:
 515               	.LM39:
 516 0328 00D0      		rcall .
 517 032a EDB7      		in r30,__SP_L__
 518 032c FEB7      		in r31,__SP_H__
 519 032e 3196      		adiw r30,1
 520 0330 80E0      		ldi r24,lo8(.LC3)
 521 0332 90E0      		ldi r25,hi8(.LC3)
 522 0334 9183      		std Z+1,r25
 523 0336 8083      		st Z,r24
 524 0338 0E94 0000 		call uart_printf
 525 033c 0F90      		pop __tmp_reg__
 526 033e 0F90      		pop __tmp_reg__
 527 0340 00C0      		rjmp .L25
GAS LISTING C:\Users\alex\AppData\Local\Temp/ccrUWSCT.s 			page 11


 528               	.L18:
 529               	.LM40:
 530 0342 00D0      		rcall .
 531 0344 EDB7      		in r30,__SP_L__
 532 0346 FEB7      		in r31,__SP_H__
 533 0348 3196      		adiw r30,1
 534 034a 80E0      		ldi r24,lo8(.LC4)
 535 034c 90E0      		ldi r25,hi8(.LC4)
 536 034e 9183      		std Z+1,r25
 537 0350 8083      		st Z,r24
 538 0352 0E94 0000 		call uart_printf
 539 0356 0F90      		pop __tmp_reg__
 540 0358 0F90      		pop __tmp_reg__
 541 035a 00C0      		rjmp .L25
 542               	.L19:
 543               	.LM41:
 544 035c 00D0      		rcall .
 545 035e EDB7      		in r30,__SP_L__
 546 0360 FEB7      		in r31,__SP_H__
 547 0362 3196      		adiw r30,1
 548 0364 80E0      		ldi r24,lo8(.LC5)
 549 0366 90E0      		ldi r25,hi8(.LC5)
 550 0368 9183      		std Z+1,r25
 551 036a 8083      		st Z,r24
 552 036c 0E94 0000 		call uart_printf
 553 0370 0F90      		pop __tmp_reg__
 554 0372 0F90      		pop __tmp_reg__
 555 0374 00C0      		rjmp .L25
 556               	.L20:
 557               	.LM42:
 558 0376 00D0      		rcall .
 559 0378 EDB7      		in r30,__SP_L__
 560 037a FEB7      		in r31,__SP_H__
 561 037c 3196      		adiw r30,1
 562 037e 80E0      		ldi r24,lo8(.LC6)
 563 0380 90E0      		ldi r25,hi8(.LC6)
 564 0382 9183      		std Z+1,r25
 565 0384 8083      		st Z,r24
 566 0386 0E94 0000 		call uart_printf
 567 038a 0F90      		pop __tmp_reg__
 568 038c 0F90      		pop __tmp_reg__
 569 038e 00C0      		rjmp .L25
 570               	.L21:
 571               	.LM43:
 572 0390 00D0      		rcall .
 573 0392 EDB7      		in r30,__SP_L__
 574 0394 FEB7      		in r31,__SP_H__
 575 0396 3196      		adiw r30,1
 576 0398 80E0      		ldi r24,lo8(.LC7)
 577 039a 90E0      		ldi r25,hi8(.LC7)
 578 039c 9183      		std Z+1,r25
 579 039e 8083      		st Z,r24
 580 03a0 0E94 0000 		call uart_printf
 581 03a4 0F90      		pop __tmp_reg__
 582 03a6 0F90      		pop __tmp_reg__
 583 03a8 00C0      		rjmp .L25
 584               	.L22:
GAS LISTING C:\Users\alex\AppData\Local\Temp/ccrUWSCT.s 			page 12


 585               	.LM44:
 586 03aa 00D0      		rcall .
 587 03ac EDB7      		in r30,__SP_L__
 588 03ae FEB7      		in r31,__SP_H__
 589 03b0 3196      		adiw r30,1
 590 03b2 80E0      		ldi r24,lo8(.LC8)
 591 03b4 90E0      		ldi r25,hi8(.LC8)
 592 03b6 9183      		std Z+1,r25
 593 03b8 8083      		st Z,r24
 594 03ba 0E94 0000 		call uart_printf
 595 03be 0F90      		pop __tmp_reg__
 596 03c0 0F90      		pop __tmp_reg__
 597 03c2 00C0      		rjmp .L25
 598               	.L23:
 599               	.LM45:
 600 03c4 00D0      		rcall .
 601 03c6 EDB7      		in r30,__SP_L__
 602 03c8 FEB7      		in r31,__SP_H__
 603 03ca 3196      		adiw r30,1
 604 03cc 80E0      		ldi r24,lo8(.LC9)
 605 03ce 90E0      		ldi r25,hi8(.LC9)
 606 03d0 9183      		std Z+1,r25
 607 03d2 8083      		st Z,r24
 608 03d4 0E94 0000 		call uart_printf
 609 03d8 0F90      		pop __tmp_reg__
 610 03da 0F90      		pop __tmp_reg__
 611 03dc 00C0      		rjmp .L25
 612               	.L16:
 613               	.LM46:
 614 03de 8A81      		ldd r24,Y+2
 615 03e0 282F      		mov r18,r24
 616 03e2 30E0      		ldi r19,lo8(0)
 617 03e4 00D0      		rcall .
 618 03e6 00D0      		rcall .
 619 03e8 EDB7      		in r30,__SP_L__
 620 03ea FEB7      		in r31,__SP_H__
 621 03ec 3196      		adiw r30,1
 622 03ee 80E0      		ldi r24,lo8(.LC10)
 623 03f0 90E0      		ldi r25,hi8(.LC10)
 624 03f2 9183      		std Z+1,r25
 625 03f4 8083      		st Z,r24
 626 03f6 3383      		std Z+3,r19
 627 03f8 2283      		std Z+2,r18
 628 03fa 0E94 0000 		call uart_printf
 629 03fe 0F90      		pop __tmp_reg__
 630 0400 0F90      		pop __tmp_reg__
 631 0402 0F90      		pop __tmp_reg__
 632 0404 0F90      		pop __tmp_reg__
 633               	.L25:
 634               	.LM47:
 635 0406 00D0      		rcall .
 636 0408 EDB7      		in r30,__SP_L__
 637 040a FEB7      		in r31,__SP_H__
 638 040c 3196      		adiw r30,1
 639 040e 80E0      		ldi r24,lo8(.LC11)
 640 0410 90E0      		ldi r25,hi8(.LC11)
 641 0412 9183      		std Z+1,r25
GAS LISTING C:\Users\alex\AppData\Local\Temp/ccrUWSCT.s 			page 13


 642 0414 8083      		st Z,r24
 643 0416 0E94 0000 		call uart_printf
 644 041a 0F90      		pop __tmp_reg__
 645 041c 0F90      		pop __tmp_reg__
 646               	.L15:
 647               	.LM48:
 648 041e 8A81      		ldd r24,Y+2
 649 0420 282F      		mov r18,r24
 650 0422 30E0      		ldi r19,lo8(0)
 651 0424 3A87      		std Y+10,r19
 652 0426 2987      		std Y+9,r18
 653               	.L13:
 654 0428 8985      		ldd r24,Y+9
 655 042a 9A85      		ldd r25,Y+10
 656               	/* epilogue start */
 657               	.LM49:
 658 042c 2A96      		adiw r28,10
 659 042e 0FB6      		in __tmp_reg__,__SREG__
 660 0430 F894      		cli
 661 0432 DEBF      		out __SP_H__,r29
 662 0434 0FBE      		out __SREG__,__tmp_reg__
 663 0436 CDBF      		out __SP_L__,r28
 664 0438 CF91      		pop r28
 665 043a DF91      		pop r29
 666 043c 0895      		ret
 667               	.LFE5:
 668               		.size	scpi_parse_line, .-scpi_parse_line
 669               		.data
 670               	.LC12:
 671 0106 6765 745F 		.string	"get_digit: [%s]\r\n"
 671      6469 6769 
 671      743A 205B 
 671      2573 5D0D 
 671      0A00 
 672               		.text
 673               	.global	scpi_get_digit
 674               		.type	scpi_get_digit, @function
 675               	scpi_get_digit:
 676               	.LFB6:
 677               	.LM50:
 678 043e DF93      		push r29
 679 0440 CF93      		push r28
 680 0442 CDB7      		in r28,__SP_L__
 681 0444 DEB7      		in r29,__SP_H__
 682 0446 2997      		sbiw r28,9
 683 0448 0FB6      		in __tmp_reg__,__SREG__
 684 044a F894      		cli
 685 044c DEBF      		out __SP_H__,r29
 686 044e 0FBE      		out __SREG__,__tmp_reg__
 687 0450 CDBF      		out __SP_L__,r28
 688               	/* prologue: function */
 689               	/* frame size = 9 */
 690 0452 9D83      		std Y+5,r25
 691 0454 8C83      		std Y+4,r24
 692 0456 7F83      		std Y+7,r23
 693 0458 6E83      		std Y+6,r22
 694 045a 5987      		std Y+9,r21
GAS LISTING C:\Users\alex\AppData\Local\Temp/ccrUWSCT.s 			page 14


 695 045c 4887      		std Y+8,r20
 696               	.LM51:
 697 045e 1982      		std Y+1,__zero_reg__
 698               	.LM52:
 699 0460 8C81      		ldd r24,Y+4
 700 0462 9D81      		ldd r25,Y+5
 701 0464 9B83      		std Y+3,r25
 702 0466 8A83      		std Y+2,r24
 703               	.LM53:
 704 0468 00D0      		rcall .
 705 046a 00D0      		rcall .
 706 046c EDB7      		in r30,__SP_L__
 707 046e FEB7      		in r31,__SP_H__
 708 0470 3196      		adiw r30,1
 709 0472 80E0      		ldi r24,lo8(.LC12)
 710 0474 90E0      		ldi r25,hi8(.LC12)
 711 0476 9183      		std Z+1,r25
 712 0478 8083      		st Z,r24
 713 047a 8A81      		ldd r24,Y+2
 714 047c 9B81      		ldd r25,Y+3
 715 047e 9383      		std Z+3,r25
 716 0480 8283      		std Z+2,r24
 717 0482 0E94 0000 		call uart_printf
 718 0486 0F90      		pop __tmp_reg__
 719 0488 0F90      		pop __tmp_reg__
 720 048a 0F90      		pop __tmp_reg__
 721 048c 0F90      		pop __tmp_reg__
 722 048e 00C0      		rjmp .L28
 723               	.L29:
 724               	.LM54:
 725 0490 8A81      		ldd r24,Y+2
 726 0492 9B81      		ldd r25,Y+3
 727 0494 0196      		adiw r24,1
 728 0496 9B83      		std Y+3,r25
 729 0498 8A83      		std Y+2,r24
 730               	.L28:
 731 049a EA81      		ldd r30,Y+2
 732 049c FB81      		ldd r31,Y+3
 733 049e 8081      		ld r24,Z
 734 04a0 8032      		cpi r24,lo8(32)
 735 04a2 01F0      		breq .L29
 736               	.LM55:
 737 04a4 EA81      		ldd r30,Y+2
 738 04a6 FB81      		ldd r31,Y+3
 739 04a8 8081      		ld r24,Z
 740 04aa 882F      		mov r24,r24
 741 04ac 90E0      		ldi r25,lo8(0)
 742 04ae C097      		sbiw r24,48
 743 04b0 8A30      		cpi r24,10
 744 04b2 9105      		cpc r25,__zero_reg__
 745 04b4 00F4      		brsh .L30
 746               	.LM56:
 747 04b6 EA81      		ldd r30,Y+2
 748 04b8 FB81      		ldd r31,Y+3
 749 04ba 8081      		ld r24,Z
 750 04bc 8053      		subi r24,lo8(-(-48))
 751 04be 8983      		std Y+1,r24
GAS LISTING C:\Users\alex\AppData\Local\Temp/ccrUWSCT.s 			page 15


 752               	.LM57:
 753 04c0 8A81      		ldd r24,Y+2
 754 04c2 9B81      		ldd r25,Y+3
 755 04c4 0196      		adiw r24,1
 756 04c6 9B83      		std Y+3,r25
 757 04c8 8A83      		std Y+2,r24
 758               	.L30:
 759               	.LM58:
 760 04ca E885      		ldd r30,Y+8
 761 04cc F985      		ldd r31,Y+9
 762 04ce 8A81      		ldd r24,Y+2
 763 04d0 9B81      		ldd r25,Y+3
 764 04d2 9183      		std Z+1,r25
 765 04d4 8083      		st Z,r24
 766               	.LM59:
 767 04d6 EE81      		ldd r30,Y+6
 768 04d8 FF81      		ldd r31,Y+7
 769 04da 1182      		std Z+1,__zero_reg__
 770 04dc 1082      		st Z,__zero_reg__
 771               	.LM60:
 772 04de 8981      		ldd r24,Y+1
 773               	/* epilogue start */
 774               	.LM61:
 775 04e0 2996      		adiw r28,9
 776 04e2 0FB6      		in __tmp_reg__,__SREG__
 777 04e4 F894      		cli
 778 04e6 DEBF      		out __SP_H__,r29
 779 04e8 0FBE      		out __SREG__,__tmp_reg__
 780 04ea CDBF      		out __SP_L__,r28
 781 04ec CF91      		pop r28
 782 04ee DF91      		pop r29
 783 04f0 0895      		ret
 784               	.LFE6:
 785               		.size	scpi_get_digit, .-scpi_get_digit
 786               	.global	scpi_check_buf_empty
 787               		.type	scpi_check_buf_empty, @function
 788               	scpi_check_buf_empty:
 789               	.LFB7:
 790               	.LM62:
 791 04f2 DF93      		push r29
 792 04f4 CF93      		push r28
 793 04f6 00D0      		rcall .
 794 04f8 00D0      		rcall .
 795 04fa 00D0      		rcall .
 796 04fc CDB7      		in r28,__SP_L__
 797 04fe DEB7      		in r29,__SP_H__
 798               	/* prologue: function */
 799               	/* frame size = 6 */
 800 0500 9C83      		std Y+4,r25
 801 0502 8B83      		std Y+3,r24
 802               	.LM63:
 803 0504 8B81      		ldd r24,Y+3
 804 0506 9C81      		ldd r25,Y+4
 805 0508 9A83      		std Y+2,r25
 806 050a 8983      		std Y+1,r24
 807 050c 00C0      		rjmp .L33
 808               	.L34:
GAS LISTING C:\Users\alex\AppData\Local\Temp/ccrUWSCT.s 			page 16


 809               	.LM64:
 810 050e 8981      		ldd r24,Y+1
 811 0510 9A81      		ldd r25,Y+2
 812 0512 0196      		adiw r24,1
 813 0514 9A83      		std Y+2,r25
 814 0516 8983      		std Y+1,r24
 815               	.L33:
 816 0518 E981      		ldd r30,Y+1
 817 051a FA81      		ldd r31,Y+2
 818 051c 8081      		ld r24,Z
 819 051e 8032      		cpi r24,lo8(32)
 820 0520 01F0      		breq .L34
 821               	.LM65:
 822 0522 E981      		ldd r30,Y+1
 823 0524 FA81      		ldd r31,Y+2
 824 0526 8081      		ld r24,Z
 825 0528 8A30      		cpi r24,lo8(10)
 826 052a 01F0      		breq .L35
 827 052c E981      		ldd r30,Y+1
 828 052e FA81      		ldd r31,Y+2
 829 0530 8081      		ld r24,Z
 830 0532 8823      		tst r24
 831 0534 01F4      		brne .L36
 832               	.L35:
 833 0536 81E0      		ldi r24,lo8(1)
 834 0538 90E0      		ldi r25,hi8(1)
 835 053a 9E83      		std Y+6,r25
 836 053c 8D83      		std Y+5,r24
 837 053e 00C0      		rjmp .L37
 838               	.L36:
 839               	.LM66:
 840 0540 1E82      		std Y+6,__zero_reg__
 841 0542 1D82      		std Y+5,__zero_reg__
 842               	.L37:
 843 0544 8D81      		ldd r24,Y+5
 844 0546 9E81      		ldd r25,Y+6
 845               	/* epilogue start */
 846               	.LM67:
 847 0548 2696      		adiw r28,6
 848 054a 0FB6      		in __tmp_reg__,__SREG__
 849 054c F894      		cli
 850 054e DEBF      		out __SP_H__,r29
 851 0550 0FBE      		out __SREG__,__tmp_reg__
 852 0552 CDBF      		out __SP_L__,r28
 853 0554 CF91      		pop r28
 854 0556 DF91      		pop r29
 855 0558 0895      		ret
 856               	.LFE7:
 857               		.size	scpi_check_buf_empty, .-scpi_check_buf_empty
 858               	.global	scpi_get_value
 859               		.type	scpi_get_value, @function
 860               	scpi_get_value:
 861               	.LFB8:
 862               	.LM68:
 863 055a CF92      		push r12
 864 055c DF92      		push r13
 865 055e EF92      		push r14
GAS LISTING C:\Users\alex\AppData\Local\Temp/ccrUWSCT.s 			page 17


 866 0560 FF92      		push r15
 867 0562 0F93      		push r16
 868 0564 1F93      		push r17
 869 0566 DF93      		push r29
 870 0568 CF93      		push r28
 871 056a CDB7      		in r28,__SP_L__
 872 056c DEB7      		in r29,__SP_H__
 873 056e 6597      		sbiw r28,21
 874 0570 0FB6      		in __tmp_reg__,__SREG__
 875 0572 F894      		cli
 876 0574 DEBF      		out __SP_H__,r29
 877 0576 0FBE      		out __SREG__,__tmp_reg__
 878 0578 CDBF      		out __SP_L__,r28
 879               	/* prologue: function */
 880               	/* frame size = 21 */
 881 057a 9A87      		std Y+10,r25
 882 057c 8987      		std Y+9,r24
 883 057e 7C87      		std Y+12,r23
 884 0580 6B87      		std Y+11,r22
 885 0582 5E87      		std Y+14,r21
 886 0584 4D87      		std Y+13,r20
 887 0586 2F87      		std Y+15,r18
 888 0588 198B      		std Y+17,r17
 889 058a 088B      		std Y+16,r16
 890 058c CA8A      		std Y+18,r12
 891 058e DB8A      		std Y+19,r13
 892 0590 EC8A      		std Y+20,r14
 893 0592 FD8A      		std Y+21,r15
 894               	.LM69:
 895 0594 1B82      		std Y+3,__zero_reg__
 896 0596 1C82      		std Y+4,__zero_reg__
 897 0598 1D82      		std Y+5,__zero_reg__
 898 059a 1E82      		std Y+6,__zero_reg__
 899               	.LM70:
 900 059c 1A82      		std Y+2,__zero_reg__
 901               	.LM71:
 902 059e 81E0      		ldi r24,lo8(1)
 903 05a0 8983      		std Y+1,r24
 904               	.LM72:
 905 05a2 EB85      		ldd r30,Y+11
 906 05a4 FC85      		ldd r31,Y+12
 907 05a6 1182      		std Z+1,__zero_reg__
 908 05a8 1082      		st Z,__zero_reg__
 909               	.LM73:
 910 05aa 8985      		ldd r24,Y+9
 911 05ac 9A85      		ldd r25,Y+10
 912 05ae 9887      		std Y+8,r25
 913 05b0 8F83      		std Y+7,r24
 914 05b2 00C0      		rjmp .L40
 915               	.L41:
 916               	.LM74:
 917 05b4 8F81      		ldd r24,Y+7
 918 05b6 9885      		ldd r25,Y+8
 919 05b8 0196      		adiw r24,1
 920 05ba 9887      		std Y+8,r25
 921 05bc 8F83      		std Y+7,r24
 922               	.L40:
GAS LISTING C:\Users\alex\AppData\Local\Temp/ccrUWSCT.s 			page 18


 923 05be EF81      		ldd r30,Y+7
 924 05c0 F885      		ldd r31,Y+8
 925 05c2 8081      		ld r24,Z
 926 05c4 8032      		cpi r24,lo8(32)
 927 05c6 01F0      		breq .L41
 928               	.LM75:
 929 05c8 81E0      		ldi r24,lo8(1)
 930 05ca 8983      		std Y+1,r24
 931               	.LM76:
 932 05cc EF81      		ldd r30,Y+7
 933 05ce F885      		ldd r31,Y+8
 934 05d0 8081      		ld r24,Z
 935 05d2 8D32      		cpi r24,lo8(45)
 936 05d4 01F4      		brne .L42
 937 05d6 8FEF      		ldi r24,lo8(-1)
 938 05d8 8983      		std Y+1,r24
 939 05da 8F81      		ldd r24,Y+7
 940 05dc 9885      		ldd r25,Y+8
 941 05de 0196      		adiw r24,1
 942 05e0 9887      		std Y+8,r25
 943 05e2 8F83      		std Y+7,r24
 944               	.L42:
 945               	.LM77:
 946 05e4 EF81      		ldd r30,Y+7
 947 05e6 F885      		ldd r31,Y+8
 948 05e8 8081      		ld r24,Z
 949 05ea 8B32      		cpi r24,lo8(43)
 950 05ec 01F4      		brne .L44
 951 05ee 8F81      		ldd r24,Y+7
 952 05f0 9885      		ldd r25,Y+8
 953 05f2 0196      		adiw r24,1
 954 05f4 9887      		std Y+8,r25
 955 05f6 8F83      		std Y+7,r24
 956 05f8 00C0      		rjmp .L44
 957               	.L46:
 958               	.LM78:
 959 05fa 8B81      		ldd r24,Y+3
 960 05fc 9C81      		ldd r25,Y+4
 961 05fe AD81      		ldd r26,Y+5
 962 0600 BE81      		ldd r27,Y+6
 963 0602 2AE0      		ldi r18,lo8(10)
 964 0604 30E0      		ldi r19,hi8(10)
 965 0606 40E0      		ldi r20,hlo8(10)
 966 0608 50E0      		ldi r21,hhi8(10)
 967 060a BC01      		movw r22,r24
 968 060c CD01      		movw r24,r26
 969 060e 0E94 0000 		call __mulsi3
 970 0612 9B01      		movw r18,r22
 971 0614 AC01      		movw r20,r24
 972 0616 EF81      		ldd r30,Y+7
 973 0618 F885      		ldd r31,Y+8
 974 061a 8081      		ld r24,Z
 975 061c 882F      		mov r24,r24
 976 061e 90E0      		ldi r25,lo8(0)
 977 0620 C097      		sbiw r24,48
 978 0622 AA27      		clr r26
 979 0624 97FD      		sbrc r25,7
GAS LISTING C:\Users\alex\AppData\Local\Temp/ccrUWSCT.s 			page 19


 980 0626 A095      		com r26
 981 0628 BA2F      		mov r27,r26
 982 062a 820F      		add r24,r18
 983 062c 931F      		adc r25,r19
 984 062e A41F      		adc r26,r20
 985 0630 B51F      		adc r27,r21
 986 0632 8B83      		std Y+3,r24
 987 0634 9C83      		std Y+4,r25
 988 0636 AD83      		std Y+5,r26
 989 0638 BE83      		std Y+6,r27
 990               	.LM79:
 991 063a 8A81      		ldd r24,Y+2
 992 063c 8F5F      		subi r24,lo8(-(1))
 993 063e 8A83      		std Y+2,r24
 994               	.LM80:
 995 0640 8F81      		ldd r24,Y+7
 996 0642 9885      		ldd r25,Y+8
 997 0644 0196      		adiw r24,1
 998 0646 9887      		std Y+8,r25
 999 0648 8F83      		std Y+7,r24
 1000               	.LM81:
 1001 064a 9A81      		ldd r25,Y+2
 1002 064c 8F85      		ldd r24,Y+15
 1003 064e 8917      		cp r24,r25
 1004 0650 00F4      		brsh .L44
 1005               	.LM82:
 1006 0652 EB85      		ldd r30,Y+11
 1007 0654 FC85      		ldd r31,Y+12
 1008 0656 8889      		ldd r24,Y+16
 1009 0658 9989      		ldd r25,Y+17
 1010 065a 9183      		std Z+1,r25
 1011 065c 8083      		st Z,r24
 1012 065e 00C0      		rjmp .L45
 1013               	.L44:
 1014               	.LM83:
 1015 0660 EF81      		ldd r30,Y+7
 1016 0662 F885      		ldd r31,Y+8
 1017 0664 8081      		ld r24,Z
 1018 0666 882F      		mov r24,r24
 1019 0668 90E0      		ldi r25,lo8(0)
 1020 066a C097      		sbiw r24,48
 1021 066c 8A30      		cpi r24,10
 1022 066e 9105      		cpc r25,__zero_reg__
 1023 0670 00F0      		brlo .L46
 1024               	.L45:
 1025               	.LM84:
 1026 0672 8A89      		ldd r24,Y+18
 1027 0674 9B89      		ldd r25,Y+19
 1028 0676 AC89      		ldd r26,Y+20
 1029 0678 BD89      		ldd r27,Y+21
 1030 067a 0097      		sbiw r24,0
 1031 067c A105      		cpc r26,__zero_reg__
 1032 067e B105      		cpc r27,__zero_reg__
 1033 0680 01F0      		breq .L47
 1034 0682 2B81      		ldd r18,Y+3
 1035 0684 3C81      		ldd r19,Y+4
 1036 0686 4D81      		ldd r20,Y+5
GAS LISTING C:\Users\alex\AppData\Local\Temp/ccrUWSCT.s 			page 20


 1037 0688 5E81      		ldd r21,Y+6
 1038 068a 8A89      		ldd r24,Y+18
 1039 068c 9B89      		ldd r25,Y+19
 1040 068e AC89      		ldd r26,Y+20
 1041 0690 BD89      		ldd r27,Y+21
 1042 0692 8217      		cp r24,r18
 1043 0694 9307      		cpc r25,r19
 1044 0696 A407      		cpc r26,r20
 1045 0698 B507      		cpc r27,r21
 1046 069a 04F4      		brge .L47
 1047 069c EB85      		ldd r30,Y+11
 1048 069e FC85      		ldd r31,Y+12
 1049 06a0 8889      		ldd r24,Y+16
 1050 06a2 9989      		ldd r25,Y+17
 1051 06a4 9183      		std Z+1,r25
 1052 06a6 8083      		st Z,r24
 1053               	.L47:
 1054               	.LM85:
 1055 06a8 8981      		ldd r24,Y+1
 1056 06aa 8F3F      		cpi r24,lo8(-1)
 1057 06ac 01F4      		brne .L48
 1058 06ae 8B81      		ldd r24,Y+3
 1059 06b0 9C81      		ldd r25,Y+4
 1060 06b2 AD81      		ldd r26,Y+5
 1061 06b4 BE81      		ldd r27,Y+6
 1062 06b6 B095      		com r27
 1063 06b8 A095      		com r26
 1064 06ba 9095      		com r25
 1065 06bc 8195      		neg r24
 1066 06be 9F4F      		sbci r25,lo8(-1)
 1067 06c0 AF4F      		sbci r26,lo8(-1)
 1068 06c2 BF4F      		sbci r27,lo8(-1)
 1069 06c4 8B83      		std Y+3,r24
 1070 06c6 9C83      		std Y+4,r25
 1071 06c8 AD83      		std Y+5,r26
 1072 06ca BE83      		std Y+6,r27
 1073               	.L48:
 1074               	.LM86:
 1075 06cc ED85      		ldd r30,Y+13
 1076 06ce FE85      		ldd r31,Y+14
 1077 06d0 8F81      		ldd r24,Y+7
 1078 06d2 9885      		ldd r25,Y+8
 1079 06d4 9183      		std Z+1,r25
 1080 06d6 8083      		st Z,r24
 1081               	.LM87:
 1082 06d8 8B81      		ldd r24,Y+3
 1083 06da 9C81      		ldd r25,Y+4
 1084 06dc AD81      		ldd r26,Y+5
 1085 06de BE81      		ldd r27,Y+6
 1086               	.LM88:
 1087 06e0 BC01      		movw r22,r24
 1088 06e2 CD01      		movw r24,r26
 1089               	/* epilogue start */
 1090 06e4 6596      		adiw r28,21
 1091 06e6 0FB6      		in __tmp_reg__,__SREG__
 1092 06e8 F894      		cli
 1093 06ea DEBF      		out __SP_H__,r29
GAS LISTING C:\Users\alex\AppData\Local\Temp/ccrUWSCT.s 			page 21


 1094 06ec 0FBE      		out __SREG__,__tmp_reg__
 1095 06ee CDBF      		out __SP_L__,r28
 1096 06f0 CF91      		pop r28
 1097 06f2 DF91      		pop r29
 1098 06f4 1F91      		pop r17
 1099 06f6 0F91      		pop r16
 1100 06f8 FF90      		pop r15
 1101 06fa EF90      		pop r14
 1102 06fc DF90      		pop r13
 1103 06fe CF90      		pop r12
 1104 0700 0895      		ret
 1105               	.LFE8:
 1106               		.size	scpi_get_value, .-scpi_get_value
 1107               	.global	scpi_get_int
 1108               		.type	scpi_get_int, @function
 1109               	scpi_get_int:
 1110               	.LFB9:
 1111               	.LM89:
 1112 0702 CF92      		push r12
 1113 0704 DF92      		push r13
 1114 0706 EF92      		push r14
 1115 0708 FF92      		push r15
 1116 070a 0F93      		push r16
 1117 070c 1F93      		push r17
 1118 070e DF93      		push r29
 1119 0710 CF93      		push r28
 1120 0712 00D0      		rcall .
 1121 0714 00D0      		rcall .
 1122 0716 00D0      		rcall .
 1123 0718 CDB7      		in r28,__SP_L__
 1124 071a DEB7      		in r29,__SP_H__
 1125               	/* prologue: function */
 1126               	/* frame size = 6 */
 1127 071c 9A83      		std Y+2,r25
 1128 071e 8983      		std Y+1,r24
 1129 0720 7C83      		std Y+4,r23
 1130 0722 6B83      		std Y+3,r22
 1131 0724 5E83      		std Y+6,r21
 1132 0726 4D83      		std Y+5,r20
 1133               	.LM90:
 1134 0728 8981      		ldd r24,Y+1
 1135 072a 9A81      		ldd r25,Y+2
 1136 072c 2B81      		ldd r18,Y+3
 1137 072e 3C81      		ldd r19,Y+4
 1138 0730 4D81      		ldd r20,Y+5
 1139 0732 5E81      		ldd r21,Y+6
 1140 0734 B901      		movw r22,r18
 1141 0736 25E0      		ldi r18,lo8(5)
 1142 0738 02E0      		ldi r16,lo8(2)
 1143 073a 10E0      		ldi r17,hi8(2)
 1144 073c 0F2E      		mov __tmp_reg__,r31
 1145 073e FFEF      		ldi r31,lo8(32767)
 1146 0740 CF2E      		mov r12,r31
 1147 0742 FFE7      		ldi r31,hi8(32767)
 1148 0744 DF2E      		mov r13,r31
 1149 0746 F0E0      		ldi r31,hlo8(32767)
 1150 0748 EF2E      		mov r14,r31
GAS LISTING C:\Users\alex\AppData\Local\Temp/ccrUWSCT.s 			page 22


 1151 074a F0E0      		ldi r31,hhi8(32767)
 1152 074c FF2E      		mov r15,r31
 1153 074e F02D      		mov r31,__tmp_reg__
 1154 0750 0E94 0000 		call scpi_get_value
 1155 0754 DC01      		movw r26,r24
 1156 0756 CB01      		movw r24,r22
 1157               	/* epilogue start */
 1158               	.LM91:
 1159 0758 2696      		adiw r28,6
 1160 075a 0FB6      		in __tmp_reg__,__SREG__
 1161 075c F894      		cli
 1162 075e DEBF      		out __SP_H__,r29
 1163 0760 0FBE      		out __SREG__,__tmp_reg__
 1164 0762 CDBF      		out __SP_L__,r28
 1165 0764 CF91      		pop r28
 1166 0766 DF91      		pop r29
 1167 0768 1F91      		pop r17
 1168 076a 0F91      		pop r16
 1169 076c FF90      		pop r15
 1170 076e EF90      		pop r14
 1171 0770 DF90      		pop r13
 1172 0772 CF90      		pop r12
 1173 0774 0895      		ret
 1174               	.LFE9:
 1175               		.size	scpi_get_int, .-scpi_get_int
 1176               	.global	scpi_get_long
 1177               		.type	scpi_get_long, @function
 1178               	scpi_get_long:
 1179               	.LFB10:
 1180               	.LM92:
 1181 0776 CF92      		push r12
 1182 0778 DF92      		push r13
 1183 077a EF92      		push r14
 1184 077c FF92      		push r15
 1185 077e 0F93      		push r16
 1186 0780 1F93      		push r17
 1187 0782 DF93      		push r29
 1188 0784 CF93      		push r28
 1189 0786 00D0      		rcall .
 1190 0788 00D0      		rcall .
 1191 078a 00D0      		rcall .
 1192 078c CDB7      		in r28,__SP_L__
 1193 078e DEB7      		in r29,__SP_H__
 1194               	/* prologue: function */
 1195               	/* frame size = 6 */
 1196 0790 9A83      		std Y+2,r25
 1197 0792 8983      		std Y+1,r24
 1198 0794 7C83      		std Y+4,r23
 1199 0796 6B83      		std Y+3,r22
 1200 0798 5E83      		std Y+6,r21
 1201 079a 4D83      		std Y+5,r20
 1202               	.LM93:
 1203 079c 8981      		ldd r24,Y+1
 1204 079e 9A81      		ldd r25,Y+2
 1205 07a0 2B81      		ldd r18,Y+3
 1206 07a2 3C81      		ldd r19,Y+4
 1207 07a4 4D81      		ldd r20,Y+5
GAS LISTING C:\Users\alex\AppData\Local\Temp/ccrUWSCT.s 			page 23


 1208 07a6 5E81      		ldd r21,Y+6
 1209 07a8 B901      		movw r22,r18
 1210 07aa 2AE0      		ldi r18,lo8(10)
 1211 07ac 03E0      		ldi r16,lo8(3)
 1212 07ae 10E0      		ldi r17,hi8(3)
 1213 07b0 CC24      		clr r12
 1214 07b2 DD24      		clr r13
 1215 07b4 7601      		movw r14,r12
 1216 07b6 0E94 0000 		call scpi_get_value
 1217 07ba DC01      		movw r26,r24
 1218 07bc CB01      		movw r24,r22
 1219               	.LM94:
 1220 07be BC01      		movw r22,r24
 1221 07c0 CD01      		movw r24,r26
 1222               	/* epilogue start */
 1223 07c2 2696      		adiw r28,6
 1224 07c4 0FB6      		in __tmp_reg__,__SREG__
 1225 07c6 F894      		cli
 1226 07c8 DEBF      		out __SP_H__,r29
 1227 07ca 0FBE      		out __SREG__,__tmp_reg__
 1228 07cc CDBF      		out __SP_L__,r28
 1229 07ce CF91      		pop r28
 1230 07d0 DF91      		pop r29
 1231 07d2 1F91      		pop r17
 1232 07d4 0F91      		pop r16
 1233 07d6 FF90      		pop r15
 1234 07d8 EF90      		pop r14
 1235 07da DF90      		pop r13
 1236 07dc CF90      		pop r12
 1237 07de 0895      		ret
 1238               	.LFE10:
 1239               		.size	scpi_get_long, .-scpi_get_long
 1240               		.data
 1241               	.LC13:
 1242 0118 6572 726F 		.string	"error:%d\r\n"
 1242      723A 2564 
 1242      0D0A 00
 1243               	.LC14:
 1244 0123 6C6F 6E67 		.string	"longfrac: val:%l, error:%d\r\n"
 1244      6672 6163 
 1244      3A20 7661 
 1244      6C3A 256C 
 1244      2C20 6572 
 1245               		.text
 1246               	.global	scpi_get_longfrac
 1247               		.type	scpi_get_longfrac, @function
 1248               	scpi_get_longfrac:
 1249               	.LFB11:
 1250               	.LM95:
 1251 07e0 CF92      		push r12
 1252 07e2 DF92      		push r13
 1253 07e4 EF92      		push r14
 1254 07e6 FF92      		push r15
 1255 07e8 0F93      		push r16
 1256 07ea 1F93      		push r17
 1257 07ec DF93      		push r29
 1258 07ee CF93      		push r28
GAS LISTING C:\Users\alex\AppData\Local\Temp/ccrUWSCT.s 			page 24


 1259 07f0 CDB7      		in r28,__SP_L__
 1260 07f2 DEB7      		in r29,__SP_H__
 1261 07f4 6497      		sbiw r28,20
 1262 07f6 0FB6      		in __tmp_reg__,__SREG__
 1263 07f8 F894      		cli
 1264 07fa DEBF      		out __SP_H__,r29
 1265 07fc 0FBE      		out __SREG__,__tmp_reg__
 1266 07fe CDBF      		out __SP_L__,r28
 1267               	/* prologue: function */
 1268               	/* frame size = 20 */
 1269 0800 9C87      		std Y+12,r25
 1270 0802 8B87      		std Y+11,r24
 1271 0804 7E87      		std Y+14,r23
 1272 0806 6D87      		std Y+13,r22
 1273 0808 588B      		std Y+16,r21
 1274 080a 4F87      		std Y+15,r20
 1275               	.LM96:
 1276 080c 8B85      		ldd r24,Y+11
 1277 080e 9C85      		ldd r25,Y+12
 1278 0810 2D85      		ldd r18,Y+13
 1279 0812 3E85      		ldd r19,Y+14
 1280 0814 4F85      		ldd r20,Y+15
 1281 0816 5889      		ldd r21,Y+16
 1282 0818 B901      		movw r22,r18
 1283 081a 2AE0      		ldi r18,lo8(10)
 1284 081c 03E0      		ldi r16,lo8(3)
 1285 081e 10E0      		ldi r17,hi8(3)
 1286 0820 CC24      		clr r12
 1287 0822 DD24      		clr r13
 1288 0824 7601      		movw r14,r12
 1289 0826 0E94 0000 		call scpi_get_value
 1290 082a DC01      		movw r26,r24
 1291 082c CB01      		movw r24,r22
 1292 082e 8D83      		std Y+5,r24
 1293 0830 9E83      		std Y+6,r25
 1294 0832 AF83      		std Y+7,r26
 1295 0834 B887      		std Y+8,r27
 1296               	.LM97:
 1297 0836 ED85      		ldd r30,Y+13
 1298 0838 FE85      		ldd r31,Y+14
 1299 083a 2081      		ld r18,Z
 1300 083c 3181      		ldd r19,Z+1
 1301 083e 00D0      		rcall .
 1302 0840 00D0      		rcall .
 1303 0842 EDB7      		in r30,__SP_L__
 1304 0844 FEB7      		in r31,__SP_H__
 1305 0846 3196      		adiw r30,1
 1306 0848 80E0      		ldi r24,lo8(.LC13)
 1307 084a 90E0      		ldi r25,hi8(.LC13)
 1308 084c 9183      		std Z+1,r25
 1309 084e 8083      		st Z,r24
 1310 0850 3383      		std Z+3,r19
 1311 0852 2283      		std Z+2,r18
 1312 0854 0E94 0000 		call uart_printf
 1313 0858 0F90      		pop __tmp_reg__
 1314 085a 0F90      		pop __tmp_reg__
 1315 085c 0F90      		pop __tmp_reg__
GAS LISTING C:\Users\alex\AppData\Local\Temp/ccrUWSCT.s 			page 25


 1316 085e 0F90      		pop __tmp_reg__
 1317               	.LM98:
 1318 0860 ED85      		ldd r30,Y+13
 1319 0862 FE85      		ldd r31,Y+14
 1320 0864 8081      		ld r24,Z
 1321 0866 9181      		ldd r25,Z+1
 1322 0868 0097      		sbiw r24,0
 1323 086a 01F0      		breq .L55
 1324 086c 8D81      		ldd r24,Y+5
 1325 086e 9E81      		ldd r25,Y+6
 1326 0870 AF81      		ldd r26,Y+7
 1327 0872 B885      		ldd r27,Y+8
 1328 0874 898B      		std Y+17,r24
 1329 0876 9A8B      		std Y+18,r25
 1330 0878 AB8B      		std Y+19,r26
 1331 087a BC8B      		std Y+20,r27
 1332 087c 00C0      		rjmp .L56
 1333               	.L55:
 1334               	.LM99:
 1335 087e 8D81      		ldd r24,Y+5
 1336 0880 9E81      		ldd r25,Y+6
 1337 0882 AF81      		ldd r26,Y+7
 1338 0884 B885      		ldd r27,Y+8
 1339 0886 28EE      		ldi r18,lo8(1000)
 1340 0888 33E0      		ldi r19,hi8(1000)
 1341 088a 40E0      		ldi r20,hlo8(1000)
 1342 088c 50E0      		ldi r21,hhi8(1000)
 1343 088e BC01      		movw r22,r24
 1344 0890 CD01      		movw r24,r26
 1345 0892 0E94 0000 		call __mulsi3
 1346 0896 DC01      		movw r26,r24
 1347 0898 CB01      		movw r24,r22
 1348 089a 8D83      		std Y+5,r24
 1349 089c 9E83      		std Y+6,r25
 1350 089e AF83      		std Y+7,r26
 1351 08a0 B887      		std Y+8,r27
 1352               	.LM100:
 1353 08a2 EF85      		ldd r30,Y+15
 1354 08a4 F889      		ldd r31,Y+16
 1355 08a6 0190      		ld __tmp_reg__,Z+
 1356 08a8 F081      		ld r31,Z
 1357 08aa E02D      		mov r30,__tmp_reg__
 1358 08ac 8081      		ld r24,Z
 1359 08ae 8E32      		cpi r24,lo8(46)
 1360 08b0 01F0      		breq .+2
 1361 08b2 00C0      		rjmp .L57
 1362               	.LM101:
 1363 08b4 EF85      		ldd r30,Y+15
 1364 08b6 F889      		ldd r31,Y+16
 1365 08b8 8081      		ld r24,Z
 1366 08ba 9181      		ldd r25,Z+1
 1367 08bc 0196      		adiw r24,1
 1368 08be EF85      		ldd r30,Y+15
 1369 08c0 F889      		ldd r31,Y+16
 1370 08c2 9183      		std Z+1,r25
 1371 08c4 8083      		st Z,r24
 1372               	.LM102:
GAS LISTING C:\Users\alex\AppData\Local\Temp/ccrUWSCT.s 			page 26


 1373 08c6 EF85      		ldd r30,Y+15
 1374 08c8 F889      		ldd r31,Y+16
 1375 08ca 8081      		ld r24,Z
 1376 08cc 9181      		ldd r25,Z+1
 1377 08ce 2D85      		ldd r18,Y+13
 1378 08d0 3E85      		ldd r19,Y+14
 1379 08d2 AE01      		movw r20,r28
 1380 08d4 475F      		subi r20,lo8(-(9))
 1381 08d6 5F4F      		sbci r21,hi8(-(9))
 1382 08d8 B901      		movw r22,r18
 1383 08da 2AE0      		ldi r18,lo8(10)
 1384 08dc 03E0      		ldi r16,lo8(3)
 1385 08de 10E0      		ldi r17,hi8(3)
 1386 08e0 CC24      		clr r12
 1387 08e2 DD24      		clr r13
 1388 08e4 7601      		movw r14,r12
 1389 08e6 0E94 0000 		call scpi_get_value
 1390 08ea DC01      		movw r26,r24
 1391 08ec CB01      		movw r24,r22
 1392 08ee 8983      		std Y+1,r24
 1393 08f0 9A83      		std Y+2,r25
 1394 08f2 AB83      		std Y+3,r26
 1395 08f4 BC83      		std Y+4,r27
 1396               	.LM103:
 1397 08f6 8981      		ldd r24,Y+1
 1398 08f8 9A81      		ldd r25,Y+2
 1399 08fa AB81      		ldd r26,Y+3
 1400 08fc BC81      		ldd r27,Y+4
 1401 08fe 0097      		sbiw r24,0
 1402 0900 A105      		cpc r26,__zero_reg__
 1403 0902 B105      		cpc r27,__zero_reg__
 1404 0904 01F4      		brne .+2
 1405 0906 00C0      		rjmp .L57
 1406 0908 00C0      		rjmp .L58
 1407               	.L59:
 1408               	.LM104:
 1409 090a 8981      		ldd r24,Y+1
 1410 090c 9A81      		ldd r25,Y+2
 1411 090e AB81      		ldd r26,Y+3
 1412 0910 BC81      		ldd r27,Y+4
 1413 0912 2AE0      		ldi r18,lo8(10)
 1414 0914 30E0      		ldi r19,hi8(10)
 1415 0916 40E0      		ldi r20,hlo8(10)
 1416 0918 50E0      		ldi r21,hhi8(10)
 1417 091a BC01      		movw r22,r24
 1418 091c CD01      		movw r24,r26
 1419 091e 0E94 0000 		call __divmodsi4
 1420 0922 DA01      		movw r26,r20
 1421 0924 C901      		movw r24,r18
 1422 0926 8983      		std Y+1,r24
 1423 0928 9A83      		std Y+2,r25
 1424 092a AB83      		std Y+3,r26
 1425 092c BC83      		std Y+4,r27
 1426               	.L58:
 1427 092e 8981      		ldd r24,Y+1
 1428 0930 9A81      		ldd r25,Y+2
 1429 0932 AB81      		ldd r26,Y+3
GAS LISTING C:\Users\alex\AppData\Local\Temp/ccrUWSCT.s 			page 27


 1430 0934 BC81      		ldd r27,Y+4
 1431 0936 893E      		cpi r24,lo8(1001)
 1432 0938 23E0      		ldi r18,hi8(1001)
 1433 093a 9207      		cpc r25,r18
 1434 093c 20E0      		ldi r18,hlo8(1001)
 1435 093e A207      		cpc r26,r18
 1436 0940 20E0      		ldi r18,hhi8(1001)
 1437 0942 B207      		cpc r27,r18
 1438 0944 04F4      		brge .L59
 1439 0946 00C0      		rjmp .L60
 1440               	.L61:
 1441               	.LM105:
 1442 0948 8981      		ldd r24,Y+1
 1443 094a 9A81      		ldd r25,Y+2
 1444 094c AB81      		ldd r26,Y+3
 1445 094e BC81      		ldd r27,Y+4
 1446 0950 2AE0      		ldi r18,lo8(10)
 1447 0952 30E0      		ldi r19,hi8(10)
 1448 0954 40E0      		ldi r20,hlo8(10)
 1449 0956 50E0      		ldi r21,hhi8(10)
 1450 0958 BC01      		movw r22,r24
 1451 095a CD01      		movw r24,r26
 1452 095c 0E94 0000 		call __mulsi3
 1453 0960 DC01      		movw r26,r24
 1454 0962 CB01      		movw r24,r22
 1455 0964 8983      		std Y+1,r24
 1456 0966 9A83      		std Y+2,r25
 1457 0968 AB83      		std Y+3,r26
 1458 096a BC83      		std Y+4,r27
 1459               	.L60:
 1460 096c 8981      		ldd r24,Y+1
 1461 096e 9A81      		ldd r25,Y+2
 1462 0970 AB81      		ldd r26,Y+3
 1463 0972 BC81      		ldd r27,Y+4
 1464 0974 8436      		cpi r24,lo8(100)
 1465 0976 9105      		cpc r25,__zero_reg__
 1466 0978 A105      		cpc r26,__zero_reg__
 1467 097a B105      		cpc r27,__zero_reg__
 1468 097c 04F0      		brlt .L61
 1469               	.LM106:
 1470 097e 8D81      		ldd r24,Y+5
 1471 0980 9E81      		ldd r25,Y+6
 1472 0982 AF81      		ldd r26,Y+7
 1473 0984 B885      		ldd r27,Y+8
 1474 0986 BB23      		tst r27
 1475 0988 04F0      		brlt .L62
 1476               	.LM107:
 1477 098a 8D81      		ldd r24,Y+5
 1478 098c 9E81      		ldd r25,Y+6
 1479 098e AF81      		ldd r26,Y+7
 1480 0990 B885      		ldd r27,Y+8
 1481 0992 2981      		ldd r18,Y+1
 1482 0994 3A81      		ldd r19,Y+2
 1483 0996 4B81      		ldd r20,Y+3
 1484 0998 5C81      		ldd r21,Y+4
 1485 099a 820F      		add r24,r18
 1486 099c 931F      		adc r25,r19
GAS LISTING C:\Users\alex\AppData\Local\Temp/ccrUWSCT.s 			page 28


 1487 099e A41F      		adc r26,r20
 1488 09a0 B51F      		adc r27,r21
 1489 09a2 8D83      		std Y+5,r24
 1490 09a4 9E83      		std Y+6,r25
 1491 09a6 AF83      		std Y+7,r26
 1492 09a8 B887      		std Y+8,r27
 1493 09aa 00C0      		rjmp .L57
 1494               	.L62:
 1495               	.LM108:
 1496 09ac 8D81      		ldd r24,Y+5
 1497 09ae 9E81      		ldd r25,Y+6
 1498 09b0 AF81      		ldd r26,Y+7
 1499 09b2 B885      		ldd r27,Y+8
 1500 09b4 2981      		ldd r18,Y+1
 1501 09b6 3A81      		ldd r19,Y+2
 1502 09b8 4B81      		ldd r20,Y+3
 1503 09ba 5C81      		ldd r21,Y+4
 1504 09bc 821B      		sub r24,r18
 1505 09be 930B      		sbc r25,r19
 1506 09c0 A40B      		sbc r26,r20
 1507 09c2 B50B      		sbc r27,r21
 1508 09c4 8D83      		std Y+5,r24
 1509 09c6 9E83      		std Y+6,r25
 1510 09c8 AF83      		std Y+7,r26
 1511 09ca B887      		std Y+8,r27
 1512               	.L57:
 1513               	.LM109:
 1514 09cc ED85      		ldd r30,Y+13
 1515 09ce FE85      		ldd r31,Y+14
 1516 09d0 2081      		ld r18,Z
 1517 09d2 3181      		ldd r19,Z+1
 1518 09d4 8DB7      		in r24,__SP_L__
 1519 09d6 9EB7      		in r25,__SP_H__
 1520 09d8 0897      		sbiw r24,8
 1521 09da 0FB6      		in __tmp_reg__,__SREG__
 1522 09dc F894      		cli
 1523 09de 9EBF      		out __SP_H__,r25
 1524 09e0 0FBE      		out __SREG__,__tmp_reg__
 1525 09e2 8DBF      		out __SP_L__,r24
 1526 09e4 EDB7      		in r30,__SP_L__
 1527 09e6 FEB7      		in r31,__SP_H__
 1528 09e8 3196      		adiw r30,1
 1529 09ea 80E0      		ldi r24,lo8(.LC14)
 1530 09ec 90E0      		ldi r25,hi8(.LC14)
 1531 09ee 9183      		std Z+1,r25
 1532 09f0 8083      		st Z,r24
 1533 09f2 8D81      		ldd r24,Y+5
 1534 09f4 9E81      		ldd r25,Y+6
 1535 09f6 AF81      		ldd r26,Y+7
 1536 09f8 B885      		ldd r27,Y+8
 1537 09fa 8283      		std Z+2,r24
 1538 09fc 9383      		std Z+3,r25
 1539 09fe A483      		std Z+4,r26
 1540 0a00 B583      		std Z+5,r27
 1541 0a02 3783      		std Z+7,r19
 1542 0a04 2683      		std Z+6,r18
 1543 0a06 0E94 0000 		call uart_printf
GAS LISTING C:\Users\alex\AppData\Local\Temp/ccrUWSCT.s 			page 29


 1544 0a0a ADB7      		in r26,__SP_L__
 1545 0a0c BEB7      		in r27,__SP_H__
 1546 0a0e 1896      		adiw r26,8
 1547 0a10 0FB6      		in __tmp_reg__,__SREG__
 1548 0a12 F894      		cli
 1549 0a14 BEBF      		out __SP_H__,r27
 1550 0a16 0FBE      		out __SREG__,__tmp_reg__
 1551 0a18 ADBF      		out __SP_L__,r26
 1552               	.LM110:
 1553 0a1a 8985      		ldd r24,Y+9
 1554 0a1c 9A85      		ldd r25,Y+10
 1555 0a1e EF85      		ldd r30,Y+15
 1556 0a20 F889      		ldd r31,Y+16
 1557 0a22 9183      		std Z+1,r25
 1558 0a24 8083      		st Z,r24
 1559               	.LM111:
 1560 0a26 8D81      		ldd r24,Y+5
 1561 0a28 9E81      		ldd r25,Y+6
 1562 0a2a AF81      		ldd r26,Y+7
 1563 0a2c B885      		ldd r27,Y+8
 1564 0a2e 898B      		std Y+17,r24
 1565 0a30 9A8B      		std Y+18,r25
 1566 0a32 AB8B      		std Y+19,r26
 1567 0a34 BC8B      		std Y+20,r27
 1568               	.L56:
 1569 0a36 8989      		ldd r24,Y+17
 1570 0a38 9A89      		ldd r25,Y+18
 1571 0a3a AB89      		ldd r26,Y+19
 1572 0a3c BC89      		ldd r27,Y+20
 1573               	.LM112:
 1574 0a3e BC01      		movw r22,r24
 1575 0a40 CD01      		movw r24,r26
 1576               	/* epilogue start */
 1577 0a42 6496      		adiw r28,20
 1578 0a44 0FB6      		in __tmp_reg__,__SREG__
 1579 0a46 F894      		cli
 1580 0a48 DEBF      		out __SP_H__,r29
 1581 0a4a 0FBE      		out __SREG__,__tmp_reg__
 1582 0a4c CDBF      		out __SP_L__,r28
 1583 0a4e CF91      		pop r28
 1584 0a50 DF91      		pop r29
 1585 0a52 1F91      		pop r17
 1586 0a54 0F91      		pop r16
 1587 0a56 FF90      		pop r15
 1588 0a58 EF90      		pop r14
 1589 0a5a DF90      		pop r13
 1590 0a5c CF90      		pop r12
 1591 0a5e 0895      		ret
 1592               	.LFE11:
 1593               		.size	scpi_get_longfrac, .-scpi_get_longfrac
 1594               		.comm return_buf,80,1
 1595               		.section	.debug_frame,"",@progbits
 1596               	.Lframe0:
 1597 0000 0C00 0000 		.long	.LECIE0-.LSCIE0
 1598               	.LSCIE0:
 1599 0004 FFFF FFFF 		.long	0xffffffff
 1600 0008 01        		.byte	0x1
GAS LISTING C:\Users\alex\AppData\Local\Temp/ccrUWSCT.s 			page 30


 1601 0009 00        		.string	""
 1602 000a 01        		.uleb128 0x1
 1603 000b 7F        		.sleb128 -1
 1604 000c 24        		.byte	0x24
 1605 000d 0C        		.byte	0xc
 1606 000e 20        		.uleb128 0x20
 1607 000f 00        		.uleb128 0x0
 1608               		.p2align	2
 1609               	.LECIE0:
 1610               	.LSFDE0:
 1611 0010 0C00 0000 		.long	.LEFDE0-.LASFDE0
 1612               	.LASFDE0:
 1613 0014 0000 0000 		.long	.Lframe0
 1614 0018 0000 0000 		.long	.LFB4
 1615 001c DC01 0000 		.long	.LFE4-.LFB4
 1616               		.p2align	2
 1617               	.LEFDE0:
 1618               	.LSFDE2:
 1619 0020 0C00 0000 		.long	.LEFDE2-.LASFDE2
 1620               	.LASFDE2:
 1621 0024 0000 0000 		.long	.Lframe0
 1622 0028 0000 0000 		.long	.LFB5
 1623 002c 6202 0000 		.long	.LFE5-.LFB5
 1624               		.p2align	2
 1625               	.LEFDE2:
 1626               	.LSFDE4:
 1627 0030 0C00 0000 		.long	.LEFDE4-.LASFDE4
 1628               	.LASFDE4:
 1629 0034 0000 0000 		.long	.Lframe0
 1630 0038 0000 0000 		.long	.LFB6
 1631 003c B400 0000 		.long	.LFE6-.LFB6
 1632               		.p2align	2
 1633               	.LEFDE4:
 1634               	.LSFDE6:
 1635 0040 0C00 0000 		.long	.LEFDE6-.LASFDE6
 1636               	.LASFDE6:
 1637 0044 0000 0000 		.long	.Lframe0
 1638 0048 0000 0000 		.long	.LFB7
 1639 004c 6800 0000 		.long	.LFE7-.LFB7
 1640               		.p2align	2
 1641               	.LEFDE6:
 1642               	.LSFDE8:
 1643 0050 0C00 0000 		.long	.LEFDE8-.LASFDE8
 1644               	.LASFDE8:
 1645 0054 0000 0000 		.long	.Lframe0
 1646 0058 0000 0000 		.long	.LFB8
 1647 005c A801 0000 		.long	.LFE8-.LFB8
 1648               		.p2align	2
 1649               	.LEFDE8:
 1650               	.LSFDE10:
 1651 0060 0C00 0000 		.long	.LEFDE10-.LASFDE10
 1652               	.LASFDE10:
 1653 0064 0000 0000 		.long	.Lframe0
 1654 0068 0000 0000 		.long	.LFB9
 1655 006c 7400 0000 		.long	.LFE9-.LFB9
 1656               		.p2align	2
 1657               	.LEFDE10:
GAS LISTING C:\Users\alex\AppData\Local\Temp/ccrUWSCT.s 			page 31


 1658               	.LSFDE12:
 1659 0070 0C00 0000 		.long	.LEFDE12-.LASFDE12
 1660               	.LASFDE12:
 1661 0074 0000 0000 		.long	.Lframe0
 1662 0078 0000 0000 		.long	.LFB10
 1663 007c 6A00 0000 		.long	.LFE10-.LFB10
 1664               		.p2align	2
 1665               	.LEFDE12:
 1666               	.LSFDE14:
 1667 0080 0C00 0000 		.long	.LEFDE14-.LASFDE14
 1668               	.LASFDE14:
 1669 0084 0000 0000 		.long	.Lframe0
 1670 0088 0000 0000 		.long	.LFB11
 1671 008c 8002 0000 		.long	.LFE11-.LFB11
 1672               		.p2align	2
 1673               	.LEFDE14:
 1674               		.text
 1675               	.Letext0:
 1676               		.section	.debug_info
 1677 0000 8704 0000 		.long	0x487
 1678 0004 0200      		.word	0x2
 1679 0006 0000 0000 		.long	.Ldebug_abbrev0
 1680 000a 04        		.byte	0x4
 1681 000b 01        		.uleb128 0x1
 1682 000c 0000 0000 		.long	.LASF34
 1683 0010 01        		.byte	0x1
 1684 0011 0000 0000 		.long	.LASF35
 1685 0015 0000 0000 		.long	.LASF36
 1686 0019 0000 0000 		.long	.Ltext0
 1687 001d 0000 0000 		.long	.Letext0
 1688 0021 0000 0000 		.long	.Ldebug_line0
 1689 0025 02        		.uleb128 0x2
 1690 0026 02        		.byte	0x2
 1691 0027 07        		.byte	0x7
 1692 0028 0000 0000 		.long	.LASF0
 1693 002c 03        		.uleb128 0x3
 1694 002d 02        		.byte	0x2
 1695 002e 05        		.byte	0x5
 1696 002f 696E 7400 		.string	"int"
 1697 0033 02        		.uleb128 0x2
 1698 0034 04        		.byte	0x4
 1699 0035 05        		.byte	0x5
 1700 0036 0000 0000 		.long	.LASF1
 1701 003a 04        		.uleb128 0x4
 1702 003b 0000 0000 		.long	.LASF3
 1703 003f 02        		.byte	0x2
 1704 0040 79        		.byte	0x79
 1705 0041 4500 0000 		.long	0x45
 1706 0045 02        		.uleb128 0x2
 1707 0046 01        		.byte	0x1
 1708 0047 06        		.byte	0x6
 1709 0048 0000 0000 		.long	.LASF2
 1710 004c 04        		.uleb128 0x4
 1711 004d 0000 0000 		.long	.LASF4
 1712 0051 02        		.byte	0x2
 1713 0052 7A        		.byte	0x7a
 1714 0053 5700 0000 		.long	0x57
GAS LISTING C:\Users\alex\AppData\Local\Temp/ccrUWSCT.s 			page 32


 1715 0057 02        		.uleb128 0x2
 1716 0058 01        		.byte	0x1
 1717 0059 08        		.byte	0x8
 1718 005a 0000 0000 		.long	.LASF5
 1719 005e 04        		.uleb128 0x4
 1720 005f 0000 0000 		.long	.LASF6
 1721 0063 02        		.byte	0x2
 1722 0064 7C        		.byte	0x7c
 1723 0065 2500 0000 		.long	0x25
 1724 0069 02        		.uleb128 0x2
 1725 006a 04        		.byte	0x4
 1726 006b 07        		.byte	0x7
 1727 006c 0000 0000 		.long	.LASF7
 1728 0070 02        		.uleb128 0x2
 1729 0071 08        		.byte	0x8
 1730 0072 05        		.byte	0x5
 1731 0073 0000 0000 		.long	.LASF8
 1732 0077 02        		.uleb128 0x2
 1733 0078 08        		.byte	0x8
 1734 0079 07        		.byte	0x7
 1735 007a 0000 0000 		.long	.LASF9
 1736 007e 04        		.uleb128 0x4
 1737 007f 0000 0000 		.long	.LASF10
 1738 0083 03        		.byte	0x3
 1739 0084 D4        		.byte	0xd4
 1740 0085 8900 0000 		.long	0x89
 1741 0089 05        		.uleb128 0x5
 1742 008a 01        		.byte	0x1
 1743 008b 08        		.byte	0x8
 1744 008c 05        		.uleb128 0x5
 1745 008d 02        		.byte	0x2
 1746 008e 07        		.byte	0x7
 1747 008f 02        		.uleb128 0x2
 1748 0090 01        		.byte	0x1
 1749 0091 08        		.byte	0x8
 1750 0092 0000 0000 		.long	.LASF11
 1751 0096 06        		.uleb128 0x6
 1752 0097 01        		.byte	0x1
 1753 0098 0000 0000 		.long	.LASF18
 1754 009c 01        		.byte	0x1
 1755 009d 28        		.byte	0x28
 1756 009e 01        		.byte	0x1
 1757 009f 2C00 0000 		.long	0x2c
 1758 00a3 0000 0000 		.long	.LFB4
 1759 00a7 0000 0000 		.long	.LFE4
 1760 00ab 02        		.byte	0x2
 1761 00ac 90        		.byte	0x90
 1762 00ad 20        		.uleb128 0x20
 1763 00ae A001 0000 		.long	0x1a0
 1764 00b2 07        		.uleb128 0x7
 1765 00b3 7300      		.string	"s"
 1766 00b5 01        		.byte	0x1
 1767 00b6 25        		.byte	0x25
 1768 00b7 A001 0000 		.long	0x1a0
 1769 00bb 03        		.byte	0x3
 1770 00bc 8C        		.byte	0x8c
 1771 00bd D200      		.sleb128 82
GAS LISTING C:\Users\alex\AppData\Local\Temp/ccrUWSCT.s 			page 33


 1772 00bf 08        		.uleb128 0x8
 1773 00c0 0000 0000 		.long	.LASF12
 1774 00c4 01        		.byte	0x1
 1775 00c5 25        		.byte	0x25
 1776 00c6 A601 0000 		.long	0x1a6
 1777 00ca 03        		.byte	0x3
 1778 00cb 8C        		.byte	0x8c
 1779 00cc D400      		.sleb128 84
 1780 00ce 09        		.uleb128 0x9
 1781 00cf 6900      		.string	"i"
 1782 00d1 01        		.byte	0x1
 1783 00d2 29        		.byte	0x29
 1784 00d3 4C00 0000 		.long	0x4c
 1785 00d7 02        		.byte	0x2
 1786 00d8 8C        		.byte	0x8c
 1787 00d9 11        		.sleb128 17
 1788 00da 09        		.uleb128 0x9
 1789 00db 6A00      		.string	"j"
 1790 00dd 01        		.byte	0x1
 1791 00de 29        		.byte	0x29
 1792 00df 4C00 0000 		.long	0x4c
 1793 00e3 02        		.byte	0x2
 1794 00e4 8C        		.byte	0x8c
 1795 00e5 10        		.sleb128 16
 1796 00e6 09        		.uleb128 0x9
 1797 00e7 6300      		.string	"c"
 1798 00e9 01        		.byte	0x1
 1799 00ea 29        		.byte	0x29
 1800 00eb 4C00 0000 		.long	0x4c
 1801 00ef 02        		.byte	0x2
 1802 00f0 8C        		.byte	0x8c
 1803 00f1 0F        		.sleb128 15
 1804 00f2 09        		.uleb128 0x9
 1805 00f3 6C00      		.string	"l"
 1806 00f5 01        		.byte	0x1
 1807 00f6 29        		.byte	0x29
 1808 00f7 4C00 0000 		.long	0x4c
 1809 00fb 02        		.byte	0x2
 1810 00fc 8C        		.byte	0x8c
 1811 00fd 0E        		.sleb128 14
 1812 00fe 09        		.uleb128 0x9
 1813 00ff 736C 00   		.string	"sl"
 1814 0102 01        		.byte	0x1
 1815 0103 29        		.byte	0x29
 1816 0104 4C00 0000 		.long	0x4c
 1817 0108 02        		.byte	0x2
 1818 0109 8C        		.byte	0x8c
 1819 010a 0D        		.sleb128 13
 1820 010b 0A        		.uleb128 0xa
 1821 010c 0000 0000 		.long	.LASF13
 1822 0110 01        		.byte	0x1
 1823 0111 29        		.byte	0x29
 1824 0112 4C00 0000 		.long	0x4c
 1825 0116 02        		.byte	0x2
 1826 0117 8C        		.byte	0x8c
 1827 0118 0C        		.sleb128 12
 1828 0119 0A        		.uleb128 0xa
GAS LISTING C:\Users\alex\AppData\Local\Temp/ccrUWSCT.s 			page 34


 1829 011a 0000 0000 		.long	.LASF14
 1830 011e 01        		.byte	0x1
 1831 011f 29        		.byte	0x29
 1832 0120 4C00 0000 		.long	0x4c
 1833 0124 02        		.byte	0x2
 1834 0125 8C        		.byte	0x8c
 1835 0126 0B        		.sleb128 11
 1836 0127 09        		.uleb128 0x9
 1837 0128 6B65 7900 		.string	"key"
 1838 012c 01        		.byte	0x1
 1839 012d 2A        		.byte	0x2a
 1840 012e AC01 0000 		.long	0x1ac
 1841 0132 02        		.byte	0x2
 1842 0133 8C        		.byte	0x8c
 1843 0134 12        		.sleb128 18
 1844 0135 0A        		.uleb128 0xa
 1845 0136 0000 0000 		.long	.LASF15
 1846 013a 01        		.byte	0x1
 1847 013b 2A        		.byte	0x2a
 1848 013c AC01 0000 		.long	0x1ac
 1849 0140 02        		.byte	0x2
 1850 0141 8C        		.byte	0x8c
 1851 0142 32        		.sleb128 50
 1852 0143 09        		.uleb128 0x9
 1853 0144 7400      		.string	"t"
 1854 0146 01        		.byte	0x1
 1855 0147 2A        		.byte	0x2a
 1856 0148 A001 0000 		.long	0x1a0
 1857 014c 02        		.byte	0x2
 1858 014d 8C        		.byte	0x8c
 1859 014e 09        		.sleb128 9
 1860 014f 0B        		.uleb128 0xb
 1861 0150 0000 0000 		.long	.LBB2
 1862 0154 0000 0000 		.long	.LBE2
 1863 0158 7901 0000 		.long	0x179
 1864 015c 0A        		.uleb128 0xa
 1865 015d 0000 0000 		.long	.LASF16
 1866 0161 01        		.byte	0x1
 1867 0162 2E        		.byte	0x2e
 1868 0163 5E00 0000 		.long	0x5e
 1869 0167 02        		.byte	0x2
 1870 0168 8C        		.byte	0x8c
 1871 0169 07        		.sleb128 7
 1872 016a 0A        		.uleb128 0xa
 1873 016b 0000 0000 		.long	.LASF17
 1874 016f 01        		.byte	0x1
 1875 0170 2E        		.byte	0x2e
 1876 0171 5E00 0000 		.long	0x5e
 1877 0175 02        		.byte	0x2
 1878 0176 8C        		.byte	0x8c
 1879 0177 05        		.sleb128 5
 1880 0178 00        		.byte	0x0
 1881 0179 0C        		.uleb128 0xc
 1882 017a 0000 0000 		.long	.LBB3
 1883 017e 0000 0000 		.long	.LBE3
 1884 0182 0A        		.uleb128 0xa
 1885 0183 0000 0000 		.long	.LASF16
GAS LISTING C:\Users\alex\AppData\Local\Temp/ccrUWSCT.s 			page 35


 1886 0187 01        		.byte	0x1
 1887 0188 53        		.byte	0x53
 1888 0189 5E00 0000 		.long	0x5e
 1889 018d 02        		.byte	0x2
 1890 018e 8C        		.byte	0x8c
 1891 018f 03        		.sleb128 3
 1892 0190 0A        		.uleb128 0xa
 1893 0191 0000 0000 		.long	.LASF17
 1894 0195 01        		.byte	0x1
 1895 0196 53        		.byte	0x53
 1896 0197 5E00 0000 		.long	0x5e
 1897 019b 02        		.byte	0x2
 1898 019c 8C        		.byte	0x8c
 1899 019d 01        		.sleb128 1
 1900 019e 00        		.byte	0x0
 1901 019f 00        		.byte	0x0
 1902 01a0 0D        		.uleb128 0xd
 1903 01a1 02        		.byte	0x2
 1904 01a2 8F00 0000 		.long	0x8f
 1905 01a6 0D        		.uleb128 0xd
 1906 01a7 02        		.byte	0x2
 1907 01a8 A001 0000 		.long	0x1a0
 1908 01ac 0E        		.uleb128 0xe
 1909 01ad 8F00 0000 		.long	0x8f
 1910 01b1 BC01 0000 		.long	0x1bc
 1911 01b5 0F        		.uleb128 0xf
 1912 01b6 8C00 0000 		.long	0x8c
 1913 01ba 1F        		.byte	0x1f
 1914 01bb 00        		.byte	0x0
 1915 01bc 06        		.uleb128 0x6
 1916 01bd 01        		.byte	0x1
 1917 01be 0000 0000 		.long	.LASF19
 1918 01c2 01        		.byte	0x1
 1919 01c3 5F        		.byte	0x5f
 1920 01c4 01        		.byte	0x1
 1921 01c5 2C00 0000 		.long	0x2c
 1922 01c9 0000 0000 		.long	.LFB5
 1923 01cd 0000 0000 		.long	.LFE5
 1924 01d1 02        		.byte	0x2
 1925 01d2 90        		.byte	0x90
 1926 01d3 20        		.uleb128 0x20
 1927 01d4 0E02 0000 		.long	0x20e
 1928 01d8 07        		.uleb128 0x7
 1929 01d9 7300      		.string	"s"
 1930 01db 01        		.byte	0x1
 1931 01dc 5E        		.byte	0x5e
 1932 01dd A001 0000 		.long	0x1a0
 1933 01e1 02        		.byte	0x2
 1934 01e2 8C        		.byte	0x8c
 1935 01e3 05        		.sleb128 5
 1936 01e4 0A        		.uleb128 0xa
 1937 01e5 0000 0000 		.long	.LASF20
 1938 01e9 01        		.byte	0x1
 1939 01ea 60        		.byte	0x60
 1940 01eb 4C00 0000 		.long	0x4c
 1941 01ef 02        		.byte	0x2
 1942 01f0 8C        		.byte	0x8c
GAS LISTING C:\Users\alex\AppData\Local\Temp/ccrUWSCT.s 			page 36


 1943 01f1 02        		.sleb128 2
 1944 01f2 09        		.uleb128 0x9
 1945 01f3 6B65 7900 		.string	"key"
 1946 01f7 01        		.byte	0x1
 1947 01f8 60        		.byte	0x60
 1948 01f9 4C00 0000 		.long	0x4c
 1949 01fd 02        		.byte	0x2
 1950 01fe 8C        		.byte	0x8c
 1951 01ff 01        		.sleb128 1
 1952 0200 09        		.uleb128 0x9
 1953 0201 7332 00   		.string	"s2"
 1954 0204 01        		.byte	0x1
 1955 0205 61        		.byte	0x61
 1956 0206 A001 0000 		.long	0x1a0
 1957 020a 02        		.byte	0x2
 1958 020b 8C        		.byte	0x8c
 1959 020c 03        		.sleb128 3
 1960 020d 00        		.byte	0x0
 1961 020e 06        		.uleb128 0x6
 1962 020f 01        		.byte	0x1
 1963 0210 0000 0000 		.long	.LASF21
 1964 0214 01        		.byte	0x1
 1965 0215 90        		.byte	0x90
 1966 0216 01        		.byte	0x1
 1967 0217 4C00 0000 		.long	0x4c
 1968 021b 0000 0000 		.long	.LFB6
 1969 021f 0000 0000 		.long	.LFE6
 1970 0223 02        		.byte	0x2
 1971 0224 90        		.byte	0x90
 1972 0225 20        		.uleb128 0x20
 1973 0226 6C02 0000 		.long	0x26c
 1974 022a 07        		.uleb128 0x7
 1975 022b 7300      		.string	"s"
 1976 022d 01        		.byte	0x1
 1977 022e 8E        		.byte	0x8e
 1978 022f A001 0000 		.long	0x1a0
 1979 0233 02        		.byte	0x2
 1980 0234 8C        		.byte	0x8c
 1981 0235 04        		.sleb128 4
 1982 0236 07        		.uleb128 0x7
 1983 0237 6572 7200 		.string	"err"
 1984 023b 01        		.byte	0x1
 1985 023c 8E        		.byte	0x8e
 1986 023d 6C02 0000 		.long	0x26c
 1987 0241 02        		.byte	0x2
 1988 0242 8C        		.byte	0x8c
 1989 0243 06        		.sleb128 6
 1990 0244 07        		.uleb128 0x7
 1991 0245 7332 00   		.string	"s2"
 1992 0248 01        		.byte	0x1
 1993 0249 8E        		.byte	0x8e
 1994 024a A601 0000 		.long	0x1a6
 1995 024e 02        		.byte	0x2
 1996 024f 8C        		.byte	0x8c
 1997 0250 08        		.sleb128 8
 1998 0251 09        		.uleb128 0x9
 1999 0252 7400      		.string	"t"
GAS LISTING C:\Users\alex\AppData\Local\Temp/ccrUWSCT.s 			page 37


 2000 0254 01        		.byte	0x1
 2001 0255 90        		.byte	0x90
 2002 0256 A001 0000 		.long	0x1a0
 2003 025a 02        		.byte	0x2
 2004 025b 8C        		.byte	0x8c
 2005 025c 02        		.sleb128 2
 2006 025d 09        		.uleb128 0x9
 2007 025e 7661 6C00 		.string	"val"
 2008 0262 01        		.byte	0x1
 2009 0263 91        		.byte	0x91
 2010 0264 4C00 0000 		.long	0x4c
 2011 0268 02        		.byte	0x2
 2012 0269 8C        		.byte	0x8c
 2013 026a 01        		.sleb128 1
 2014 026b 00        		.byte	0x0
 2015 026c 0D        		.uleb128 0xd
 2016 026d 02        		.byte	0x2
 2017 026e 2C00 0000 		.long	0x2c
 2018 0272 06        		.uleb128 0x6
 2019 0273 01        		.byte	0x1
 2020 0274 0000 0000 		.long	.LASF22
 2021 0278 01        		.byte	0x1
 2022 0279 A5        		.byte	0xa5
 2023 027a 01        		.byte	0x1
 2024 027b 2C00 0000 		.long	0x2c
 2025 027f 0000 0000 		.long	.LFB7
 2026 0283 0000 0000 		.long	.LFE7
 2027 0287 02        		.byte	0x2
 2028 0288 90        		.byte	0x90
 2029 0289 20        		.uleb128 0x20
 2030 028a A702 0000 		.long	0x2a7
 2031 028e 07        		.uleb128 0x7
 2032 028f 7300      		.string	"s"
 2033 0291 01        		.byte	0x1
 2034 0292 A3        		.byte	0xa3
 2035 0293 A001 0000 		.long	0x1a0
 2036 0297 02        		.byte	0x2
 2037 0298 8C        		.byte	0x8c
 2038 0299 03        		.sleb128 3
 2039 029a 09        		.uleb128 0x9
 2040 029b 7400      		.string	"t"
 2041 029d 01        		.byte	0x1
 2042 029e A6        		.byte	0xa6
 2043 029f A001 0000 		.long	0x1a0
 2044 02a3 02        		.byte	0x2
 2045 02a4 8C        		.byte	0x8c
 2046 02a5 01        		.sleb128 1
 2047 02a6 00        		.byte	0x0
 2048 02a7 06        		.uleb128 0x6
 2049 02a8 01        		.byte	0x1
 2050 02a9 0000 0000 		.long	.LASF23
 2051 02ad 01        		.byte	0x1
 2052 02ae B1        		.byte	0xb1
 2053 02af 01        		.byte	0x1
 2054 02b0 3300 0000 		.long	0x33
 2055 02b4 0000 0000 		.long	.LFB8
 2056 02b8 0000 0000 		.long	.LFE8
GAS LISTING C:\Users\alex\AppData\Local\Temp/ccrUWSCT.s 			page 38


 2057 02bc 02        		.byte	0x2
 2058 02bd 90        		.byte	0x90
 2059 02be 20        		.uleb128 0x20
 2060 02bf 4B03 0000 		.long	0x34b
 2061 02c3 07        		.uleb128 0x7
 2062 02c4 7300      		.string	"s"
 2063 02c6 01        		.byte	0x1
 2064 02c7 B0        		.byte	0xb0
 2065 02c8 A001 0000 		.long	0x1a0
 2066 02cc 02        		.byte	0x2
 2067 02cd 8C        		.byte	0x8c
 2068 02ce 09        		.sleb128 9
 2069 02cf 07        		.uleb128 0x7
 2070 02d0 6572 7200 		.string	"err"
 2071 02d4 01        		.byte	0x1
 2072 02d5 B0        		.byte	0xb0
 2073 02d6 6C02 0000 		.long	0x26c
 2074 02da 02        		.byte	0x2
 2075 02db 8C        		.byte	0x8c
 2076 02dc 0B        		.sleb128 11
 2077 02dd 07        		.uleb128 0x7
 2078 02de 7332 00   		.string	"s2"
 2079 02e1 01        		.byte	0x1
 2080 02e2 B0        		.byte	0xb0
 2081 02e3 A601 0000 		.long	0x1a6
 2082 02e7 02        		.byte	0x2
 2083 02e8 8C        		.byte	0x8c
 2084 02e9 0D        		.sleb128 13
 2085 02ea 08        		.uleb128 0x8
 2086 02eb 0000 0000 		.long	.LASF24
 2087 02ef 01        		.byte	0x1
 2088 02f0 B0        		.byte	0xb0
 2089 02f1 4C00 0000 		.long	0x4c
 2090 02f5 02        		.byte	0x2
 2091 02f6 8C        		.byte	0x8c
 2092 02f7 0F        		.sleb128 15
 2093 02f8 08        		.uleb128 0x8
 2094 02f9 0000 0000 		.long	.LASF25
 2095 02fd 01        		.byte	0x1
 2096 02fe B0        		.byte	0xb0
 2097 02ff 2C00 0000 		.long	0x2c
 2098 0303 02        		.byte	0x2
 2099 0304 8C        		.byte	0x8c
 2100 0305 10        		.sleb128 16
 2101 0306 08        		.uleb128 0x8
 2102 0307 0000 0000 		.long	.LASF26
 2103 030b 01        		.byte	0x1
 2104 030c B0        		.byte	0xb0
 2105 030d 3300 0000 		.long	0x33
 2106 0311 02        		.byte	0x2
 2107 0312 8C        		.byte	0x8c
 2108 0313 12        		.sleb128 18
 2109 0314 09        		.uleb128 0x9
 2110 0315 7400      		.string	"t"
 2111 0317 01        		.byte	0x1
 2112 0318 B2        		.byte	0xb2
 2113 0319 A001 0000 		.long	0x1a0
GAS LISTING C:\Users\alex\AppData\Local\Temp/ccrUWSCT.s 			page 39


 2114 031d 02        		.byte	0x2
 2115 031e 8C        		.byte	0x8c
 2116 031f 07        		.sleb128 7
 2117 0320 09        		.uleb128 0x9
 2118 0321 746D 7000 		.string	"tmp"
 2119 0325 01        		.byte	0x1
 2120 0326 B3        		.byte	0xb3
 2121 0327 3300 0000 		.long	0x33
 2122 032b 02        		.byte	0x2
 2123 032c 8C        		.byte	0x8c
 2124 032d 03        		.sleb128 3
 2125 032e 09        		.uleb128 0x9
 2126 032f 6C65 6E00 		.string	"len"
 2127 0333 01        		.byte	0x1
 2128 0334 B4        		.byte	0xb4
 2129 0335 4C00 0000 		.long	0x4c
 2130 0339 02        		.byte	0x2
 2131 033a 8C        		.byte	0x8c
 2132 033b 02        		.sleb128 2
 2133 033c 0A        		.uleb128 0xa
 2134 033d 0000 0000 		.long	.LASF27
 2135 0341 01        		.byte	0x1
 2136 0342 B5        		.byte	0xb5
 2137 0343 3A00 0000 		.long	0x3a
 2138 0347 02        		.byte	0x2
 2139 0348 8C        		.byte	0x8c
 2140 0349 01        		.sleb128 1
 2141 034a 00        		.byte	0x0
 2142 034b 06        		.uleb128 0x6
 2143 034c 01        		.byte	0x1
 2144 034d 0000 0000 		.long	.LASF28
 2145 0351 01        		.byte	0x1
 2146 0352 D8        		.byte	0xd8
 2147 0353 01        		.byte	0x1
 2148 0354 2C00 0000 		.long	0x2c
 2149 0358 0000 0000 		.long	.LFB9
 2150 035c 0000 0000 		.long	.LFE9
 2151 0360 02        		.byte	0x2
 2152 0361 90        		.byte	0x90
 2153 0362 20        		.uleb128 0x20
 2154 0363 8F03 0000 		.long	0x38f
 2155 0367 07        		.uleb128 0x7
 2156 0368 7300      		.string	"s"
 2157 036a 01        		.byte	0x1
 2158 036b D6        		.byte	0xd6
 2159 036c A001 0000 		.long	0x1a0
 2160 0370 02        		.byte	0x2
 2161 0371 8C        		.byte	0x8c
 2162 0372 01        		.sleb128 1
 2163 0373 07        		.uleb128 0x7
 2164 0374 6572 7200 		.string	"err"
 2165 0378 01        		.byte	0x1
 2166 0379 D6        		.byte	0xd6
 2167 037a 6C02 0000 		.long	0x26c
 2168 037e 02        		.byte	0x2
 2169 037f 8C        		.byte	0x8c
 2170 0380 03        		.sleb128 3
GAS LISTING C:\Users\alex\AppData\Local\Temp/ccrUWSCT.s 			page 40


 2171 0381 07        		.uleb128 0x7
 2172 0382 7332 00   		.string	"s2"
 2173 0385 01        		.byte	0x1
 2174 0386 D6        		.byte	0xd6
 2175 0387 A601 0000 		.long	0x1a6
 2176 038b 02        		.byte	0x2
 2177 038c 8C        		.byte	0x8c
 2178 038d 05        		.sleb128 5
 2179 038e 00        		.byte	0x0
 2180 038f 06        		.uleb128 0x6
 2181 0390 01        		.byte	0x1
 2182 0391 0000 0000 		.long	.LASF29
 2183 0395 01        		.byte	0x1
 2184 0396 DD        		.byte	0xdd
 2185 0397 01        		.byte	0x1
 2186 0398 3300 0000 		.long	0x33
 2187 039c 0000 0000 		.long	.LFB10
 2188 03a0 0000 0000 		.long	.LFE10
 2189 03a4 02        		.byte	0x2
 2190 03a5 90        		.byte	0x90
 2191 03a6 20        		.uleb128 0x20
 2192 03a7 D303 0000 		.long	0x3d3
 2193 03ab 07        		.uleb128 0x7
 2194 03ac 7300      		.string	"s"
 2195 03ae 01        		.byte	0x1
 2196 03af DC        		.byte	0xdc
 2197 03b0 A001 0000 		.long	0x1a0
 2198 03b4 02        		.byte	0x2
 2199 03b5 8C        		.byte	0x8c
 2200 03b6 01        		.sleb128 1
 2201 03b7 07        		.uleb128 0x7
 2202 03b8 6572 7200 		.string	"err"
 2203 03bc 01        		.byte	0x1
 2204 03bd DC        		.byte	0xdc
 2205 03be 6C02 0000 		.long	0x26c
 2206 03c2 02        		.byte	0x2
 2207 03c3 8C        		.byte	0x8c
 2208 03c4 03        		.sleb128 3
 2209 03c5 07        		.uleb128 0x7
 2210 03c6 7332 00   		.string	"s2"
 2211 03c9 01        		.byte	0x1
 2212 03ca DC        		.byte	0xdc
 2213 03cb A601 0000 		.long	0x1a6
 2214 03cf 02        		.byte	0x2
 2215 03d0 8C        		.byte	0x8c
 2216 03d1 05        		.sleb128 5
 2217 03d2 00        		.byte	0x0
 2218 03d3 06        		.uleb128 0x6
 2219 03d4 01        		.byte	0x1
 2220 03d5 0000 0000 		.long	.LASF30
 2221 03d9 01        		.byte	0x1
 2222 03da E3        		.byte	0xe3
 2223 03db 01        		.byte	0x1
 2224 03dc 3300 0000 		.long	0x33
 2225 03e0 0000 0000 		.long	.LFB11
 2226 03e4 0000 0000 		.long	.LFE11
 2227 03e8 02        		.byte	0x2
GAS LISTING C:\Users\alex\AppData\Local\Temp/ccrUWSCT.s 			page 41


 2228 03e9 90        		.byte	0x90
 2229 03ea 20        		.uleb128 0x20
 2230 03eb 4004 0000 		.long	0x440
 2231 03ef 07        		.uleb128 0x7
 2232 03f0 7300      		.string	"s"
 2233 03f2 01        		.byte	0x1
 2234 03f3 E2        		.byte	0xe2
 2235 03f4 A001 0000 		.long	0x1a0
 2236 03f8 02        		.byte	0x2
 2237 03f9 8C        		.byte	0x8c
 2238 03fa 0B        		.sleb128 11
 2239 03fb 07        		.uleb128 0x7
 2240 03fc 6572 7200 		.string	"err"
 2241 0400 01        		.byte	0x1
 2242 0401 E2        		.byte	0xe2
 2243 0402 6C02 0000 		.long	0x26c
 2244 0406 02        		.byte	0x2
 2245 0407 8C        		.byte	0x8c
 2246 0408 0D        		.sleb128 13
 2247 0409 07        		.uleb128 0x7
 2248 040a 7332 00   		.string	"s2"
 2249 040d 01        		.byte	0x1
 2250 040e E2        		.byte	0xe2
 2251 040f A601 0000 		.long	0x1a6
 2252 0413 02        		.byte	0x2
 2253 0414 8C        		.byte	0x8c
 2254 0415 0F        		.sleb128 15
 2255 0416 09        		.uleb128 0x9
 2256 0417 7333 00   		.string	"s3"
 2257 041a 01        		.byte	0x1
 2258 041b E4        		.byte	0xe4
 2259 041c A001 0000 		.long	0x1a0
 2260 0420 02        		.byte	0x2
 2261 0421 8C        		.byte	0x8c
 2262 0422 09        		.sleb128 9
 2263 0423 09        		.uleb128 0x9
 2264 0424 746D 7000 		.string	"tmp"
 2265 0428 01        		.byte	0x1
 2266 0429 E5        		.byte	0xe5
 2267 042a 3300 0000 		.long	0x33
 2268 042e 02        		.byte	0x2
 2269 042f 8C        		.byte	0x8c
 2270 0430 05        		.sleb128 5
 2271 0431 0A        		.uleb128 0xa
 2272 0432 0000 0000 		.long	.LASF31
 2273 0436 01        		.byte	0x1
 2274 0437 E5        		.byte	0xe5
 2275 0438 3300 0000 		.long	0x33
 2276 043c 02        		.byte	0x2
 2277 043d 8C        		.byte	0x8c
 2278 043e 01        		.sleb128 1
 2279 043f 00        		.byte	0x0
 2280 0440 0E        		.uleb128 0xe
 2281 0441 8F00 0000 		.long	0x8f
 2282 0445 5004 0000 		.long	0x450
 2283 0449 0F        		.uleb128 0xf
 2284 044a 8C00 0000 		.long	0x8c
GAS LISTING C:\Users\alex\AppData\Local\Temp/ccrUWSCT.s 			page 42


 2285 044e 4F        		.byte	0x4f
 2286 044f 00        		.byte	0x0
 2287 0450 10        		.uleb128 0x10
 2288 0451 0000 0000 		.long	.LASF32
 2289 0455 01        		.byte	0x1
 2290 0456 17        		.byte	0x17
 2291 0457 4004 0000 		.long	0x440
 2292 045b 01        		.byte	0x1
 2293 045c 05        		.byte	0x5
 2294 045d 03        		.byte	0x3
 2295 045e 0000 0000 		.long	return_buf
 2296 0462 0E        		.uleb128 0xe
 2297 0463 6D04 0000 		.long	0x46d
 2298 0467 6D04 0000 		.long	0x46d
 2299 046b 11        		.uleb128 0x11
 2300 046c 00        		.byte	0x0
 2301 046d 0D        		.uleb128 0xd
 2302 046e 02        		.byte	0x2
 2303 046f 7304 0000 		.long	0x473
 2304 0473 12        		.uleb128 0x12
 2305 0474 7E00 0000 		.long	0x7e
 2306 0478 13        		.uleb128 0x13
 2307 0479 0000 0000 		.long	.LASF33
 2308 047d 04        		.byte	0x4
 2309 047e 17        		.byte	0x17
 2310 047f 8504 0000 		.long	0x485
 2311 0483 01        		.byte	0x1
 2312 0484 01        		.byte	0x1
 2313 0485 12        		.uleb128 0x12
 2314 0486 6204 0000 		.long	0x462
 2315 048a 00        		.byte	0x0
 2316               		.section	.debug_abbrev
 2317 0000 01        		.uleb128 0x1
 2318 0001 11        		.uleb128 0x11
 2319 0002 01        		.byte	0x1
 2320 0003 25        		.uleb128 0x25
 2321 0004 0E        		.uleb128 0xe
 2322 0005 13        		.uleb128 0x13
 2323 0006 0B        		.uleb128 0xb
 2324 0007 03        		.uleb128 0x3
 2325 0008 0E        		.uleb128 0xe
 2326 0009 1B        		.uleb128 0x1b
 2327 000a 0E        		.uleb128 0xe
 2328 000b 11        		.uleb128 0x11
 2329 000c 01        		.uleb128 0x1
 2330 000d 12        		.uleb128 0x12
 2331 000e 01        		.uleb128 0x1
 2332 000f 10        		.uleb128 0x10
 2333 0010 06        		.uleb128 0x6
 2334 0011 00        		.byte	0x0
 2335 0012 00        		.byte	0x0
 2336 0013 02        		.uleb128 0x2
 2337 0014 24        		.uleb128 0x24
 2338 0015 00        		.byte	0x0
 2339 0016 0B        		.uleb128 0xb
 2340 0017 0B        		.uleb128 0xb
 2341 0018 3E        		.uleb128 0x3e
GAS LISTING C:\Users\alex\AppData\Local\Temp/ccrUWSCT.s 			page 43


 2342 0019 0B        		.uleb128 0xb
 2343 001a 03        		.uleb128 0x3
 2344 001b 0E        		.uleb128 0xe
 2345 001c 00        		.byte	0x0
 2346 001d 00        		.byte	0x0
 2347 001e 03        		.uleb128 0x3
 2348 001f 24        		.uleb128 0x24
 2349 0020 00        		.byte	0x0
 2350 0021 0B        		.uleb128 0xb
 2351 0022 0B        		.uleb128 0xb
 2352 0023 3E        		.uleb128 0x3e
 2353 0024 0B        		.uleb128 0xb
 2354 0025 03        		.uleb128 0x3
 2355 0026 08        		.uleb128 0x8
 2356 0027 00        		.byte	0x0
 2357 0028 00        		.byte	0x0
 2358 0029 04        		.uleb128 0x4
 2359 002a 16        		.uleb128 0x16
 2360 002b 00        		.byte	0x0
 2361 002c 03        		.uleb128 0x3
 2362 002d 0E        		.uleb128 0xe
 2363 002e 3A        		.uleb128 0x3a
 2364 002f 0B        		.uleb128 0xb
 2365 0030 3B        		.uleb128 0x3b
 2366 0031 0B        		.uleb128 0xb
 2367 0032 49        		.uleb128 0x49
 2368 0033 13        		.uleb128 0x13
 2369 0034 00        		.byte	0x0
 2370 0035 00        		.byte	0x0
 2371 0036 05        		.uleb128 0x5
 2372 0037 24        		.uleb128 0x24
 2373 0038 00        		.byte	0x0
 2374 0039 0B        		.uleb128 0xb
 2375 003a 0B        		.uleb128 0xb
 2376 003b 3E        		.uleb128 0x3e
 2377 003c 0B        		.uleb128 0xb
 2378 003d 00        		.byte	0x0
 2379 003e 00        		.byte	0x0
 2380 003f 06        		.uleb128 0x6
 2381 0040 2E        		.uleb128 0x2e
 2382 0041 01        		.byte	0x1
 2383 0042 3F        		.uleb128 0x3f
 2384 0043 0C        		.uleb128 0xc
 2385 0044 03        		.uleb128 0x3
 2386 0045 0E        		.uleb128 0xe
 2387 0046 3A        		.uleb128 0x3a
 2388 0047 0B        		.uleb128 0xb
 2389 0048 3B        		.uleb128 0x3b
 2390 0049 0B        		.uleb128 0xb
 2391 004a 27        		.uleb128 0x27
 2392 004b 0C        		.uleb128 0xc
 2393 004c 49        		.uleb128 0x49
 2394 004d 13        		.uleb128 0x13
 2395 004e 11        		.uleb128 0x11
 2396 004f 01        		.uleb128 0x1
 2397 0050 12        		.uleb128 0x12
 2398 0051 01        		.uleb128 0x1
GAS LISTING C:\Users\alex\AppData\Local\Temp/ccrUWSCT.s 			page 44


 2399 0052 40        		.uleb128 0x40
 2400 0053 0A        		.uleb128 0xa
 2401 0054 01        		.uleb128 0x1
 2402 0055 13        		.uleb128 0x13
 2403 0056 00        		.byte	0x0
 2404 0057 00        		.byte	0x0
 2405 0058 07        		.uleb128 0x7
 2406 0059 05        		.uleb128 0x5
 2407 005a 00        		.byte	0x0
 2408 005b 03        		.uleb128 0x3
 2409 005c 08        		.uleb128 0x8
 2410 005d 3A        		.uleb128 0x3a
 2411 005e 0B        		.uleb128 0xb
 2412 005f 3B        		.uleb128 0x3b
 2413 0060 0B        		.uleb128 0xb
 2414 0061 49        		.uleb128 0x49
 2415 0062 13        		.uleb128 0x13
 2416 0063 02        		.uleb128 0x2
 2417 0064 0A        		.uleb128 0xa
 2418 0065 00        		.byte	0x0
 2419 0066 00        		.byte	0x0
 2420 0067 08        		.uleb128 0x8
 2421 0068 05        		.uleb128 0x5
 2422 0069 00        		.byte	0x0
 2423 006a 03        		.uleb128 0x3
 2424 006b 0E        		.uleb128 0xe
 2425 006c 3A        		.uleb128 0x3a
 2426 006d 0B        		.uleb128 0xb
 2427 006e 3B        		.uleb128 0x3b
 2428 006f 0B        		.uleb128 0xb
 2429 0070 49        		.uleb128 0x49
 2430 0071 13        		.uleb128 0x13
 2431 0072 02        		.uleb128 0x2
 2432 0073 0A        		.uleb128 0xa
 2433 0074 00        		.byte	0x0
 2434 0075 00        		.byte	0x0
 2435 0076 09        		.uleb128 0x9
 2436 0077 34        		.uleb128 0x34
 2437 0078 00        		.byte	0x0
 2438 0079 03        		.uleb128 0x3
 2439 007a 08        		.uleb128 0x8
 2440 007b 3A        		.uleb128 0x3a
 2441 007c 0B        		.uleb128 0xb
 2442 007d 3B        		.uleb128 0x3b
 2443 007e 0B        		.uleb128 0xb
 2444 007f 49        		.uleb128 0x49
 2445 0080 13        		.uleb128 0x13
 2446 0081 02        		.uleb128 0x2
 2447 0082 0A        		.uleb128 0xa
 2448 0083 00        		.byte	0x0
 2449 0084 00        		.byte	0x0
 2450 0085 0A        		.uleb128 0xa
 2451 0086 34        		.uleb128 0x34
 2452 0087 00        		.byte	0x0
 2453 0088 03        		.uleb128 0x3
 2454 0089 0E        		.uleb128 0xe
 2455 008a 3A        		.uleb128 0x3a
GAS LISTING C:\Users\alex\AppData\Local\Temp/ccrUWSCT.s 			page 45


 2456 008b 0B        		.uleb128 0xb
 2457 008c 3B        		.uleb128 0x3b
 2458 008d 0B        		.uleb128 0xb
 2459 008e 49        		.uleb128 0x49
 2460 008f 13        		.uleb128 0x13
 2461 0090 02        		.uleb128 0x2
 2462 0091 0A        		.uleb128 0xa
 2463 0092 00        		.byte	0x0
 2464 0093 00        		.byte	0x0
 2465 0094 0B        		.uleb128 0xb
 2466 0095 0B        		.uleb128 0xb
 2467 0096 01        		.byte	0x1
 2468 0097 11        		.uleb128 0x11
 2469 0098 01        		.uleb128 0x1
 2470 0099 12        		.uleb128 0x12
 2471 009a 01        		.uleb128 0x1
 2472 009b 01        		.uleb128 0x1
 2473 009c 13        		.uleb128 0x13
 2474 009d 00        		.byte	0x0
 2475 009e 00        		.byte	0x0
 2476 009f 0C        		.uleb128 0xc
 2477 00a0 0B        		.uleb128 0xb
 2478 00a1 01        		.byte	0x1
 2479 00a2 11        		.uleb128 0x11
 2480 00a3 01        		.uleb128 0x1
 2481 00a4 12        		.uleb128 0x12
 2482 00a5 01        		.uleb128 0x1
 2483 00a6 00        		.byte	0x0
 2484 00a7 00        		.byte	0x0
 2485 00a8 0D        		.uleb128 0xd
 2486 00a9 0F        		.uleb128 0xf
 2487 00aa 00        		.byte	0x0
 2488 00ab 0B        		.uleb128 0xb
 2489 00ac 0B        		.uleb128 0xb
 2490 00ad 49        		.uleb128 0x49
 2491 00ae 13        		.uleb128 0x13
 2492 00af 00        		.byte	0x0
 2493 00b0 00        		.byte	0x0
 2494 00b1 0E        		.uleb128 0xe
 2495 00b2 01        		.uleb128 0x1
 2496 00b3 01        		.byte	0x1
 2497 00b4 49        		.uleb128 0x49
 2498 00b5 13        		.uleb128 0x13
 2499 00b6 01        		.uleb128 0x1
 2500 00b7 13        		.uleb128 0x13
 2501 00b8 00        		.byte	0x0
 2502 00b9 00        		.byte	0x0
 2503 00ba 0F        		.uleb128 0xf
 2504 00bb 21        		.uleb128 0x21
 2505 00bc 00        		.byte	0x0
 2506 00bd 49        		.uleb128 0x49
 2507 00be 13        		.uleb128 0x13
 2508 00bf 2F        		.uleb128 0x2f
 2509 00c0 0B        		.uleb128 0xb
 2510 00c1 00        		.byte	0x0
 2511 00c2 00        		.byte	0x0
 2512 00c3 10        		.uleb128 0x10
GAS LISTING C:\Users\alex\AppData\Local\Temp/ccrUWSCT.s 			page 46


 2513 00c4 34        		.uleb128 0x34
 2514 00c5 00        		.byte	0x0
 2515 00c6 03        		.uleb128 0x3
 2516 00c7 0E        		.uleb128 0xe
 2517 00c8 3A        		.uleb128 0x3a
 2518 00c9 0B        		.uleb128 0xb
 2519 00ca 3B        		.uleb128 0x3b
 2520 00cb 0B        		.uleb128 0xb
 2521 00cc 49        		.uleb128 0x49
 2522 00cd 13        		.uleb128 0x13
 2523 00ce 3F        		.uleb128 0x3f
 2524 00cf 0C        		.uleb128 0xc
 2525 00d0 02        		.uleb128 0x2
 2526 00d1 0A        		.uleb128 0xa
 2527 00d2 00        		.byte	0x0
 2528 00d3 00        		.byte	0x0
 2529 00d4 11        		.uleb128 0x11
 2530 00d5 21        		.uleb128 0x21
 2531 00d6 00        		.byte	0x0
 2532 00d7 00        		.byte	0x0
 2533 00d8 00        		.byte	0x0
 2534 00d9 12        		.uleb128 0x12
 2535 00da 26        		.uleb128 0x26
 2536 00db 00        		.byte	0x0
 2537 00dc 49        		.uleb128 0x49
 2538 00dd 13        		.uleb128 0x13
 2539 00de 00        		.byte	0x0
 2540 00df 00        		.byte	0x0
 2541 00e0 13        		.uleb128 0x13
 2542 00e1 34        		.uleb128 0x34
 2543 00e2 00        		.byte	0x0
 2544 00e3 03        		.uleb128 0x3
 2545 00e4 0E        		.uleb128 0xe
 2546 00e5 3A        		.uleb128 0x3a
 2547 00e6 0B        		.uleb128 0xb
 2548 00e7 3B        		.uleb128 0x3b
 2549 00e8 0B        		.uleb128 0xb
 2550 00e9 49        		.uleb128 0x49
 2551 00ea 13        		.uleb128 0x13
 2552 00eb 3F        		.uleb128 0x3f
 2553 00ec 0C        		.uleb128 0xc
 2554 00ed 3C        		.uleb128 0x3c
 2555 00ee 0C        		.uleb128 0xc
 2556 00ef 00        		.byte	0x0
 2557 00f0 00        		.byte	0x0
 2558 00f1 00        		.byte	0x0
 2559               		.section	.debug_pubnames,"",@progbits
 2560 0000 C000 0000 		.long	0xc0
 2561 0004 0200      		.word	0x2
 2562 0006 0000 0000 		.long	.Ldebug_info0
 2563 000a 8B04 0000 		.long	0x48b
 2564 000e 9600 0000 		.long	0x96
 2565 0012 7363 7069 		.string	"scpi_parse_command"
 2565      5F70 6172 
 2565      7365 5F63 
 2565      6F6D 6D61 
 2565      6E64 00
GAS LISTING C:\Users\alex\AppData\Local\Temp/ccrUWSCT.s 			page 47


 2566 0025 BC01 0000 		.long	0x1bc
 2567 0029 7363 7069 		.string	"scpi_parse_line"
 2567      5F70 6172 
 2567      7365 5F6C 
 2567      696E 6500 
 2568 0039 0E02 0000 		.long	0x20e
 2569 003d 7363 7069 		.string	"scpi_get_digit"
 2569      5F67 6574 
 2569      5F64 6967 
 2569      6974 00
 2570 004c 7202 0000 		.long	0x272
 2571 0050 7363 7069 		.string	"scpi_check_buf_empty"
 2571      5F63 6865 
 2571      636B 5F62 
 2571      7566 5F65 
 2571      6D70 7479 
 2572 0065 A702 0000 		.long	0x2a7
 2573 0069 7363 7069 		.string	"scpi_get_value"
 2573      5F67 6574 
 2573      5F76 616C 
 2573      7565 00
 2574 0078 4B03 0000 		.long	0x34b
 2575 007c 7363 7069 		.string	"scpi_get_int"
 2575      5F67 6574 
 2575      5F69 6E74 
 2575      00
 2576 0089 8F03 0000 		.long	0x38f
 2577 008d 7363 7069 		.string	"scpi_get_long"
 2577      5F67 6574 
 2577      5F6C 6F6E 
 2577      6700 
 2578 009b D303 0000 		.long	0x3d3
 2579 009f 7363 7069 		.string	"scpi_get_longfrac"
 2579      5F67 6574 
 2579      5F6C 6F6E 
 2579      6766 7261 
 2579      6300 
 2580 00b1 5004 0000 		.long	0x450
 2581 00b5 7265 7475 		.string	"return_buf"
 2581      726E 5F62 
 2581      7566 00
 2582 00c0 0000 0000 		.long	0x0
 2583               		.section	.debug_aranges,"",@progbits
 2584 0000 1C00 0000 		.long	0x1c
 2585 0004 0200      		.word	0x2
 2586 0006 0000 0000 		.long	.Ldebug_info0
 2587 000a 04        		.byte	0x4
 2588 000b 00        		.byte	0x0
 2589 000c 0000      		.word	0x0
 2590 000e 0000      		.word	0x0
 2591 0010 0000 0000 		.long	.Ltext0
 2592 0014 600A 0000 		.long	.Letext0-.Ltext0
 2593 0018 0000 0000 		.long	0x0
 2594 001c 0000 0000 		.long	0x0
 2595               		.section	.debug_line
 2596 0000 3704 0000 		.long	.LELT0-.LSLT0
 2597               	.LSLT0:
GAS LISTING C:\Users\alex\AppData\Local\Temp/ccrUWSCT.s 			page 48


 2598 0004 0200      		.word	0x2
 2599 0006 A500 0000 		.long	.LELTP0-.LASLTP0
 2600               	.LASLTP0:
 2601 000a 01        		.byte	0x1
 2602 000b 01        		.byte	0x1
 2603 000c F6        		.byte	0xf6
 2604 000d F5        		.byte	0xf5
 2605 000e 0A        		.byte	0xa
 2606 000f 00        		.byte	0x0
 2607 0010 01        		.byte	0x1
 2608 0011 01        		.byte	0x1
 2609 0012 01        		.byte	0x1
 2610 0013 01        		.byte	0x1
 2611 0014 00        		.byte	0x0
 2612 0015 00        		.byte	0x0
 2613 0016 00        		.byte	0x0
 2614 0017 01        		.byte	0x1
 2615 0018 643A 2F77 		.ascii	"d:/winavr-20100110/lib/gcc/../../avr/include"
 2615      696E 6176 
 2615      722D 3230 
 2615      3130 3031 
 2615      3130 2F6C 
 2616 0044 00        		.byte	0
 2617 0045 643A 2F77 		.ascii	"d:/winavr-20100110/lib/gcc/../../avr/include/avr"
 2617      696E 6176 
 2617      722D 3230 
 2617      3130 3031 
 2617      3130 2F6C 
 2618 0075 00        		.byte	0
 2619 0076 00        		.byte	0x0
 2620 0077 7363 7069 		.string	"scpi.c"
 2620      2E63 00
 2621 007e 00        		.uleb128 0x0
 2622 007f 00        		.uleb128 0x0
 2623 0080 00        		.uleb128 0x0
 2624 0081 7374 6469 		.string	"stdint.h"
 2624      6E74 2E68 
 2624      00
 2625 008a 01        		.uleb128 0x1
 2626 008b 00        		.uleb128 0x0
 2627 008c 00        		.uleb128 0x0
 2628 008d 6176 722F 		.string	"avr/pgmspace.h"
 2628      7067 6D73 
 2628      7061 6365 
 2628      2E68 00
 2629 009c 01        		.uleb128 0x1
 2630 009d 00        		.uleb128 0x0
 2631 009e 00        		.uleb128 0x0
 2632 009f 7363 7069 		.string	"scpi_cmds.h"
 2632      5F63 6D64 
 2632      732E 6800 
 2633 00ab 00        		.uleb128 0x0
 2634 00ac 00        		.uleb128 0x0
 2635 00ad 00        		.uleb128 0x0
 2636 00ae 00        		.byte	0x0
 2637               	.LELTP0:
 2638 00af 00        		.byte	0x0
GAS LISTING C:\Users\alex\AppData\Local\Temp/ccrUWSCT.s 			page 49


 2639 00b0 05        		.uleb128 0x5
 2640 00b1 02        		.byte	0x2
 2641 00b2 0000 0000 		.long	.LM1
 2642 00b6 3B        		.byte	0x3b
 2643 00b7 00        		.byte	0x0
 2644 00b8 05        		.uleb128 0x5
 2645 00b9 02        		.byte	0x2
 2646 00ba 0000 0000 		.long	.LM2
 2647 00be 15        		.byte	0x15
 2648 00bf 00        		.byte	0x0
 2649 00c0 05        		.uleb128 0x5
 2650 00c1 02        		.byte	0x2
 2651 00c2 0000 0000 		.long	.LM3
 2652 00c6 18        		.byte	0x18
 2653 00c7 00        		.byte	0x0
 2654 00c8 05        		.uleb128 0x5
 2655 00c9 02        		.byte	0x2
 2656 00ca 0000 0000 		.long	.LM4
 2657 00ce 15        		.byte	0x15
 2658 00cf 00        		.byte	0x0
 2659 00d0 05        		.uleb128 0x5
 2660 00d1 02        		.byte	0x2
 2661 00d2 0000 0000 		.long	.LM5
 2662 00d6 17        		.byte	0x17
 2663 00d7 00        		.byte	0x0
 2664 00d8 05        		.uleb128 0x5
 2665 00d9 02        		.byte	0x2
 2666 00da 0000 0000 		.long	.LM6
 2667 00de 16        		.byte	0x16
 2668 00df 00        		.byte	0x0
 2669 00e0 05        		.uleb128 0x5
 2670 00e1 02        		.byte	0x2
 2671 00e2 0000 0000 		.long	.LM7
 2672 00e6 16        		.byte	0x16
 2673 00e7 00        		.byte	0x0
 2674 00e8 05        		.uleb128 0x5
 2675 00e9 02        		.byte	0x2
 2676 00ea 0000 0000 		.long	.LM8
 2677 00ee 15        		.byte	0x15
 2678 00ef 00        		.byte	0x0
 2679 00f0 05        		.uleb128 0x5
 2680 00f1 02        		.byte	0x2
 2681 00f2 0000 0000 		.long	.LM9
 2682 00f6 15        		.byte	0x15
 2683 00f7 00        		.byte	0x0
 2684 00f8 05        		.uleb128 0x5
 2685 00f9 02        		.byte	0x2
 2686 00fa 0000 0000 		.long	.LM10
 2687 00fe 16        		.byte	0x16
 2688 00ff 00        		.byte	0x0
 2689 0100 05        		.uleb128 0x5
 2690 0101 02        		.byte	0x2
 2691 0102 0000 0000 		.long	.LM11
 2692 0106 16        		.byte	0x16
 2693 0107 00        		.byte	0x0
 2694 0108 05        		.uleb128 0x5
 2695 0109 02        		.byte	0x2
GAS LISTING C:\Users\alex\AppData\Local\Temp/ccrUWSCT.s 			page 50


 2696 010a 0000 0000 		.long	.LM12
 2697 010e 15        		.byte	0x15
 2698 010f 00        		.byte	0x0
 2699 0110 05        		.uleb128 0x5
 2700 0111 02        		.byte	0x2
 2701 0112 0000 0000 		.long	.LM13
 2702 0116 0E        		.byte	0xe
 2703 0117 00        		.byte	0x0
 2704 0118 05        		.uleb128 0x5
 2705 0119 02        		.byte	0x2
 2706 011a 0000 0000 		.long	.LM14
 2707 011e 1C        		.byte	0x1c
 2708 011f 00        		.byte	0x0
 2709 0120 05        		.uleb128 0x5
 2710 0121 02        		.byte	0x2
 2711 0122 0000 0000 		.long	.LM15
 2712 0126 15        		.byte	0x15
 2713 0127 00        		.byte	0x0
 2714 0128 05        		.uleb128 0x5
 2715 0129 02        		.byte	0x2
 2716 012a 0000 0000 		.long	.LM16
 2717 012e 15        		.byte	0x15
 2718 012f 00        		.byte	0x0
 2719 0130 05        		.uleb128 0x5
 2720 0131 02        		.byte	0x2
 2721 0132 0000 0000 		.long	.LM17
 2722 0136 1B        		.byte	0x1b
 2723 0137 00        		.byte	0x0
 2724 0138 05        		.uleb128 0x5
 2725 0139 02        		.byte	0x2
 2726 013a 0000 0000 		.long	.LM18
 2727 013e 15        		.byte	0x15
 2728 013f 00        		.byte	0x0
 2729 0140 05        		.uleb128 0x5
 2730 0141 02        		.byte	0x2
 2731 0142 0000 0000 		.long	.LM19
 2732 0146 15        		.byte	0x15
 2733 0147 00        		.byte	0x0
 2734 0148 05        		.uleb128 0x5
 2735 0149 02        		.byte	0x2
 2736 014a 0000 0000 		.long	.LM20
 2737 014e 17        		.byte	0x17
 2738 014f 00        		.byte	0x0
 2739 0150 05        		.uleb128 0x5
 2740 0151 02        		.byte	0x2
 2741 0152 0000 0000 		.long	.LM21
 2742 0156 15        		.byte	0x15
 2743 0157 00        		.byte	0x0
 2744 0158 05        		.uleb128 0x5
 2745 0159 02        		.byte	0x2
 2746 015a 0000 0000 		.long	.LM22
 2747 015e 15        		.byte	0x15
 2748 015f 00        		.byte	0x0
 2749 0160 05        		.uleb128 0x5
 2750 0161 02        		.byte	0x2
 2751 0162 0000 0000 		.long	.LM23
 2752 0166 18        		.byte	0x18
GAS LISTING C:\Users\alex\AppData\Local\Temp/ccrUWSCT.s 			page 51


 2753 0167 00        		.byte	0x0
 2754 0168 05        		.uleb128 0x5
 2755 0169 02        		.byte	0x2
 2756 016a 0000 0000 		.long	.LM24
 2757 016e 15        		.byte	0x15
 2758 016f 00        		.byte	0x0
 2759 0170 05        		.uleb128 0x5
 2760 0171 02        		.byte	0x2
 2761 0172 0000 0000 		.long	.LM25
 2762 0176 03        		.byte	0x3
 2763 0177 5C        		.sleb128 -36
 2764 0178 01        		.byte	0x1
 2765 0179 00        		.byte	0x0
 2766 017a 05        		.uleb128 0x5
 2767 017b 02        		.byte	0x2
 2768 017c 0000 0000 		.long	.LM26
 2769 0180 3C        		.byte	0x3c
 2770 0181 00        		.byte	0x0
 2771 0182 05        		.uleb128 0x5
 2772 0183 02        		.byte	0x2
 2773 0184 0000 0000 		.long	.LM27
 2774 0188 15        		.byte	0x15
 2775 0189 00        		.byte	0x0
 2776 018a 05        		.uleb128 0x5
 2777 018b 02        		.byte	0x2
 2778 018c 0000 0000 		.long	.LM28
 2779 0190 1B        		.byte	0x1b
 2780 0191 00        		.byte	0x0
 2781 0192 05        		.uleb128 0x5
 2782 0193 02        		.byte	0x2
 2783 0194 0000 0000 		.long	.LM29
 2784 0198 18        		.byte	0x18
 2785 0199 00        		.byte	0x0
 2786 019a 05        		.uleb128 0x5
 2787 019b 02        		.byte	0x2
 2788 019c 0000 0000 		.long	.LM30
 2789 01a0 16        		.byte	0x16
 2790 01a1 00        		.byte	0x0
 2791 01a2 05        		.uleb128 0x5
 2792 01a3 02        		.byte	0x2
 2793 01a4 0000 0000 		.long	.LM31
 2794 01a8 16        		.byte	0x16
 2795 01a9 00        		.byte	0x0
 2796 01aa 05        		.uleb128 0x5
 2797 01ab 02        		.byte	0x2
 2798 01ac 0000 0000 		.long	.LM32
 2799 01b0 15        		.byte	0x15
 2800 01b1 00        		.byte	0x0
 2801 01b2 05        		.uleb128 0x5
 2802 01b3 02        		.byte	0x2
 2803 01b4 0000 0000 		.long	.LM33
 2804 01b8 15        		.byte	0x15
 2805 01b9 00        		.byte	0x0
 2806 01ba 05        		.uleb128 0x5
 2807 01bb 02        		.byte	0x2
 2808 01bc 0000 0000 		.long	.LM34
 2809 01c0 17        		.byte	0x17
GAS LISTING C:\Users\alex\AppData\Local\Temp/ccrUWSCT.s 			page 52


 2810 01c1 00        		.byte	0x0
 2811 01c2 05        		.uleb128 0x5
 2812 01c3 02        		.byte	0x2
 2813 01c4 0000 0000 		.long	.LM35
 2814 01c8 15        		.byte	0x15
 2815 01c9 00        		.byte	0x0
 2816 01ca 05        		.uleb128 0x5
 2817 01cb 02        		.byte	0x2
 2818 01cc 0000 0000 		.long	.LM36
 2819 01d0 16        		.byte	0x16
 2820 01d1 00        		.byte	0x0
 2821 01d2 05        		.uleb128 0x5
 2822 01d3 02        		.byte	0x2
 2823 01d4 0000 0000 		.long	.LM37
 2824 01d8 15        		.byte	0x15
 2825 01d9 00        		.byte	0x0
 2826 01da 05        		.uleb128 0x5
 2827 01db 02        		.byte	0x2
 2828 01dc 0000 0000 		.long	.LM38
 2829 01e0 15        		.byte	0x15
 2830 01e1 00        		.byte	0x0
 2831 01e2 05        		.uleb128 0x5
 2832 01e3 02        		.byte	0x2
 2833 01e4 0000 0000 		.long	.LM39
 2834 01e8 15        		.byte	0x15
 2835 01e9 00        		.byte	0x0
 2836 01ea 05        		.uleb128 0x5
 2837 01eb 02        		.byte	0x2
 2838 01ec 0000 0000 		.long	.LM40
 2839 01f0 16        		.byte	0x16
 2840 01f1 00        		.byte	0x0
 2841 01f2 05        		.uleb128 0x5
 2842 01f3 02        		.byte	0x2
 2843 01f4 0000 0000 		.long	.LM41
 2844 01f8 16        		.byte	0x16
 2845 01f9 00        		.byte	0x0
 2846 01fa 05        		.uleb128 0x5
 2847 01fb 02        		.byte	0x2
 2848 01fc 0000 0000 		.long	.LM42
 2849 0200 16        		.byte	0x16
 2850 0201 00        		.byte	0x0
 2851 0202 05        		.uleb128 0x5
 2852 0203 02        		.byte	0x2
 2853 0204 0000 0000 		.long	.LM43
 2854 0208 16        		.byte	0x16
 2855 0209 00        		.byte	0x0
 2856 020a 05        		.uleb128 0x5
 2857 020b 02        		.byte	0x2
 2858 020c 0000 0000 		.long	.LM44
 2859 0210 16        		.byte	0x16
 2860 0211 00        		.byte	0x0
 2861 0212 05        		.uleb128 0x5
 2862 0213 02        		.byte	0x2
 2863 0214 0000 0000 		.long	.LM45
 2864 0218 16        		.byte	0x16
 2865 0219 00        		.byte	0x0
 2866 021a 05        		.uleb128 0x5
GAS LISTING C:\Users\alex\AppData\Local\Temp/ccrUWSCT.s 			page 53


 2867 021b 02        		.byte	0x2
 2868 021c 0000 0000 		.long	.LM46
 2869 0220 16        		.byte	0x16
 2870 0221 00        		.byte	0x0
 2871 0222 05        		.uleb128 0x5
 2872 0223 02        		.byte	0x2
 2873 0224 0000 0000 		.long	.LM47
 2874 0228 16        		.byte	0x16
 2875 0229 00        		.byte	0x0
 2876 022a 05        		.uleb128 0x5
 2877 022b 02        		.byte	0x2
 2878 022c 0000 0000 		.long	.LM48
 2879 0230 16        		.byte	0x16
 2880 0231 00        		.byte	0x0
 2881 0232 05        		.uleb128 0x5
 2882 0233 02        		.byte	0x2
 2883 0234 0000 0000 		.long	.LM49
 2884 0238 15        		.byte	0x15
 2885 0239 00        		.byte	0x0
 2886 023a 05        		.uleb128 0x5
 2887 023b 02        		.byte	0x2
 2888 023c 0000 0000 		.long	.LM50
 2889 0240 1F        		.byte	0x1f
 2890 0241 00        		.byte	0x0
 2891 0242 05        		.uleb128 0x5
 2892 0243 02        		.byte	0x2
 2893 0244 0000 0000 		.long	.LM51
 2894 0248 15        		.byte	0x15
 2895 0249 00        		.byte	0x0
 2896 024a 05        		.uleb128 0x5
 2897 024b 02        		.byte	0x2
 2898 024c 0000 0000 		.long	.LM52
 2899 0250 16        		.byte	0x16
 2900 0251 00        		.byte	0x0
 2901 0252 05        		.uleb128 0x5
 2902 0253 02        		.byte	0x2
 2903 0254 0000 0000 		.long	.LM53
 2904 0258 16        		.byte	0x16
 2905 0259 00        		.byte	0x0
 2906 025a 05        		.uleb128 0x5
 2907 025b 02        		.byte	0x2
 2908 025c 0000 0000 		.long	.LM54
 2909 0260 16        		.byte	0x16
 2910 0261 00        		.byte	0x0
 2911 0262 05        		.uleb128 0x5
 2912 0263 02        		.byte	0x2
 2913 0264 0000 0000 		.long	.LM55
 2914 0268 16        		.byte	0x16
 2915 0269 00        		.byte	0x0
 2916 026a 05        		.uleb128 0x5
 2917 026b 02        		.byte	0x2
 2918 026c 0000 0000 		.long	.LM56
 2919 0270 15        		.byte	0x15
 2920 0271 00        		.byte	0x0
 2921 0272 05        		.uleb128 0x5
 2922 0273 02        		.byte	0x2
 2923 0274 0000 0000 		.long	.LM57
GAS LISTING C:\Users\alex\AppData\Local\Temp/ccrUWSCT.s 			page 54


 2924 0278 15        		.byte	0x15
 2925 0279 00        		.byte	0x0
 2926 027a 05        		.uleb128 0x5
 2927 027b 02        		.byte	0x2
 2928 027c 0000 0000 		.long	.LM58
 2929 0280 17        		.byte	0x17
 2930 0281 00        		.byte	0x0
 2931 0282 05        		.uleb128 0x5
 2932 0283 02        		.byte	0x2
 2933 0284 0000 0000 		.long	.LM59
 2934 0288 15        		.byte	0x15
 2935 0289 00        		.byte	0x0
 2936 028a 05        		.uleb128 0x5
 2937 028b 02        		.byte	0x2
 2938 028c 0000 0000 		.long	.LM60
 2939 0290 15        		.byte	0x15
 2940 0291 00        		.byte	0x0
 2941 0292 05        		.uleb128 0x5
 2942 0293 02        		.byte	0x2
 2943 0294 0000 0000 		.long	.LM61
 2944 0298 15        		.byte	0x15
 2945 0299 00        		.byte	0x0
 2946 029a 05        		.uleb128 0x5
 2947 029b 02        		.byte	0x2
 2948 029c 0000 0000 		.long	.LM62
 2949 02a0 18        		.byte	0x18
 2950 02a1 00        		.byte	0x0
 2951 02a2 05        		.uleb128 0x5
 2952 02a3 02        		.byte	0x2
 2953 02a4 0000 0000 		.long	.LM63
 2954 02a8 17        		.byte	0x17
 2955 02a9 00        		.byte	0x0
 2956 02aa 05        		.uleb128 0x5
 2957 02ab 02        		.byte	0x2
 2958 02ac 0000 0000 		.long	.LM64
 2959 02b0 15        		.byte	0x15
 2960 02b1 00        		.byte	0x0
 2961 02b2 05        		.uleb128 0x5
 2962 02b3 02        		.byte	0x2
 2963 02b4 0000 0000 		.long	.LM65
 2964 02b8 15        		.byte	0x15
 2965 02b9 00        		.byte	0x0
 2966 02ba 05        		.uleb128 0x5
 2967 02bb 02        		.byte	0x2
 2968 02bc 0000 0000 		.long	.LM66
 2969 02c0 15        		.byte	0x15
 2970 02c1 00        		.byte	0x0
 2971 02c2 05        		.uleb128 0x5
 2972 02c3 02        		.byte	0x2
 2973 02c4 0000 0000 		.long	.LM67
 2974 02c8 15        		.byte	0x15
 2975 02c9 00        		.byte	0x0
 2976 02ca 05        		.uleb128 0x5
 2977 02cb 02        		.byte	0x2
 2978 02cc 0000 0000 		.long	.LM68
 2979 02d0 19        		.byte	0x19
 2980 02d1 00        		.byte	0x0
GAS LISTING C:\Users\alex\AppData\Local\Temp/ccrUWSCT.s 			page 55


 2981 02d2 05        		.uleb128 0x5
 2982 02d3 02        		.byte	0x2
 2983 02d4 0000 0000 		.long	.LM69
 2984 02d8 16        		.byte	0x16
 2985 02d9 00        		.byte	0x0
 2986 02da 05        		.uleb128 0x5
 2987 02db 02        		.byte	0x2
 2988 02dc 0000 0000 		.long	.LM70
 2989 02e0 15        		.byte	0x15
 2990 02e1 00        		.byte	0x0
 2991 02e2 05        		.uleb128 0x5
 2992 02e3 02        		.byte	0x2
 2993 02e4 0000 0000 		.long	.LM71
 2994 02e8 15        		.byte	0x15
 2995 02e9 00        		.byte	0x0
 2996 02ea 05        		.uleb128 0x5
 2997 02eb 02        		.byte	0x2
 2998 02ec 0000 0000 		.long	.LM72
 2999 02f0 16        		.byte	0x16
 3000 02f1 00        		.byte	0x0
 3001 02f2 05        		.uleb128 0x5
 3002 02f3 02        		.byte	0x2
 3003 02f4 0000 0000 		.long	.LM73
 3004 02f8 16        		.byte	0x16
 3005 02f9 00        		.byte	0x0
 3006 02fa 05        		.uleb128 0x5
 3007 02fb 02        		.byte	0x2
 3008 02fc 0000 0000 		.long	.LM74
 3009 0300 15        		.byte	0x15
 3010 0301 00        		.byte	0x0
 3011 0302 05        		.uleb128 0x5
 3012 0303 02        		.byte	0x2
 3013 0304 0000 0000 		.long	.LM75
 3014 0308 16        		.byte	0x16
 3015 0309 00        		.byte	0x0
 3016 030a 05        		.uleb128 0x5
 3017 030b 02        		.byte	0x2
 3018 030c 0000 0000 		.long	.LM76
 3019 0310 15        		.byte	0x15
 3020 0311 00        		.byte	0x0
 3021 0312 05        		.uleb128 0x5
 3022 0313 02        		.byte	0x2
 3023 0314 0000 0000 		.long	.LM77
 3024 0318 15        		.byte	0x15
 3025 0319 00        		.byte	0x0
 3026 031a 05        		.uleb128 0x5
 3027 031b 02        		.byte	0x2
 3028 031c 0000 0000 		.long	.LM78
 3029 0320 17        		.byte	0x17
 3030 0321 00        		.byte	0x0
 3031 0322 05        		.uleb128 0x5
 3032 0323 02        		.byte	0x2
 3033 0324 0000 0000 		.long	.LM79
 3034 0328 15        		.byte	0x15
 3035 0329 00        		.byte	0x0
 3036 032a 05        		.uleb128 0x5
 3037 032b 02        		.byte	0x2
GAS LISTING C:\Users\alex\AppData\Local\Temp/ccrUWSCT.s 			page 56


 3038 032c 0000 0000 		.long	.LM80
 3039 0330 15        		.byte	0x15
 3040 0331 00        		.byte	0x0
 3041 0332 05        		.uleb128 0x5
 3042 0333 02        		.byte	0x2
 3043 0334 0000 0000 		.long	.LM81
 3044 0338 15        		.byte	0x15
 3045 0339 00        		.byte	0x0
 3046 033a 05        		.uleb128 0x5
 3047 033b 02        		.byte	0x2
 3048 033c 0000 0000 		.long	.LM82
 3049 0340 15        		.byte	0x15
 3050 0341 00        		.byte	0x0
 3051 0342 05        		.uleb128 0x5
 3052 0343 02        		.byte	0x2
 3053 0344 0000 0000 		.long	.LM83
 3054 0348 0F        		.byte	0xf
 3055 0349 00        		.byte	0x0
 3056 034a 05        		.uleb128 0x5
 3057 034b 02        		.byte	0x2
 3058 034c 0000 0000 		.long	.LM84
 3059 0350 1E        		.byte	0x1e
 3060 0351 00        		.byte	0x0
 3061 0352 05        		.uleb128 0x5
 3062 0353 02        		.byte	0x2
 3063 0354 0000 0000 		.long	.LM85
 3064 0358 15        		.byte	0x15
 3065 0359 00        		.byte	0x0
 3066 035a 05        		.uleb128 0x5
 3067 035b 02        		.byte	0x2
 3068 035c 0000 0000 		.long	.LM86
 3069 0360 16        		.byte	0x16
 3070 0361 00        		.byte	0x0
 3071 0362 05        		.uleb128 0x5
 3072 0363 02        		.byte	0x2
 3073 0364 0000 0000 		.long	.LM87
 3074 0368 18        		.byte	0x18
 3075 0369 00        		.byte	0x0
 3076 036a 05        		.uleb128 0x5
 3077 036b 02        		.byte	0x2
 3078 036c 0000 0000 		.long	.LM88
 3079 0370 15        		.byte	0x15
 3080 0371 00        		.byte	0x0
 3081 0372 05        		.uleb128 0x5
 3082 0373 02        		.byte	0x2
 3083 0374 0000 0000 		.long	.LM89
 3084 0378 1A        		.byte	0x1a
 3085 0379 00        		.byte	0x0
 3086 037a 05        		.uleb128 0x5
 3087 037b 02        		.byte	0x2
 3088 037c 0000 0000 		.long	.LM90
 3089 0380 15        		.byte	0x15
 3090 0381 00        		.byte	0x0
 3091 0382 05        		.uleb128 0x5
 3092 0383 02        		.byte	0x2
 3093 0384 0000 0000 		.long	.LM91
 3094 0388 15        		.byte	0x15
GAS LISTING C:\Users\alex\AppData\Local\Temp/ccrUWSCT.s 			page 57


 3095 0389 00        		.byte	0x0
 3096 038a 05        		.uleb128 0x5
 3097 038b 02        		.byte	0x2
 3098 038c 0000 0000 		.long	.LM92
 3099 0390 17        		.byte	0x17
 3100 0391 00        		.byte	0x0
 3101 0392 05        		.uleb128 0x5
 3102 0393 02        		.byte	0x2
 3103 0394 0000 0000 		.long	.LM93
 3104 0398 15        		.byte	0x15
 3105 0399 00        		.byte	0x0
 3106 039a 05        		.uleb128 0x5
 3107 039b 02        		.byte	0x2
 3108 039c 0000 0000 		.long	.LM94
 3109 03a0 15        		.byte	0x15
 3110 03a1 00        		.byte	0x0
 3111 03a2 05        		.uleb128 0x5
 3112 03a3 02        		.byte	0x2
 3113 03a4 0000 0000 		.long	.LM95
 3114 03a8 18        		.byte	0x18
 3115 03a9 00        		.byte	0x0
 3116 03aa 05        		.uleb128 0x5
 3117 03ab 02        		.byte	0x2
 3118 03ac 0000 0000 		.long	.LM96
 3119 03b0 18        		.byte	0x18
 3120 03b1 00        		.byte	0x0
 3121 03b2 05        		.uleb128 0x5
 3122 03b3 02        		.byte	0x2
 3123 03b4 0000 0000 		.long	.LM97
 3124 03b8 15        		.byte	0x15
 3125 03b9 00        		.byte	0x0
 3126 03ba 05        		.uleb128 0x5
 3127 03bb 02        		.byte	0x2
 3128 03bc 0000 0000 		.long	.LM98
 3129 03c0 15        		.byte	0x15
 3130 03c1 00        		.byte	0x0
 3131 03c2 05        		.uleb128 0x5
 3132 03c3 02        		.byte	0x2
 3133 03c4 0000 0000 		.long	.LM99
 3134 03c8 16        		.byte	0x16
 3135 03c9 00        		.byte	0x0
 3136 03ca 05        		.uleb128 0x5
 3137 03cb 02        		.byte	0x2
 3138 03cc 0000 0000 		.long	.LM100
 3139 03d0 15        		.byte	0x15
 3140 03d1 00        		.byte	0x0
 3141 03d2 05        		.uleb128 0x5
 3142 03d3 02        		.byte	0x2
 3143 03d4 0000 0000 		.long	.LM101
 3144 03d8 15        		.byte	0x15
 3145 03d9 00        		.byte	0x0
 3146 03da 05        		.uleb128 0x5
 3147 03db 02        		.byte	0x2
 3148 03dc 0000 0000 		.long	.LM102
 3149 03e0 15        		.byte	0x15
 3150 03e1 00        		.byte	0x0
 3151 03e2 05        		.uleb128 0x5
GAS LISTING C:\Users\alex\AppData\Local\Temp/ccrUWSCT.s 			page 58


 3152 03e3 02        		.byte	0x2
 3153 03e4 0000 0000 		.long	.LM103
 3154 03e8 15        		.byte	0x15
 3155 03e9 00        		.byte	0x0
 3156 03ea 05        		.uleb128 0x5
 3157 03eb 02        		.byte	0x2
 3158 03ec 0000 0000 		.long	.LM104
 3159 03f0 15        		.byte	0x15
 3160 03f1 00        		.byte	0x0
 3161 03f2 05        		.uleb128 0x5
 3162 03f3 02        		.byte	0x2
 3163 03f4 0000 0000 		.long	.LM105
 3164 03f8 15        		.byte	0x15
 3165 03f9 00        		.byte	0x0
 3166 03fa 05        		.uleb128 0x5
 3167 03fb 02        		.byte	0x2
 3168 03fc 0000 0000 		.long	.LM106
 3169 0400 15        		.byte	0x15
 3170 0401 00        		.byte	0x0
 3171 0402 05        		.uleb128 0x5
 3172 0403 02        		.byte	0x2
 3173 0404 0000 0000 		.long	.LM107
 3174 0408 15        		.byte	0x15
 3175 0409 00        		.byte	0x0
 3176 040a 05        		.uleb128 0x5
 3177 040b 02        		.byte	0x2
 3178 040c 0000 0000 		.long	.LM108
 3179 0410 16        		.byte	0x16
 3180 0411 00        		.byte	0x0
 3181 0412 05        		.uleb128 0x5
 3182 0413 02        		.byte	0x2
 3183 0414 0000 0000 		.long	.LM109
 3184 0418 19        		.byte	0x19
 3185 0419 00        		.byte	0x0
 3186 041a 05        		.uleb128 0x5
 3187 041b 02        		.byte	0x2
 3188 041c 0000 0000 		.long	.LM110
 3189 0420 16        		.byte	0x16
 3190 0421 00        		.byte	0x0
 3191 0422 05        		.uleb128 0x5
 3192 0423 02        		.byte	0x2
 3193 0424 0000 0000 		.long	.LM111
 3194 0428 15        		.byte	0x15
 3195 0429 00        		.byte	0x0
 3196 042a 05        		.uleb128 0x5
 3197 042b 02        		.byte	0x2
 3198 042c 0000 0000 		.long	.LM112
 3199 0430 15        		.byte	0x15
 3200 0431 00        		.byte	0x0
 3201 0432 05        		.uleb128 0x5
 3202 0433 02        		.byte	0x2
 3203 0434 0000 0000 		.long	.Letext0
 3204 0438 00        		.byte	0x0
 3205 0439 01        		.uleb128 0x1
 3206 043a 01        		.byte	0x1
 3207               	.LELT0:
 3208 043b 1600 0000 		.section	.debug_str,"MS",@progbits,1
GAS LISTING C:\Users\alex\AppData\Local\Temp/ccrUWSCT.s 			page 59


 3208      0200 1000 
 3208      0000 0101 
 3208      FB0E 0A00 
 3208      0101 0101 
 3209               	.LASF18:
 3210 0000 7363 7069 		.string	"scpi_parse_command"
 3210      5F70 6172 
 3210      7365 5F63 
 3210      6F6D 6D61 
 3210      6E64 00
 3211               	.LASF34:
 3212 0013 474E 5520 		.string	"GNU C 4.3.3"
 3212      4320 342E 
 3212      332E 3300 
 3213               	.LASF14:
 3214 001f 6B65 7976 		.string	"keyval"
 3214      616C 00
 3215               	.LASF3:
 3216 0026 696E 7438 		.string	"int8_t"
 3216      5F74 00
 3217               	.LASF10:
 3218 002d 7072 6F67 		.string	"prog_char"
 3218      5F63 6861 
 3218      7200 
 3219               	.LASF13:
 3220 0037 6B65 796E 		.string	"keynr"
 3220      7200 
 3221               	.LASF21:
 3222 003d 7363 7069 		.string	"scpi_get_digit"
 3222      5F67 6574 
 3222      5F64 6967 
 3222      6974 00
 3223               	.LASF30:
 3224 004c 7363 7069 		.string	"scpi_get_longfrac"
 3224      5F67 6574 
 3224      5F6C 6F6E 
 3224      6766 7261 
 3224      6300 
 3225               	.LASF20:
 3226 005e 7265 7476 		.string	"retval"
 3226      616C 00
 3227               	.LASF4:
 3228 0065 7569 6E74 		.string	"uint8_t"
 3228      385F 7400 
 3229               	.LASF19:
 3230 006d 7363 7069 		.string	"scpi_parse_line"
 3230      5F70 6172 
 3230      7365 5F6C 
 3230      696E 6500 
 3231               	.LASF16:
 3232 007d 5F5F 6164 		.string	"__addr16"
 3232      6472 3136 
 3232      00
 3233               	.LASF8:
 3234 0086 6C6F 6E67 		.string	"long long int"
 3234      206C 6F6E 
 3234      6720 696E 
GAS LISTING C:\Users\alex\AppData\Local\Temp/ccrUWSCT.s 			page 60


 3234      7400 
 3235               	.LASF26:
 3236 0094 6D61 7876 		.string	"maxval"
 3236      616C 00
 3237               	.LASF1:
 3238 009b 6C6F 6E67 		.string	"long int"
 3238      2069 6E74 
 3238      00
 3239               	.LASF25:
 3240 00a4 6572 726F 		.string	"errorcode"
 3240      7263 6F64 
 3240      6500 
 3241               	.LASF36:
 3242 00ae 453A 5C61 		.string	"E:\\avr\\hv_et_lab_driver"
 3242      7672 5C68 
 3242      765F 6574 
 3242      5F6C 6162 
 3242      5F64 7269 
 3243               	.LASF5:
 3244 00c6 756E 7369 		.string	"unsigned char"
 3244      676E 6564 
 3244      2063 6861 
 3244      7200 
 3245               	.LASF2:
 3246 00d4 7369 676E 		.string	"signed char"
 3246      6564 2063 
 3246      6861 7200 
 3247               	.LASF9:
 3248 00e0 6C6F 6E67 		.string	"long long unsigned int"
 3248      206C 6F6E 
 3248      6720 756E 
 3248      7369 676E 
 3248      6564 2069 
 3249               	.LASF0:
 3250 00f7 756E 7369 		.string	"unsigned int"
 3250      676E 6564 
 3250      2069 6E74 
 3250      00
 3251               	.LASF6:
 3252 0104 7569 6E74 		.string	"uint16_t"
 3252      3136 5F74 
 3252      00
 3253               	.LASF17:
 3254 010d 5F5F 7265 		.string	"__result"
 3254      7375 6C74 
 3254      00
 3255               	.LASF24:
 3256 0116 6D61 786C 		.string	"maxlen"
 3256      656E 00
 3257               	.LASF29:
 3258 011d 7363 7069 		.string	"scpi_get_long"
 3258      5F67 6574 
 3258      5F6C 6F6E 
 3258      6700 
 3259               	.LASF11:
 3260 012b 6368 6172 		.string	"char"
 3260      00
GAS LISTING C:\Users\alex\AppData\Local\Temp/ccrUWSCT.s 			page 61


 3261               	.LASF32:
 3262 0130 7265 7475 		.string	"return_buf"
 3262      726E 5F62 
 3262      7566 00
 3263               	.LASF28:
 3264 013b 7363 7069 		.string	"scpi_get_int"
 3264      5F67 6574 
 3264      5F69 6E74 
 3264      00
 3265               	.LASF31:
 3266 0148 746D 7032 		.string	"tmp2"
 3266      00
 3267               	.LASF7:
 3268 014d 6C6F 6E67 		.string	"long unsigned int"
 3268      2075 6E73 
 3268      6967 6E65 
 3268      6420 696E 
 3268      7400 
 3269               	.LASF27:
 3270 015f 7369 676E 		.string	"sign"
 3270      00
 3271               	.LASF35:
 3272 0164 7363 7069 		.string	"scpi.c"
 3272      2E63 00
 3273               	.LASF12:
 3274 016b 6E65 775F 		.string	"new_s"
 3274      7300 
 3275               	.LASF33:
 3276 0171 6B65 7977 		.string	"keywords"
 3276      6F72 6473 
 3276      00
 3277               	.LASF23:
 3278 017a 7363 7069 		.string	"scpi_get_value"
 3278      5F67 6574 
 3278      5F76 616C 
 3278      7565 00
 3279               	.LASF15:
 3280 0189 7368 6F72 		.string	"shortkey"
 3280      746B 6579 
 3280      00
 3281               	.LASF22:
 3282 0192 7363 7069 		.string	"scpi_check_buf_empty"
 3282      5F63 6865 
 3282      636B 5F62 
 3282      7566 5F65 
 3282      6D70 7479 
 3283               	.global __do_copy_data
 3284               	.global __do_clear_bss
GAS LISTING C:\Users\alex\AppData\Local\Temp/ccrUWSCT.s 			page 62


DEFINED SYMBOLS
                            *ABS*:00000000 scpi.c
C:\Users\alex\AppData\Local\Temp/ccrUWSCT.s:2      *ABS*:0000003f __SREG__
C:\Users\alex\AppData\Local\Temp/ccrUWSCT.s:3      *ABS*:0000003e __SP_H__
C:\Users\alex\AppData\Local\Temp/ccrUWSCT.s:4      *ABS*:0000003d __SP_L__
C:\Users\alex\AppData\Local\Temp/ccrUWSCT.s:5      *ABS*:00000034 __CCP__
C:\Users\alex\AppData\Local\Temp/ccrUWSCT.s:6      *ABS*:00000000 __tmp_reg__
C:\Users\alex\AppData\Local\Temp/ccrUWSCT.s:7      *ABS*:00000001 __zero_reg__
C:\Users\alex\AppData\Local\Temp/ccrUWSCT.s:18     .text:00000000 scpi_parse_command
C:\Users\alex\AppData\Local\Temp/ccrUWSCT.s:335    .text:000001dc scpi_parse_line
C:\Users\alex\AppData\Local\Temp/ccrUWSCT.s:675    .text:0000043e scpi_get_digit
C:\Users\alex\AppData\Local\Temp/ccrUWSCT.s:788    .text:000004f2 scpi_check_buf_empty
C:\Users\alex\AppData\Local\Temp/ccrUWSCT.s:860    .text:0000055a scpi_get_value
C:\Users\alex\AppData\Local\Temp/ccrUWSCT.s:1109   .text:00000702 scpi_get_int
C:\Users\alex\AppData\Local\Temp/ccrUWSCT.s:1178   .text:00000776 scpi_get_long
C:\Users\alex\AppData\Local\Temp/ccrUWSCT.s:1248   .text:000007e0 scpi_get_longfrac
                            *COM*:00000050 return_buf

UNDEFINED SYMBOLS
keywords
strcpy_P
strlen
islower
strncasecmp
uart_printf
scpi_function
__mulsi3
__divmodsi4
__do_copy_data
__do_clear_bss
