GAS LISTING C:\Users\alex\AppData\Local\Temp/ccPIf7mo.s 			page 1


   1               		.file	"74hc595.c"
   2               	__SREG__ = 0x3f
   3               	__SP_H__ = 0x3e
   4               	__SP_L__ = 0x3d
   5               	__CCP__  = 0x34
   6               	__tmp_reg__ = 0
   7               	__zero_reg__ = 1
   8               		.section	.debug_abbrev,"",@progbits
   9               	.Ldebug_abbrev0:
  10               		.section	.debug_info,"",@progbits
  11               	.Ldebug_info0:
  12               		.section	.debug_line,"",@progbits
  13               	.Ldebug_line0:
  14               		.text
  15               	.Ltext0:
  16               	.global	init_74hc595
  17               		.type	init_74hc595, @function
  18               	init_74hc595:
  19               	.LFB2:
  20               	.LM1:
  21               	.LVL0:
  22 0000 0F93      		push r16
  23 0002 1F93      		push r17
  24               	/* prologue: function */
  25               	/* frame size = 0 */
  26 0004 042F      		mov r16,r20
  27 0006 122F      		mov r17,r18
  28               	.LM2:
  29 0008 262F      		mov r18,r22
  30               	.LVL1:
  31 000a 2F70      		andi r18,lo8(15)
  32 000c 41E0      		ldi r20,lo8(1)
  33 000e 50E0      		ldi r21,hi8(1)
  34               	.LVL2:
  35 0010 FA01      		movw r30,r20
  36 0012 00C0      		rjmp 2f
  37 0014 EE0F      	1:	lsl r30
  38 0016 FF1F      		rol r31
  39 0018 2A95      	2:	dec r18
  40 001a 02F4      		brpl 1b
  41 001c 9F01      		movw r18,r30
  42 001e 3E2F      		mov r19,r30
  43               	.LVL3:
  44               	.LM3:
  45 0020 A82F      		mov r26,r24
  46 0022 B0E0      		ldi r27,lo8(0)
  47 0024 FD01      		movw r30,r26
  48 0026 E050      		subi r30,lo8(-(b_clk))
  49 0028 F040      		sbci r31,hi8(-(b_clk))
  50 002a 2083      		st Z,r18
  51               	.LM4:
  52 002c 812F      		mov r24,r17
  53               	.LVL4:
  54 002e 8F70      		andi r24,lo8(15)
  55 0030 FA01      		movw r30,r20
  56 0032 00C0      		rjmp 2f
  57 0034 EE0F      	1:	lsl r30
GAS LISTING C:\Users\alex\AppData\Local\Temp/ccPIf7mo.s 			page 2


  58 0036 FF1F      		rol r31
  59 0038 8A95      	2:	dec r24
  60 003a 02F4      		brpl 1b
  61 003c CF01      		movw r24,r30
  62 003e 7E2F      		mov r23,r30
  63               	.LVL5:
  64               	.LM5:
  65 0040 FD01      		movw r30,r26
  66 0042 E050      		subi r30,lo8(-(b_data))
  67 0044 F040      		sbci r31,hi8(-(b_data))
  68 0046 8083      		st Z,r24
  69               	.LM6:
  70 0048 802F      		mov r24,r16
  71 004a 8F70      		andi r24,lo8(15)
  72 004c 00C0      		rjmp 2f
  73 004e 440F      	1:	lsl r20
  74 0050 551F      		rol r21
  75 0052 8A95      	2:	dec r24
  76 0054 02F4      		brpl 1b
  77 0056 542F      		mov r21,r20
  78               	.LVL6:
  79               	.LM7:
  80 0058 FD01      		movw r30,r26
  81 005a E050      		subi r30,lo8(-(b_cs))
  82 005c F040      		sbci r31,hi8(-(b_cs))
  83 005e 4083      		st Z,r20
  84               	.LM8:
  85 0060 607F      		andi r22,lo8(-16)
  86               	.LVL7:
  87               	.LM9:
  88 0062 01F4      		brne .L2
  89 0064 FD01      		movw r30,r26
  90 0066 EE0F      		lsl r30
  91 0068 FF1F      		rol r31
  92               	.LVL8:
  93 006a E050      		subi r30,lo8(-(p_clk))
  94 006c F040      		sbci r31,hi8(-(p_clk))
  95 006e 8BE3      		ldi r24,lo8(59)
  96 0070 90E0      		ldi r25,hi8(59)
  97 0072 9183      		std Z+1,r25
  98 0074 8083      		st Z,r24
  99 0076 8AB3      		in r24,58-32
 100 0078 382B      		or r19,r24
 101 007a 3ABB      		out 58-32,r19
 102 007c 00C0      		rjmp .L3
 103               	.LVL9:
 104               	.L2:
 105               	.LM10:
 106 007e 6031      		cpi r22,lo8(16)
 107 0080 01F4      		brne .L4
 108 0082 FD01      		movw r30,r26
 109 0084 EE0F      		lsl r30
 110 0086 FF1F      		rol r31
 111 0088 E050      		subi r30,lo8(-(p_clk))
 112 008a F040      		sbci r31,hi8(-(p_clk))
 113 008c 88E3      		ldi r24,lo8(56)
 114 008e 90E0      		ldi r25,hi8(56)
GAS LISTING C:\Users\alex\AppData\Local\Temp/ccPIf7mo.s 			page 3


 115 0090 9183      		std Z+1,r25
 116 0092 8083      		st Z,r24
 117 0094 87B3      		in r24,55-32
 118 0096 382B      		or r19,r24
 119 0098 37BB      		out 55-32,r19
 120 009a 00C0      		rjmp .L3
 121               	.L4:
 122               	.LM11:
 123 009c 6032      		cpi r22,lo8(32)
 124 009e 01F4      		brne .L5
 125 00a0 FD01      		movw r30,r26
 126 00a2 EE0F      		lsl r30
 127 00a4 FF1F      		rol r31
 128 00a6 E050      		subi r30,lo8(-(p_clk))
 129 00a8 F040      		sbci r31,hi8(-(p_clk))
 130 00aa 85E3      		ldi r24,lo8(53)
 131 00ac 90E0      		ldi r25,hi8(53)
 132 00ae 9183      		std Z+1,r25
 133 00b0 8083      		st Z,r24
 134 00b2 84B3      		in r24,52-32
 135 00b4 382B      		or r19,r24
 136 00b6 34BB      		out 52-32,r19
 137 00b8 00C0      		rjmp .L3
 138               	.L5:
 139               	.LM12:
 140 00ba 6033      		cpi r22,lo8(48)
 141 00bc 01F4      		brne .L3
 142 00be FD01      		movw r30,r26
 143 00c0 EE0F      		lsl r30
 144 00c2 FF1F      		rol r31
 145 00c4 E050      		subi r30,lo8(-(p_clk))
 146 00c6 F040      		sbci r31,hi8(-(p_clk))
 147 00c8 82E3      		ldi r24,lo8(50)
 148 00ca 90E0      		ldi r25,hi8(50)
 149 00cc 9183      		std Z+1,r25
 150 00ce 8083      		st Z,r24
 151 00d0 81B3      		in r24,49-32
 152 00d2 382B      		or r19,r24
 153 00d4 31BB      		out 49-32,r19
 154               	.L3:
 155               	.LM13:
 156 00d6 212F      		mov r18,r17
 157 00d8 207F      		andi r18,lo8(-16)
 158               	.LVL10:
 159               	.LM14:
 160 00da 01F4      		brne .L6
 161 00dc FD01      		movw r30,r26
 162 00de EE0F      		lsl r30
 163 00e0 FF1F      		rol r31
 164 00e2 E050      		subi r30,lo8(-(p_data))
 165 00e4 F040      		sbci r31,hi8(-(p_data))
 166 00e6 8BE3      		ldi r24,lo8(59)
 167 00e8 90E0      		ldi r25,hi8(59)
 168 00ea 9183      		std Z+1,r25
 169 00ec 8083      		st Z,r24
 170 00ee 8AB3      		in r24,58-32
 171 00f0 782B      		or r23,r24
GAS LISTING C:\Users\alex\AppData\Local\Temp/ccPIf7mo.s 			page 4


 172 00f2 7ABB      		out 58-32,r23
 173 00f4 00C0      		rjmp .L7
 174               	.L6:
 175               	.LM15:
 176 00f6 2031      		cpi r18,lo8(16)
 177 00f8 01F4      		brne .L8
 178 00fa FD01      		movw r30,r26
 179 00fc EE0F      		lsl r30
 180 00fe FF1F      		rol r31
 181 0100 E050      		subi r30,lo8(-(p_data))
 182 0102 F040      		sbci r31,hi8(-(p_data))
 183 0104 88E3      		ldi r24,lo8(56)
 184 0106 90E0      		ldi r25,hi8(56)
 185 0108 9183      		std Z+1,r25
 186 010a 8083      		st Z,r24
 187 010c 87B3      		in r24,55-32
 188 010e 782B      		or r23,r24
 189 0110 77BB      		out 55-32,r23
 190 0112 00C0      		rjmp .L7
 191               	.L8:
 192               	.LM16:
 193 0114 2032      		cpi r18,lo8(32)
 194 0116 01F4      		brne .L9
 195 0118 FD01      		movw r30,r26
 196 011a EE0F      		lsl r30
 197 011c FF1F      		rol r31
 198               	.LVL11:
 199 011e E050      		subi r30,lo8(-(p_data))
 200 0120 F040      		sbci r31,hi8(-(p_data))
 201 0122 85E3      		ldi r24,lo8(53)
 202 0124 90E0      		ldi r25,hi8(53)
 203 0126 9183      		std Z+1,r25
 204 0128 8083      		st Z,r24
 205 012a 84B3      		in r24,52-32
 206 012c 782B      		or r23,r24
 207 012e 74BB      		out 52-32,r23
 208 0130 00C0      		rjmp .L7
 209               	.LVL12:
 210               	.L9:
 211               	.LM17:
 212 0132 2033      		cpi r18,lo8(48)
 213 0134 01F4      		brne .L7
 214 0136 FD01      		movw r30,r26
 215 0138 EE0F      		lsl r30
 216 013a FF1F      		rol r31
 217 013c E050      		subi r30,lo8(-(p_data))
 218 013e F040      		sbci r31,hi8(-(p_data))
 219 0140 82E3      		ldi r24,lo8(50)
 220 0142 90E0      		ldi r25,hi8(50)
 221 0144 9183      		std Z+1,r25
 222 0146 8083      		st Z,r24
 223 0148 81B3      		in r24,49-32
 224 014a 782B      		or r23,r24
 225 014c 71BB      		out 49-32,r23
 226               	.L7:
 227               	.LM18:
 228 014e 402F      		mov r20,r16
GAS LISTING C:\Users\alex\AppData\Local\Temp/ccPIf7mo.s 			page 5


 229 0150 407F      		andi r20,lo8(-16)
 230               	.LVL13:
 231               	.LM19:
 232 0152 01F4      		brne .L10
 233 0154 AA0F      		lsl r26
 234 0156 BB1F      		rol r27
 235               	.LVL14:
 236 0158 A050      		subi r26,lo8(-(p_cs))
 237 015a B040      		sbci r27,hi8(-(p_cs))
 238 015c 8BE3      		ldi r24,lo8(59)
 239 015e 90E0      		ldi r25,hi8(59)
 240 0160 8D93      		st X+,r24
 241 0162 9C93      		st X,r25
 242 0164 8AB3      		in r24,58-32
 243 0166 582B      		or r21,r24
 244 0168 5ABB      		out 58-32,r21
 245 016a 00C0      		rjmp .L14
 246               	.LVL15:
 247               	.L10:
 248               	.LM20:
 249 016c 4031      		cpi r20,lo8(16)
 250 016e 01F4      		brne .L12
 251 0170 AA0F      		lsl r26
 252 0172 BB1F      		rol r27
 253               	.LVL16:
 254 0174 A050      		subi r26,lo8(-(p_cs))
 255 0176 B040      		sbci r27,hi8(-(p_cs))
 256 0178 88E3      		ldi r24,lo8(56)
 257 017a 90E0      		ldi r25,hi8(56)
 258 017c 8D93      		st X+,r24
 259 017e 9C93      		st X,r25
 260 0180 87B3      		in r24,55-32
 261 0182 582B      		or r21,r24
 262 0184 57BB      		out 55-32,r21
 263 0186 00C0      		rjmp .L14
 264               	.LVL17:
 265               	.L12:
 266               	.LM21:
 267 0188 4032      		cpi r20,lo8(32)
 268 018a 01F4      		brne .L13
 269 018c AA0F      		lsl r26
 270 018e BB1F      		rol r27
 271 0190 A050      		subi r26,lo8(-(p_cs))
 272 0192 B040      		sbci r27,hi8(-(p_cs))
 273 0194 85E3      		ldi r24,lo8(53)
 274 0196 90E0      		ldi r25,hi8(53)
 275 0198 8D93      		st X+,r24
 276 019a 9C93      		st X,r25
 277 019c 84B3      		in r24,52-32
 278 019e 582B      		or r21,r24
 279 01a0 54BB      		out 52-32,r21
 280 01a2 00C0      		rjmp .L14
 281               	.L13:
 282               	.LM22:
 283 01a4 4033      		cpi r20,lo8(48)
 284 01a6 01F4      		brne .L14
 285 01a8 AA0F      		lsl r26
GAS LISTING C:\Users\alex\AppData\Local\Temp/ccPIf7mo.s 			page 6


 286 01aa BB1F      		rol r27
 287 01ac A050      		subi r26,lo8(-(p_cs))
 288 01ae B040      		sbci r27,hi8(-(p_cs))
 289 01b0 82E3      		ldi r24,lo8(50)
 290 01b2 90E0      		ldi r25,hi8(50)
 291 01b4 8D93      		st X+,r24
 292 01b6 9C93      		st X,r25
 293 01b8 81B3      		in r24,49-32
 294 01ba 582B      		or r21,r24
 295 01bc 51BB      		out 49-32,r21
 296               	.L14:
 297               	/* epilogue start */
 298               	.LM23:
 299 01be 1F91      		pop r17
 300 01c0 0F91      		pop r16
 301 01c2 0895      		ret
 302               	.LFE2:
 303               		.size	init_74hc595, .-init_74hc595
 304               	.global	s595_set_val
 305               		.type	s595_set_val, @function
 306               	s595_set_val:
 307               	.LFB4:
 308               	.LM24:
 309               	.LVL18:
 310               	/* prologue: function */
 311               	/* frame size = 0 */
 312               	.LM25:
 313 01c4 E0E0      		ldi r30,lo8(c_data)
 314 01c6 F0E0      		ldi r31,hi8(c_data)
 315 01c8 E80F      		add r30,r24
 316 01ca F11D      		adc r31,__zero_reg__
 317 01cc 6083      		st Z,r22
 318               	/* epilogue start */
 319               	.LM26:
 320 01ce 0895      		ret
 321               	.LFE4:
 322               		.size	s595_set_val, .-s595_set_val
 323               	.global	s595_write
 324               		.type	s595_write, @function
 325               	s595_write:
 326               	.LFB5:
 327               	.LM27:
 328               	.LVL19:
 329 01d0 6F92      		push r6
 330 01d2 7F92      		push r7
 331 01d4 8F92      		push r8
 332 01d6 9F92      		push r9
 333 01d8 AF92      		push r10
 334 01da BF92      		push r11
 335 01dc CF92      		push r12
 336 01de DF92      		push r13
 337 01e0 EF92      		push r14
 338 01e2 FF92      		push r15
 339 01e4 0F93      		push r16
 340 01e6 1F93      		push r17
 341 01e8 CF93      		push r28
 342 01ea DF93      		push r29
GAS LISTING C:\Users\alex\AppData\Local\Temp/ccPIf7mo.s 			page 7


 343               	/* prologue: function */
 344               	/* frame size = 0 */
 345 01ec 782E      		mov r7,r24
 346               	.LM28:
 347 01ee 0091 0000 		lds r16,p_clk
 348 01f2 1091 0000 		lds r17,(p_clk)+1
 349               	.LVL20:
 350               	.LM29:
 351 01f6 9090 0000 		lds r9,b_clk
 352               	.LVL21:
 353               	.LM30:
 354 01fa E090 0000 		lds r14,p_cs
 355 01fe F090 0000 		lds r15,(p_cs)+1
 356               	.LVL22:
 357               	.LM31:
 358 0202 8090 0000 		lds r8,b_cs
 359               	.LVL23:
 360               	.LM32:
 361 0206 E701      		movw r28,r14
 362 0208 8881      		ld r24,Y
 363               	.LVL24:
 364 020a 682C      		mov r6,r8
 365 020c 6094      		com r6
 366 020e 8621      		and r24,r6
 367 0210 8883      		st Y,r24
 368 0212 E0E0      		ldi r30,lo8(p_data)
 369 0214 CE2E      		mov r12,r30
 370 0216 E0E0      		ldi r30,hi8(p_data)
 371 0218 DE2E      		mov r13,r30
 372 021a A0E0      		ldi r26,lo8(b_data)
 373 021c B0E0      		ldi r27,hi8(b_data)
 374               	.LM33:
 375 021e 472D      		mov r20,r7
 376 0220 50E0      		ldi r21,lo8(0)
 377               	.LM34:
 378 0222 9A01      		movw r18,r20
 379 0224 220F      		lsl r18
 380 0226 331F      		rol r19
 381 0228 2C0D      		add r18,r12
 382 022a 3D1D      		adc r19,r13
 383 022c 00C0      		rjmp .L18
 384               	.LVL25:
 385               	.L19:
 386               	.LM35:
 387 022e E601      		movw r28,r12
 388 0230 E991      		ld r30,Y+
 389 0232 F991      		ld r31,Y+
 390 0234 6E01      		movw r12,r28
 391               	.LM36:
 392 0236 9081      		ld r25,Z
 393 0238 8D91      		ld r24,X+
 394 023a 8095      		com r24
 395 023c 8923      		and r24,r25
 396 023e 8083      		st Z,r24
 397               	.L18:
 398               	.LM37:
 399 0240 C216      		cp r12,r18
GAS LISTING C:\Users\alex\AppData\Local\Temp/ccPIf7mo.s 			page 8


 400 0242 D306      		cpc r13,r19
 401 0244 01F4      		brne .L19
 402 0246 E0E0      		ldi r30,lo8(c_data)
 403 0248 F0E0      		ldi r31,hi8(c_data)
 404               	.LVL26:
 405 024a A0E0      		ldi r26,lo8(copy_data)
 406 024c B0E0      		ldi r27,hi8(copy_data)
 407               	.LM38:
 408 024e 9A01      		movw r18,r20
 409 0250 2E0F      		add r18,r30
 410 0252 3F1F      		adc r19,r31
 411 0254 00C0      		rjmp .L20
 412               	.L21:
 413               	.LM39:
 414 0256 8191      		ld r24,Z+
 415 0258 8D93      		st X+,r24
 416               	.L20:
 417               	.LM40:
 418 025a E217      		cp r30,r18
 419 025c F307      		cpc r31,r19
 420 025e 01F4      		brne .L21
 421               	.LM41:
 422 0260 F801      		movw r30,r16
 423 0262 8081      		ld r24,Z
 424 0264 A92C      		mov r10,r9
 425 0266 A094      		com r10
 426 0268 8A21      		and r24,r10
 427 026a 8083      		st Z,r24
 428 026c BB24      		clr r11
 429               	.LVL27:
 430 026e 00C0      		rjmp .L22
 431               	.LVL28:
 432               	.L25:
 433               	.LM42:
 434 0270 A881      		ld r26,Y
 435 0272 B981      		ldd r27,Y+1
 436               	.LM43:
 437 0274 F901      		movw r30,r18
 438 0276 E050      		subi r30,lo8(-(b_data))
 439 0278 F040      		sbci r31,hi8(-(b_data))
 440 027a 9081      		ld r25,Z
 441               	.LM44:
 442 027c F901      		movw r30,r18
 443 027e E050      		subi r30,lo8(-(copy_data))
 444 0280 F040      		sbci r31,hi8(-(copy_data))
 445 0282 8081      		ld r24,Z
 446 0284 87FD      		sbrc r24,7
 447 0286 00C0      		rjmp .L23
 448               	.LM45:
 449 0288 8C91      		ld r24,X
 450 028a 9095      		com r25
 451 028c 9823      		and r25,r24
 452 028e 9C93      		st X,r25
 453 0290 00C0      		rjmp .L24
 454               	.L23:
 455               	.LM46:
 456 0292 8C91      		ld r24,X
GAS LISTING C:\Users\alex\AppData\Local\Temp/ccPIf7mo.s 			page 9


 457 0294 892B      		or r24,r25
 458 0296 8C93      		st X,r24
 459               	.L24:
 460 0298 2F5F      		subi r18,lo8(-(1))
 461 029a 3F4F      		sbci r19,hi8(-(1))
 462 029c 2296      		adiw r28,2
 463               	.LVL29:
 464               	.L29:
 465               	.LM47:
 466 029e 2715      		cp r18,r7
 467 02a0 00F0      		brlo .L25
 468               	.LM48:
 469 02a2 8AE0      		ldi r24,lo8(10)
 470 02a4 90E0      		ldi r25,hi8(10)
 471 02a6 0E94 0000 		call udelay
 472               	.LVL30:
 473               	.LM49:
 474 02aa E801      		movw r28,r16
 475 02ac 8881      		ld r24,Y
 476 02ae 8929      		or r24,r9
 477 02b0 8883      		st Y,r24
 478               	.LM50:
 479 02b2 84E1      		ldi r24,lo8(20)
 480 02b4 90E0      		ldi r25,hi8(20)
 481 02b6 0E94 0000 		call udelay
 482 02ba C0E0      		ldi r28,lo8(p_data)
 483 02bc D0E0      		ldi r29,hi8(p_data)
 484 02be 20E0      		ldi r18,lo8(b_data)
 485 02c0 30E0      		ldi r19,hi8(b_data)
 486 02c2 A0E0      		ldi r26,lo8(copy_data)
 487 02c4 B0E0      		ldi r27,hi8(copy_data)
 488 02c6 00C0      		rjmp .L26
 489               	.LVL31:
 490               	.L27:
 491               	.LM51:
 492 02c8 4991      		ld r20,Y+
 493 02ca 5991      		ld r21,Y+
 494               	.LM52:
 495 02cc FA01      		movw r30,r20
 496 02ce 9081      		ld r25,Z
 497 02d0 F901      		movw r30,r18
 498 02d2 8191      		ld r24,Z+
 499 02d4 9F01      		movw r18,r30
 500 02d6 8095      		com r24
 501 02d8 8923      		and r24,r25
 502 02da FA01      		movw r30,r20
 503 02dc 8083      		st Z,r24
 504               	.LM53:
 505 02de 8C91      		ld r24,X
 506 02e0 880F      		lsl r24
 507 02e2 8D93      		st X+,r24
 508               	.L26:
 509               	.LM54:
 510 02e4 CC15      		cp r28,r12
 511 02e6 DD05      		cpc r29,r13
 512 02e8 01F4      		brne .L27
 513               	.LM55:
GAS LISTING C:\Users\alex\AppData\Local\Temp/ccPIf7mo.s 			page 10


 514 02ea E801      		movw r28,r16
 515 02ec 8881      		ld r24,Y
 516 02ee 8A21      		and r24,r10
 517 02f0 8883      		st Y,r24
 518               	.LM56:
 519 02f2 B394      		inc r11
 520 02f4 E8E0      		ldi r30,lo8(8)
 521 02f6 BE16      		cp r11,r30
 522 02f8 01F0      		breq .L28
 523               	.L22:
 524 02fa C0E0      		ldi r28,lo8(p_data)
 525 02fc D0E0      		ldi r29,hi8(p_data)
 526 02fe 20E0      		ldi r18,lo8(0)
 527 0300 30E0      		ldi r19,hi8(0)
 528 0302 00C0      		rjmp .L29
 529               	.L28:
 530               	.LM57:
 531 0304 84E1      		ldi r24,lo8(20)
 532 0306 90E0      		ldi r25,hi8(20)
 533 0308 0E94 0000 		call udelay
 534               	.LVL32:
 535               	.LM58:
 536 030c E701      		movw r28,r14
 537 030e 8881      		ld r24,Y
 538 0310 8829      		or r24,r8
 539 0312 8883      		st Y,r24
 540               	.LM59:
 541 0314 84E1      		ldi r24,lo8(20)
 542 0316 90E0      		ldi r25,hi8(20)
 543 0318 0E94 0000 		call udelay
 544               	.LM60:
 545 031c 8881      		ld r24,Y
 546 031e 8621      		and r24,r6
 547 0320 8883      		st Y,r24
 548               	.LM61:
 549 0322 84E1      		ldi r24,lo8(20)
 550 0324 90E0      		ldi r25,hi8(20)
 551 0326 0E94 0000 		call udelay
 552               	/* epilogue start */
 553               	.LM62:
 554 032a DF91      		pop r29
 555 032c CF91      		pop r28
 556 032e 1F91      		pop r17
 557 0330 0F91      		pop r16
 558               	.LVL33:
 559 0332 FF90      		pop r15
 560 0334 EF90      		pop r14
 561               	.LVL34:
 562 0336 DF90      		pop r13
 563 0338 CF90      		pop r12
 564 033a BF90      		pop r11
 565               	.LVL35:
 566 033c AF90      		pop r10
 567 033e 9F90      		pop r9
 568               	.LVL36:
 569 0340 8F90      		pop r8
 570               	.LVL37:
GAS LISTING C:\Users\alex\AppData\Local\Temp/ccPIf7mo.s 			page 11


 571 0342 7F90      		pop r7
 572               	.LVL38:
 573 0344 6F90      		pop r6
 574 0346 0895      		ret
 575               	.LFE5:
 576               		.size	s595_write, .-s595_write
 577               	.global	s595_putc
 578               		.type	s595_putc, @function
 579               	s595_putc:
 580               	.LFB3:
 581               	.LM63:
 582               	.LVL39:
 583 0348 6F92      		push r6
 584 034a 7F92      		push r7
 585 034c 8F92      		push r8
 586 034e 9F92      		push r9
 587 0350 AF92      		push r10
 588 0352 BF92      		push r11
 589 0354 CF92      		push r12
 590 0356 DF92      		push r13
 591 0358 EF92      		push r14
 592 035a FF92      		push r15
 593 035c 0F93      		push r16
 594 035e 1F93      		push r17
 595 0360 CF93      		push r28
 596 0362 DF93      		push r29
 597               	/* prologue: function */
 598               	/* frame size = 0 */
 599 0364 B62E      		mov r11,r22
 600               	.LM64:
 601 0366 90E0      		ldi r25,lo8(0)
 602 0368 FC01      		movw r30,r24
 603               	.LVL40:
 604 036a EE0F      		lsl r30
 605 036c FF1F      		rol r31
 606 036e DF01      		movw r26,r30
 607 0370 A050      		subi r26,lo8(-(p_clk))
 608 0372 B040      		sbci r27,hi8(-(p_clk))
 609 0374 0D91      		ld r16,X+
 610 0376 1C91      		ld r17,X
 611               	.LVL41:
 612               	.LM65:
 613 0378 DF01      		movw r26,r30
 614 037a A050      		subi r26,lo8(-(p_data))
 615 037c B040      		sbci r27,hi8(-(p_data))
 616 037e CD91      		ld r28,X+
 617 0380 DC91      		ld r29,X
 618               	.LVL42:
 619               	.LM66:
 620 0382 E050      		subi r30,lo8(-(p_cs))
 621 0384 F040      		sbci r31,hi8(-(p_cs))
 622 0386 E080      		ld r14,Z
 623 0388 F180      		ldd r15,Z+1
 624               	.LVL43:
 625               	.LM67:
 626 038a FC01      		movw r30,r24
 627 038c E050      		subi r30,lo8(-(b_clk))
GAS LISTING C:\Users\alex\AppData\Local\Temp/ccPIf7mo.s 			page 12


 628 038e F040      		sbci r31,hi8(-(b_clk))
 629 0390 7080      		ld r7,Z
 630               	.LVL44:
 631               	.LM68:
 632 0392 FC01      		movw r30,r24
 633 0394 E050      		subi r30,lo8(-(b_data))
 634 0396 F040      		sbci r31,hi8(-(b_data))
 635 0398 9080      		ld r9,Z
 636               	.LVL45:
 637               	.LM69:
 638 039a 8050      		subi r24,lo8(-(b_cs))
 639 039c 9040      		sbci r25,hi8(-(b_cs))
 640 039e FC01      		movw r30,r24
 641 03a0 8080      		ld r8,Z
 642               	.LVL46:
 643               	.LM70:
 644 03a2 F701      		movw r30,r14
 645 03a4 8081      		ld r24,Z
 646 03a6 682C      		mov r6,r8
 647 03a8 6094      		com r6
 648 03aa 8621      		and r24,r6
 649 03ac 8083      		st Z,r24
 650               	.LM71:
 651 03ae 8881      		ld r24,Y
 652 03b0 C92C      		mov r12,r9
 653 03b2 C094      		com r12
 654 03b4 8C21      		and r24,r12
 655 03b6 8883      		st Y,r24
 656               	.LM72:
 657 03b8 F801      		movw r30,r16
 658 03ba 8081      		ld r24,Z
 659 03bc A72C      		mov r10,r7
 660 03be A094      		com r10
 661 03c0 8A21      		and r24,r10
 662 03c2 8083      		st Z,r24
 663 03c4 DD24      		clr r13
 664               	.LVL47:
 665               	.L35:
 666               	.LM73:
 667 03c6 B7FC      		sbrc r11,7
 668 03c8 00C0      		rjmp .L32
 669               	.LM74:
 670 03ca 8881      		ld r24,Y
 671 03cc 8C21      		and r24,r12
 672 03ce 00C0      		rjmp .L37
 673               	.L32:
 674               	.LM75:
 675 03d0 8881      		ld r24,Y
 676 03d2 8929      		or r24,r9
 677               	.L37:
 678 03d4 8883      		st Y,r24
 679               	.LM76:
 680 03d6 8AE0      		ldi r24,lo8(10)
 681 03d8 90E0      		ldi r25,hi8(10)
 682 03da 0E94 0000 		call udelay
 683               	.LM77:
 684 03de F801      		movw r30,r16
GAS LISTING C:\Users\alex\AppData\Local\Temp/ccPIf7mo.s 			page 13


 685 03e0 8081      		ld r24,Z
 686 03e2 8729      		or r24,r7
 687 03e4 8083      		st Z,r24
 688               	.LM78:
 689 03e6 84E1      		ldi r24,lo8(20)
 690 03e8 90E0      		ldi r25,hi8(20)
 691 03ea 0E94 0000 		call udelay
 692               	.LM79:
 693 03ee 8881      		ld r24,Y
 694 03f0 8C21      		and r24,r12
 695 03f2 8883      		st Y,r24
 696               	.LM80:
 697 03f4 F801      		movw r30,r16
 698 03f6 8081      		ld r24,Z
 699 03f8 8A21      		and r24,r10
 700 03fa 8083      		st Z,r24
 701               	.LM81:
 702 03fc D394      		inc r13
 703 03fe F8E0      		ldi r31,lo8(8)
 704 0400 DF16      		cp r13,r31
 705 0402 01F0      		breq .L34
 706               	.LM82:
 707 0404 BB0C      		lsl r11
 708 0406 00C0      		rjmp .L35
 709               	.L34:
 710               	.LM83:
 711 0408 84E1      		ldi r24,lo8(20)
 712 040a 90E0      		ldi r25,hi8(20)
 713 040c 0E94 0000 		call udelay
 714               	.LM84:
 715 0410 F701      		movw r30,r14
 716 0412 8081      		ld r24,Z
 717 0414 8829      		or r24,r8
 718 0416 8083      		st Z,r24
 719               	.LM85:
 720 0418 84E1      		ldi r24,lo8(20)
 721 041a 90E0      		ldi r25,hi8(20)
 722 041c 0E94 0000 		call udelay
 723               	.LM86:
 724 0420 F701      		movw r30,r14
 725 0422 8081      		ld r24,Z
 726 0424 8621      		and r24,r6
 727 0426 8083      		st Z,r24
 728               	.LM87:
 729 0428 84E1      		ldi r24,lo8(20)
 730 042a 90E0      		ldi r25,hi8(20)
 731 042c 0E94 0000 		call udelay
 732               	/* epilogue start */
 733               	.LM88:
 734 0430 DF91      		pop r29
 735 0432 CF91      		pop r28
 736               	.LVL48:
 737 0434 1F91      		pop r17
 738 0436 0F91      		pop r16
 739               	.LVL49:
 740 0438 FF90      		pop r15
 741 043a EF90      		pop r14
GAS LISTING C:\Users\alex\AppData\Local\Temp/ccPIf7mo.s 			page 14


 742               	.LVL50:
 743 043c DF90      		pop r13
 744               	.LVL51:
 745 043e CF90      		pop r12
 746 0440 BF90      		pop r11
 747               	.LVL52:
 748 0442 AF90      		pop r10
 749 0444 9F90      		pop r9
 750               	.LVL53:
 751 0446 8F90      		pop r8
 752               	.LVL54:
 753 0448 7F90      		pop r7
 754               	.LVL55:
 755 044a 6F90      		pop r6
 756 044c 0895      		ret
 757               	.LFE3:
 758               		.size	s595_putc, .-s595_putc
 759               		.comm p_cs,40,1
 760               		.comm p_data,40,1
 761               		.comm p_clk,40,1
 762               		.comm b_cs,20,1
 763               		.comm b_data,20,1
 764               		.comm b_clk,20,1
 765               		.comm c_data,20,1
 766               		.comm copy_data,20,1
 767               		.section	.debug_frame,"",@progbits
 768               	.Lframe0:
 769 0000 0C00 0000 		.long	.LECIE0-.LSCIE0
 770               	.LSCIE0:
 771 0004 FFFF FFFF 		.long	0xffffffff
 772 0008 01        		.byte	0x1
 773 0009 00        		.string	""
 774 000a 01        		.uleb128 0x1
 775 000b 7F        		.sleb128 -1
 776 000c 24        		.byte	0x24
 777 000d 0C        		.byte	0xc
 778 000e 20        		.uleb128 0x20
 779 000f 00        		.uleb128 0x0
 780               		.p2align	2
 781               	.LECIE0:
 782               	.LSFDE0:
 783 0010 0C00 0000 		.long	.LEFDE0-.LASFDE0
 784               	.LASFDE0:
 785 0014 0000 0000 		.long	.Lframe0
 786 0018 0000 0000 		.long	.LFB2
 787 001c C401 0000 		.long	.LFE2-.LFB2
 788               		.p2align	2
 789               	.LEFDE0:
 790               	.LSFDE2:
 791 0020 0C00 0000 		.long	.LEFDE2-.LASFDE2
 792               	.LASFDE2:
 793 0024 0000 0000 		.long	.Lframe0
 794 0028 0000 0000 		.long	.LFB4
 795 002c 0C00 0000 		.long	.LFE4-.LFB4
 796               		.p2align	2
 797               	.LEFDE2:
 798               	.LSFDE4:
GAS LISTING C:\Users\alex\AppData\Local\Temp/ccPIf7mo.s 			page 15


 799 0030 0C00 0000 		.long	.LEFDE4-.LASFDE4
 800               	.LASFDE4:
 801 0034 0000 0000 		.long	.Lframe0
 802 0038 0000 0000 		.long	.LFB5
 803 003c 7801 0000 		.long	.LFE5-.LFB5
 804               		.p2align	2
 805               	.LEFDE4:
 806               	.LSFDE6:
 807 0040 0C00 0000 		.long	.LEFDE6-.LASFDE6
 808               	.LASFDE6:
 809 0044 0000 0000 		.long	.Lframe0
 810 0048 0000 0000 		.long	.LFB3
 811 004c 0601 0000 		.long	.LFE3-.LFB3
 812               		.p2align	2
 813               	.LEFDE6:
 814               		.text
 815               	.Letext0:
 816               		.section	.debug_loc,"",@progbits
 817               	.Ldebug_loc0:
 818               	.LLST1:
 819 0000 0000 0000 		.long	.LVL0-.Ltext0
 820 0004 2E00 0000 		.long	.LVL4-.Ltext0
 821 0008 0100      		.word	0x1
 822 000a 68        		.byte	0x68
 823 000b 0000 0000 		.long	0x0
 824 000f 0000 0000 		.long	0x0
 825               	.LLST2:
 826 0013 0000 0000 		.long	.LVL0-.Ltext0
 827 0017 6A00 0000 		.long	.LVL8-.Ltext0
 828 001b 0100      		.word	0x1
 829 001d 66        		.byte	0x66
 830 001e 7E00 0000 		.long	.LVL9-.Ltext0
 831 0022 1E01 0000 		.long	.LVL11-.Ltext0
 832 0026 0100      		.word	0x1
 833 0028 66        		.byte	0x66
 834 0029 3201 0000 		.long	.LVL12-.Ltext0
 835 002d C401 0000 		.long	.LFE2-.Ltext0
 836 0031 0100      		.word	0x1
 837 0033 66        		.byte	0x66
 838 0034 0000 0000 		.long	0x0
 839 0038 0000 0000 		.long	0x0
 840               	.LLST3:
 841 003c 0000 0000 		.long	.LVL0-.Ltext0
 842 0040 1000 0000 		.long	.LVL2-.Ltext0
 843 0044 0100      		.word	0x1
 844 0046 64        		.byte	0x64
 845 0047 1000 0000 		.long	.LVL2-.Ltext0
 846 004b 5201 0000 		.long	.LVL13-.Ltext0
 847 004f 0100      		.word	0x1
 848 0051 60        		.byte	0x60
 849 0052 5201 0000 		.long	.LVL13-.Ltext0
 850 0056 C401 0000 		.long	.LFE2-.Ltext0
 851 005a 0100      		.word	0x1
 852 005c 64        		.byte	0x64
 853 005d 0000 0000 		.long	0x0
 854 0061 0000 0000 		.long	0x0
 855               	.LLST4:
GAS LISTING C:\Users\alex\AppData\Local\Temp/ccPIf7mo.s 			page 16


 856 0065 0000 0000 		.long	.LVL0-.Ltext0
 857 0069 0A00 0000 		.long	.LVL1-.Ltext0
 858 006d 0100      		.word	0x1
 859 006f 62        		.byte	0x62
 860 0070 0A00 0000 		.long	.LVL1-.Ltext0
 861 0074 DA00 0000 		.long	.LVL10-.Ltext0
 862 0078 0100      		.word	0x1
 863 007a 61        		.byte	0x61
 864 007b DA00 0000 		.long	.LVL10-.Ltext0
 865 007f 7401 0000 		.long	.LVL16-.Ltext0
 866 0083 0100      		.word	0x1
 867 0085 62        		.byte	0x62
 868 0086 8801 0000 		.long	.LVL17-.Ltext0
 869 008a C401 0000 		.long	.LFE2-.Ltext0
 870 008e 0100      		.word	0x1
 871 0090 62        		.byte	0x62
 872 0091 0000 0000 		.long	0x0
 873 0095 0000 0000 		.long	0x0
 874               	.LLST5:
 875 0099 2000 0000 		.long	.LVL3-.Ltext0
 876 009d 5801 0000 		.long	.LVL14-.Ltext0
 877 00a1 0100      		.word	0x1
 878 00a3 63        		.byte	0x63
 879 00a4 6C01 0000 		.long	.LVL15-.Ltext0
 880 00a8 C401 0000 		.long	.LFE2-.Ltext0
 881 00ac 0100      		.word	0x1
 882 00ae 63        		.byte	0x63
 883 00af 0000 0000 		.long	0x0
 884 00b3 0000 0000 		.long	0x0
 885               	.LLST8:
 886 00b7 D001 0000 		.long	.LVL19-.Ltext0
 887 00bb 0A02 0000 		.long	.LVL24-.Ltext0
 888 00bf 0100      		.word	0x1
 889 00c1 68        		.byte	0x68
 890 00c2 0A02 0000 		.long	.LVL24-.Ltext0
 891 00c6 4403 0000 		.long	.LVL38-.Ltext0
 892 00ca 0100      		.word	0x1
 893 00cc 57        		.byte	0x57
 894 00cd 0000 0000 		.long	0x0
 895 00d1 0000 0000 		.long	0x0
 896               	.LLST9:
 897 00d5 F601 0000 		.long	.LVL20-.Ltext0
 898 00d9 3203 0000 		.long	.LVL33-.Ltext0
 899 00dd 0600      		.word	0x6
 900 00df 60        		.byte	0x60
 901 00e0 93        		.byte	0x93
 902 00e1 01        		.uleb128 0x1
 903 00e2 61        		.byte	0x61
 904 00e3 93        		.byte	0x93
 905 00e4 01        		.uleb128 0x1
 906 00e5 0000 0000 		.long	0x0
 907 00e9 0000 0000 		.long	0x0
 908               	.LLST10:
 909 00ed 0202 0000 		.long	.LVL22-.Ltext0
 910 00f1 3603 0000 		.long	.LVL34-.Ltext0
 911 00f5 0600      		.word	0x6
 912 00f7 5E        		.byte	0x5e
GAS LISTING C:\Users\alex\AppData\Local\Temp/ccPIf7mo.s 			page 17


 913 00f8 93        		.byte	0x93
 914 00f9 01        		.uleb128 0x1
 915 00fa 5F        		.byte	0x5f
 916 00fb 93        		.byte	0x93
 917 00fc 01        		.uleb128 0x1
 918 00fd 0000 0000 		.long	0x0
 919 0101 0000 0000 		.long	0x0
 920               	.LLST11:
 921 0105 2E02 0000 		.long	.LVL25-.Ltext0
 922 0109 4A02 0000 		.long	.LVL26-.Ltext0
 923 010d 0600      		.word	0x6
 924 010f 6E        		.byte	0x6e
 925 0110 93        		.byte	0x93
 926 0111 01        		.uleb128 0x1
 927 0112 6F        		.byte	0x6f
 928 0113 93        		.byte	0x93
 929 0114 01        		.uleb128 0x1
 930 0115 7002 0000 		.long	.LVL28-.Ltext0
 931 0119 AA02 0000 		.long	.LVL30-.Ltext0
 932 011d 0600      		.word	0x6
 933 011f 6A        		.byte	0x6a
 934 0120 93        		.byte	0x93
 935 0121 01        		.uleb128 0x1
 936 0122 6B        		.byte	0x6b
 937 0123 93        		.byte	0x93
 938 0124 01        		.uleb128 0x1
 939 0125 C802 0000 		.long	.LVL31-.Ltext0
 940 0129 0C03 0000 		.long	.LVL32-.Ltext0
 941 012d 0600      		.word	0x6
 942 012f 64        		.byte	0x64
 943 0130 93        		.byte	0x93
 944 0131 01        		.uleb128 0x1
 945 0132 65        		.byte	0x65
 946 0133 93        		.byte	0x93
 947 0134 01        		.uleb128 0x1
 948 0135 0000 0000 		.long	0x0
 949 0139 0000 0000 		.long	0x0
 950               	.LLST12:
 951 013d FA01 0000 		.long	.LVL21-.Ltext0
 952 0141 4003 0000 		.long	.LVL36-.Ltext0
 953 0145 0100      		.word	0x1
 954 0147 59        		.byte	0x59
 955 0148 0000 0000 		.long	0x0
 956 014c 0000 0000 		.long	0x0
 957               	.LLST13:
 958 0150 0602 0000 		.long	.LVL23-.Ltext0
 959 0154 4203 0000 		.long	.LVL37-.Ltext0
 960 0158 0100      		.word	0x1
 961 015a 58        		.byte	0x58
 962 015b 0000 0000 		.long	0x0
 963 015f 0000 0000 		.long	0x0
 964               	.LLST14:
 965 0163 7002 0000 		.long	.LVL28-.Ltext0
 966 0167 AA02 0000 		.long	.LVL30-.Ltext0
 967 016b 0100      		.word	0x1
 968 016d 69        		.byte	0x69
 969 016e 0000 0000 		.long	0x0
GAS LISTING C:\Users\alex\AppData\Local\Temp/ccPIf7mo.s 			page 18


 970 0172 0000 0000 		.long	0x0
 971               	.LLST15:
 972 0176 6E02 0000 		.long	.LVL27-.Ltext0
 973 017a 3C03 0000 		.long	.LVL35-.Ltext0
 974 017e 0100      		.word	0x1
 975 0180 5B        		.byte	0x5b
 976 0181 0000 0000 		.long	0x0
 977 0185 0000 0000 		.long	0x0
 978               	.LLST17:
 979 0189 4803 0000 		.long	.LVL39-.Ltext0
 980 018d 6A03 0000 		.long	.LVL40-.Ltext0
 981 0191 0100      		.word	0x1
 982 0193 68        		.byte	0x68
 983 0194 0000 0000 		.long	0x0
 984 0198 0000 0000 		.long	0x0
 985               	.LLST18:
 986 019c 4803 0000 		.long	.LVL39-.Ltext0
 987 01a0 C603 0000 		.long	.LVL47-.Ltext0
 988 01a4 0100      		.word	0x1
 989 01a6 66        		.byte	0x66
 990 01a7 C603 0000 		.long	.LVL47-.Ltext0
 991 01ab 4204 0000 		.long	.LVL52-.Ltext0
 992 01af 0100      		.word	0x1
 993 01b1 5B        		.byte	0x5b
 994 01b2 0000 0000 		.long	0x0
 995 01b6 0000 0000 		.long	0x0
 996               	.LLST19:
 997 01ba 7803 0000 		.long	.LVL41-.Ltext0
 998 01be 3804 0000 		.long	.LVL49-.Ltext0
 999 01c2 0600      		.word	0x6
 1000 01c4 60        		.byte	0x60
 1001 01c5 93        		.byte	0x93
 1002 01c6 01        		.uleb128 0x1
 1003 01c7 61        		.byte	0x61
 1004 01c8 93        		.byte	0x93
 1005 01c9 01        		.uleb128 0x1
 1006 01ca 0000 0000 		.long	0x0
 1007 01ce 0000 0000 		.long	0x0
 1008               	.LLST20:
 1009 01d2 8A03 0000 		.long	.LVL43-.Ltext0
 1010 01d6 3C04 0000 		.long	.LVL50-.Ltext0
 1011 01da 0600      		.word	0x6
 1012 01dc 5E        		.byte	0x5e
 1013 01dd 93        		.byte	0x93
 1014 01de 01        		.uleb128 0x1
 1015 01df 5F        		.byte	0x5f
 1016 01e0 93        		.byte	0x93
 1017 01e1 01        		.uleb128 0x1
 1018 01e2 0000 0000 		.long	0x0
 1019 01e6 0000 0000 		.long	0x0
 1020               	.LLST21:
 1021 01ea 8203 0000 		.long	.LVL42-.Ltext0
 1022 01ee 3404 0000 		.long	.LVL48-.Ltext0
 1023 01f2 0600      		.word	0x6
 1024 01f4 6C        		.byte	0x6c
 1025 01f5 93        		.byte	0x93
 1026 01f6 01        		.uleb128 0x1
GAS LISTING C:\Users\alex\AppData\Local\Temp/ccPIf7mo.s 			page 19


 1027 01f7 6D        		.byte	0x6d
 1028 01f8 93        		.byte	0x93
 1029 01f9 01        		.uleb128 0x1
 1030 01fa 0000 0000 		.long	0x0
 1031 01fe 0000 0000 		.long	0x0
 1032               	.LLST22:
 1033 0202 9203 0000 		.long	.LVL44-.Ltext0
 1034 0206 4A04 0000 		.long	.LVL55-.Ltext0
 1035 020a 0100      		.word	0x1
 1036 020c 57        		.byte	0x57
 1037 020d 0000 0000 		.long	0x0
 1038 0211 0000 0000 		.long	0x0
 1039               	.LLST23:
 1040 0215 A203 0000 		.long	.LVL46-.Ltext0
 1041 0219 4804 0000 		.long	.LVL54-.Ltext0
 1042 021d 0100      		.word	0x1
 1043 021f 58        		.byte	0x58
 1044 0220 0000 0000 		.long	0x0
 1045 0224 0000 0000 		.long	0x0
 1046               	.LLST24:
 1047 0228 9A03 0000 		.long	.LVL45-.Ltext0
 1048 022c 4604 0000 		.long	.LVL53-.Ltext0
 1049 0230 0100      		.word	0x1
 1050 0232 59        		.byte	0x59
 1051 0233 0000 0000 		.long	0x0
 1052 0237 0000 0000 		.long	0x0
 1053               	.LLST25:
 1054 023b C603 0000 		.long	.LVL47-.Ltext0
 1055 023f 3E04 0000 		.long	.LVL51-.Ltext0
 1056 0243 0100      		.word	0x1
 1057 0245 5D        		.byte	0x5d
 1058 0246 0000 0000 		.long	0x0
 1059 024a 0000 0000 		.long	0x0
 1060               		.section	.debug_info
 1061 0000 2503 0000 		.long	0x325
 1062 0004 0200      		.word	0x2
 1063 0006 0000 0000 		.long	.Ldebug_abbrev0
 1064 000a 04        		.byte	0x4
 1065 000b 01        		.uleb128 0x1
 1066 000c 0000 0000 		.long	.LASF26
 1067 0010 01        		.byte	0x1
 1068 0011 0000 0000 		.long	.LASF27
 1069 0015 0000 0000 		.long	.LASF28
 1070 0019 0000 0000 		.long	.Ltext0
 1071 001d 0000 0000 		.long	.Letext0
 1072 0021 0000 0000 		.long	.Ldebug_line0
 1073 0025 02        		.uleb128 0x2
 1074 0026 01        		.byte	0x1
 1075 0027 06        		.byte	0x6
 1076 0028 0000 0000 		.long	.LASF0
 1077 002c 03        		.uleb128 0x3
 1078 002d 0000 0000 		.long	.LASF29
 1079 0031 02        		.byte	0x2
 1080 0032 7A        		.byte	0x7a
 1081 0033 3700 0000 		.long	0x37
 1082 0037 02        		.uleb128 0x2
 1083 0038 01        		.byte	0x1
GAS LISTING C:\Users\alex\AppData\Local\Temp/ccPIf7mo.s 			page 20


 1084 0039 08        		.byte	0x8
 1085 003a 0000 0000 		.long	.LASF1
 1086 003e 04        		.uleb128 0x4
 1087 003f 02        		.byte	0x2
 1088 0040 05        		.byte	0x5
 1089 0041 696E 7400 		.string	"int"
 1090 0045 02        		.uleb128 0x2
 1091 0046 02        		.byte	0x2
 1092 0047 07        		.byte	0x7
 1093 0048 0000 0000 		.long	.LASF2
 1094 004c 02        		.uleb128 0x2
 1095 004d 04        		.byte	0x4
 1096 004e 05        		.byte	0x5
 1097 004f 0000 0000 		.long	.LASF3
 1098 0053 02        		.uleb128 0x2
 1099 0054 04        		.byte	0x4
 1100 0055 07        		.byte	0x7
 1101 0056 0000 0000 		.long	.LASF4
 1102 005a 02        		.uleb128 0x2
 1103 005b 08        		.byte	0x8
 1104 005c 05        		.byte	0x5
 1105 005d 0000 0000 		.long	.LASF5
 1106 0061 02        		.uleb128 0x2
 1107 0062 08        		.byte	0x8
 1108 0063 07        		.byte	0x7
 1109 0064 0000 0000 		.long	.LASF6
 1110 0068 05        		.uleb128 0x5
 1111 0069 01        		.byte	0x1
 1112 006a 08        		.byte	0x8
 1113 006b 06        		.uleb128 0x6
 1114 006c 01        		.byte	0x1
 1115 006d 0000 0000 		.long	.LASF11
 1116 0071 01        		.byte	0x1
 1117 0072 21        		.byte	0x21
 1118 0073 01        		.byte	0x1
 1119 0074 0000 0000 		.long	.LFB2
 1120 0078 0000 0000 		.long	.LFE2
 1121 007c 02        		.byte	0x2
 1122 007d 90        		.byte	0x90
 1123 007e 20        		.uleb128 0x20
 1124 007f E800 0000 		.long	0xe8
 1125 0083 07        		.uleb128 0x7
 1126 0084 0000 0000 		.long	.LASF7
 1127 0088 01        		.byte	0x1
 1128 0089 1F        		.byte	0x1f
 1129 008a 2C00 0000 		.long	0x2c
 1130 008e 0000 0000 		.long	.LLST1
 1131 0092 08        		.uleb128 0x8
 1132 0093 636C 6B00 		.string	"clk"
 1133 0097 01        		.byte	0x1
 1134 0098 1F        		.byte	0x1f
 1135 0099 2C00 0000 		.long	0x2c
 1136 009d 0000 0000 		.long	.LLST2
 1137 00a1 08        		.uleb128 0x8
 1138 00a2 6373 00   		.string	"cs"
 1139 00a5 01        		.byte	0x1
 1140 00a6 1F        		.byte	0x1f
GAS LISTING C:\Users\alex\AppData\Local\Temp/ccPIf7mo.s 			page 21


 1141 00a7 2C00 0000 		.long	0x2c
 1142 00ab 0000 0000 		.long	.LLST3
 1143 00af 07        		.uleb128 0x7
 1144 00b0 0000 0000 		.long	.LASF8
 1145 00b4 01        		.byte	0x1
 1146 00b5 1F        		.byte	0x1f
 1147 00b6 2C00 0000 		.long	0x2c
 1148 00ba 0000 0000 		.long	.LLST4
 1149 00be 09        		.uleb128 0x9
 1150 00bf 0000 0000 		.long	.LASF9
 1151 00c3 01        		.byte	0x1
 1152 00c4 21        		.byte	0x21
 1153 00c5 2C00 0000 		.long	0x2c
 1154 00c9 0000 0000 		.long	.LLST5
 1155 00cd 0A        		.uleb128 0xa
 1156 00ce 6263 7300 		.string	"bcs"
 1157 00d2 01        		.byte	0x1
 1158 00d3 21        		.byte	0x21
 1159 00d4 2C00 0000 		.long	0x2c
 1160 00d8 01        		.byte	0x1
 1161 00d9 65        		.byte	0x65
 1162 00da 0B        		.uleb128 0xb
 1163 00db 0000 0000 		.long	.LASF10
 1164 00df 01        		.byte	0x1
 1165 00e0 21        		.byte	0x21
 1166 00e1 2C00 0000 		.long	0x2c
 1167 00e5 01        		.byte	0x1
 1168 00e6 67        		.byte	0x67
 1169 00e7 00        		.byte	0x0
 1170 00e8 06        		.uleb128 0x6
 1171 00e9 01        		.byte	0x1
 1172 00ea 0000 0000 		.long	.LASF12
 1173 00ee 01        		.byte	0x1
 1174 00ef 72        		.byte	0x72
 1175 00f0 01        		.byte	0x1
 1176 00f1 0000 0000 		.long	.LFB4
 1177 00f5 0000 0000 		.long	.LFE4
 1178 00f9 02        		.byte	0x2
 1179 00fa 90        		.byte	0x90
 1180 00fb 20        		.uleb128 0x20
 1181 00fc 1B01 0000 		.long	0x11b
 1182 0100 0C        		.uleb128 0xc
 1183 0101 0000 0000 		.long	.LASF7
 1184 0105 01        		.byte	0x1
 1185 0106 72        		.byte	0x72
 1186 0107 2C00 0000 		.long	0x2c
 1187 010b 01        		.byte	0x1
 1188 010c 68        		.byte	0x68
 1189 010d 0D        		.uleb128 0xd
 1190 010e 7661 6C00 		.string	"val"
 1191 0112 01        		.byte	0x1
 1192 0113 72        		.byte	0x72
 1193 0114 3700 0000 		.long	0x37
 1194 0118 01        		.byte	0x1
 1195 0119 66        		.byte	0x66
 1196 011a 00        		.byte	0x0
 1197 011b 06        		.uleb128 0x6
GAS LISTING C:\Users\alex\AppData\Local\Temp/ccPIf7mo.s 			page 22


 1198 011c 01        		.byte	0x1
 1199 011d 0000 0000 		.long	.LASF13
 1200 0121 01        		.byte	0x1
 1201 0122 7B        		.byte	0x7b
 1202 0123 01        		.byte	0x1
 1203 0124 0000 0000 		.long	.LFB5
 1204 0128 0000 0000 		.long	.LFE5
 1205 012c 02        		.byte	0x2
 1206 012d 90        		.byte	0x90
 1207 012e 20        		.uleb128 0x20
 1208 012f BE01 0000 		.long	0x1be
 1209 0133 07        		.uleb128 0x7
 1210 0134 0000 0000 		.long	.LASF14
 1211 0138 01        		.byte	0x1
 1212 0139 79        		.byte	0x79
 1213 013a 2C00 0000 		.long	0x2c
 1214 013e 0000 0000 		.long	.LLST8
 1215 0142 09        		.uleb128 0x9
 1216 0143 0000 0000 		.long	.LASF15
 1217 0147 01        		.byte	0x1
 1218 0148 7C        		.byte	0x7c
 1219 0149 BE01 0000 		.long	0x1be
 1220 014d 0000 0000 		.long	.LLST9
 1221 0151 0E        		.uleb128 0xe
 1222 0152 7063 7300 		.string	"pcs"
 1223 0156 01        		.byte	0x1
 1224 0157 7C        		.byte	0x7c
 1225 0158 BE01 0000 		.long	0x1be
 1226 015c 0000 0000 		.long	.LLST10
 1227 0160 09        		.uleb128 0x9
 1228 0161 0000 0000 		.long	.LASF16
 1229 0165 01        		.byte	0x1
 1230 0166 7C        		.byte	0x7c
 1231 0167 BE01 0000 		.long	0x1be
 1232 016b 0000 0000 		.long	.LLST11
 1233 016f 09        		.uleb128 0x9
 1234 0170 0000 0000 		.long	.LASF9
 1235 0174 01        		.byte	0x1
 1236 0175 7D        		.byte	0x7d
 1237 0176 2C00 0000 		.long	0x2c
 1238 017a 0000 0000 		.long	.LLST12
 1239 017e 0E        		.uleb128 0xe
 1240 017f 6263 7300 		.string	"bcs"
 1241 0183 01        		.byte	0x1
 1242 0184 7D        		.byte	0x7d
 1243 0185 2C00 0000 		.long	0x2c
 1244 0189 0000 0000 		.long	.LLST13
 1245 018d 09        		.uleb128 0x9
 1246 018e 0000 0000 		.long	.LASF10
 1247 0192 01        		.byte	0x1
 1248 0193 7D        		.byte	0x7d
 1249 0194 2C00 0000 		.long	0x2c
 1250 0198 0000 0000 		.long	.LLST14
 1251 019c 0E        		.uleb128 0xe
 1252 019d 6900      		.string	"i"
 1253 019f 01        		.byte	0x1
 1254 01a0 7E        		.byte	0x7e
GAS LISTING C:\Users\alex\AppData\Local\Temp/ccPIf7mo.s 			page 23


 1255 01a1 2C00 0000 		.long	0x2c
 1256 01a5 0000 0000 		.long	.LLST15
 1257 01a9 0F        		.uleb128 0xf
 1258 01aa 0000 0000 		.long	.LASF7
 1259 01ae 01        		.byte	0x1
 1260 01af 7E        		.byte	0x7e
 1261 01b0 2C00 0000 		.long	0x2c
 1262 01b4 10        		.uleb128 0x10
 1263 01b5 6300      		.string	"c"
 1264 01b7 01        		.byte	0x1
 1265 01b8 7E        		.byte	0x7e
 1266 01b9 2C00 0000 		.long	0x2c
 1267 01bd 00        		.byte	0x0
 1268 01be 11        		.uleb128 0x11
 1269 01bf 02        		.byte	0x2
 1270 01c0 C401 0000 		.long	0x1c4
 1271 01c4 12        		.uleb128 0x12
 1272 01c5 2C00 0000 		.long	0x2c
 1273 01c9 06        		.uleb128 0x6
 1274 01ca 01        		.byte	0x1
 1275 01cb 0000 0000 		.long	.LASF17
 1276 01cf 01        		.byte	0x1
 1277 01d0 40        		.byte	0x40
 1278 01d1 01        		.byte	0x1
 1279 01d2 0000 0000 		.long	.LFB3
 1280 01d6 0000 0000 		.long	.LFE3
 1281 01da 02        		.byte	0x2
 1282 01db 90        		.byte	0x90
 1283 01dc 20        		.uleb128 0x20
 1284 01dd 6502 0000 		.long	0x265
 1285 01e1 07        		.uleb128 0x7
 1286 01e2 0000 0000 		.long	.LASF7
 1287 01e6 01        		.byte	0x1
 1288 01e7 3E        		.byte	0x3e
 1289 01e8 2C00 0000 		.long	0x2c
 1290 01ec 0000 0000 		.long	.LLST17
 1291 01f0 08        		.uleb128 0x8
 1292 01f1 6300      		.string	"c"
 1293 01f3 01        		.byte	0x1
 1294 01f4 3E        		.byte	0x3e
 1295 01f5 3700 0000 		.long	0x37
 1296 01f9 0000 0000 		.long	.LLST18
 1297 01fd 09        		.uleb128 0x9
 1298 01fe 0000 0000 		.long	.LASF15
 1299 0202 01        		.byte	0x1
 1300 0203 41        		.byte	0x41
 1301 0204 BE01 0000 		.long	0x1be
 1302 0208 0000 0000 		.long	.LLST19
 1303 020c 0E        		.uleb128 0xe
 1304 020d 7063 7300 		.string	"pcs"
 1305 0211 01        		.byte	0x1
 1306 0212 41        		.byte	0x41
 1307 0213 BE01 0000 		.long	0x1be
 1308 0217 0000 0000 		.long	.LLST20
 1309 021b 09        		.uleb128 0x9
 1310 021c 0000 0000 		.long	.LASF16
 1311 0220 01        		.byte	0x1
GAS LISTING C:\Users\alex\AppData\Local\Temp/ccPIf7mo.s 			page 24


 1312 0221 41        		.byte	0x41
 1313 0222 BE01 0000 		.long	0x1be
 1314 0226 0000 0000 		.long	.LLST21
 1315 022a 09        		.uleb128 0x9
 1316 022b 0000 0000 		.long	.LASF9
 1317 022f 01        		.byte	0x1
 1318 0230 42        		.byte	0x42
 1319 0231 2C00 0000 		.long	0x2c
 1320 0235 0000 0000 		.long	.LLST22
 1321 0239 0E        		.uleb128 0xe
 1322 023a 6263 7300 		.string	"bcs"
 1323 023e 01        		.byte	0x1
 1324 023f 42        		.byte	0x42
 1325 0240 2C00 0000 		.long	0x2c
 1326 0244 0000 0000 		.long	.LLST23
 1327 0248 09        		.uleb128 0x9
 1328 0249 0000 0000 		.long	.LASF10
 1329 024d 01        		.byte	0x1
 1330 024e 42        		.byte	0x42
 1331 024f 2C00 0000 		.long	0x2c
 1332 0253 0000 0000 		.long	.LLST24
 1333 0257 0E        		.uleb128 0xe
 1334 0258 6900      		.string	"i"
 1335 025a 01        		.byte	0x1
 1336 025b 43        		.byte	0x43
 1337 025c 2C00 0000 		.long	0x2c
 1338 0260 0000 0000 		.long	.LLST25
 1339 0264 00        		.byte	0x0
 1340 0265 13        		.uleb128 0x13
 1341 0266 BE01 0000 		.long	0x1be
 1342 026a 7502 0000 		.long	0x275
 1343 026e 14        		.uleb128 0x14
 1344 026f 7502 0000 		.long	0x275
 1345 0273 13        		.byte	0x13
 1346 0274 00        		.byte	0x0
 1347 0275 05        		.uleb128 0x5
 1348 0276 02        		.byte	0x2
 1349 0277 07        		.byte	0x7
 1350 0278 15        		.uleb128 0x15
 1351 0279 0000 0000 		.long	.LASF18
 1352 027d 01        		.byte	0x1
 1353 027e 13        		.byte	0x13
 1354 027f 6502 0000 		.long	0x265
 1355 0283 01        		.byte	0x1
 1356 0284 05        		.byte	0x5
 1357 0285 03        		.byte	0x3
 1358 0286 0000 0000 		.long	p_cs
 1359 028a 15        		.uleb128 0x15
 1360 028b 0000 0000 		.long	.LASF19
 1361 028f 01        		.byte	0x1
 1362 0290 14        		.byte	0x14
 1363 0291 6502 0000 		.long	0x265
 1364 0295 01        		.byte	0x1
 1365 0296 05        		.byte	0x5
 1366 0297 03        		.byte	0x3
 1367 0298 0000 0000 		.long	p_data
 1368 029c 15        		.uleb128 0x15
GAS LISTING C:\Users\alex\AppData\Local\Temp/ccPIf7mo.s 			page 25


 1369 029d 0000 0000 		.long	.LASF20
 1370 02a1 01        		.byte	0x1
 1371 02a2 15        		.byte	0x15
 1372 02a3 6502 0000 		.long	0x265
 1373 02a7 01        		.byte	0x1
 1374 02a8 05        		.byte	0x5
 1375 02a9 03        		.byte	0x3
 1376 02aa 0000 0000 		.long	p_clk
 1377 02ae 13        		.uleb128 0x13
 1378 02af 2C00 0000 		.long	0x2c
 1379 02b3 BE02 0000 		.long	0x2be
 1380 02b7 14        		.uleb128 0x14
 1381 02b8 7502 0000 		.long	0x275
 1382 02bc 13        		.byte	0x13
 1383 02bd 00        		.byte	0x0
 1384 02be 15        		.uleb128 0x15
 1385 02bf 0000 0000 		.long	.LASF21
 1386 02c3 01        		.byte	0x1
 1387 02c4 17        		.byte	0x17
 1388 02c5 AE02 0000 		.long	0x2ae
 1389 02c9 01        		.byte	0x1
 1390 02ca 05        		.byte	0x5
 1391 02cb 03        		.byte	0x3
 1392 02cc 0000 0000 		.long	b_cs
 1393 02d0 15        		.uleb128 0x15
 1394 02d1 0000 0000 		.long	.LASF22
 1395 02d5 01        		.byte	0x1
 1396 02d6 18        		.byte	0x18
 1397 02d7 AE02 0000 		.long	0x2ae
 1398 02db 01        		.byte	0x1
 1399 02dc 05        		.byte	0x5
 1400 02dd 03        		.byte	0x3
 1401 02de 0000 0000 		.long	b_data
 1402 02e2 15        		.uleb128 0x15
 1403 02e3 0000 0000 		.long	.LASF23
 1404 02e7 01        		.byte	0x1
 1405 02e8 19        		.byte	0x19
 1406 02e9 AE02 0000 		.long	0x2ae
 1407 02ed 01        		.byte	0x1
 1408 02ee 05        		.byte	0x5
 1409 02ef 03        		.byte	0x3
 1410 02f0 0000 0000 		.long	b_clk
 1411 02f4 13        		.uleb128 0x13
 1412 02f5 3700 0000 		.long	0x37
 1413 02f9 0403 0000 		.long	0x304
 1414 02fd 14        		.uleb128 0x14
 1415 02fe 7502 0000 		.long	0x275
 1416 0302 13        		.byte	0x13
 1417 0303 00        		.byte	0x0
 1418 0304 15        		.uleb128 0x15
 1419 0305 0000 0000 		.long	.LASF24
 1420 0309 01        		.byte	0x1
 1421 030a 1A        		.byte	0x1a
 1422 030b F402 0000 		.long	0x2f4
 1423 030f 01        		.byte	0x1
 1424 0310 05        		.byte	0x5
 1425 0311 03        		.byte	0x3
GAS LISTING C:\Users\alex\AppData\Local\Temp/ccPIf7mo.s 			page 26


 1426 0312 0000 0000 		.long	c_data
 1427 0316 15        		.uleb128 0x15
 1428 0317 0000 0000 		.long	.LASF25
 1429 031b 01        		.byte	0x1
 1430 031c 1B        		.byte	0x1b
 1431 031d F402 0000 		.long	0x2f4
 1432 0321 01        		.byte	0x1
 1433 0322 05        		.byte	0x5
 1434 0323 03        		.byte	0x3
 1435 0324 0000 0000 		.long	copy_data
 1436 0328 00        		.byte	0x0
 1437               		.section	.debug_abbrev
 1438 0000 01        		.uleb128 0x1
 1439 0001 11        		.uleb128 0x11
 1440 0002 01        		.byte	0x1
 1441 0003 25        		.uleb128 0x25
 1442 0004 0E        		.uleb128 0xe
 1443 0005 13        		.uleb128 0x13
 1444 0006 0B        		.uleb128 0xb
 1445 0007 03        		.uleb128 0x3
 1446 0008 0E        		.uleb128 0xe
 1447 0009 1B        		.uleb128 0x1b
 1448 000a 0E        		.uleb128 0xe
 1449 000b 11        		.uleb128 0x11
 1450 000c 01        		.uleb128 0x1
 1451 000d 12        		.uleb128 0x12
 1452 000e 01        		.uleb128 0x1
 1453 000f 10        		.uleb128 0x10
 1454 0010 06        		.uleb128 0x6
 1455 0011 00        		.byte	0x0
 1456 0012 00        		.byte	0x0
 1457 0013 02        		.uleb128 0x2
 1458 0014 24        		.uleb128 0x24
 1459 0015 00        		.byte	0x0
 1460 0016 0B        		.uleb128 0xb
 1461 0017 0B        		.uleb128 0xb
 1462 0018 3E        		.uleb128 0x3e
 1463 0019 0B        		.uleb128 0xb
 1464 001a 03        		.uleb128 0x3
 1465 001b 0E        		.uleb128 0xe
 1466 001c 00        		.byte	0x0
 1467 001d 00        		.byte	0x0
 1468 001e 03        		.uleb128 0x3
 1469 001f 16        		.uleb128 0x16
 1470 0020 00        		.byte	0x0
 1471 0021 03        		.uleb128 0x3
 1472 0022 0E        		.uleb128 0xe
 1473 0023 3A        		.uleb128 0x3a
 1474 0024 0B        		.uleb128 0xb
 1475 0025 3B        		.uleb128 0x3b
 1476 0026 0B        		.uleb128 0xb
 1477 0027 49        		.uleb128 0x49
 1478 0028 13        		.uleb128 0x13
 1479 0029 00        		.byte	0x0
 1480 002a 00        		.byte	0x0
 1481 002b 04        		.uleb128 0x4
 1482 002c 24        		.uleb128 0x24
GAS LISTING C:\Users\alex\AppData\Local\Temp/ccPIf7mo.s 			page 27


 1483 002d 00        		.byte	0x0
 1484 002e 0B        		.uleb128 0xb
 1485 002f 0B        		.uleb128 0xb
 1486 0030 3E        		.uleb128 0x3e
 1487 0031 0B        		.uleb128 0xb
 1488 0032 03        		.uleb128 0x3
 1489 0033 08        		.uleb128 0x8
 1490 0034 00        		.byte	0x0
 1491 0035 00        		.byte	0x0
 1492 0036 05        		.uleb128 0x5
 1493 0037 24        		.uleb128 0x24
 1494 0038 00        		.byte	0x0
 1495 0039 0B        		.uleb128 0xb
 1496 003a 0B        		.uleb128 0xb
 1497 003b 3E        		.uleb128 0x3e
 1498 003c 0B        		.uleb128 0xb
 1499 003d 00        		.byte	0x0
 1500 003e 00        		.byte	0x0
 1501 003f 06        		.uleb128 0x6
 1502 0040 2E        		.uleb128 0x2e
 1503 0041 01        		.byte	0x1
 1504 0042 3F        		.uleb128 0x3f
 1505 0043 0C        		.uleb128 0xc
 1506 0044 03        		.uleb128 0x3
 1507 0045 0E        		.uleb128 0xe
 1508 0046 3A        		.uleb128 0x3a
 1509 0047 0B        		.uleb128 0xb
 1510 0048 3B        		.uleb128 0x3b
 1511 0049 0B        		.uleb128 0xb
 1512 004a 27        		.uleb128 0x27
 1513 004b 0C        		.uleb128 0xc
 1514 004c 11        		.uleb128 0x11
 1515 004d 01        		.uleb128 0x1
 1516 004e 12        		.uleb128 0x12
 1517 004f 01        		.uleb128 0x1
 1518 0050 40        		.uleb128 0x40
 1519 0051 0A        		.uleb128 0xa
 1520 0052 01        		.uleb128 0x1
 1521 0053 13        		.uleb128 0x13
 1522 0054 00        		.byte	0x0
 1523 0055 00        		.byte	0x0
 1524 0056 07        		.uleb128 0x7
 1525 0057 05        		.uleb128 0x5
 1526 0058 00        		.byte	0x0
 1527 0059 03        		.uleb128 0x3
 1528 005a 0E        		.uleb128 0xe
 1529 005b 3A        		.uleb128 0x3a
 1530 005c 0B        		.uleb128 0xb
 1531 005d 3B        		.uleb128 0x3b
 1532 005e 0B        		.uleb128 0xb
 1533 005f 49        		.uleb128 0x49
 1534 0060 13        		.uleb128 0x13
 1535 0061 02        		.uleb128 0x2
 1536 0062 06        		.uleb128 0x6
 1537 0063 00        		.byte	0x0
 1538 0064 00        		.byte	0x0
 1539 0065 08        		.uleb128 0x8
GAS LISTING C:\Users\alex\AppData\Local\Temp/ccPIf7mo.s 			page 28


 1540 0066 05        		.uleb128 0x5
 1541 0067 00        		.byte	0x0
 1542 0068 03        		.uleb128 0x3
 1543 0069 08        		.uleb128 0x8
 1544 006a 3A        		.uleb128 0x3a
 1545 006b 0B        		.uleb128 0xb
 1546 006c 3B        		.uleb128 0x3b
 1547 006d 0B        		.uleb128 0xb
 1548 006e 49        		.uleb128 0x49
 1549 006f 13        		.uleb128 0x13
 1550 0070 02        		.uleb128 0x2
 1551 0071 06        		.uleb128 0x6
 1552 0072 00        		.byte	0x0
 1553 0073 00        		.byte	0x0
 1554 0074 09        		.uleb128 0x9
 1555 0075 34        		.uleb128 0x34
 1556 0076 00        		.byte	0x0
 1557 0077 03        		.uleb128 0x3
 1558 0078 0E        		.uleb128 0xe
 1559 0079 3A        		.uleb128 0x3a
 1560 007a 0B        		.uleb128 0xb
 1561 007b 3B        		.uleb128 0x3b
 1562 007c 0B        		.uleb128 0xb
 1563 007d 49        		.uleb128 0x49
 1564 007e 13        		.uleb128 0x13
 1565 007f 02        		.uleb128 0x2
 1566 0080 06        		.uleb128 0x6
 1567 0081 00        		.byte	0x0
 1568 0082 00        		.byte	0x0
 1569 0083 0A        		.uleb128 0xa
 1570 0084 34        		.uleb128 0x34
 1571 0085 00        		.byte	0x0
 1572 0086 03        		.uleb128 0x3
 1573 0087 08        		.uleb128 0x8
 1574 0088 3A        		.uleb128 0x3a
 1575 0089 0B        		.uleb128 0xb
 1576 008a 3B        		.uleb128 0x3b
 1577 008b 0B        		.uleb128 0xb
 1578 008c 49        		.uleb128 0x49
 1579 008d 13        		.uleb128 0x13
 1580 008e 02        		.uleb128 0x2
 1581 008f 0A        		.uleb128 0xa
 1582 0090 00        		.byte	0x0
 1583 0091 00        		.byte	0x0
 1584 0092 0B        		.uleb128 0xb
 1585 0093 34        		.uleb128 0x34
 1586 0094 00        		.byte	0x0
 1587 0095 03        		.uleb128 0x3
 1588 0096 0E        		.uleb128 0xe
 1589 0097 3A        		.uleb128 0x3a
 1590 0098 0B        		.uleb128 0xb
 1591 0099 3B        		.uleb128 0x3b
 1592 009a 0B        		.uleb128 0xb
 1593 009b 49        		.uleb128 0x49
 1594 009c 13        		.uleb128 0x13
 1595 009d 02        		.uleb128 0x2
 1596 009e 0A        		.uleb128 0xa
GAS LISTING C:\Users\alex\AppData\Local\Temp/ccPIf7mo.s 			page 29


 1597 009f 00        		.byte	0x0
 1598 00a0 00        		.byte	0x0
 1599 00a1 0C        		.uleb128 0xc
 1600 00a2 05        		.uleb128 0x5
 1601 00a3 00        		.byte	0x0
 1602 00a4 03        		.uleb128 0x3
 1603 00a5 0E        		.uleb128 0xe
 1604 00a6 3A        		.uleb128 0x3a
 1605 00a7 0B        		.uleb128 0xb
 1606 00a8 3B        		.uleb128 0x3b
 1607 00a9 0B        		.uleb128 0xb
 1608 00aa 49        		.uleb128 0x49
 1609 00ab 13        		.uleb128 0x13
 1610 00ac 02        		.uleb128 0x2
 1611 00ad 0A        		.uleb128 0xa
 1612 00ae 00        		.byte	0x0
 1613 00af 00        		.byte	0x0
 1614 00b0 0D        		.uleb128 0xd
 1615 00b1 05        		.uleb128 0x5
 1616 00b2 00        		.byte	0x0
 1617 00b3 03        		.uleb128 0x3
 1618 00b4 08        		.uleb128 0x8
 1619 00b5 3A        		.uleb128 0x3a
 1620 00b6 0B        		.uleb128 0xb
 1621 00b7 3B        		.uleb128 0x3b
 1622 00b8 0B        		.uleb128 0xb
 1623 00b9 49        		.uleb128 0x49
 1624 00ba 13        		.uleb128 0x13
 1625 00bb 02        		.uleb128 0x2
 1626 00bc 0A        		.uleb128 0xa
 1627 00bd 00        		.byte	0x0
 1628 00be 00        		.byte	0x0
 1629 00bf 0E        		.uleb128 0xe
 1630 00c0 34        		.uleb128 0x34
 1631 00c1 00        		.byte	0x0
 1632 00c2 03        		.uleb128 0x3
 1633 00c3 08        		.uleb128 0x8
 1634 00c4 3A        		.uleb128 0x3a
 1635 00c5 0B        		.uleb128 0xb
 1636 00c6 3B        		.uleb128 0x3b
 1637 00c7 0B        		.uleb128 0xb
 1638 00c8 49        		.uleb128 0x49
 1639 00c9 13        		.uleb128 0x13
 1640 00ca 02        		.uleb128 0x2
 1641 00cb 06        		.uleb128 0x6
 1642 00cc 00        		.byte	0x0
 1643 00cd 00        		.byte	0x0
 1644 00ce 0F        		.uleb128 0xf
 1645 00cf 34        		.uleb128 0x34
 1646 00d0 00        		.byte	0x0
 1647 00d1 03        		.uleb128 0x3
 1648 00d2 0E        		.uleb128 0xe
 1649 00d3 3A        		.uleb128 0x3a
 1650 00d4 0B        		.uleb128 0xb
 1651 00d5 3B        		.uleb128 0x3b
 1652 00d6 0B        		.uleb128 0xb
 1653 00d7 49        		.uleb128 0x49
GAS LISTING C:\Users\alex\AppData\Local\Temp/ccPIf7mo.s 			page 30


 1654 00d8 13        		.uleb128 0x13
 1655 00d9 00        		.byte	0x0
 1656 00da 00        		.byte	0x0
 1657 00db 10        		.uleb128 0x10
 1658 00dc 34        		.uleb128 0x34
 1659 00dd 00        		.byte	0x0
 1660 00de 03        		.uleb128 0x3
 1661 00df 08        		.uleb128 0x8
 1662 00e0 3A        		.uleb128 0x3a
 1663 00e1 0B        		.uleb128 0xb
 1664 00e2 3B        		.uleb128 0x3b
 1665 00e3 0B        		.uleb128 0xb
 1666 00e4 49        		.uleb128 0x49
 1667 00e5 13        		.uleb128 0x13
 1668 00e6 00        		.byte	0x0
 1669 00e7 00        		.byte	0x0
 1670 00e8 11        		.uleb128 0x11
 1671 00e9 0F        		.uleb128 0xf
 1672 00ea 00        		.byte	0x0
 1673 00eb 0B        		.uleb128 0xb
 1674 00ec 0B        		.uleb128 0xb
 1675 00ed 49        		.uleb128 0x49
 1676 00ee 13        		.uleb128 0x13
 1677 00ef 00        		.byte	0x0
 1678 00f0 00        		.byte	0x0
 1679 00f1 12        		.uleb128 0x12
 1680 00f2 35        		.uleb128 0x35
 1681 00f3 00        		.byte	0x0
 1682 00f4 49        		.uleb128 0x49
 1683 00f5 13        		.uleb128 0x13
 1684 00f6 00        		.byte	0x0
 1685 00f7 00        		.byte	0x0
 1686 00f8 13        		.uleb128 0x13
 1687 00f9 01        		.uleb128 0x1
 1688 00fa 01        		.byte	0x1
 1689 00fb 49        		.uleb128 0x49
 1690 00fc 13        		.uleb128 0x13
 1691 00fd 01        		.uleb128 0x1
 1692 00fe 13        		.uleb128 0x13
 1693 00ff 00        		.byte	0x0
 1694 0100 00        		.byte	0x0
 1695 0101 14        		.uleb128 0x14
 1696 0102 21        		.uleb128 0x21
 1697 0103 00        		.byte	0x0
 1698 0104 49        		.uleb128 0x49
 1699 0105 13        		.uleb128 0x13
 1700 0106 2F        		.uleb128 0x2f
 1701 0107 0B        		.uleb128 0xb
 1702 0108 00        		.byte	0x0
 1703 0109 00        		.byte	0x0
 1704 010a 15        		.uleb128 0x15
 1705 010b 34        		.uleb128 0x34
 1706 010c 00        		.byte	0x0
 1707 010d 03        		.uleb128 0x3
 1708 010e 0E        		.uleb128 0xe
 1709 010f 3A        		.uleb128 0x3a
 1710 0110 0B        		.uleb128 0xb
GAS LISTING C:\Users\alex\AppData\Local\Temp/ccPIf7mo.s 			page 31


 1711 0111 3B        		.uleb128 0x3b
 1712 0112 0B        		.uleb128 0xb
 1713 0113 49        		.uleb128 0x49
 1714 0114 13        		.uleb128 0x13
 1715 0115 3F        		.uleb128 0x3f
 1716 0116 0C        		.uleb128 0xc
 1717 0117 02        		.uleb128 0x2
 1718 0118 0A        		.uleb128 0xa
 1719 0119 00        		.byte	0x0
 1720 011a 00        		.byte	0x0
 1721 011b 00        		.byte	0x0
 1722               		.section	.debug_pubnames,"",@progbits
 1723 0000 A200 0000 		.long	0xa2
 1724 0004 0200      		.word	0x2
 1725 0006 0000 0000 		.long	.Ldebug_info0
 1726 000a 2903 0000 		.long	0x329
 1727 000e 6B00 0000 		.long	0x6b
 1728 0012 696E 6974 		.string	"init_74hc595"
 1728      5F37 3468 
 1728      6335 3935 
 1728      00
 1729 001f E800 0000 		.long	0xe8
 1730 0023 7335 3935 		.string	"s595_set_val"
 1730      5F73 6574 
 1730      5F76 616C 
 1730      00
 1731 0030 1B01 0000 		.long	0x11b
 1732 0034 7335 3935 		.string	"s595_write"
 1732      5F77 7269 
 1732      7465 00
 1733 003f C901 0000 		.long	0x1c9
 1734 0043 7335 3935 		.string	"s595_putc"
 1734      5F70 7574 
 1734      6300 
 1735 004d 7802 0000 		.long	0x278
 1736 0051 705F 6373 		.string	"p_cs"
 1736      00
 1737 0056 8A02 0000 		.long	0x28a
 1738 005a 705F 6461 		.string	"p_data"
 1738      7461 00
 1739 0061 9C02 0000 		.long	0x29c
 1740 0065 705F 636C 		.string	"p_clk"
 1740      6B00 
 1741 006b BE02 0000 		.long	0x2be
 1742 006f 625F 6373 		.string	"b_cs"
 1742      00
 1743 0074 D002 0000 		.long	0x2d0
 1744 0078 625F 6461 		.string	"b_data"
 1744      7461 00
 1745 007f E202 0000 		.long	0x2e2
 1746 0083 625F 636C 		.string	"b_clk"
 1746      6B00 
 1747 0089 0403 0000 		.long	0x304
 1748 008d 635F 6461 		.string	"c_data"
 1748      7461 00
 1749 0094 1603 0000 		.long	0x316
 1750 0098 636F 7079 		.string	"copy_data"
GAS LISTING C:\Users\alex\AppData\Local\Temp/ccPIf7mo.s 			page 32


 1750      5F64 6174 
 1750      6100 
 1751 00a2 0000 0000 		.long	0x0
 1752               		.section	.debug_aranges,"",@progbits
 1753 0000 1C00 0000 		.long	0x1c
 1754 0004 0200      		.word	0x2
 1755 0006 0000 0000 		.long	.Ldebug_info0
 1756 000a 04        		.byte	0x4
 1757 000b 00        		.byte	0x0
 1758 000c 0000      		.word	0x0
 1759 000e 0000      		.word	0x0
 1760 0010 0000 0000 		.long	.Ltext0
 1761 0014 4E04 0000 		.long	.Letext0-.Ltext0
 1762 0018 0000 0000 		.long	0x0
 1763 001c 0000 0000 		.long	0x0
 1764               		.section	.debug_line
 1765 0000 2F03 0000 		.long	.LELT0-.LSLT0
 1766               	.LSLT0:
 1767 0004 0200      		.word	0x2
 1768 0006 5600 0000 		.long	.LELTP0-.LASLTP0
 1769               	.LASLTP0:
 1770 000a 01        		.byte	0x1
 1771 000b 01        		.byte	0x1
 1772 000c F6        		.byte	0xf6
 1773 000d F5        		.byte	0xf5
 1774 000e 0A        		.byte	0xa
 1775 000f 00        		.byte	0x0
 1776 0010 01        		.byte	0x1
 1777 0011 01        		.byte	0x1
 1778 0012 01        		.byte	0x1
 1779 0013 01        		.byte	0x1
 1780 0014 00        		.byte	0x0
 1781 0015 00        		.byte	0x0
 1782 0016 00        		.byte	0x0
 1783 0017 01        		.byte	0x1
 1784 0018 643A 2F77 		.ascii	"d:/winavr-20100110/lib/gcc/../../avr/include"
 1784      696E 6176 
 1784      722D 3230 
 1784      3130 3031 
 1784      3130 2F6C 
 1785 0044 00        		.byte	0
 1786 0045 00        		.byte	0x0
 1787 0046 3734 6863 		.string	"74hc595.c"
 1787      3539 352E 
 1787      6300 
 1788 0050 00        		.uleb128 0x0
 1789 0051 00        		.uleb128 0x0
 1790 0052 00        		.uleb128 0x0
 1791 0053 7374 6469 		.string	"stdint.h"
 1791      6E74 2E68 
 1791      00
 1792 005c 01        		.uleb128 0x1
 1793 005d 00        		.uleb128 0x0
 1794 005e 00        		.uleb128 0x0
 1795 005f 00        		.byte	0x0
 1796               	.LELTP0:
 1797 0060 00        		.byte	0x0
GAS LISTING C:\Users\alex\AppData\Local\Temp/ccPIf7mo.s 			page 33


 1798 0061 05        		.uleb128 0x5
 1799 0062 02        		.byte	0x2
 1800 0063 0000 0000 		.long	.LM1
 1801 0067 34        		.byte	0x34
 1802 0068 00        		.byte	0x0
 1803 0069 05        		.uleb128 0x5
 1804 006a 02        		.byte	0x2
 1805 006b 0000 0000 		.long	.LM2
 1806 006f 16        		.byte	0x16
 1807 0070 00        		.byte	0x0
 1808 0071 05        		.uleb128 0x5
 1809 0072 02        		.byte	0x2
 1810 0073 0000 0000 		.long	.LM3
 1811 0077 15        		.byte	0x15
 1812 0078 00        		.byte	0x0
 1813 0079 05        		.uleb128 0x5
 1814 007a 02        		.byte	0x2
 1815 007b 0000 0000 		.long	.LM4
 1816 007f 15        		.byte	0x15
 1817 0080 00        		.byte	0x0
 1818 0081 05        		.uleb128 0x5
 1819 0082 02        		.byte	0x2
 1820 0083 0000 0000 		.long	.LM5
 1821 0087 15        		.byte	0x15
 1822 0088 00        		.byte	0x0
 1823 0089 05        		.uleb128 0x5
 1824 008a 02        		.byte	0x2
 1825 008b 0000 0000 		.long	.LM6
 1826 008f 15        		.byte	0x15
 1827 0090 00        		.byte	0x0
 1828 0091 05        		.uleb128 0x5
 1829 0092 02        		.byte	0x2
 1830 0093 0000 0000 		.long	.LM7
 1831 0097 15        		.byte	0x15
 1832 0098 00        		.byte	0x0
 1833 0099 05        		.uleb128 0x5
 1834 009a 02        		.byte	0x2
 1835 009b 0000 0000 		.long	.LM8
 1836 009f 16        		.byte	0x16
 1837 00a0 00        		.byte	0x0
 1838 00a1 05        		.uleb128 0x5
 1839 00a2 02        		.byte	0x2
 1840 00a3 0000 0000 		.long	.LM9
 1841 00a7 15        		.byte	0x15
 1842 00a8 00        		.byte	0x0
 1843 00a9 05        		.uleb128 0x5
 1844 00aa 02        		.byte	0x2
 1845 00ab 0000 0000 		.long	.LM10
 1846 00af 15        		.byte	0x15
 1847 00b0 00        		.byte	0x0
 1848 00b1 05        		.uleb128 0x5
 1849 00b2 02        		.byte	0x2
 1850 00b3 0000 0000 		.long	.LM11
 1851 00b7 15        		.byte	0x15
 1852 00b8 00        		.byte	0x0
 1853 00b9 05        		.uleb128 0x5
 1854 00ba 02        		.byte	0x2
GAS LISTING C:\Users\alex\AppData\Local\Temp/ccPIf7mo.s 			page 34


 1855 00bb 0000 0000 		.long	.LM12
 1856 00bf 15        		.byte	0x15
 1857 00c0 00        		.byte	0x0
 1858 00c1 05        		.uleb128 0x5
 1859 00c2 02        		.byte	0x2
 1860 00c3 0000 0000 		.long	.LM13
 1861 00c7 16        		.byte	0x16
 1862 00c8 00        		.byte	0x0
 1863 00c9 05        		.uleb128 0x5
 1864 00ca 02        		.byte	0x2
 1865 00cb 0000 0000 		.long	.LM14
 1866 00cf 15        		.byte	0x15
 1867 00d0 00        		.byte	0x0
 1868 00d1 05        		.uleb128 0x5
 1869 00d2 02        		.byte	0x2
 1870 00d3 0000 0000 		.long	.LM15
 1871 00d7 15        		.byte	0x15
 1872 00d8 00        		.byte	0x0
 1873 00d9 05        		.uleb128 0x5
 1874 00da 02        		.byte	0x2
 1875 00db 0000 0000 		.long	.LM16
 1876 00df 15        		.byte	0x15
 1877 00e0 00        		.byte	0x0
 1878 00e1 05        		.uleb128 0x5
 1879 00e2 02        		.byte	0x2
 1880 00e3 0000 0000 		.long	.LM17
 1881 00e7 15        		.byte	0x15
 1882 00e8 00        		.byte	0x0
 1883 00e9 05        		.uleb128 0x5
 1884 00ea 02        		.byte	0x2
 1885 00eb 0000 0000 		.long	.LM18
 1886 00ef 16        		.byte	0x16
 1887 00f0 00        		.byte	0x0
 1888 00f1 05        		.uleb128 0x5
 1889 00f2 02        		.byte	0x2
 1890 00f3 0000 0000 		.long	.LM19
 1891 00f7 15        		.byte	0x15
 1892 00f8 00        		.byte	0x0
 1893 00f9 05        		.uleb128 0x5
 1894 00fa 02        		.byte	0x2
 1895 00fb 0000 0000 		.long	.LM20
 1896 00ff 15        		.byte	0x15
 1897 0100 00        		.byte	0x0
 1898 0101 05        		.uleb128 0x5
 1899 0102 02        		.byte	0x2
 1900 0103 0000 0000 		.long	.LM21
 1901 0107 15        		.byte	0x15
 1902 0108 00        		.byte	0x0
 1903 0109 05        		.uleb128 0x5
 1904 010a 02        		.byte	0x2
 1905 010b 0000 0000 		.long	.LM22
 1906 010f 15        		.byte	0x15
 1907 0110 00        		.byte	0x0
 1908 0111 05        		.uleb128 0x5
 1909 0112 02        		.byte	0x2
 1910 0113 0000 0000 		.long	.LM23
 1911 0117 15        		.byte	0x15
GAS LISTING C:\Users\alex\AppData\Local\Temp/ccPIf7mo.s 			page 35


 1912 0118 00        		.byte	0x0
 1913 0119 05        		.uleb128 0x5
 1914 011a 02        		.byte	0x2
 1915 011b 0000 0000 		.long	.LM24
 1916 011f 4B        		.byte	0x4b
 1917 0120 00        		.byte	0x0
 1918 0121 05        		.uleb128 0x5
 1919 0122 02        		.byte	0x2
 1920 0123 0000 0000 		.long	.LM25
 1921 0127 16        		.byte	0x16
 1922 0128 00        		.byte	0x0
 1923 0129 05        		.uleb128 0x5
 1924 012a 02        		.byte	0x2
 1925 012b 0000 0000 		.long	.LM26
 1926 012f 15        		.byte	0x15
 1927 0130 00        		.byte	0x0
 1928 0131 05        		.uleb128 0x5
 1929 0132 02        		.byte	0x2
 1930 0133 0000 0000 		.long	.LM27
 1931 0137 1A        		.byte	0x1a
 1932 0138 00        		.byte	0x0
 1933 0139 05        		.uleb128 0x5
 1934 013a 02        		.byte	0x2
 1935 013b 0000 0000 		.long	.LM28
 1936 013f 19        		.byte	0x19
 1937 0140 00        		.byte	0x0
 1938 0141 05        		.uleb128 0x5
 1939 0142 02        		.byte	0x2
 1940 0143 0000 0000 		.long	.LM29
 1941 0147 15        		.byte	0x15
 1942 0148 00        		.byte	0x0
 1943 0149 05        		.uleb128 0x5
 1944 014a 02        		.byte	0x2
 1945 014b 0000 0000 		.long	.LM30
 1946 014f 16        		.byte	0x16
 1947 0150 00        		.byte	0x0
 1948 0151 05        		.uleb128 0x5
 1949 0152 02        		.byte	0x2
 1950 0153 0000 0000 		.long	.LM31
 1951 0157 15        		.byte	0x15
 1952 0158 00        		.byte	0x0
 1953 0159 05        		.uleb128 0x5
 1954 015a 02        		.byte	0x2
 1955 015b 0000 0000 		.long	.LM32
 1956 015f 16        		.byte	0x16
 1957 0160 00        		.byte	0x0
 1958 0161 05        		.uleb128 0x5
 1959 0162 02        		.byte	0x2
 1960 0163 0000 0000 		.long	.LM33
 1961 0167 03        		.byte	0x3
 1962 0168 75        		.sleb128 -11
 1963 0169 01        		.byte	0x1
 1964 016a 00        		.byte	0x0
 1965 016b 05        		.uleb128 0x5
 1966 016c 02        		.byte	0x2
 1967 016d 0000 0000 		.long	.LM34
 1968 0171 20        		.byte	0x20
GAS LISTING C:\Users\alex\AppData\Local\Temp/ccPIf7mo.s 			page 36


 1969 0172 00        		.byte	0x0
 1970 0173 05        		.uleb128 0x5
 1971 0174 02        		.byte	0x2
 1972 0175 0000 0000 		.long	.LM35
 1973 0179 15        		.byte	0x15
 1974 017a 00        		.byte	0x0
 1975 017b 05        		.uleb128 0x5
 1976 017c 02        		.byte	0x2
 1977 017d 0000 0000 		.long	.LM36
 1978 0181 16        		.byte	0x16
 1979 0182 00        		.byte	0x0
 1980 0183 05        		.uleb128 0x5
 1981 0184 02        		.byte	0x2
 1982 0185 0000 0000 		.long	.LM37
 1983 0189 11        		.byte	0x11
 1984 018a 00        		.byte	0x0
 1985 018b 05        		.uleb128 0x5
 1986 018c 02        		.byte	0x2
 1987 018d 0000 0000 		.long	.LM38
 1988 0191 19        		.byte	0x19
 1989 0192 00        		.byte	0x0
 1990 0193 05        		.uleb128 0x5
 1991 0194 02        		.byte	0x2
 1992 0195 0000 0000 		.long	.LM39
 1993 0199 15        		.byte	0x15
 1994 019a 00        		.byte	0x0
 1995 019b 05        		.uleb128 0x5
 1996 019c 02        		.byte	0x2
 1997 019d 0000 0000 		.long	.LM40
 1998 01a1 13        		.byte	0x13
 1999 01a2 00        		.byte	0x0
 2000 01a3 05        		.uleb128 0x5
 2001 01a4 02        		.byte	0x2
 2002 01a5 0000 0000 		.long	.LM41
 2003 01a9 17        		.byte	0x17
 2004 01aa 00        		.byte	0x0
 2005 01ab 05        		.uleb128 0x5
 2006 01ac 02        		.byte	0x2
 2007 01ad 0000 0000 		.long	.LM42
 2008 01b1 18        		.byte	0x18
 2009 01b2 00        		.byte	0x0
 2010 01b3 05        		.uleb128 0x5
 2011 01b4 02        		.byte	0x2
 2012 01b5 0000 0000 		.long	.LM43
 2013 01b9 15        		.byte	0x15
 2014 01ba 00        		.byte	0x0
 2015 01bb 05        		.uleb128 0x5
 2016 01bc 02        		.byte	0x2
 2017 01bd 0000 0000 		.long	.LM44
 2018 01c1 16        		.byte	0x16
 2019 01c2 00        		.byte	0x0
 2020 01c3 05        		.uleb128 0x5
 2021 01c4 02        		.byte	0x2
 2022 01c5 0000 0000 		.long	.LM45
 2023 01c9 15        		.byte	0x15
 2024 01ca 00        		.byte	0x0
 2025 01cb 05        		.uleb128 0x5
GAS LISTING C:\Users\alex\AppData\Local\Temp/ccPIf7mo.s 			page 37


 2026 01cc 02        		.byte	0x2
 2027 01cd 0000 0000 		.long	.LM46
 2028 01d1 18        		.byte	0x18
 2029 01d2 00        		.byte	0x0
 2030 01d3 05        		.uleb128 0x5
 2031 01d4 02        		.byte	0x2
 2032 01d5 0000 0000 		.long	.LM47
 2033 01d9 0B        		.byte	0xb
 2034 01da 00        		.byte	0x0
 2035 01db 05        		.uleb128 0x5
 2036 01dc 02        		.byte	0x2
 2037 01dd 0000 0000 		.long	.LM48
 2038 01e1 21        		.byte	0x21
 2039 01e2 00        		.byte	0x0
 2040 01e3 05        		.uleb128 0x5
 2041 01e4 02        		.byte	0x2
 2042 01e5 0000 0000 		.long	.LM49
 2043 01e9 16        		.byte	0x16
 2044 01ea 00        		.byte	0x0
 2045 01eb 05        		.uleb128 0x5
 2046 01ec 02        		.byte	0x2
 2047 01ed 0000 0000 		.long	.LM50
 2048 01f1 15        		.byte	0x15
 2049 01f2 00        		.byte	0x0
 2050 01f3 05        		.uleb128 0x5
 2051 01f4 02        		.byte	0x2
 2052 01f5 0000 0000 		.long	.LM51
 2053 01f9 16        		.byte	0x16
 2054 01fa 00        		.byte	0x0
 2055 01fb 05        		.uleb128 0x5
 2056 01fc 02        		.byte	0x2
 2057 01fd 0000 0000 		.long	.LM52
 2058 0201 16        		.byte	0x16
 2059 0202 00        		.byte	0x0
 2060 0203 05        		.uleb128 0x5
 2061 0204 02        		.byte	0x2
 2062 0205 0000 0000 		.long	.LM53
 2063 0209 17        		.byte	0x17
 2064 020a 00        		.byte	0x0
 2065 020b 05        		.uleb128 0x5
 2066 020c 02        		.byte	0x2
 2067 020d 0000 0000 		.long	.LM54
 2068 0211 0E        		.byte	0xe
 2069 0212 00        		.byte	0x0
 2070 0213 05        		.uleb128 0x5
 2071 0214 02        		.byte	0x2
 2072 0215 0000 0000 		.long	.LM55
 2073 0219 1C        		.byte	0x1c
 2074 021a 00        		.byte	0x0
 2075 021b 05        		.uleb128 0x5
 2076 021c 02        		.byte	0x2
 2077 021d 0000 0000 		.long	.LM56
 2078 0221 03        		.byte	0x3
 2079 0222 66        		.sleb128 -26
 2080 0223 01        		.byte	0x1
 2081 0224 00        		.byte	0x0
 2082 0225 05        		.uleb128 0x5
GAS LISTING C:\Users\alex\AppData\Local\Temp/ccPIf7mo.s 			page 38


 2083 0226 02        		.byte	0x2
 2084 0227 0000 0000 		.long	.LM57
 2085 022b 32        		.byte	0x32
 2086 022c 00        		.byte	0x0
 2087 022d 05        		.uleb128 0x5
 2088 022e 02        		.byte	0x2
 2089 022f 0000 0000 		.long	.LM58
 2090 0233 15        		.byte	0x15
 2091 0234 00        		.byte	0x0
 2092 0235 05        		.uleb128 0x5
 2093 0236 02        		.byte	0x2
 2094 0237 0000 0000 		.long	.LM59
 2095 023b 15        		.byte	0x15
 2096 023c 00        		.byte	0x0
 2097 023d 05        		.uleb128 0x5
 2098 023e 02        		.byte	0x2
 2099 023f 0000 0000 		.long	.LM60
 2100 0243 15        		.byte	0x15
 2101 0244 00        		.byte	0x0
 2102 0245 05        		.uleb128 0x5
 2103 0246 02        		.byte	0x2
 2104 0247 0000 0000 		.long	.LM61
 2105 024b 15        		.byte	0x15
 2106 024c 00        		.byte	0x0
 2107 024d 05        		.uleb128 0x5
 2108 024e 02        		.byte	0x2
 2109 024f 0000 0000 		.long	.LM62
 2110 0253 15        		.byte	0x15
 2111 0254 00        		.byte	0x0
 2112 0255 05        		.uleb128 0x5
 2113 0256 02        		.byte	0x2
 2114 0257 0000 0000 		.long	.LM63
 2115 025b 03        		.byte	0x3
 2116 025c 8C7F      		.sleb128 -116
 2117 025e 01        		.byte	0x1
 2118 025f 00        		.byte	0x0
 2119 0260 05        		.uleb128 0x5
 2120 0261 02        		.byte	0x2
 2121 0262 0000 0000 		.long	.LM64
 2122 0266 19        		.byte	0x19
 2123 0267 00        		.byte	0x0
 2124 0268 05        		.uleb128 0x5
 2125 0269 02        		.byte	0x2
 2126 026a 0000 0000 		.long	.LM65
 2127 026e 15        		.byte	0x15
 2128 026f 00        		.byte	0x0
 2129 0270 05        		.uleb128 0x5
 2130 0271 02        		.byte	0x2
 2131 0272 0000 0000 		.long	.LM66
 2132 0276 15        		.byte	0x15
 2133 0277 00        		.byte	0x0
 2134 0278 05        		.uleb128 0x5
 2135 0279 02        		.byte	0x2
 2136 027a 0000 0000 		.long	.LM67
 2137 027e 16        		.byte	0x16
 2138 027f 00        		.byte	0x0
 2139 0280 05        		.uleb128 0x5
GAS LISTING C:\Users\alex\AppData\Local\Temp/ccPIf7mo.s 			page 39


 2140 0281 02        		.byte	0x2
 2141 0282 0000 0000 		.long	.LM68
 2142 0286 15        		.byte	0x15
 2143 0287 00        		.byte	0x0
 2144 0288 05        		.uleb128 0x5
 2145 0289 02        		.byte	0x2
 2146 028a 0000 0000 		.long	.LM69
 2147 028e 15        		.byte	0x15
 2148 028f 00        		.byte	0x0
 2149 0290 05        		.uleb128 0x5
 2150 0291 02        		.byte	0x2
 2151 0292 0000 0000 		.long	.LM70
 2152 0296 16        		.byte	0x16
 2153 0297 00        		.byte	0x0
 2154 0298 05        		.uleb128 0x5
 2155 0299 02        		.byte	0x2
 2156 029a 0000 0000 		.long	.LM71
 2157 029e 15        		.byte	0x15
 2158 029f 00        		.byte	0x0
 2159 02a0 05        		.uleb128 0x5
 2160 02a1 02        		.byte	0x2
 2161 02a2 0000 0000 		.long	.LM72
 2162 02a6 15        		.byte	0x15
 2163 02a7 00        		.byte	0x0
 2164 02a8 05        		.uleb128 0x5
 2165 02a9 02        		.byte	0x2
 2166 02aa 0000 0000 		.long	.LM73
 2167 02ae 18        		.byte	0x18
 2168 02af 00        		.byte	0x0
 2169 02b0 05        		.uleb128 0x5
 2170 02b1 02        		.byte	0x2
 2171 02b2 0000 0000 		.long	.LM74
 2172 02b6 15        		.byte	0x15
 2173 02b7 00        		.byte	0x0
 2174 02b8 05        		.uleb128 0x5
 2175 02b9 02        		.byte	0x2
 2176 02ba 0000 0000 		.long	.LM75
 2177 02be 18        		.byte	0x18
 2178 02bf 00        		.byte	0x0
 2179 02c0 05        		.uleb128 0x5
 2180 02c1 02        		.byte	0x2
 2181 02c2 0000 0000 		.long	.LM76
 2182 02c6 17        		.byte	0x17
 2183 02c7 00        		.byte	0x0
 2184 02c8 05        		.uleb128 0x5
 2185 02c9 02        		.byte	0x2
 2186 02ca 0000 0000 		.long	.LM77
 2187 02ce 16        		.byte	0x16
 2188 02cf 00        		.byte	0x0
 2189 02d0 05        		.uleb128 0x5
 2190 02d1 02        		.byte	0x2
 2191 02d2 0000 0000 		.long	.LM78
 2192 02d6 15        		.byte	0x15
 2193 02d7 00        		.byte	0x0
 2194 02d8 05        		.uleb128 0x5
 2195 02d9 02        		.byte	0x2
 2196 02da 0000 0000 		.long	.LM79
GAS LISTING C:\Users\alex\AppData\Local\Temp/ccPIf7mo.s 			page 40


 2197 02de 16        		.byte	0x16
 2198 02df 00        		.byte	0x0
 2199 02e0 05        		.uleb128 0x5
 2200 02e1 02        		.byte	0x2
 2201 02e2 0000 0000 		.long	.LM80
 2202 02e6 15        		.byte	0x15
 2203 02e7 00        		.byte	0x0
 2204 02e8 05        		.uleb128 0x5
 2205 02e9 02        		.byte	0x2
 2206 02ea 0000 0000 		.long	.LM81
 2207 02ee 03        		.byte	0x3
 2208 02ef 70        		.sleb128 -16
 2209 02f0 01        		.byte	0x1
 2210 02f1 00        		.byte	0x0
 2211 02f2 05        		.uleb128 0x5
 2212 02f3 02        		.byte	0x2
 2213 02f4 0000 0000 		.long	.LM82
 2214 02f8 27        		.byte	0x27
 2215 02f9 00        		.byte	0x0
 2216 02fa 05        		.uleb128 0x5
 2217 02fb 02        		.byte	0x2
 2218 02fc 0000 0000 		.long	.LM83
 2219 0300 17        		.byte	0x17
 2220 0301 00        		.byte	0x0
 2221 0302 05        		.uleb128 0x5
 2222 0303 02        		.byte	0x2
 2223 0304 0000 0000 		.long	.LM84
 2224 0308 15        		.byte	0x15
 2225 0309 00        		.byte	0x0
 2226 030a 05        		.uleb128 0x5
 2227 030b 02        		.byte	0x2
 2228 030c 0000 0000 		.long	.LM85
 2229 0310 15        		.byte	0x15
 2230 0311 00        		.byte	0x0
 2231 0312 05        		.uleb128 0x5
 2232 0313 02        		.byte	0x2
 2233 0314 0000 0000 		.long	.LM86
 2234 0318 15        		.byte	0x15
 2235 0319 00        		.byte	0x0
 2236 031a 05        		.uleb128 0x5
 2237 031b 02        		.byte	0x2
 2238 031c 0000 0000 		.long	.LM87
 2239 0320 15        		.byte	0x15
 2240 0321 00        		.byte	0x0
 2241 0322 05        		.uleb128 0x5
 2242 0323 02        		.byte	0x2
 2243 0324 0000 0000 		.long	.LM88
 2244 0328 16        		.byte	0x16
 2245 0329 00        		.byte	0x0
 2246 032a 05        		.uleb128 0x5
 2247 032b 02        		.byte	0x2
 2248 032c 0000 0000 		.long	.Letext0
 2249 0330 00        		.byte	0x0
 2250 0331 01        		.uleb128 0x1
 2251 0332 01        		.byte	0x1
 2252               	.LELT0:
 2253 0333 1600 0000 		.section	.debug_str,"MS",@progbits,1
GAS LISTING C:\Users\alex\AppData\Local\Temp/ccPIf7mo.s 			page 41


 2253      0200 1000 
 2253      0000 0101 
 2253      FB0E 0A00 
 2253      0101 0101 
 2254               	.LASF16:
 2255 0000 7064 6174 		.string	"pdata"
 2255      6100 
 2256               	.LASF22:
 2257 0006 625F 6461 		.string	"b_data"
 2257      7461 00
 2258               	.LASF23:
 2259 000d 625F 636C 		.string	"b_clk"
 2259      6B00 
 2260               	.LASF14:
 2261 0013 6E75 6D63 		.string	"numchips"
 2261      6869 7073 
 2261      00
 2262               	.LASF25:
 2263 001c 636F 7079 		.string	"copy_data"
 2263      5F64 6174 
 2263      6100 
 2264               	.LASF27:
 2265 0026 3734 6863 		.string	"74hc595.c"
 2265      3539 352E 
 2265      6300 
 2266               	.LASF8:
 2267 0030 6461 7461 		.string	"data"
 2267      00
 2268               	.LASF1:
 2269 0035 756E 7369 		.string	"unsigned char"
 2269      676E 6564 
 2269      2063 6861 
 2269      7200 
 2270               	.LASF21:
 2271 0043 625F 6373 		.string	"b_cs"
 2271      00
 2272               	.LASF4:
 2273 0048 6C6F 6E67 		.string	"long unsigned int"
 2273      2075 6E73 
 2273      6967 6E65 
 2273      6420 696E 
 2273      7400 
 2274               	.LASF15:
 2275 005a 7063 6C6B 		.string	"pclk"
 2275      00
 2276               	.LASF26:
 2277 005f 474E 5520 		.string	"GNU C 4.3.3"
 2277      4320 342E 
 2277      332E 3300 
 2278               	.LASF9:
 2279 006b 6263 6C6B 		.string	"bclk"
 2279      00
 2280               	.LASF24:
 2281 0070 635F 6461 		.string	"c_data"
 2281      7461 00
 2282               	.LASF20:
 2283 0077 705F 636C 		.string	"p_clk"
GAS LISTING C:\Users\alex\AppData\Local\Temp/ccPIf7mo.s 			page 42


 2283      6B00 
 2284               	.LASF19:
 2285 007d 705F 6461 		.string	"p_data"
 2285      7461 00
 2286               	.LASF2:
 2287 0084 756E 7369 		.string	"unsigned int"
 2287      676E 6564 
 2287      2069 6E74 
 2287      00
 2288               	.LASF6:
 2289 0091 6C6F 6E67 		.string	"long long unsigned int"
 2289      206C 6F6E 
 2289      6720 756E 
 2289      7369 676E 
 2289      6564 2069 
 2290               	.LASF29:
 2291 00a8 7569 6E74 		.string	"uint8_t"
 2291      385F 7400 
 2292               	.LASF10:
 2293 00b0 6264 6174 		.string	"bdata"
 2293      6100 
 2294               	.LASF17:
 2295 00b6 7335 3935 		.string	"s595_putc"
 2295      5F70 7574 
 2295      6300 
 2296               	.LASF18:
 2297 00c0 705F 6373 		.string	"p_cs"
 2297      00
 2298               	.LASF5:
 2299 00c5 6C6F 6E67 		.string	"long long int"
 2299      206C 6F6E 
 2299      6720 696E 
 2299      7400 
 2300               	.LASF13:
 2301 00d3 7335 3935 		.string	"s595_write"
 2301      5F77 7269 
 2301      7465 00
 2302               	.LASF28:
 2303 00de 453A 5C61 		.string	"E:\\avr\\tubetester"
 2303      7672 5C74 
 2303      7562 6574 
 2303      6573 7465 
 2303      7200 
 2304               	.LASF7:
 2305 00f0 6368 6970 		.string	"chip"
 2305      00
 2306               	.LASF12:
 2307 00f5 7335 3935 		.string	"s595_set_val"
 2307      5F73 6574 
 2307      5F76 616C 
 2307      00
 2308               	.LASF3:
 2309 0102 6C6F 6E67 		.string	"long int"
 2309      2069 6E74 
 2309      00
 2310               	.LASF11:
 2311 010b 696E 6974 		.string	"init_74hc595"
GAS LISTING C:\Users\alex\AppData\Local\Temp/ccPIf7mo.s 			page 43


 2311      5F37 3468 
 2311      6335 3935 
 2311      00
 2312               	.LASF0:
 2313 0118 7369 676E 		.string	"signed char"
 2313      6564 2063 
 2313      6861 7200 
 2314               	.global __do_clear_bss
GAS LISTING C:\Users\alex\AppData\Local\Temp/ccPIf7mo.s 			page 44


DEFINED SYMBOLS
                            *ABS*:00000000 74hc595.c
C:\Users\alex\AppData\Local\Temp/ccPIf7mo.s:2      *ABS*:0000003f __SREG__
C:\Users\alex\AppData\Local\Temp/ccPIf7mo.s:3      *ABS*:0000003e __SP_H__
C:\Users\alex\AppData\Local\Temp/ccPIf7mo.s:4      *ABS*:0000003d __SP_L__
C:\Users\alex\AppData\Local\Temp/ccPIf7mo.s:5      *ABS*:00000034 __CCP__
C:\Users\alex\AppData\Local\Temp/ccPIf7mo.s:6      *ABS*:00000000 __tmp_reg__
C:\Users\alex\AppData\Local\Temp/ccPIf7mo.s:7      *ABS*:00000001 __zero_reg__
C:\Users\alex\AppData\Local\Temp/ccPIf7mo.s:18     .text:00000000 init_74hc595
                            *COM*:00000014 b_clk
                            *COM*:00000014 b_data
                            *COM*:00000014 b_cs
                            *COM*:00000028 p_clk
                            *COM*:00000028 p_data
                            *COM*:00000028 p_cs
C:\Users\alex\AppData\Local\Temp/ccPIf7mo.s:306    .text:000001c4 s595_set_val
                            *COM*:00000014 c_data
C:\Users\alex\AppData\Local\Temp/ccPIf7mo.s:325    .text:000001d0 s595_write
                            *COM*:00000014 copy_data
C:\Users\alex\AppData\Local\Temp/ccPIf7mo.s:579    .text:00000348 s595_putc

UNDEFINED SYMBOLS
udelay
__do_clear_bss
