GAS LISTING C:\Users\alex\AppData\Local\Temp/ccz4O0au.s 			page 1


   1               		.file	"main.c"
   2               	__SREG__ = 0x3f
   3               	__SP_H__ = 0x3e
   4               	__SP_L__ = 0x3d
   5               	__CCP__  = 0x34
   6               	__tmp_reg__ = 0
   7               	__zero_reg__ = 1
   8               		.section	.debug_abbrev,"",@progbits
   9               	.Ldebug_abbrev0:
  10               		.section	.debug_info,"",@progbits
  11               	.Ldebug_info0:
  12               		.section	.debug_line,"",@progbits
  13               	.Ldebug_line0:
  14               		.text
  15               	.Ltext0:
  16               		.data
  17               	.LC0:
  18 0000 7265 763A 		.string	"rev:%d\n"
  18      2564 0A00 
  19               	.LC1:
  20 0008 2564 2025 		.string	"%d %d %d\r\n"
  20      6420 2564 
  20      0D0A 00
  21               		.text
  22               	.global	main
  23               		.type	main, @function
  24               	main:
  25               	.LFB2:
  26               	.LM1:
  27 0000 CF92      		push r12
  28 0002 DF92      		push r13
  29 0004 EF92      		push r14
  30 0006 FF92      		push r15
  31 0008 0F93      		push r16
  32 000a 1F93      		push r17
  33 000c CF93      		push r28
  34 000e DF93      		push r29
  35               	/* prologue: function */
  36               	/* frame size = 0 */
  37               	.LM2:
  38 0010 0E94 0000 		call uart_init
  39               	.LM3:
  40 0014 80E0      		ldi r24,lo8(0)
  41 0016 61E1      		ldi r22,lo8(17)
  42 0018 47E1      		ldi r20,lo8(23)
  43 001a 20E0      		ldi r18,lo8(0)
  44 001c 03E1      		ldi r16,lo8(19)
  45 001e 0E94 0000 		call init_mcp3202
  46               	.LM4:
  47 0022 81E0      		ldi r24,lo8(1)
  48 0024 62E1      		ldi r22,lo8(18)
  49 0026 47E1      		ldi r20,lo8(23)
  50 0028 23E1      		ldi r18,lo8(19)
  51 002a 00E1      		ldi r16,lo8(16)
  52 002c 0E94 0000 		call init_mcp4922
  53               	.LM5:
  54 0030 00D0      		rcall .
GAS LISTING C:\Users\alex\AppData\Local\Temp/ccz4O0au.s 			page 2


  55 0032 00D0      		rcall .
  56 0034 80E0      		ldi r24,lo8(.LC0)
  57 0036 90E0      		ldi r25,hi8(.LC0)
  58 0038 ADB7      		in r26,__SP_L__
  59 003a BEB7      		in r27,__SP_H__
  60 003c 1296      		adiw r26,1+1
  61 003e 9C93      		st X,r25
  62 0040 8E93      		st -X,r24
  63 0042 1197      		sbiw r26,1
  64 0044 1496      		adiw r26,3+1
  65 0046 1C92      		st X,__zero_reg__
  66 0048 1E92      		st -X,__zero_reg__
  67 004a 1397      		sbiw r26,3
  68 004c 0E94 0000 		call uart_printf
  69 0050 80E0      		ldi r24,lo8(0)
  70 0052 90E0      		ldi r25,hi8(0)
  71               	.LVL0:
  72 0054 0F90      		pop __tmp_reg__
  73 0056 0F90      		pop __tmp_reg__
  74 0058 0F90      		pop __tmp_reg__
  75 005a 0F90      		pop __tmp_reg__
  76               	.LM6:
  77 005c 2FEF      		ldi r18,lo8(4095)
  78 005e C22E      		mov r12,r18
  79 0060 2FE0      		ldi r18,hi8(4095)
  80 0062 D22E      		mov r13,r18
  81               	.LM7:
  82 0064 C0E0      		ldi r28,lo8(.LC1)
  83 0066 D0E0      		ldi r29,hi8(.LC1)
  84               	.LVL1:
  85               	.L3:
  86               	.LM8:
  87 0068 9C01      		movw r18,r24
  88               	.LVL2:
  89               	.L2:
  90               	.LM9:
  91 006a 8901      		movw r16,r18
  92 006c 0F5F      		subi r16,lo8(-(1))
  93 006e 1F4F      		sbci r17,hi8(-(1))
  94               	.LVL3:
  95               	.LM10:
  96 0070 81E0      		ldi r24,lo8(1)
  97 0072 B801      		movw r22,r16
  98 0074 40E0      		ldi r20,lo8(0)
  99 0076 0E94 0000 		call mcp4922_putw
 100               	.LM11:
 101 007a B601      		movw r22,r12
 102 007c 601B      		sub r22,r16
 103 007e 710B      		sbc r23,r17
 104 0080 81E0      		ldi r24,lo8(1)
 105 0082 41E0      		ldi r20,lo8(1)
 106 0084 0E94 0000 		call mcp4922_putw
 107               	.LM12:
 108 0088 8CED      		ldi r24,lo8(1500)
 109 008a 95E0      		ldi r25,hi8(1500)
 110 008c 0E94 0000 		call delay
 111               	.LM13:
GAS LISTING C:\Users\alex\AppData\Local\Temp/ccz4O0au.s 			page 3


 112 0090 80E0      		ldi r24,lo8(0)
 113 0092 61E0      		ldi r22,lo8(1)
 114 0094 41E0      		ldi r20,lo8(1)
 115 0096 0E94 0000 		call mcp3202_getw
 116 009a 7C01      		movw r14,r24
 117               	.LM14:
 118 009c 80E0      		ldi r24,lo8(0)
 119 009e 60E0      		ldi r22,lo8(0)
 120 00a0 41E0      		ldi r20,lo8(1)
 121 00a2 0E94 0000 		call mcp3202_getw
 122               	.LM15:
 123 00a6 EDB7      		in r30,__SP_L__
 124 00a8 FEB7      		in r31,__SP_H__
 125 00aa 3897      		sbiw r30,8
 126 00ac 0FB6      		in __tmp_reg__,__SREG__
 127 00ae F894      		cli
 128 00b0 FEBF      		out __SP_H__,r31
 129 00b2 0FBE      		out __SREG__,__tmp_reg__
 130 00b4 EDBF      		out __SP_L__,r30
 131 00b6 3196      		adiw r30,1
 132 00b8 ADB7      		in r26,__SP_L__
 133 00ba BEB7      		in r27,__SP_H__
 134 00bc 1296      		adiw r26,1+1
 135 00be DC93      		st X,r29
 136 00c0 CE93      		st -X,r28
 137 00c2 1197      		sbiw r26,1
 138 00c4 1383      		std Z+3,r17
 139 00c6 0283      		std Z+2,r16
 140 00c8 F582      		std Z+5,r15
 141 00ca E482      		std Z+4,r14
 142 00cc 9783      		std Z+7,r25
 143 00ce 8683      		std Z+6,r24
 144 00d0 0E94 0000 		call uart_printf
 145               	.LM16:
 146 00d4 C801      		movw r24,r16
 147 00d6 0196      		adiw r24,1
 148               	.LVL4:
 149 00d8 20E0      		ldi r18,lo8(0)
 150 00da 30E0      		ldi r19,hi8(0)
 151               	.LVL5:
 152               	.LM17:
 153 00dc EDB7      		in r30,__SP_L__
 154 00de FEB7      		in r31,__SP_H__
 155 00e0 3896      		adiw r30,8
 156 00e2 0FB6      		in __tmp_reg__,__SREG__
 157 00e4 F894      		cli
 158 00e6 FEBF      		out __SP_H__,r31
 159 00e8 0FBE      		out __SREG__,__tmp_reg__
 160 00ea EDBF      		out __SP_L__,r30
 161 00ec F0E1      		ldi r31,hi8(4096)
 162 00ee 8030      		cpi r24,lo8(4096)
 163 00f0 9F07      		cpc r25,r31
 164 00f2 04F4      		brge .+2
 165 00f4 00C0      		rjmp .L3
 166               	.LVL6:
 167 00f6 00C0      		rjmp .L2
 168               	.LFE2:
GAS LISTING C:\Users\alex\AppData\Local\Temp/ccz4O0au.s 			page 4


 169               		.size	main, .-main
 170               	.global	values
 171               		.data
 172               		.type	values, @object
 173               		.size	values, 16
 174               	values:
 175 0013 0100      		.word	1
 176 0015 0200      		.word	2
 177 0017 0400      		.word	4
 178 0019 0800      		.word	8
 179 001b 1000      		.word	16
 180 001d 2000      		.word	32
 181 001f 4000      		.word	64
 182 0021 8000      		.word	128
 183               		.comm vol,2,1
 184               		.comm ch,2,1
 185               		.comm bal,2,1
 186               		.section	.debug_frame,"",@progbits
 187               	.Lframe0:
 188 0000 0C00 0000 		.long	.LECIE0-.LSCIE0
 189               	.LSCIE0:
 190 0004 FFFF FFFF 		.long	0xffffffff
 191 0008 01        		.byte	0x1
 192 0009 00        		.string	""
 193 000a 01        		.uleb128 0x1
 194 000b 7F        		.sleb128 -1
 195 000c 24        		.byte	0x24
 196 000d 0C        		.byte	0xc
 197 000e 20        		.uleb128 0x20
 198 000f 00        		.uleb128 0x0
 199               		.p2align	2
 200               	.LECIE0:
 201               	.LSFDE0:
 202 0010 0C00 0000 		.long	.LEFDE0-.LASFDE0
 203               	.LASFDE0:
 204 0014 0000 0000 		.long	.Lframe0
 205 0018 0000 0000 		.long	.LFB2
 206 001c F800 0000 		.long	.LFE2-.LFB2
 207               		.p2align	2
 208               	.LEFDE0:
 209               		.text
 210               	.Letext0:
 211               		.section	.debug_loc,"",@progbits
 212               	.Ldebug_loc0:
 213               	.LLST1:
 214 0000 5400 0000 		.long	.LVL0-.Ltext0
 215 0004 6A00 0000 		.long	.LVL2-.Ltext0
 216 0008 0600      		.word	0x6
 217 000a 68        		.byte	0x68
 218 000b 93        		.byte	0x93
 219 000c 01        		.uleb128 0x1
 220 000d 69        		.byte	0x69
 221 000e 93        		.byte	0x93
 222 000f 01        		.uleb128 0x1
 223 0010 6A00 0000 		.long	.LVL2-.Ltext0
 224 0014 7000 0000 		.long	.LVL3-.Ltext0
 225 0018 0600      		.word	0x6
GAS LISTING C:\Users\alex\AppData\Local\Temp/ccz4O0au.s 			page 5


 226 001a 62        		.byte	0x62
 227 001b 93        		.byte	0x93
 228 001c 01        		.uleb128 0x1
 229 001d 63        		.byte	0x63
 230 001e 93        		.byte	0x93
 231 001f 01        		.uleb128 0x1
 232 0020 7000 0000 		.long	.LVL3-.Ltext0
 233 0024 D800 0000 		.long	.LVL4-.Ltext0
 234 0028 0600      		.word	0x6
 235 002a 60        		.byte	0x60
 236 002b 93        		.byte	0x93
 237 002c 01        		.uleb128 0x1
 238 002d 61        		.byte	0x61
 239 002e 93        		.byte	0x93
 240 002f 01        		.uleb128 0x1
 241 0030 D800 0000 		.long	.LVL4-.Ltext0
 242 0034 DC00 0000 		.long	.LVL5-.Ltext0
 243 0038 0600      		.word	0x6
 244 003a 68        		.byte	0x68
 245 003b 93        		.byte	0x93
 246 003c 01        		.uleb128 0x1
 247 003d 69        		.byte	0x69
 248 003e 93        		.byte	0x93
 249 003f 01        		.uleb128 0x1
 250 0040 DC00 0000 		.long	.LVL5-.Ltext0
 251 0044 F600 0000 		.long	.LVL6-.Ltext0
 252 0048 0600      		.word	0x6
 253 004a 62        		.byte	0x62
 254 004b 93        		.byte	0x93
 255 004c 01        		.uleb128 0x1
 256 004d 63        		.byte	0x63
 257 004e 93        		.byte	0x93
 258 004f 01        		.uleb128 0x1
 259 0050 F600 0000 		.long	.LVL6-.Ltext0
 260 0054 F800 0000 		.long	.LFE2-.Ltext0
 261 0058 0600      		.word	0x6
 262 005a 68        		.byte	0x68
 263 005b 93        		.byte	0x93
 264 005c 01        		.uleb128 0x1
 265 005d 69        		.byte	0x69
 266 005e 93        		.byte	0x93
 267 005f 01        		.uleb128 0x1
 268 0060 0000 0000 		.long	0x0
 269 0064 0000 0000 		.long	0x0
 270               		.section	.debug_info
 271 0000 FF00 0000 		.long	0xff
 272 0004 0200      		.word	0x2
 273 0006 0000 0000 		.long	.Ldebug_abbrev0
 274 000a 04        		.byte	0x4
 275 000b 01        		.uleb128 0x1
 276 000c 0000 0000 		.long	.LASF10
 277 0010 01        		.byte	0x1
 278 0011 0000 0000 		.long	.LASF11
 279 0015 0000 0000 		.long	.LASF12
 280 0019 0000 0000 		.long	.Ltext0
 281 001d 0000 0000 		.long	.Letext0
 282 0021 0000 0000 		.long	.Ldebug_line0
GAS LISTING C:\Users\alex\AppData\Local\Temp/ccz4O0au.s 			page 6


 283 0025 02        		.uleb128 0x2
 284 0026 01        		.byte	0x1
 285 0027 06        		.byte	0x6
 286 0028 0000 0000 		.long	.LASF0
 287 002c 02        		.uleb128 0x2
 288 002d 01        		.byte	0x1
 289 002e 08        		.byte	0x8
 290 002f 0000 0000 		.long	.LASF1
 291 0033 03        		.uleb128 0x3
 292 0034 02        		.byte	0x2
 293 0035 05        		.byte	0x5
 294 0036 696E 7400 		.string	"int"
 295 003a 02        		.uleb128 0x2
 296 003b 02        		.byte	0x2
 297 003c 07        		.byte	0x7
 298 003d 0000 0000 		.long	.LASF2
 299 0041 02        		.uleb128 0x2
 300 0042 04        		.byte	0x4
 301 0043 05        		.byte	0x5
 302 0044 0000 0000 		.long	.LASF3
 303 0048 02        		.uleb128 0x2
 304 0049 04        		.byte	0x4
 305 004a 07        		.byte	0x7
 306 004b 0000 0000 		.long	.LASF4
 307 004f 02        		.uleb128 0x2
 308 0050 08        		.byte	0x8
 309 0051 05        		.byte	0x5
 310 0052 0000 0000 		.long	.LASF5
 311 0056 02        		.uleb128 0x2
 312 0057 08        		.byte	0x8
 313 0058 07        		.byte	0x7
 314 0059 0000 0000 		.long	.LASF6
 315 005d 04        		.uleb128 0x4
 316 005e 01        		.byte	0x1
 317 005f 0000 0000 		.long	.LASF13
 318 0063 01        		.byte	0x1
 319 0064 29        		.byte	0x29
 320 0065 01        		.byte	0x1
 321 0066 3300 0000 		.long	0x33
 322 006a 0000 0000 		.long	.LFB2
 323 006e 0000 0000 		.long	.LFE2
 324 0072 02        		.byte	0x2
 325 0073 90        		.byte	0x90
 326 0074 20        		.uleb128 0x20
 327 0075 A800 0000 		.long	0xa8
 328 0079 05        		.uleb128 0x5
 329 007a 7265 7600 		.string	"rev"
 330 007e 01        		.byte	0x1
 331 007f 2A        		.byte	0x2a
 332 0080 3300 0000 		.long	0x33
 333 0084 06        		.uleb128 0x6
 334 0085 6900      		.string	"i"
 335 0087 01        		.byte	0x1
 336 0088 2C        		.byte	0x2c
 337 0089 3300 0000 		.long	0x33
 338 008d 0000 0000 		.long	.LLST1
 339 0091 07        		.uleb128 0x7
GAS LISTING C:\Users\alex\AppData\Local\Temp/ccz4O0au.s 			page 7


 340 0092 0000 0000 		.long	.LASF7
 341 0096 01        		.byte	0x1
 342 0097 2C        		.byte	0x2c
 343 0098 3300 0000 		.long	0x33
 344 009c 07        		.uleb128 0x7
 345 009d 0000 0000 		.long	.LASF8
 346 00a1 01        		.byte	0x1
 347 00a2 2C        		.byte	0x2c
 348 00a3 3300 0000 		.long	0x33
 349 00a7 00        		.byte	0x0
 350 00a8 08        		.uleb128 0x8
 351 00a9 766F 6C00 		.string	"vol"
 352 00ad 01        		.byte	0x1
 353 00ae 20        		.byte	0x20
 354 00af 3A00 0000 		.long	0x3a
 355 00b3 01        		.byte	0x1
 356 00b4 05        		.byte	0x5
 357 00b5 03        		.byte	0x3
 358 00b6 0000 0000 		.long	vol
 359 00ba 08        		.uleb128 0x8
 360 00bb 6368 00   		.string	"ch"
 361 00be 01        		.byte	0x1
 362 00bf 20        		.byte	0x20
 363 00c0 3A00 0000 		.long	0x3a
 364 00c4 01        		.byte	0x1
 365 00c5 05        		.byte	0x5
 366 00c6 03        		.byte	0x3
 367 00c7 0000 0000 		.long	ch
 368 00cb 08        		.uleb128 0x8
 369 00cc 6261 6C00 		.string	"bal"
 370 00d0 01        		.byte	0x1
 371 00d1 21        		.byte	0x21
 372 00d2 3300 0000 		.long	0x33
 373 00d6 01        		.byte	0x1
 374 00d7 05        		.byte	0x5
 375 00d8 03        		.byte	0x3
 376 00d9 0000 0000 		.long	bal
 377 00dd 09        		.uleb128 0x9
 378 00de 3300 0000 		.long	0x33
 379 00e2 ED00 0000 		.long	0xed
 380 00e6 0A        		.uleb128 0xa
 381 00e7 ED00 0000 		.long	0xed
 382 00eb 07        		.byte	0x7
 383 00ec 00        		.byte	0x0
 384 00ed 0B        		.uleb128 0xb
 385 00ee 02        		.byte	0x2
 386 00ef 07        		.byte	0x7
 387 00f0 0C        		.uleb128 0xc
 388 00f1 0000 0000 		.long	.LASF9
 389 00f5 01        		.byte	0x1
 390 00f6 26        		.byte	0x26
 391 00f7 DD00 0000 		.long	0xdd
 392 00fb 01        		.byte	0x1
 393 00fc 05        		.byte	0x5
 394 00fd 03        		.byte	0x3
 395 00fe 0000 0000 		.long	values
 396 0102 00        		.byte	0x0
GAS LISTING C:\Users\alex\AppData\Local\Temp/ccz4O0au.s 			page 8


 397               		.section	.debug_abbrev
 398 0000 01        		.uleb128 0x1
 399 0001 11        		.uleb128 0x11
 400 0002 01        		.byte	0x1
 401 0003 25        		.uleb128 0x25
 402 0004 0E        		.uleb128 0xe
 403 0005 13        		.uleb128 0x13
 404 0006 0B        		.uleb128 0xb
 405 0007 03        		.uleb128 0x3
 406 0008 0E        		.uleb128 0xe
 407 0009 1B        		.uleb128 0x1b
 408 000a 0E        		.uleb128 0xe
 409 000b 11        		.uleb128 0x11
 410 000c 01        		.uleb128 0x1
 411 000d 12        		.uleb128 0x12
 412 000e 01        		.uleb128 0x1
 413 000f 10        		.uleb128 0x10
 414 0010 06        		.uleb128 0x6
 415 0011 00        		.byte	0x0
 416 0012 00        		.byte	0x0
 417 0013 02        		.uleb128 0x2
 418 0014 24        		.uleb128 0x24
 419 0015 00        		.byte	0x0
 420 0016 0B        		.uleb128 0xb
 421 0017 0B        		.uleb128 0xb
 422 0018 3E        		.uleb128 0x3e
 423 0019 0B        		.uleb128 0xb
 424 001a 03        		.uleb128 0x3
 425 001b 0E        		.uleb128 0xe
 426 001c 00        		.byte	0x0
 427 001d 00        		.byte	0x0
 428 001e 03        		.uleb128 0x3
 429 001f 24        		.uleb128 0x24
 430 0020 00        		.byte	0x0
 431 0021 0B        		.uleb128 0xb
 432 0022 0B        		.uleb128 0xb
 433 0023 3E        		.uleb128 0x3e
 434 0024 0B        		.uleb128 0xb
 435 0025 03        		.uleb128 0x3
 436 0026 08        		.uleb128 0x8
 437 0027 00        		.byte	0x0
 438 0028 00        		.byte	0x0
 439 0029 04        		.uleb128 0x4
 440 002a 2E        		.uleb128 0x2e
 441 002b 01        		.byte	0x1
 442 002c 3F        		.uleb128 0x3f
 443 002d 0C        		.uleb128 0xc
 444 002e 03        		.uleb128 0x3
 445 002f 0E        		.uleb128 0xe
 446 0030 3A        		.uleb128 0x3a
 447 0031 0B        		.uleb128 0xb
 448 0032 3B        		.uleb128 0x3b
 449 0033 0B        		.uleb128 0xb
 450 0034 27        		.uleb128 0x27
 451 0035 0C        		.uleb128 0xc
 452 0036 49        		.uleb128 0x49
 453 0037 13        		.uleb128 0x13
GAS LISTING C:\Users\alex\AppData\Local\Temp/ccz4O0au.s 			page 9


 454 0038 11        		.uleb128 0x11
 455 0039 01        		.uleb128 0x1
 456 003a 12        		.uleb128 0x12
 457 003b 01        		.uleb128 0x1
 458 003c 40        		.uleb128 0x40
 459 003d 0A        		.uleb128 0xa
 460 003e 01        		.uleb128 0x1
 461 003f 13        		.uleb128 0x13
 462 0040 00        		.byte	0x0
 463 0041 00        		.byte	0x0
 464 0042 05        		.uleb128 0x5
 465 0043 34        		.uleb128 0x34
 466 0044 00        		.byte	0x0
 467 0045 03        		.uleb128 0x3
 468 0046 08        		.uleb128 0x8
 469 0047 3A        		.uleb128 0x3a
 470 0048 0B        		.uleb128 0xb
 471 0049 3B        		.uleb128 0x3b
 472 004a 0B        		.uleb128 0xb
 473 004b 49        		.uleb128 0x49
 474 004c 13        		.uleb128 0x13
 475 004d 00        		.byte	0x0
 476 004e 00        		.byte	0x0
 477 004f 06        		.uleb128 0x6
 478 0050 34        		.uleb128 0x34
 479 0051 00        		.byte	0x0
 480 0052 03        		.uleb128 0x3
 481 0053 08        		.uleb128 0x8
 482 0054 3A        		.uleb128 0x3a
 483 0055 0B        		.uleb128 0xb
 484 0056 3B        		.uleb128 0x3b
 485 0057 0B        		.uleb128 0xb
 486 0058 49        		.uleb128 0x49
 487 0059 13        		.uleb128 0x13
 488 005a 02        		.uleb128 0x2
 489 005b 06        		.uleb128 0x6
 490 005c 00        		.byte	0x0
 491 005d 00        		.byte	0x0
 492 005e 07        		.uleb128 0x7
 493 005f 34        		.uleb128 0x34
 494 0060 00        		.byte	0x0
 495 0061 03        		.uleb128 0x3
 496 0062 0E        		.uleb128 0xe
 497 0063 3A        		.uleb128 0x3a
 498 0064 0B        		.uleb128 0xb
 499 0065 3B        		.uleb128 0x3b
 500 0066 0B        		.uleb128 0xb
 501 0067 49        		.uleb128 0x49
 502 0068 13        		.uleb128 0x13
 503 0069 00        		.byte	0x0
 504 006a 00        		.byte	0x0
 505 006b 08        		.uleb128 0x8
 506 006c 34        		.uleb128 0x34
 507 006d 00        		.byte	0x0
 508 006e 03        		.uleb128 0x3
 509 006f 08        		.uleb128 0x8
 510 0070 3A        		.uleb128 0x3a
GAS LISTING C:\Users\alex\AppData\Local\Temp/ccz4O0au.s 			page 10


 511 0071 0B        		.uleb128 0xb
 512 0072 3B        		.uleb128 0x3b
 513 0073 0B        		.uleb128 0xb
 514 0074 49        		.uleb128 0x49
 515 0075 13        		.uleb128 0x13
 516 0076 3F        		.uleb128 0x3f
 517 0077 0C        		.uleb128 0xc
 518 0078 02        		.uleb128 0x2
 519 0079 0A        		.uleb128 0xa
 520 007a 00        		.byte	0x0
 521 007b 00        		.byte	0x0
 522 007c 09        		.uleb128 0x9
 523 007d 01        		.uleb128 0x1
 524 007e 01        		.byte	0x1
 525 007f 49        		.uleb128 0x49
 526 0080 13        		.uleb128 0x13
 527 0081 01        		.uleb128 0x1
 528 0082 13        		.uleb128 0x13
 529 0083 00        		.byte	0x0
 530 0084 00        		.byte	0x0
 531 0085 0A        		.uleb128 0xa
 532 0086 21        		.uleb128 0x21
 533 0087 00        		.byte	0x0
 534 0088 49        		.uleb128 0x49
 535 0089 13        		.uleb128 0x13
 536 008a 2F        		.uleb128 0x2f
 537 008b 0B        		.uleb128 0xb
 538 008c 00        		.byte	0x0
 539 008d 00        		.byte	0x0
 540 008e 0B        		.uleb128 0xb
 541 008f 24        		.uleb128 0x24
 542 0090 00        		.byte	0x0
 543 0091 0B        		.uleb128 0xb
 544 0092 0B        		.uleb128 0xb
 545 0093 3E        		.uleb128 0x3e
 546 0094 0B        		.uleb128 0xb
 547 0095 00        		.byte	0x0
 548 0096 00        		.byte	0x0
 549 0097 0C        		.uleb128 0xc
 550 0098 34        		.uleb128 0x34
 551 0099 00        		.byte	0x0
 552 009a 03        		.uleb128 0x3
 553 009b 0E        		.uleb128 0xe
 554 009c 3A        		.uleb128 0x3a
 555 009d 0B        		.uleb128 0xb
 556 009e 3B        		.uleb128 0x3b
 557 009f 0B        		.uleb128 0xb
 558 00a0 49        		.uleb128 0x49
 559 00a1 13        		.uleb128 0x13
 560 00a2 3F        		.uleb128 0x3f
 561 00a3 0C        		.uleb128 0xc
 562 00a4 02        		.uleb128 0x2
 563 00a5 0A        		.uleb128 0xa
 564 00a6 00        		.byte	0x0
 565 00a7 00        		.byte	0x0
 566 00a8 00        		.byte	0x0
 567               		.section	.debug_pubnames,"",@progbits
GAS LISTING C:\Users\alex\AppData\Local\Temp/ccz4O0au.s 			page 11


 568 0000 3900 0000 		.long	0x39
 569 0004 0200      		.word	0x2
 570 0006 0000 0000 		.long	.Ldebug_info0
 571 000a 0301 0000 		.long	0x103
 572 000e 5D00 0000 		.long	0x5d
 573 0012 6D61 696E 		.string	"main"
 573      00
 574 0017 A800 0000 		.long	0xa8
 575 001b 766F 6C00 		.string	"vol"
 576 001f BA00 0000 		.long	0xba
 577 0023 6368 00   		.string	"ch"
 578 0026 CB00 0000 		.long	0xcb
 579 002a 6261 6C00 		.string	"bal"
 580 002e F000 0000 		.long	0xf0
 581 0032 7661 6C75 		.string	"values"
 581      6573 00
 582 0039 0000 0000 		.long	0x0
 583               		.section	.debug_aranges,"",@progbits
 584 0000 1C00 0000 		.long	0x1c
 585 0004 0200      		.word	0x2
 586 0006 0000 0000 		.long	.Ldebug_info0
 587 000a 04        		.byte	0x4
 588 000b 00        		.byte	0x0
 589 000c 0000      		.word	0x0
 590 000e 0000      		.word	0x0
 591 0010 0000 0000 		.long	.Ltext0
 592 0014 F800 0000 		.long	.Letext0-.Ltext0
 593 0018 0000 0000 		.long	0x0
 594 001c 0000 0000 		.long	0x0
 595               		.section	.debug_line
 596 0000 B400 0000 		.long	.LELT0-.LSLT0
 597               	.LSLT0:
 598 0004 0200      		.word	0x2
 599 0006 1A00 0000 		.long	.LELTP0-.LASLTP0
 600               	.LASLTP0:
 601 000a 01        		.byte	0x1
 602 000b 01        		.byte	0x1
 603 000c F6        		.byte	0xf6
 604 000d F5        		.byte	0xf5
 605 000e 0A        		.byte	0xa
 606 000f 00        		.byte	0x0
 607 0010 01        		.byte	0x1
 608 0011 01        		.byte	0x1
 609 0012 01        		.byte	0x1
 610 0013 01        		.byte	0x1
 611 0014 00        		.byte	0x0
 612 0015 00        		.byte	0x0
 613 0016 00        		.byte	0x0
 614 0017 01        		.byte	0x1
 615 0018 00        		.byte	0x0
 616 0019 6D61 696E 		.string	"main.c"
 616      2E63 00
 617 0020 00        		.uleb128 0x0
 618 0021 00        		.uleb128 0x0
 619 0022 00        		.uleb128 0x0
 620 0023 00        		.byte	0x0
 621               	.LELTP0:
GAS LISTING C:\Users\alex\AppData\Local\Temp/ccz4O0au.s 			page 12


 622 0024 00        		.byte	0x0
 623 0025 05        		.uleb128 0x5
 624 0026 02        		.byte	0x2
 625 0027 0000 0000 		.long	.LM1
 626 002b 3C        		.byte	0x3c
 627 002c 00        		.byte	0x0
 628 002d 05        		.uleb128 0x5
 629 002e 02        		.byte	0x2
 630 002f 0000 0000 		.long	.LM2
 631 0033 18        		.byte	0x18
 632 0034 00        		.byte	0x0
 633 0035 05        		.uleb128 0x5
 634 0036 02        		.byte	0x2
 635 0037 0000 0000 		.long	.LM3
 636 003b 19        		.byte	0x19
 637 003c 00        		.byte	0x0
 638 003d 05        		.uleb128 0x5
 639 003e 02        		.byte	0x2
 640 003f 0000 0000 		.long	.LM4
 641 0043 15        		.byte	0x15
 642 0044 00        		.byte	0x0
 643 0045 05        		.uleb128 0x5
 644 0046 02        		.byte	0x2
 645 0047 0000 0000 		.long	.LM5
 646 004b 17        		.byte	0x17
 647 004c 00        		.byte	0x0
 648 004d 05        		.uleb128 0x5
 649 004e 02        		.byte	0x2
 650 004f 0000 0000 		.long	.LM6
 651 0053 1C        		.byte	0x1c
 652 0054 00        		.byte	0x0
 653 0055 05        		.uleb128 0x5
 654 0056 02        		.byte	0x2
 655 0057 0000 0000 		.long	.LM7
 656 005b 1B        		.byte	0x1b
 657 005c 00        		.byte	0x0
 658 005d 05        		.uleb128 0x5
 659 005e 02        		.byte	0x2
 660 005f 0000 0000 		.long	.LM8
 661 0063 03        		.byte	0x3
 662 0064 71        		.sleb128 -15
 663 0065 01        		.byte	0x1
 664 0066 00        		.byte	0x0
 665 0067 05        		.uleb128 0x5
 666 0068 02        		.byte	0x2
 667 0069 0000 0000 		.long	.LM9
 668 006d 18        		.byte	0x18
 669 006e 00        		.byte	0x0
 670 006f 05        		.uleb128 0x5
 671 0070 02        		.byte	0x2
 672 0071 0000 0000 		.long	.LM10
 673 0075 17        		.byte	0x17
 674 0076 00        		.byte	0x0
 675 0077 05        		.uleb128 0x5
 676 0078 02        		.byte	0x2
 677 0079 0000 0000 		.long	.LM11
 678 007d 15        		.byte	0x15
GAS LISTING C:\Users\alex\AppData\Local\Temp/ccz4O0au.s 			page 13


 679 007e 00        		.byte	0x0
 680 007f 05        		.uleb128 0x5
 681 0080 02        		.byte	0x2
 682 0081 0000 0000 		.long	.LM12
 683 0085 15        		.byte	0x15
 684 0086 00        		.byte	0x0
 685 0087 05        		.uleb128 0x5
 686 0088 02        		.byte	0x2
 687 0089 0000 0000 		.long	.LM13
 688 008d 16        		.byte	0x16
 689 008e 00        		.byte	0x0
 690 008f 05        		.uleb128 0x5
 691 0090 02        		.byte	0x2
 692 0091 0000 0000 		.long	.LM14
 693 0095 15        		.byte	0x15
 694 0096 00        		.byte	0x0
 695 0097 05        		.uleb128 0x5
 696 0098 02        		.byte	0x2
 697 0099 0000 0000 		.long	.LM15
 698 009d 17        		.byte	0x17
 699 009e 00        		.byte	0x0
 700 009f 05        		.uleb128 0x5
 701 00a0 02        		.byte	0x2
 702 00a1 0000 0000 		.long	.LM16
 703 00a5 15        		.byte	0x15
 704 00a6 00        		.byte	0x0
 705 00a7 05        		.uleb128 0x5
 706 00a8 02        		.byte	0x2
 707 00a9 0000 0000 		.long	.LM17
 708 00ad 15        		.byte	0x15
 709 00ae 00        		.byte	0x0
 710 00af 05        		.uleb128 0x5
 711 00b0 02        		.byte	0x2
 712 00b1 0000 0000 		.long	.Letext0
 713 00b5 00        		.byte	0x0
 714 00b6 01        		.uleb128 0x1
 715 00b7 01        		.byte	0x1
 716               	.LELT0:
 717 00b8 1600 0000 		.section	.debug_str,"MS",@progbits,1
 717      0200 1000 
 717      0000 0101 
 717      FB0E 0A00 
 717      0101 0101 
 718               	.LASF1:
 719 0000 756E 7369 		.string	"unsigned char"
 719      676E 6564 
 719      2063 6861 
 719      7200 
 720               	.LASF7:
 721 000e 6164 6330 		.string	"adc0"
 721      00
 722               	.LASF8:
 723 0013 6164 6331 		.string	"adc1"
 723      00
 724               	.LASF4:
 725 0018 6C6F 6E67 		.string	"long unsigned int"
 725      2075 6E73 
GAS LISTING C:\Users\alex\AppData\Local\Temp/ccz4O0au.s 			page 14


 725      6967 6E65 
 725      6420 696E 
 725      7400 
 726               	.LASF10:
 727 002a 474E 5520 		.string	"GNU C 4.3.3"
 727      4320 342E 
 727      332E 3300 
 728               	.LASF13:
 729 0036 6D61 696E 		.string	"main"
 729      00
 730               	.LASF2:
 731 003b 756E 7369 		.string	"unsigned int"
 731      676E 6564 
 731      2069 6E74 
 731      00
 732               	.LASF6:
 733 0048 6C6F 6E67 		.string	"long long unsigned int"
 733      206C 6F6E 
 733      6720 756E 
 733      7369 676E 
 733      6564 2069 
 734               	.LASF5:
 735 005f 6C6F 6E67 		.string	"long long int"
 735      206C 6F6E 
 735      6720 696E 
 735      7400 
 736               	.LASF11:
 737 006d 6D61 696E 		.string	"main.c"
 737      2E63 00
 738               	.LASF12:
 739 0074 453A 5C61 		.string	"E:\\avr\\adc_dac_uc2"
 739      7672 5C61 
 739      6463 5F64 
 739      6163 5F75 
 739      6332 00
 740               	.LASF9:
 741 0087 7661 6C75 		.string	"values"
 741      6573 00
 742               	.LASF3:
 743 008e 6C6F 6E67 		.string	"long int"
 743      2069 6E74 
 743      00
 744               	.LASF0:
 745 0097 7369 676E 		.string	"signed char"
 745      6564 2063 
 745      6861 7200 
 746               	.global __do_copy_data
 747               	.global __do_clear_bss
GAS LISTING C:\Users\alex\AppData\Local\Temp/ccz4O0au.s 			page 15


DEFINED SYMBOLS
                            *ABS*:00000000 main.c
C:\Users\alex\AppData\Local\Temp/ccz4O0au.s:2      *ABS*:0000003f __SREG__
C:\Users\alex\AppData\Local\Temp/ccz4O0au.s:3      *ABS*:0000003e __SP_H__
C:\Users\alex\AppData\Local\Temp/ccz4O0au.s:4      *ABS*:0000003d __SP_L__
C:\Users\alex\AppData\Local\Temp/ccz4O0au.s:5      *ABS*:00000034 __CCP__
C:\Users\alex\AppData\Local\Temp/ccz4O0au.s:6      *ABS*:00000000 __tmp_reg__
C:\Users\alex\AppData\Local\Temp/ccz4O0au.s:7      *ABS*:00000001 __zero_reg__
C:\Users\alex\AppData\Local\Temp/ccz4O0au.s:24     .text:00000000 main
C:\Users\alex\AppData\Local\Temp/ccz4O0au.s:174    .data:00000013 values
                            *COM*:00000002 vol
                            *COM*:00000002 ch
                            *COM*:00000002 bal

UNDEFINED SYMBOLS
uart_init
init_mcp3202
init_mcp4922
uart_printf
mcp4922_putw
delay
mcp3202_getw
__do_copy_data
__do_clear_bss
