GAS LISTING C:\Users\alex\AppData\Local\Temp/ccB1aqs4.s 			page 1


   1               		.file	"mcp3202.c"
   2               	__SREG__ = 0x3f
   3               	__SP_H__ = 0x3e
   4               	__SP_L__ = 0x3d
   5               	__CCP__  = 0x34
   6               	__tmp_reg__ = 0
   7               	__zero_reg__ = 1
   8               		.section	.debug_abbrev,"",@progbits
   9               	.Ldebug_abbrev0:
  10               		.section	.debug_info,"",@progbits
  11               	.Ldebug_info0:
  12               		.section	.debug_line,"",@progbits
  13               	.Ldebug_line0:
  14               		.text
  15               	.Ltext0:
  16               	.global	init_mcp3202
  17               		.type	init_mcp3202, @function
  18               	init_mcp3202:
  19               	.LFB2:
  20               	.LM1:
  21               	.LVL0:
  22 0000 0F93      		push r16
  23               	.LVL1:
  24 0002 1F93      		push r17
  25 0004 CF93      		push r28
  26 0006 DF93      		push r29
  27               	/* prologue: function */
  28               	/* frame size = 0 */
  29 0008 B62F      		mov r27,r22
  30 000a A22F      		mov r26,r18
  31               	.LM2:
  32 000c 242F      		mov r18,r20
  33               	.LVL2:
  34 000e 2F70      		andi r18,lo8(15)
  35 0010 61E0      		ldi r22,lo8(1)
  36 0012 70E0      		ldi r23,hi8(1)
  37               	.LVL3:
  38 0014 FB01      		movw r30,r22
  39 0016 00C0      		rjmp 2f
  40 0018 EE0F      	1:	lsl r30
  41 001a FF1F      		rol r31
  42 001c 2A95      	2:	dec r18
  43 001e 02F4      		brpl 1b
  44 0020 9F01      		movw r18,r30
  45 0022 3E2F      		mov r19,r30
  46               	.LVL4:
  47               	.LM3:
  48 0024 C82F      		mov r28,r24
  49 0026 D0E0      		ldi r29,lo8(0)
  50 0028 FE01      		movw r30,r28
  51 002a E050      		subi r30,lo8(-(b_clk))
  52 002c F040      		sbci r31,hi8(-(b_clk))
  53 002e 2083      		st Z,r18
  54               	.LM4:
  55 0030 8A2F      		mov r24,r26
  56               	.LVL5:
  57 0032 8F70      		andi r24,lo8(15)
GAS LISTING C:\Users\alex\AppData\Local\Temp/ccB1aqs4.s 			page 2


  58 0034 FB01      		movw r30,r22
  59 0036 00C0      		rjmp 2f
  60 0038 EE0F      	1:	lsl r30
  61 003a FF1F      		rol r31
  62 003c 8A95      	2:	dec r24
  63 003e 02F4      		brpl 1b
  64 0040 CF01      		movw r24,r30
  65 0042 5E2F      		mov r21,r30
  66               	.LVL6:
  67               	.LM5:
  68 0044 FE01      		movw r30,r28
  69 0046 E050      		subi r30,lo8(-(b_dout))
  70 0048 F040      		sbci r31,hi8(-(b_dout))
  71 004a 8083      		st Z,r24
  72               	.LM6:
  73 004c 8B2F      		mov r24,r27
  74 004e 8F70      		andi r24,lo8(15)
  75 0050 FB01      		movw r30,r22
  76 0052 00C0      		rjmp 2f
  77 0054 EE0F      	1:	lsl r30
  78 0056 FF1F      		rol r31
  79 0058 8A95      	2:	dec r24
  80 005a 02F4      		brpl 1b
  81 005c CF01      		movw r24,r30
  82 005e 1E2F      		mov r17,r30
  83               	.LVL7:
  84               	.LM7:
  85 0060 FE01      		movw r30,r28
  86 0062 E050      		subi r30,lo8(-(b_cs))
  87 0064 F040      		sbci r31,hi8(-(b_cs))
  88 0066 8083      		st Z,r24
  89               	.LM8:
  90 0068 802F      		mov r24,r16
  91               	.LVL8:
  92 006a 8F70      		andi r24,lo8(15)
  93 006c 00C0      		rjmp 2f
  94 006e 660F      	1:	lsl r22
  95 0070 771F      		rol r23
  96 0072 8A95      	2:	dec r24
  97 0074 02F4      		brpl 1b
  98 0076 762F      		mov r23,r22
  99               	.LVL9:
 100               	.LM9:
 101 0078 FE01      		movw r30,r28
 102 007a E050      		subi r30,lo8(-(b_din))
 103 007c F040      		sbci r31,hi8(-(b_din))
 104 007e 6083      		st Z,r22
 105               	.LM10:
 106 0080 407F      		andi r20,lo8(-16)
 107               	.LVL10:
 108               	.LM11:
 109 0082 01F4      		brne .L2
 110 0084 FE01      		movw r30,r28
 111 0086 EE0F      		lsl r30
 112 0088 FF1F      		rol r31
 113 008a E050      		subi r30,lo8(-(p_clk))
 114 008c F040      		sbci r31,hi8(-(p_clk))
GAS LISTING C:\Users\alex\AppData\Local\Temp/ccB1aqs4.s 			page 3


 115 008e 8BE3      		ldi r24,lo8(59)
 116 0090 90E0      		ldi r25,hi8(59)
 117 0092 9183      		std Z+1,r25
 118 0094 8083      		st Z,r24
 119 0096 8AB3      		in r24,58-32
 120 0098 382B      		or r19,r24
 121 009a 3ABB      		out 58-32,r19
 122 009c 00C0      		rjmp .L3
 123               	.L2:
 124               	.LM12:
 125 009e 4031      		cpi r20,lo8(16)
 126 00a0 01F4      		brne .L4
 127 00a2 FE01      		movw r30,r28
 128 00a4 EE0F      		lsl r30
 129 00a6 FF1F      		rol r31
 130 00a8 E050      		subi r30,lo8(-(p_clk))
 131 00aa F040      		sbci r31,hi8(-(p_clk))
 132 00ac 88E3      		ldi r24,lo8(56)
 133 00ae 90E0      		ldi r25,hi8(56)
 134 00b0 9183      		std Z+1,r25
 135 00b2 8083      		st Z,r24
 136 00b4 87B3      		in r24,55-32
 137 00b6 382B      		or r19,r24
 138 00b8 37BB      		out 55-32,r19
 139 00ba 00C0      		rjmp .L3
 140               	.L4:
 141               	.LM13:
 142 00bc 4032      		cpi r20,lo8(32)
 143 00be 01F4      		brne .L5
 144 00c0 FE01      		movw r30,r28
 145 00c2 EE0F      		lsl r30
 146 00c4 FF1F      		rol r31
 147 00c6 E050      		subi r30,lo8(-(p_clk))
 148 00c8 F040      		sbci r31,hi8(-(p_clk))
 149 00ca 85E3      		ldi r24,lo8(53)
 150 00cc 90E0      		ldi r25,hi8(53)
 151 00ce 9183      		std Z+1,r25
 152 00d0 8083      		st Z,r24
 153 00d2 84B3      		in r24,52-32
 154 00d4 382B      		or r19,r24
 155 00d6 34BB      		out 52-32,r19
 156 00d8 00C0      		rjmp .L3
 157               	.L5:
 158               	.LM14:
 159 00da 4033      		cpi r20,lo8(48)
 160 00dc 01F4      		brne .L3
 161 00de FE01      		movw r30,r28
 162 00e0 EE0F      		lsl r30
 163 00e2 FF1F      		rol r31
 164               	.LVL11:
 165 00e4 E050      		subi r30,lo8(-(p_clk))
 166 00e6 F040      		sbci r31,hi8(-(p_clk))
 167 00e8 82E3      		ldi r24,lo8(50)
 168 00ea 90E0      		ldi r25,hi8(50)
 169 00ec 9183      		std Z+1,r25
 170 00ee 8083      		st Z,r24
 171 00f0 81B3      		in r24,49-32
GAS LISTING C:\Users\alex\AppData\Local\Temp/ccB1aqs4.s 			page 4


 172 00f2 382B      		or r19,r24
 173 00f4 31BB      		out 49-32,r19
 174               	.LVL12:
 175               	.L3:
 176               	.LM15:
 177 00f6 2A2F      		mov r18,r26
 178 00f8 207F      		andi r18,lo8(-16)
 179               	.LVL13:
 180               	.LM16:
 181 00fa 01F4      		brne .L6
 182 00fc FE01      		movw r30,r28
 183 00fe EE0F      		lsl r30
 184 0100 FF1F      		rol r31
 185               	.LVL14:
 186 0102 E050      		subi r30,lo8(-(p_dout))
 187 0104 F040      		sbci r31,hi8(-(p_dout))
 188 0106 89E3      		ldi r24,lo8(57)
 189 0108 90E0      		ldi r25,hi8(57)
 190 010a 9183      		std Z+1,r25
 191 010c 8083      		st Z,r24
 192 010e 9AB3      		in r25,58-32
 193 0110 852F      		mov r24,r21
 194 0112 8095      		com r24
 195 0114 8923      		and r24,r25
 196 0116 8ABB      		out 58-32,r24
 197 0118 8BB3      		in r24,59-32
 198 011a 582B      		or r21,r24
 199 011c 5BBB      		out 59-32,r21
 200 011e 00C0      		rjmp .L7
 201               	.LVL15:
 202               	.L6:
 203               	.LM17:
 204 0120 2031      		cpi r18,lo8(16)
 205 0122 01F4      		brne .L8
 206 0124 FE01      		movw r30,r28
 207 0126 EE0F      		lsl r30
 208 0128 FF1F      		rol r31
 209               	.LVL16:
 210 012a E050      		subi r30,lo8(-(p_dout))
 211 012c F040      		sbci r31,hi8(-(p_dout))
 212 012e 86E3      		ldi r24,lo8(54)
 213 0130 90E0      		ldi r25,hi8(54)
 214 0132 9183      		std Z+1,r25
 215 0134 8083      		st Z,r24
 216 0136 97B3      		in r25,55-32
 217 0138 852F      		mov r24,r21
 218 013a 8095      		com r24
 219 013c 8923      		and r24,r25
 220 013e 87BB      		out 55-32,r24
 221 0140 88B3      		in r24,56-32
 222 0142 582B      		or r21,r24
 223 0144 58BB      		out 56-32,r21
 224 0146 00C0      		rjmp .L7
 225               	.LVL17:
 226               	.L8:
 227               	.LM18:
 228 0148 2032      		cpi r18,lo8(32)
GAS LISTING C:\Users\alex\AppData\Local\Temp/ccB1aqs4.s 			page 5


 229 014a 01F4      		brne .L9
 230 014c FE01      		movw r30,r28
 231 014e EE0F      		lsl r30
 232 0150 FF1F      		rol r31
 233 0152 E050      		subi r30,lo8(-(p_dout))
 234 0154 F040      		sbci r31,hi8(-(p_dout))
 235 0156 83E3      		ldi r24,lo8(51)
 236 0158 90E0      		ldi r25,hi8(51)
 237 015a 9183      		std Z+1,r25
 238 015c 8083      		st Z,r24
 239 015e 94B3      		in r25,52-32
 240 0160 852F      		mov r24,r21
 241 0162 8095      		com r24
 242 0164 8923      		and r24,r25
 243 0166 84BB      		out 52-32,r24
 244 0168 85B3      		in r24,53-32
 245 016a 582B      		or r21,r24
 246 016c 55BB      		out 53-32,r21
 247 016e 00C0      		rjmp .L7
 248               	.L9:
 249               	.LM19:
 250 0170 2033      		cpi r18,lo8(48)
 251 0172 01F4      		brne .L7
 252 0174 FE01      		movw r30,r28
 253 0176 EE0F      		lsl r30
 254 0178 FF1F      		rol r31
 255 017a E050      		subi r30,lo8(-(p_dout))
 256 017c F040      		sbci r31,hi8(-(p_dout))
 257 017e 80E3      		ldi r24,lo8(48)
 258 0180 90E0      		ldi r25,hi8(48)
 259 0182 9183      		std Z+1,r25
 260 0184 8083      		st Z,r24
 261 0186 91B3      		in r25,49-32
 262 0188 852F      		mov r24,r21
 263 018a 8095      		com r24
 264 018c 8923      		and r24,r25
 265 018e 81BB      		out 49-32,r24
 266 0190 82B3      		in r24,50-32
 267 0192 582B      		or r21,r24
 268 0194 52BB      		out 50-32,r21
 269               	.L7:
 270               	.LM20:
 271 0196 007F      		andi r16,lo8(-16)
 272               	.LVL18:
 273               	.LM21:
 274 0198 01F4      		brne .L10
 275 019a FE01      		movw r30,r28
 276 019c EE0F      		lsl r30
 277 019e FF1F      		rol r31
 278               	.LVL19:
 279 01a0 E050      		subi r30,lo8(-(p_din))
 280 01a2 F040      		sbci r31,hi8(-(p_din))
 281 01a4 8BE3      		ldi r24,lo8(59)
 282 01a6 90E0      		ldi r25,hi8(59)
 283 01a8 9183      		std Z+1,r25
 284 01aa 8083      		st Z,r24
 285 01ac 8AB3      		in r24,58-32
GAS LISTING C:\Users\alex\AppData\Local\Temp/ccB1aqs4.s 			page 6


 286 01ae 782B      		or r23,r24
 287 01b0 7ABB      		out 58-32,r23
 288 01b2 00C0      		rjmp .L11
 289               	.LVL20:
 290               	.L10:
 291               	.LM22:
 292 01b4 0031      		cpi r16,lo8(16)
 293 01b6 01F4      		brne .L12
 294 01b8 FE01      		movw r30,r28
 295 01ba EE0F      		lsl r30
 296 01bc FF1F      		rol r31
 297 01be E050      		subi r30,lo8(-(p_din))
 298 01c0 F040      		sbci r31,hi8(-(p_din))
 299 01c2 88E3      		ldi r24,lo8(56)
 300 01c4 90E0      		ldi r25,hi8(56)
 301 01c6 9183      		std Z+1,r25
 302 01c8 8083      		st Z,r24
 303 01ca 87B3      		in r24,55-32
 304 01cc 782B      		or r23,r24
 305 01ce 77BB      		out 55-32,r23
 306 01d0 00C0      		rjmp .L11
 307               	.L12:
 308               	.LM23:
 309 01d2 0032      		cpi r16,lo8(32)
 310 01d4 01F4      		brne .L13
 311 01d6 FE01      		movw r30,r28
 312 01d8 EE0F      		lsl r30
 313 01da FF1F      		rol r31
 314 01dc E050      		subi r30,lo8(-(p_din))
 315 01de F040      		sbci r31,hi8(-(p_din))
 316 01e0 85E3      		ldi r24,lo8(53)
 317 01e2 90E0      		ldi r25,hi8(53)
 318 01e4 9183      		std Z+1,r25
 319 01e6 8083      		st Z,r24
 320 01e8 84B3      		in r24,52-32
 321 01ea 782B      		or r23,r24
 322 01ec 74BB      		out 52-32,r23
 323 01ee 00C0      		rjmp .L11
 324               	.L13:
 325               	.LM24:
 326 01f0 0033      		cpi r16,lo8(48)
 327 01f2 01F4      		brne .L11
 328 01f4 FE01      		movw r30,r28
 329 01f6 EE0F      		lsl r30
 330 01f8 FF1F      		rol r31
 331               	.LVL21:
 332 01fa E050      		subi r30,lo8(-(p_din))
 333 01fc F040      		sbci r31,hi8(-(p_din))
 334 01fe 82E3      		ldi r24,lo8(50)
 335 0200 90E0      		ldi r25,hi8(50)
 336 0202 9183      		std Z+1,r25
 337 0204 8083      		st Z,r24
 338 0206 81B3      		in r24,49-32
 339 0208 782B      		or r23,r24
 340 020a 71BB      		out 49-32,r23
 341               	.LVL22:
 342               	.L11:
GAS LISTING C:\Users\alex\AppData\Local\Temp/ccB1aqs4.s 			page 7


 343               	.LM25:
 344 020c 6B2F      		mov r22,r27
 345 020e 607F      		andi r22,lo8(-16)
 346               	.LVL23:
 347               	.LM26:
 348 0210 01F4      		brne .L14
 349 0212 FE01      		movw r30,r28
 350 0214 EE0F      		lsl r30
 351 0216 FF1F      		rol r31
 352               	.LVL24:
 353 0218 E050      		subi r30,lo8(-(p_cs))
 354 021a F040      		sbci r31,hi8(-(p_cs))
 355 021c 8BE3      		ldi r24,lo8(59)
 356 021e 90E0      		ldi r25,hi8(59)
 357 0220 9183      		std Z+1,r25
 358 0222 8083      		st Z,r24
 359 0224 8AB3      		in r24,58-32
 360 0226 812B      		or r24,r17
 361 0228 8ABB      		out 58-32,r24
 362 022a 00C0      		rjmp .L15
 363               	.LVL25:
 364               	.L14:
 365               	.LM27:
 366 022c 6031      		cpi r22,lo8(16)
 367 022e 01F4      		brne .L16
 368 0230 FE01      		movw r30,r28
 369 0232 EE0F      		lsl r30
 370 0234 FF1F      		rol r31
 371               	.LVL26:
 372 0236 E050      		subi r30,lo8(-(p_cs))
 373 0238 F040      		sbci r31,hi8(-(p_cs))
 374 023a 88E3      		ldi r24,lo8(56)
 375 023c 90E0      		ldi r25,hi8(56)
 376 023e 9183      		std Z+1,r25
 377 0240 8083      		st Z,r24
 378 0242 87B3      		in r24,55-32
 379 0244 812B      		or r24,r17
 380 0246 87BB      		out 55-32,r24
 381 0248 00C0      		rjmp .L15
 382               	.LVL27:
 383               	.L16:
 384               	.LM28:
 385 024a 6032      		cpi r22,lo8(32)
 386 024c 01F4      		brne .L17
 387 024e FE01      		movw r30,r28
 388 0250 EE0F      		lsl r30
 389 0252 FF1F      		rol r31
 390               	.LVL28:
 391 0254 E050      		subi r30,lo8(-(p_cs))
 392 0256 F040      		sbci r31,hi8(-(p_cs))
 393 0258 85E3      		ldi r24,lo8(53)
 394 025a 90E0      		ldi r25,hi8(53)
 395 025c 9183      		std Z+1,r25
 396 025e 8083      		st Z,r24
 397 0260 84B3      		in r24,52-32
 398 0262 812B      		or r24,r17
 399 0264 84BB      		out 52-32,r24
GAS LISTING C:\Users\alex\AppData\Local\Temp/ccB1aqs4.s 			page 8


 400 0266 00C0      		rjmp .L15
 401               	.LVL29:
 402               	.L17:
 403               	.LM29:
 404 0268 6033      		cpi r22,lo8(48)
 405 026a 01F4      		brne .L15
 406 026c FE01      		movw r30,r28
 407 026e EE0F      		lsl r30
 408 0270 FF1F      		rol r31
 409 0272 E050      		subi r30,lo8(-(p_cs))
 410 0274 F040      		sbci r31,hi8(-(p_cs))
 411 0276 82E3      		ldi r24,lo8(50)
 412 0278 90E0      		ldi r25,hi8(50)
 413 027a 9183      		std Z+1,r25
 414 027c 8083      		st Z,r24
 415 027e 81B3      		in r24,49-32
 416 0280 812B      		or r24,r17
 417 0282 81BB      		out 49-32,r24
 418               	.L15:
 419               	.LM30:
 420 0284 DE01      		movw r26,r28
 421 0286 AA0F      		lsl r26
 422 0288 BB1F      		rol r27
 423 028a FD01      		movw r30,r26
 424 028c E050      		subi r30,lo8(-(p_cs))
 425 028e F040      		sbci r31,hi8(-(p_cs))
 426 0290 0190      		ld __tmp_reg__,Z+
 427 0292 F081      		ld r31,Z
 428 0294 E02D      		mov r30,__tmp_reg__
 429 0296 8081      		ld r24,Z
 430 0298 182B      		or r17,r24
 431 029a 1083      		st Z,r17
 432               	.LM31:
 433 029c FD01      		movw r30,r26
 434 029e E050      		subi r30,lo8(-(p_clk))
 435 02a0 F040      		sbci r31,hi8(-(p_clk))
 436 02a2 2081      		ld r18,Z
 437 02a4 3181      		ldd r19,Z+1
 438               	.LVL30:
 439 02a6 F901      		movw r30,r18
 440 02a8 9081      		ld r25,Z
 441 02aa FE01      		movw r30,r28
 442 02ac E050      		subi r30,lo8(-(b_clk))
 443 02ae F040      		sbci r31,hi8(-(b_clk))
 444 02b0 8081      		ld r24,Z
 445 02b2 8095      		com r24
 446 02b4 8923      		and r24,r25
 447 02b6 F901      		movw r30,r18
 448 02b8 8083      		st Z,r24
 449               	.LM32:
 450 02ba A050      		subi r26,lo8(-(p_din))
 451 02bc B040      		sbci r27,hi8(-(p_din))
 452 02be ED91      		ld r30,X+
 453 02c0 FC91      		ld r31,X
 454 02c2 8081      		ld r24,Z
 455 02c4 C050      		subi r28,lo8(-(b_din))
 456 02c6 D040      		sbci r29,hi8(-(b_din))
GAS LISTING C:\Users\alex\AppData\Local\Temp/ccB1aqs4.s 			page 9


 457 02c8 9881      		ld r25,Y
 458 02ca 892B      		or r24,r25
 459 02cc 8083      		st Z,r24
 460               	/* epilogue start */
 461               	.LM33:
 462 02ce DF91      		pop r29
 463 02d0 CF91      		pop r28
 464 02d2 1F91      		pop r17
 465               	.LVL31:
 466 02d4 0F91      		pop r16
 467               	.LVL32:
 468 02d6 0895      		ret
 469               	.LFE2:
 470               		.size	init_mcp3202, .-init_mcp3202
 471               	.global	mcp3202_getw
 472               		.type	mcp3202_getw, @function
 473               	mcp3202_getw:
 474               	.LFB3:
 475               	.LM34:
 476               	.LVL33:
 477 02d8 5F92      		push r5
 478 02da 6F92      		push r6
 479 02dc 7F92      		push r7
 480 02de 8F92      		push r8
 481 02e0 9F92      		push r9
 482 02e2 AF92      		push r10
 483 02e4 BF92      		push r11
 484 02e6 CF92      		push r12
 485 02e8 DF92      		push r13
 486 02ea EF92      		push r14
 487 02ec FF92      		push r15
 488 02ee 0F93      		push r16
 489 02f0 1F93      		push r17
 490 02f2 CF93      		push r28
 491 02f4 DF93      		push r29
 492               	/* prologue: function */
 493               	/* frame size = 0 */
 494 02f6 762E      		mov r7,r22
 495 02f8 142F      		mov r17,r20
 496               	.LM35:
 497 02fa 90E0      		ldi r25,lo8(0)
 498 02fc DC01      		movw r26,r24
 499               	.LVL34:
 500 02fe AA0F      		lsl r26
 501 0300 BB1F      		rol r27
 502               	.LVL35:
 503 0302 FD01      		movw r30,r26
 504 0304 E050      		subi r30,lo8(-(p_clk))
 505 0306 F040      		sbci r31,hi8(-(p_clk))
 506 0308 C081      		ld r28,Z
 507 030a D181      		ldd r29,Z+1
 508               	.LVL36:
 509               	.LM36:
 510 030c FD01      		movw r30,r26
 511 030e E050      		subi r30,lo8(-(p_dout))
 512 0310 F040      		sbci r31,hi8(-(p_dout))
 513 0312 8080      		ld r8,Z
GAS LISTING C:\Users\alex\AppData\Local\Temp/ccB1aqs4.s 			page 10


 514 0314 9180      		ldd r9,Z+1
 515               	.LVL37:
 516               	.LM37:
 517 0316 FD01      		movw r30,r26
 518 0318 E050      		subi r30,lo8(-(p_din))
 519 031a F040      		sbci r31,hi8(-(p_din))
 520 031c E080      		ld r14,Z
 521 031e F180      		ldd r15,Z+1
 522               	.LVL38:
 523               	.LM38:
 524 0320 A050      		subi r26,lo8(-(p_cs))
 525 0322 B040      		sbci r27,hi8(-(p_cs))
 526 0324 CD90      		ld r12,X+
 527 0326 DC90      		ld r13,X
 528               	.LVL39:
 529               	.LM39:
 530 0328 FC01      		movw r30,r24
 531 032a E050      		subi r30,lo8(-(b_clk))
 532 032c F040      		sbci r31,hi8(-(b_clk))
 533 032e A080      		ld r10,Z
 534               	.LVL40:
 535               	.LM40:
 536 0330 FC01      		movw r30,r24
 537 0332 E050      		subi r30,lo8(-(b_dout))
 538 0334 F040      		sbci r31,hi8(-(b_dout))
 539 0336 5080      		ld r5,Z
 540               	.LVL41:
 541               	.LM41:
 542 0338 FC01      		movw r30,r24
 543 033a E050      		subi r30,lo8(-(b_din))
 544 033c F040      		sbci r31,hi8(-(b_din))
 545 033e 0081      		ld r16,Z
 546               	.LVL42:
 547               	.LM42:
 548 0340 8050      		subi r24,lo8(-(b_cs))
 549 0342 9040      		sbci r25,hi8(-(b_cs))
 550 0344 FC01      		movw r30,r24
 551 0346 6080      		ld r6,Z
 552               	.LVL43:
 553               	.LM43:
 554 0348 F701      		movw r30,r14
 555 034a 8081      		ld r24,Z
 556 034c 802B      		or r24,r16
 557 034e 8083      		st Z,r24
 558               	.LM44:
 559 0350 8881      		ld r24,Y
 560 0352 BA2C      		mov r11,r10
 561 0354 B094      		com r11
 562 0356 8B21      		and r24,r11
 563 0358 8883      		st Y,r24
 564               	.LM45:
 565 035a F601      		movw r30,r12
 566 035c 9081      		ld r25,Z
 567 035e 862D      		mov r24,r6
 568 0360 8095      		com r24
 569 0362 8923      		and r24,r25
 570 0364 8083      		st Z,r24
GAS LISTING C:\Users\alex\AppData\Local\Temp/ccB1aqs4.s 			page 11


 571               	.LM46:
 572 0366 84E1      		ldi r24,lo8(20)
 573 0368 90E0      		ldi r25,hi8(20)
 574 036a 0E94 0000 		call udelay
 575               	.LVL44:
 576               	.LM47:
 577 036e 8881      		ld r24,Y
 578 0370 8A29      		or r24,r10
 579 0372 8883      		st Y,r24
 580               	.LM48:
 581 0374 84E6      		ldi r24,lo8(100)
 582 0376 90E0      		ldi r25,hi8(100)
 583 0378 0E94 0000 		call udelay
 584               	.LM49:
 585 037c 8881      		ld r24,Y
 586 037e 8B21      		and r24,r11
 587 0380 8883      		st Y,r24
 588               	.LM50:
 589 0382 84E6      		ldi r24,lo8(100)
 590 0384 90E0      		ldi r25,hi8(100)
 591 0386 0E94 0000 		call udelay
 592               	.LM51:
 593 038a 1123      		tst r17
 594 038c 01F0      		breq .L20
 595 038e F701      		movw r30,r14
 596 0390 8081      		ld r24,Z
 597 0392 802B      		or r24,r16
 598 0394 00C0      		rjmp .L28
 599               	.L20:
 600               	.LM52:
 601 0396 F701      		movw r30,r14
 602 0398 9081      		ld r25,Z
 603 039a 802F      		mov r24,r16
 604 039c 8095      		com r24
 605 039e 8923      		and r24,r25
 606               	.L28:
 607 03a0 8083      		st Z,r24
 608               	.LM53:
 609 03a2 8881      		ld r24,Y
 610 03a4 8A29      		or r24,r10
 611 03a6 8883      		st Y,r24
 612               	.LM54:
 613 03a8 84E6      		ldi r24,lo8(100)
 614 03aa 90E0      		ldi r25,hi8(100)
 615 03ac 0E94 0000 		call udelay
 616               	.LM55:
 617 03b0 8881      		ld r24,Y
 618 03b2 8B21      		and r24,r11
 619 03b4 8883      		st Y,r24
 620               	.LM56:
 621 03b6 84E6      		ldi r24,lo8(100)
 622 03b8 90E0      		ldi r25,hi8(100)
 623 03ba 0E94 0000 		call udelay
 624               	.LM57:
 625 03be 7720      		tst r7
 626 03c0 01F0      		breq .L22
 627 03c2 F701      		movw r30,r14
GAS LISTING C:\Users\alex\AppData\Local\Temp/ccB1aqs4.s 			page 12


 628 03c4 8081      		ld r24,Z
 629 03c6 802B      		or r24,r16
 630 03c8 00C0      		rjmp .L29
 631               	.L22:
 632               	.LM58:
 633 03ca F701      		movw r30,r14
 634 03cc 9081      		ld r25,Z
 635 03ce 802F      		mov r24,r16
 636 03d0 8095      		com r24
 637 03d2 8923      		and r24,r25
 638               	.L29:
 639 03d4 8083      		st Z,r24
 640               	.LM59:
 641 03d6 8881      		ld r24,Y
 642 03d8 8A29      		or r24,r10
 643 03da 8883      		st Y,r24
 644               	.LM60:
 645 03dc 84E6      		ldi r24,lo8(100)
 646 03de 90E0      		ldi r25,hi8(100)
 647 03e0 0E94 0000 		call udelay
 648               	.LM61:
 649 03e4 8881      		ld r24,Y
 650 03e6 8B21      		and r24,r11
 651 03e8 8883      		st Y,r24
 652               	.LM62:
 653 03ea 84E6      		ldi r24,lo8(100)
 654 03ec 90E0      		ldi r25,hi8(100)
 655 03ee 0E94 0000 		call udelay
 656               	.LM63:
 657 03f2 F701      		movw r30,r14
 658 03f4 8081      		ld r24,Z
 659 03f6 802B      		or r24,r16
 660 03f8 8083      		st Z,r24
 661               	.LM64:
 662 03fa 8881      		ld r24,Y
 663 03fc 8A29      		or r24,r10
 664 03fe 8883      		st Y,r24
 665               	.LM65:
 666 0400 84E6      		ldi r24,lo8(100)
 667 0402 90E0      		ldi r25,hi8(100)
 668 0404 0E94 0000 		call udelay
 669               	.LM66:
 670 0408 8881      		ld r24,Y
 671 040a 8B21      		and r24,r11
 672 040c 8883      		st Y,r24
 673               	.LM67:
 674 040e 84E6      		ldi r24,lo8(100)
 675 0410 90E0      		ldi r25,hi8(100)
 676 0412 0E94 0000 		call udelay
 677 0416 FF24      		clr r15
 678               	.LVL45:
 679 0418 00E0      		ldi r16,lo8(0)
 680 041a 10E0      		ldi r17,hi8(0)
 681               	.LVL46:
 682               	.L25:
 683               	.LM68:
 684 041c 8881      		ld r24,Y
GAS LISTING C:\Users\alex\AppData\Local\Temp/ccB1aqs4.s 			page 13


 685 041e 8A29      		or r24,r10
 686 0420 8883      		st Y,r24
 687               	.LM69:
 688 0422 84E6      		ldi r24,lo8(100)
 689 0424 90E0      		ldi r25,hi8(100)
 690 0426 0E94 0000 		call udelay
 691               	.LM70:
 692 042a 8881      		ld r24,Y
 693 042c 8B21      		and r24,r11
 694 042e 8883      		st Y,r24
 695               	.LM71:
 696 0430 84E6      		ldi r24,lo8(100)
 697 0432 90E0      		ldi r25,hi8(100)
 698 0434 0E94 0000 		call udelay
 699               	.LM72:
 700 0438 000F      		lsl r16
 701 043a 111F      		rol r17
 702               	.LM73:
 703 043c F401      		movw r30,r8
 704 043e 8081      		ld r24,Z
 705 0440 8521      		and r24,r5
 706 0442 01F0      		breq .L24
 707 0444 0F5F      		subi r16,lo8(-(1))
 708 0446 1F4F      		sbci r17,hi8(-(1))
 709               	.L24:
 710               	.LM74:
 711 0448 F394      		inc r15
 712 044a FDE0      		ldi r31,lo8(13)
 713 044c FF16      		cp r15,r31
 714 044e 01F4      		brne .L25
 715               	.LM75:
 716 0450 F601      		movw r30,r12
 717 0452 8081      		ld r24,Z
 718 0454 8629      		or r24,r6
 719 0456 8083      		st Z,r24
 720               	.LM76:
 721 0458 84E6      		ldi r24,lo8(100)
 722 045a 90E0      		ldi r25,hi8(100)
 723 045c 0E94 0000 		call udelay
 724 0460 9801      		movw r18,r16
 725 0462 3695      		lsr r19
 726 0464 2795      		ror r18
 727 0466 3F70      		andi r19,hi8(4095)
 728               	.LM77:
 729 0468 C901      		movw r24,r18
 730               	/* epilogue start */
 731 046a DF91      		pop r29
 732 046c CF91      		pop r28
 733               	.LVL47:
 734 046e 1F91      		pop r17
 735               	.LVL48:
 736 0470 0F91      		pop r16
 737               	.LVL49:
 738 0472 FF90      		pop r15
 739               	.LVL50:
 740 0474 EF90      		pop r14
 741               	.LVL51:
GAS LISTING C:\Users\alex\AppData\Local\Temp/ccB1aqs4.s 			page 14


 742 0476 DF90      		pop r13
 743 0478 CF90      		pop r12
 744               	.LVL52:
 745 047a BF90      		pop r11
 746 047c AF90      		pop r10
 747               	.LVL53:
 748 047e 9F90      		pop r9
 749 0480 8F90      		pop r8
 750               	.LVL54:
 751 0482 7F90      		pop r7
 752               	.LVL55:
 753 0484 6F90      		pop r6
 754               	.LVL56:
 755 0486 5F90      		pop r5
 756               	.LVL57:
 757 0488 0895      		ret
 758               	.LFE3:
 759               		.size	mcp3202_getw, .-mcp3202_getw
 760               		.comm p_cs,8,1
 761               		.comm p_dout,8,1
 762               		.comm p_din,8,1
 763               		.comm p_clk,8,1
 764               		.comm b_cs,4,1
 765               		.comm b_dout,4,1
 766               		.comm b_din,4,1
 767               		.comm b_clk,4,1
 768               		.section	.debug_frame,"",@progbits
 769               	.Lframe0:
 770 0000 0C00 0000 		.long	.LECIE0-.LSCIE0
 771               	.LSCIE0:
 772 0004 FFFF FFFF 		.long	0xffffffff
 773 0008 01        		.byte	0x1
 774 0009 00        		.string	""
 775 000a 01        		.uleb128 0x1
 776 000b 7F        		.sleb128 -1
 777 000c 24        		.byte	0x24
 778 000d 0C        		.byte	0xc
 779 000e 20        		.uleb128 0x20
 780 000f 00        		.uleb128 0x0
 781               		.p2align	2
 782               	.LECIE0:
 783               	.LSFDE0:
 784 0010 0C00 0000 		.long	.LEFDE0-.LASFDE0
 785               	.LASFDE0:
 786 0014 0000 0000 		.long	.Lframe0
 787 0018 0000 0000 		.long	.LFB2
 788 001c D802 0000 		.long	.LFE2-.LFB2
 789               		.p2align	2
 790               	.LEFDE0:
 791               	.LSFDE2:
 792 0020 0C00 0000 		.long	.LEFDE2-.LASFDE2
 793               	.LASFDE2:
 794 0024 0000 0000 		.long	.Lframe0
 795 0028 0000 0000 		.long	.LFB3
 796 002c B201 0000 		.long	.LFE3-.LFB3
 797               		.p2align	2
 798               	.LEFDE2:
GAS LISTING C:\Users\alex\AppData\Local\Temp/ccB1aqs4.s 			page 15


 799               		.text
 800               	.Letext0:
 801               		.section	.debug_loc,"",@progbits
 802               	.Ldebug_loc0:
 803               	.LLST1:
 804 0000 0000 0000 		.long	.LVL0-.Ltext0
 805 0004 3200 0000 		.long	.LVL5-.Ltext0
 806 0008 0100      		.word	0x1
 807 000a 68        		.byte	0x68
 808 000b 0000 0000 		.long	0x0
 809 000f 0000 0000 		.long	0x0
 810               	.LLST2:
 811 0013 0000 0000 		.long	.LVL0-.Ltext0
 812 0017 1400 0000 		.long	.LVL3-.Ltext0
 813 001b 0100      		.word	0x1
 814 001d 66        		.byte	0x66
 815 001e 1400 0000 		.long	.LVL3-.Ltext0
 816 0022 1002 0000 		.long	.LVL23-.Ltext0
 817 0026 0100      		.word	0x1
 818 0028 6B        		.byte	0x6b
 819 0029 1002 0000 		.long	.LVL23-.Ltext0
 820 002d D802 0000 		.long	.LFE2-.Ltext0
 821 0031 0100      		.word	0x1
 822 0033 66        		.byte	0x66
 823 0034 0000 0000 		.long	0x0
 824 0038 0000 0000 		.long	0x0
 825               	.LLST3:
 826 003c 0000 0000 		.long	.LVL0-.Ltext0
 827 0040 E400 0000 		.long	.LVL11-.Ltext0
 828 0044 0100      		.word	0x1
 829 0046 64        		.byte	0x64
 830 0047 F600 0000 		.long	.LVL12-.Ltext0
 831 004b 1802 0000 		.long	.LVL24-.Ltext0
 832 004f 0100      		.word	0x1
 833 0051 64        		.byte	0x64
 834 0052 2C02 0000 		.long	.LVL25-.Ltext0
 835 0056 D802 0000 		.long	.LFE2-.Ltext0
 836 005a 0100      		.word	0x1
 837 005c 64        		.byte	0x64
 838 005d 0000 0000 		.long	0x0
 839 0061 0000 0000 		.long	0x0
 840               	.LLST4:
 841 0065 0000 0000 		.long	.LVL0-.Ltext0
 842 0069 0E00 0000 		.long	.LVL2-.Ltext0
 843 006d 0100      		.word	0x1
 844 006f 62        		.byte	0x62
 845 0070 0E00 0000 		.long	.LVL2-.Ltext0
 846 0074 FA00 0000 		.long	.LVL13-.Ltext0
 847 0078 0100      		.word	0x1
 848 007a 6A        		.byte	0x6a
 849 007b FA00 0000 		.long	.LVL13-.Ltext0
 850 007f 2A01 0000 		.long	.LVL16-.Ltext0
 851 0083 0100      		.word	0x1
 852 0085 62        		.byte	0x62
 853 0086 4801 0000 		.long	.LVL17-.Ltext0
 854 008a 5402 0000 		.long	.LVL28-.Ltext0
 855 008e 0100      		.word	0x1
GAS LISTING C:\Users\alex\AppData\Local\Temp/ccB1aqs4.s 			page 16


 856 0090 62        		.byte	0x62
 857 0091 6802 0000 		.long	.LVL29-.Ltext0
 858 0095 A602 0000 		.long	.LVL30-.Ltext0
 859 0099 0100      		.word	0x1
 860 009b 62        		.byte	0x62
 861 009c 0000 0000 		.long	0x0
 862 00a0 0000 0000 		.long	0x0
 863               	.LLST5:
 864 00a4 0000 0000 		.long	.LVL0-.Ltext0
 865 00a8 0200 0000 		.long	.LVL1-.Ltext0
 866 00ac 0100      		.word	0x1
 867 00ae 60        		.byte	0x60
 868 00af 6A00 0000 		.long	.LVL8-.Ltext0
 869 00b3 A001 0000 		.long	.LVL19-.Ltext0
 870 00b7 0100      		.word	0x1
 871 00b9 60        		.byte	0x60
 872 00ba B401 0000 		.long	.LVL20-.Ltext0
 873 00be D602 0000 		.long	.LVL32-.Ltext0
 874 00c2 0100      		.word	0x1
 875 00c4 60        		.byte	0x60
 876 00c5 0000 0000 		.long	0x0
 877 00c9 0000 0000 		.long	0x0
 878               	.LLST6:
 879 00cd 2400 0000 		.long	.LVL4-.Ltext0
 880 00d1 0201 0000 		.long	.LVL14-.Ltext0
 881 00d5 0100      		.word	0x1
 882 00d7 63        		.byte	0x63
 883 00d8 2001 0000 		.long	.LVL15-.Ltext0
 884 00dc 3602 0000 		.long	.LVL26-.Ltext0
 885 00e0 0100      		.word	0x1
 886 00e2 63        		.byte	0x63
 887 00e3 4A02 0000 		.long	.LVL27-.Ltext0
 888 00e7 D802 0000 		.long	.LFE2-.Ltext0
 889 00eb 0100      		.word	0x1
 890 00ed 63        		.byte	0x63
 891 00ee 0000 0000 		.long	0x0
 892 00f2 0000 0000 		.long	0x0
 893               	.LLST7:
 894 00f6 6000 0000 		.long	.LVL7-.Ltext0
 895 00fa D402 0000 		.long	.LVL31-.Ltext0
 896 00fe 0100      		.word	0x1
 897 0100 61        		.byte	0x61
 898 0101 0000 0000 		.long	0x0
 899 0105 0000 0000 		.long	0x0
 900               	.LLST8:
 901 0109 4400 0000 		.long	.LVL6-.Ltext0
 902 010d FA01 0000 		.long	.LVL21-.Ltext0
 903 0111 0100      		.word	0x1
 904 0113 65        		.byte	0x65
 905 0114 0C02 0000 		.long	.LVL22-.Ltext0
 906 0118 D802 0000 		.long	.LFE2-.Ltext0
 907 011c 0100      		.word	0x1
 908 011e 65        		.byte	0x65
 909 011f 0000 0000 		.long	0x0
 910 0123 0000 0000 		.long	0x0
 911               	.LLST10:
 912 0127 D802 0000 		.long	.LVL33-.Ltext0
GAS LISTING C:\Users\alex\AppData\Local\Temp/ccB1aqs4.s 			page 17


 913 012b FE02 0000 		.long	.LVL34-.Ltext0
 914 012f 0100      		.word	0x1
 915 0131 68        		.byte	0x68
 916 0132 0000 0000 		.long	0x0
 917 0136 0000 0000 		.long	0x0
 918               	.LLST11:
 919 013a D802 0000 		.long	.LVL33-.Ltext0
 920 013e 0203 0000 		.long	.LVL35-.Ltext0
 921 0142 0100      		.word	0x1
 922 0144 66        		.byte	0x66
 923 0145 0203 0000 		.long	.LVL35-.Ltext0
 924 0149 8404 0000 		.long	.LVL55-.Ltext0
 925 014d 0100      		.word	0x1
 926 014f 57        		.byte	0x57
 927 0150 0000 0000 		.long	0x0
 928 0154 0000 0000 		.long	0x0
 929               	.LLST12:
 930 0158 D802 0000 		.long	.LVL33-.Ltext0
 931 015c 6E03 0000 		.long	.LVL44-.Ltext0
 932 0160 0100      		.word	0x1
 933 0162 64        		.byte	0x64
 934 0163 6E03 0000 		.long	.LVL44-.Ltext0
 935 0167 7004 0000 		.long	.LVL48-.Ltext0
 936 016b 0100      		.word	0x1
 937 016d 61        		.byte	0x61
 938 016e 0000 0000 		.long	0x0
 939 0172 0000 0000 		.long	0x0
 940               	.LLST13:
 941 0176 0C03 0000 		.long	.LVL36-.Ltext0
 942 017a 6E04 0000 		.long	.LVL47-.Ltext0
 943 017e 0600      		.word	0x6
 944 0180 6C        		.byte	0x6c
 945 0181 93        		.byte	0x93
 946 0182 01        		.uleb128 0x1
 947 0183 6D        		.byte	0x6d
 948 0184 93        		.byte	0x93
 949 0185 01        		.uleb128 0x1
 950 0186 0000 0000 		.long	0x0
 951 018a 0000 0000 		.long	0x0
 952               	.LLST14:
 953 018e 2803 0000 		.long	.LVL39-.Ltext0
 954 0192 7A04 0000 		.long	.LVL52-.Ltext0
 955 0196 0600      		.word	0x6
 956 0198 5C        		.byte	0x5c
 957 0199 93        		.byte	0x93
 958 019a 01        		.uleb128 0x1
 959 019b 5D        		.byte	0x5d
 960 019c 93        		.byte	0x93
 961 019d 01        		.uleb128 0x1
 962 019e 0000 0000 		.long	0x0
 963 01a2 0000 0000 		.long	0x0
 964               	.LLST15:
 965 01a6 1603 0000 		.long	.LVL37-.Ltext0
 966 01aa 8204 0000 		.long	.LVL54-.Ltext0
 967 01ae 0600      		.word	0x6
 968 01b0 58        		.byte	0x58
 969 01b1 93        		.byte	0x93
GAS LISTING C:\Users\alex\AppData\Local\Temp/ccB1aqs4.s 			page 18


 970 01b2 01        		.uleb128 0x1
 971 01b3 59        		.byte	0x59
 972 01b4 93        		.byte	0x93
 973 01b5 01        		.uleb128 0x1
 974 01b6 0000 0000 		.long	0x0
 975 01ba 0000 0000 		.long	0x0
 976               	.LLST16:
 977 01be 2003 0000 		.long	.LVL38-.Ltext0
 978 01c2 7604 0000 		.long	.LVL51-.Ltext0
 979 01c6 0600      		.word	0x6
 980 01c8 5E        		.byte	0x5e
 981 01c9 93        		.byte	0x93
 982 01ca 01        		.uleb128 0x1
 983 01cb 5F        		.byte	0x5f
 984 01cc 93        		.byte	0x93
 985 01cd 01        		.uleb128 0x1
 986 01ce 0000 0000 		.long	0x0
 987 01d2 0000 0000 		.long	0x0
 988               	.LLST17:
 989 01d6 3003 0000 		.long	.LVL40-.Ltext0
 990 01da 7E04 0000 		.long	.LVL53-.Ltext0
 991 01de 0100      		.word	0x1
 992 01e0 5A        		.byte	0x5a
 993 01e1 0000 0000 		.long	0x0
 994 01e5 0000 0000 		.long	0x0
 995               	.LLST18:
 996 01e9 4803 0000 		.long	.LVL43-.Ltext0
 997 01ed 8604 0000 		.long	.LVL56-.Ltext0
 998 01f1 0100      		.word	0x1
 999 01f3 56        		.byte	0x56
 1000 01f4 0000 0000 		.long	0x0
 1001 01f8 0000 0000 		.long	0x0
 1002               	.LLST19:
 1003 01fc 3803 0000 		.long	.LVL41-.Ltext0
 1004 0200 8804 0000 		.long	.LVL57-.Ltext0
 1005 0204 0100      		.word	0x1
 1006 0206 55        		.byte	0x55
 1007 0207 0000 0000 		.long	0x0
 1008 020b 0000 0000 		.long	0x0
 1009               	.LLST20:
 1010 020f 4003 0000 		.long	.LVL42-.Ltext0
 1011 0213 1C04 0000 		.long	.LVL46-.Ltext0
 1012 0217 0100      		.word	0x1
 1013 0219 60        		.byte	0x60
 1014 021a 0000 0000 		.long	0x0
 1015 021e 0000 0000 		.long	0x0
 1016               	.LLST21:
 1017 0222 1804 0000 		.long	.LVL45-.Ltext0
 1018 0226 7404 0000 		.long	.LVL50-.Ltext0
 1019 022a 0100      		.word	0x1
 1020 022c 5F        		.byte	0x5f
 1021 022d 0000 0000 		.long	0x0
 1022 0231 0000 0000 		.long	0x0
 1023               	.LLST22:
 1024 0235 1C04 0000 		.long	.LVL46-.Ltext0
 1025 0239 7204 0000 		.long	.LVL49-.Ltext0
 1026 023d 0600      		.word	0x6
GAS LISTING C:\Users\alex\AppData\Local\Temp/ccB1aqs4.s 			page 19


 1027 023f 60        		.byte	0x60
 1028 0240 93        		.byte	0x93
 1029 0241 01        		.uleb128 0x1
 1030 0242 61        		.byte	0x61
 1031 0243 93        		.byte	0x93
 1032 0244 01        		.uleb128 0x1
 1033 0245 0000 0000 		.long	0x0
 1034 0249 0000 0000 		.long	0x0
 1035               		.section	.debug_info
 1036 0000 A102 0000 		.long	0x2a1
 1037 0004 0200      		.word	0x2
 1038 0006 0000 0000 		.long	.Ldebug_abbrev0
 1039 000a 04        		.byte	0x4
 1040 000b 01        		.uleb128 0x1
 1041 000c 0000 0000 		.long	.LASF25
 1042 0010 01        		.byte	0x1
 1043 0011 0000 0000 		.long	.LASF26
 1044 0015 0000 0000 		.long	.LASF27
 1045 0019 0000 0000 		.long	.Ltext0
 1046 001d 0000 0000 		.long	.Letext0
 1047 0021 0000 0000 		.long	.Ldebug_line0
 1048 0025 02        		.uleb128 0x2
 1049 0026 01        		.byte	0x1
 1050 0027 06        		.byte	0x6
 1051 0028 0000 0000 		.long	.LASF0
 1052 002c 03        		.uleb128 0x3
 1053 002d 0000 0000 		.long	.LASF28
 1054 0031 02        		.byte	0x2
 1055 0032 7A        		.byte	0x7a
 1056 0033 3700 0000 		.long	0x37
 1057 0037 02        		.uleb128 0x2
 1058 0038 01        		.byte	0x1
 1059 0039 08        		.byte	0x8
 1060 003a 0000 0000 		.long	.LASF1
 1061 003e 04        		.uleb128 0x4
 1062 003f 02        		.byte	0x2
 1063 0040 05        		.byte	0x5
 1064 0041 696E 7400 		.string	"int"
 1065 0045 02        		.uleb128 0x2
 1066 0046 02        		.byte	0x2
 1067 0047 07        		.byte	0x7
 1068 0048 0000 0000 		.long	.LASF2
 1069 004c 02        		.uleb128 0x2
 1070 004d 04        		.byte	0x4
 1071 004e 05        		.byte	0x5
 1072 004f 0000 0000 		.long	.LASF3
 1073 0053 02        		.uleb128 0x2
 1074 0054 04        		.byte	0x4
 1075 0055 07        		.byte	0x7
 1076 0056 0000 0000 		.long	.LASF4
 1077 005a 02        		.uleb128 0x2
 1078 005b 08        		.byte	0x8
 1079 005c 05        		.byte	0x5
 1080 005d 0000 0000 		.long	.LASF5
 1081 0061 02        		.uleb128 0x2
 1082 0062 08        		.byte	0x8
 1083 0063 07        		.byte	0x7
GAS LISTING C:\Users\alex\AppData\Local\Temp/ccB1aqs4.s 			page 20


 1084 0064 0000 0000 		.long	.LASF6
 1085 0068 05        		.uleb128 0x5
 1086 0069 01        		.byte	0x1
 1087 006a 08        		.byte	0x8
 1088 006b 06        		.uleb128 0x6
 1089 006c 01        		.byte	0x1
 1090 006d 0000 0000 		.long	.LASF29
 1091 0071 01        		.byte	0x1
 1092 0072 28        		.byte	0x28
 1093 0073 01        		.byte	0x1
 1094 0074 0000 0000 		.long	.LFB2
 1095 0078 0000 0000 		.long	.LFE2
 1096 007c 02        		.byte	0x2
 1097 007d 90        		.byte	0x90
 1098 007e 20        		.uleb128 0x20
 1099 007f 0801 0000 		.long	0x108
 1100 0083 07        		.uleb128 0x7
 1101 0084 0000 0000 		.long	.LASF7
 1102 0088 01        		.byte	0x1
 1103 0089 26        		.byte	0x26
 1104 008a 2C00 0000 		.long	0x2c
 1105 008e 0000 0000 		.long	.LLST1
 1106 0092 08        		.uleb128 0x8
 1107 0093 6373 00   		.string	"cs"
 1108 0096 01        		.byte	0x1
 1109 0097 26        		.byte	0x26
 1110 0098 2C00 0000 		.long	0x2c
 1111 009c 0000 0000 		.long	.LLST2
 1112 00a0 08        		.uleb128 0x8
 1113 00a1 636C 6B00 		.string	"clk"
 1114 00a5 01        		.byte	0x1
 1115 00a6 26        		.byte	0x26
 1116 00a7 2C00 0000 		.long	0x2c
 1117 00ab 0000 0000 		.long	.LLST3
 1118 00af 07        		.uleb128 0x7
 1119 00b0 0000 0000 		.long	.LASF8
 1120 00b4 01        		.byte	0x1
 1121 00b5 26        		.byte	0x26
 1122 00b6 2C00 0000 		.long	0x2c
 1123 00ba 0000 0000 		.long	.LLST4
 1124 00be 08        		.uleb128 0x8
 1125 00bf 6469 6E00 		.string	"din"
 1126 00c3 01        		.byte	0x1
 1127 00c4 26        		.byte	0x26
 1128 00c5 2C00 0000 		.long	0x2c
 1129 00c9 0000 0000 		.long	.LLST5
 1130 00cd 09        		.uleb128 0x9
 1131 00ce 0000 0000 		.long	.LASF9
 1132 00d2 01        		.byte	0x1
 1133 00d3 29        		.byte	0x29
 1134 00d4 2C00 0000 		.long	0x2c
 1135 00d8 0000 0000 		.long	.LLST6
 1136 00dc 0A        		.uleb128 0xa
 1137 00dd 6263 7300 		.string	"bcs"
 1138 00e1 01        		.byte	0x1
 1139 00e2 29        		.byte	0x29
 1140 00e3 2C00 0000 		.long	0x2c
GAS LISTING C:\Users\alex\AppData\Local\Temp/ccB1aqs4.s 			page 21


 1141 00e7 0000 0000 		.long	.LLST7
 1142 00eb 09        		.uleb128 0x9
 1143 00ec 0000 0000 		.long	.LASF10
 1144 00f0 01        		.byte	0x1
 1145 00f1 29        		.byte	0x29
 1146 00f2 2C00 0000 		.long	0x2c
 1147 00f6 0000 0000 		.long	.LLST8
 1148 00fa 0B        		.uleb128 0xb
 1149 00fb 0000 0000 		.long	.LASF11
 1150 00ff 01        		.byte	0x1
 1151 0100 29        		.byte	0x29
 1152 0101 2C00 0000 		.long	0x2c
 1153 0105 01        		.byte	0x1
 1154 0106 67        		.byte	0x67
 1155 0107 00        		.byte	0x0
 1156 0108 0C        		.uleb128 0xc
 1157 0109 01        		.byte	0x1
 1158 010a 0000 0000 		.long	.LASF30
 1159 010e 01        		.byte	0x1
 1160 010f 57        		.byte	0x57
 1161 0110 01        		.byte	0x1
 1162 0111 4500 0000 		.long	0x45
 1163 0115 0000 0000 		.long	.LFB3
 1164 0119 0000 0000 		.long	.LFE3
 1165 011d 02        		.byte	0x2
 1166 011e 90        		.byte	0x90
 1167 011f 20        		.uleb128 0x20
 1168 0120 E601 0000 		.long	0x1e6
 1169 0124 07        		.uleb128 0x7
 1170 0125 0000 0000 		.long	.LASF7
 1171 0129 01        		.byte	0x1
 1172 012a 54        		.byte	0x54
 1173 012b 2C00 0000 		.long	0x2c
 1174 012f 0000 0000 		.long	.LLST10
 1175 0133 08        		.uleb128 0x8
 1176 0134 6164 6300 		.string	"adc"
 1177 0138 01        		.byte	0x1
 1178 0139 54        		.byte	0x54
 1179 013a 2C00 0000 		.long	0x2c
 1180 013e 0000 0000 		.long	.LLST11
 1181 0142 07        		.uleb128 0x7
 1182 0143 0000 0000 		.long	.LASF12
 1183 0147 01        		.byte	0x1
 1184 0148 54        		.byte	0x54
 1185 0149 2C00 0000 		.long	0x2c
 1186 014d 0000 0000 		.long	.LLST12
 1187 0151 09        		.uleb128 0x9
 1188 0152 0000 0000 		.long	.LASF13
 1189 0156 01        		.byte	0x1
 1190 0157 58        		.byte	0x58
 1191 0158 E601 0000 		.long	0x1e6
 1192 015c 0000 0000 		.long	.LLST13
 1193 0160 0A        		.uleb128 0xa
 1194 0161 7063 7300 		.string	"pcs"
 1195 0165 01        		.byte	0x1
 1196 0166 58        		.byte	0x58
 1197 0167 E601 0000 		.long	0x1e6
GAS LISTING C:\Users\alex\AppData\Local\Temp/ccB1aqs4.s 			page 22


 1198 016b 0000 0000 		.long	.LLST14
 1199 016f 09        		.uleb128 0x9
 1200 0170 0000 0000 		.long	.LASF14
 1201 0174 01        		.byte	0x1
 1202 0175 58        		.byte	0x58
 1203 0176 E601 0000 		.long	0x1e6
 1204 017a 0000 0000 		.long	.LLST15
 1205 017e 09        		.uleb128 0x9
 1206 017f 0000 0000 		.long	.LASF15
 1207 0183 01        		.byte	0x1
 1208 0184 58        		.byte	0x58
 1209 0185 E601 0000 		.long	0x1e6
 1210 0189 0000 0000 		.long	.LLST16
 1211 018d 09        		.uleb128 0x9
 1212 018e 0000 0000 		.long	.LASF9
 1213 0192 01        		.byte	0x1
 1214 0193 59        		.byte	0x59
 1215 0194 2C00 0000 		.long	0x2c
 1216 0198 0000 0000 		.long	.LLST17
 1217 019c 0A        		.uleb128 0xa
 1218 019d 6263 7300 		.string	"bcs"
 1219 01a1 01        		.byte	0x1
 1220 01a2 59        		.byte	0x59
 1221 01a3 2C00 0000 		.long	0x2c
 1222 01a7 0000 0000 		.long	.LLST18
 1223 01ab 09        		.uleb128 0x9
 1224 01ac 0000 0000 		.long	.LASF10
 1225 01b0 01        		.byte	0x1
 1226 01b1 59        		.byte	0x59
 1227 01b2 2C00 0000 		.long	0x2c
 1228 01b6 0000 0000 		.long	.LLST19
 1229 01ba 09        		.uleb128 0x9
 1230 01bb 0000 0000 		.long	.LASF11
 1231 01bf 01        		.byte	0x1
 1232 01c0 59        		.byte	0x59
 1233 01c1 2C00 0000 		.long	0x2c
 1234 01c5 0000 0000 		.long	.LLST20
 1235 01c9 0A        		.uleb128 0xa
 1236 01ca 6900      		.string	"i"
 1237 01cc 01        		.byte	0x1
 1238 01cd 5A        		.byte	0x5a
 1239 01ce 2C00 0000 		.long	0x2c
 1240 01d2 0000 0000 		.long	.LLST21
 1241 01d6 09        		.uleb128 0x9
 1242 01d7 0000 0000 		.long	.LASF16
 1243 01db 01        		.byte	0x1
 1244 01dc 5B        		.byte	0x5b
 1245 01dd 4500 0000 		.long	0x45
 1246 01e1 0000 0000 		.long	.LLST22
 1247 01e5 00        		.byte	0x0
 1248 01e6 0D        		.uleb128 0xd
 1249 01e7 02        		.byte	0x2
 1250 01e8 EC01 0000 		.long	0x1ec
 1251 01ec 0E        		.uleb128 0xe
 1252 01ed 2C00 0000 		.long	0x2c
 1253 01f1 0F        		.uleb128 0xf
 1254 01f2 E601 0000 		.long	0x1e6
GAS LISTING C:\Users\alex\AppData\Local\Temp/ccB1aqs4.s 			page 23


 1255 01f6 0102 0000 		.long	0x201
 1256 01fa 10        		.uleb128 0x10
 1257 01fb 0102 0000 		.long	0x201
 1258 01ff 03        		.byte	0x3
 1259 0200 00        		.byte	0x0
 1260 0201 05        		.uleb128 0x5
 1261 0202 02        		.byte	0x2
 1262 0203 07        		.byte	0x7
 1263 0204 11        		.uleb128 0x11
 1264 0205 0000 0000 		.long	.LASF17
 1265 0209 01        		.byte	0x1
 1266 020a 14        		.byte	0x14
 1267 020b F101 0000 		.long	0x1f1
 1268 020f 01        		.byte	0x1
 1269 0210 05        		.byte	0x5
 1270 0211 03        		.byte	0x3
 1271 0212 0000 0000 		.long	p_cs
 1272 0216 11        		.uleb128 0x11
 1273 0217 0000 0000 		.long	.LASF18
 1274 021b 01        		.byte	0x1
 1275 021c 15        		.byte	0x15
 1276 021d F101 0000 		.long	0x1f1
 1277 0221 01        		.byte	0x1
 1278 0222 05        		.byte	0x5
 1279 0223 03        		.byte	0x3
 1280 0224 0000 0000 		.long	p_dout
 1281 0228 11        		.uleb128 0x11
 1282 0229 0000 0000 		.long	.LASF19
 1283 022d 01        		.byte	0x1
 1284 022e 16        		.byte	0x16
 1285 022f F101 0000 		.long	0x1f1
 1286 0233 01        		.byte	0x1
 1287 0234 05        		.byte	0x5
 1288 0235 03        		.byte	0x3
 1289 0236 0000 0000 		.long	p_din
 1290 023a 11        		.uleb128 0x11
 1291 023b 0000 0000 		.long	.LASF20
 1292 023f 01        		.byte	0x1
 1293 0240 17        		.byte	0x17
 1294 0241 F101 0000 		.long	0x1f1
 1295 0245 01        		.byte	0x1
 1296 0246 05        		.byte	0x5
 1297 0247 03        		.byte	0x3
 1298 0248 0000 0000 		.long	p_clk
 1299 024c 0F        		.uleb128 0xf
 1300 024d 2C00 0000 		.long	0x2c
 1301 0251 5C02 0000 		.long	0x25c
 1302 0255 10        		.uleb128 0x10
 1303 0256 0102 0000 		.long	0x201
 1304 025a 03        		.byte	0x3
 1305 025b 00        		.byte	0x0
 1306 025c 11        		.uleb128 0x11
 1307 025d 0000 0000 		.long	.LASF21
 1308 0261 01        		.byte	0x1
 1309 0262 19        		.byte	0x19
 1310 0263 4C02 0000 		.long	0x24c
 1311 0267 01        		.byte	0x1
GAS LISTING C:\Users\alex\AppData\Local\Temp/ccB1aqs4.s 			page 24


 1312 0268 05        		.byte	0x5
 1313 0269 03        		.byte	0x3
 1314 026a 0000 0000 		.long	b_cs
 1315 026e 11        		.uleb128 0x11
 1316 026f 0000 0000 		.long	.LASF22
 1317 0273 01        		.byte	0x1
 1318 0274 1A        		.byte	0x1a
 1319 0275 4C02 0000 		.long	0x24c
 1320 0279 01        		.byte	0x1
 1321 027a 05        		.byte	0x5
 1322 027b 03        		.byte	0x3
 1323 027c 0000 0000 		.long	b_dout
 1324 0280 11        		.uleb128 0x11
 1325 0281 0000 0000 		.long	.LASF23
 1326 0285 01        		.byte	0x1
 1327 0286 1B        		.byte	0x1b
 1328 0287 4C02 0000 		.long	0x24c
 1329 028b 01        		.byte	0x1
 1330 028c 05        		.byte	0x5
 1331 028d 03        		.byte	0x3
 1332 028e 0000 0000 		.long	b_din
 1333 0292 11        		.uleb128 0x11
 1334 0293 0000 0000 		.long	.LASF24
 1335 0297 01        		.byte	0x1
 1336 0298 1C        		.byte	0x1c
 1337 0299 4C02 0000 		.long	0x24c
 1338 029d 01        		.byte	0x1
 1339 029e 05        		.byte	0x5
 1340 029f 03        		.byte	0x3
 1341 02a0 0000 0000 		.long	b_clk
 1342 02a4 00        		.byte	0x0
 1343               		.section	.debug_abbrev
 1344 0000 01        		.uleb128 0x1
 1345 0001 11        		.uleb128 0x11
 1346 0002 01        		.byte	0x1
 1347 0003 25        		.uleb128 0x25
 1348 0004 0E        		.uleb128 0xe
 1349 0005 13        		.uleb128 0x13
 1350 0006 0B        		.uleb128 0xb
 1351 0007 03        		.uleb128 0x3
 1352 0008 0E        		.uleb128 0xe
 1353 0009 1B        		.uleb128 0x1b
 1354 000a 0E        		.uleb128 0xe
 1355 000b 11        		.uleb128 0x11
 1356 000c 01        		.uleb128 0x1
 1357 000d 12        		.uleb128 0x12
 1358 000e 01        		.uleb128 0x1
 1359 000f 10        		.uleb128 0x10
 1360 0010 06        		.uleb128 0x6
 1361 0011 00        		.byte	0x0
 1362 0012 00        		.byte	0x0
 1363 0013 02        		.uleb128 0x2
 1364 0014 24        		.uleb128 0x24
 1365 0015 00        		.byte	0x0
 1366 0016 0B        		.uleb128 0xb
 1367 0017 0B        		.uleb128 0xb
 1368 0018 3E        		.uleb128 0x3e
GAS LISTING C:\Users\alex\AppData\Local\Temp/ccB1aqs4.s 			page 25


 1369 0019 0B        		.uleb128 0xb
 1370 001a 03        		.uleb128 0x3
 1371 001b 0E        		.uleb128 0xe
 1372 001c 00        		.byte	0x0
 1373 001d 00        		.byte	0x0
 1374 001e 03        		.uleb128 0x3
 1375 001f 16        		.uleb128 0x16
 1376 0020 00        		.byte	0x0
 1377 0021 03        		.uleb128 0x3
 1378 0022 0E        		.uleb128 0xe
 1379 0023 3A        		.uleb128 0x3a
 1380 0024 0B        		.uleb128 0xb
 1381 0025 3B        		.uleb128 0x3b
 1382 0026 0B        		.uleb128 0xb
 1383 0027 49        		.uleb128 0x49
 1384 0028 13        		.uleb128 0x13
 1385 0029 00        		.byte	0x0
 1386 002a 00        		.byte	0x0
 1387 002b 04        		.uleb128 0x4
 1388 002c 24        		.uleb128 0x24
 1389 002d 00        		.byte	0x0
 1390 002e 0B        		.uleb128 0xb
 1391 002f 0B        		.uleb128 0xb
 1392 0030 3E        		.uleb128 0x3e
 1393 0031 0B        		.uleb128 0xb
 1394 0032 03        		.uleb128 0x3
 1395 0033 08        		.uleb128 0x8
 1396 0034 00        		.byte	0x0
 1397 0035 00        		.byte	0x0
 1398 0036 05        		.uleb128 0x5
 1399 0037 24        		.uleb128 0x24
 1400 0038 00        		.byte	0x0
 1401 0039 0B        		.uleb128 0xb
 1402 003a 0B        		.uleb128 0xb
 1403 003b 3E        		.uleb128 0x3e
 1404 003c 0B        		.uleb128 0xb
 1405 003d 00        		.byte	0x0
 1406 003e 00        		.byte	0x0
 1407 003f 06        		.uleb128 0x6
 1408 0040 2E        		.uleb128 0x2e
 1409 0041 01        		.byte	0x1
 1410 0042 3F        		.uleb128 0x3f
 1411 0043 0C        		.uleb128 0xc
 1412 0044 03        		.uleb128 0x3
 1413 0045 0E        		.uleb128 0xe
 1414 0046 3A        		.uleb128 0x3a
 1415 0047 0B        		.uleb128 0xb
 1416 0048 3B        		.uleb128 0x3b
 1417 0049 0B        		.uleb128 0xb
 1418 004a 27        		.uleb128 0x27
 1419 004b 0C        		.uleb128 0xc
 1420 004c 11        		.uleb128 0x11
 1421 004d 01        		.uleb128 0x1
 1422 004e 12        		.uleb128 0x12
 1423 004f 01        		.uleb128 0x1
 1424 0050 40        		.uleb128 0x40
 1425 0051 0A        		.uleb128 0xa
GAS LISTING C:\Users\alex\AppData\Local\Temp/ccB1aqs4.s 			page 26


 1426 0052 01        		.uleb128 0x1
 1427 0053 13        		.uleb128 0x13
 1428 0054 00        		.byte	0x0
 1429 0055 00        		.byte	0x0
 1430 0056 07        		.uleb128 0x7
 1431 0057 05        		.uleb128 0x5
 1432 0058 00        		.byte	0x0
 1433 0059 03        		.uleb128 0x3
 1434 005a 0E        		.uleb128 0xe
 1435 005b 3A        		.uleb128 0x3a
 1436 005c 0B        		.uleb128 0xb
 1437 005d 3B        		.uleb128 0x3b
 1438 005e 0B        		.uleb128 0xb
 1439 005f 49        		.uleb128 0x49
 1440 0060 13        		.uleb128 0x13
 1441 0061 02        		.uleb128 0x2
 1442 0062 06        		.uleb128 0x6
 1443 0063 00        		.byte	0x0
 1444 0064 00        		.byte	0x0
 1445 0065 08        		.uleb128 0x8
 1446 0066 05        		.uleb128 0x5
 1447 0067 00        		.byte	0x0
 1448 0068 03        		.uleb128 0x3
 1449 0069 08        		.uleb128 0x8
 1450 006a 3A        		.uleb128 0x3a
 1451 006b 0B        		.uleb128 0xb
 1452 006c 3B        		.uleb128 0x3b
 1453 006d 0B        		.uleb128 0xb
 1454 006e 49        		.uleb128 0x49
 1455 006f 13        		.uleb128 0x13
 1456 0070 02        		.uleb128 0x2
 1457 0071 06        		.uleb128 0x6
 1458 0072 00        		.byte	0x0
 1459 0073 00        		.byte	0x0
 1460 0074 09        		.uleb128 0x9
 1461 0075 34        		.uleb128 0x34
 1462 0076 00        		.byte	0x0
 1463 0077 03        		.uleb128 0x3
 1464 0078 0E        		.uleb128 0xe
 1465 0079 3A        		.uleb128 0x3a
 1466 007a 0B        		.uleb128 0xb
 1467 007b 3B        		.uleb128 0x3b
 1468 007c 0B        		.uleb128 0xb
 1469 007d 49        		.uleb128 0x49
 1470 007e 13        		.uleb128 0x13
 1471 007f 02        		.uleb128 0x2
 1472 0080 06        		.uleb128 0x6
 1473 0081 00        		.byte	0x0
 1474 0082 00        		.byte	0x0
 1475 0083 0A        		.uleb128 0xa
 1476 0084 34        		.uleb128 0x34
 1477 0085 00        		.byte	0x0
 1478 0086 03        		.uleb128 0x3
 1479 0087 08        		.uleb128 0x8
 1480 0088 3A        		.uleb128 0x3a
 1481 0089 0B        		.uleb128 0xb
 1482 008a 3B        		.uleb128 0x3b
GAS LISTING C:\Users\alex\AppData\Local\Temp/ccB1aqs4.s 			page 27


 1483 008b 0B        		.uleb128 0xb
 1484 008c 49        		.uleb128 0x49
 1485 008d 13        		.uleb128 0x13
 1486 008e 02        		.uleb128 0x2
 1487 008f 06        		.uleb128 0x6
 1488 0090 00        		.byte	0x0
 1489 0091 00        		.byte	0x0
 1490 0092 0B        		.uleb128 0xb
 1491 0093 34        		.uleb128 0x34
 1492 0094 00        		.byte	0x0
 1493 0095 03        		.uleb128 0x3
 1494 0096 0E        		.uleb128 0xe
 1495 0097 3A        		.uleb128 0x3a
 1496 0098 0B        		.uleb128 0xb
 1497 0099 3B        		.uleb128 0x3b
 1498 009a 0B        		.uleb128 0xb
 1499 009b 49        		.uleb128 0x49
 1500 009c 13        		.uleb128 0x13
 1501 009d 02        		.uleb128 0x2
 1502 009e 0A        		.uleb128 0xa
 1503 009f 00        		.byte	0x0
 1504 00a0 00        		.byte	0x0
 1505 00a1 0C        		.uleb128 0xc
 1506 00a2 2E        		.uleb128 0x2e
 1507 00a3 01        		.byte	0x1
 1508 00a4 3F        		.uleb128 0x3f
 1509 00a5 0C        		.uleb128 0xc
 1510 00a6 03        		.uleb128 0x3
 1511 00a7 0E        		.uleb128 0xe
 1512 00a8 3A        		.uleb128 0x3a
 1513 00a9 0B        		.uleb128 0xb
 1514 00aa 3B        		.uleb128 0x3b
 1515 00ab 0B        		.uleb128 0xb
 1516 00ac 27        		.uleb128 0x27
 1517 00ad 0C        		.uleb128 0xc
 1518 00ae 49        		.uleb128 0x49
 1519 00af 13        		.uleb128 0x13
 1520 00b0 11        		.uleb128 0x11
 1521 00b1 01        		.uleb128 0x1
 1522 00b2 12        		.uleb128 0x12
 1523 00b3 01        		.uleb128 0x1
 1524 00b4 40        		.uleb128 0x40
 1525 00b5 0A        		.uleb128 0xa
 1526 00b6 01        		.uleb128 0x1
 1527 00b7 13        		.uleb128 0x13
 1528 00b8 00        		.byte	0x0
 1529 00b9 00        		.byte	0x0
 1530 00ba 0D        		.uleb128 0xd
 1531 00bb 0F        		.uleb128 0xf
 1532 00bc 00        		.byte	0x0
 1533 00bd 0B        		.uleb128 0xb
 1534 00be 0B        		.uleb128 0xb
 1535 00bf 49        		.uleb128 0x49
 1536 00c0 13        		.uleb128 0x13
 1537 00c1 00        		.byte	0x0
 1538 00c2 00        		.byte	0x0
 1539 00c3 0E        		.uleb128 0xe
GAS LISTING C:\Users\alex\AppData\Local\Temp/ccB1aqs4.s 			page 28


 1540 00c4 35        		.uleb128 0x35
 1541 00c5 00        		.byte	0x0
 1542 00c6 49        		.uleb128 0x49
 1543 00c7 13        		.uleb128 0x13
 1544 00c8 00        		.byte	0x0
 1545 00c9 00        		.byte	0x0
 1546 00ca 0F        		.uleb128 0xf
 1547 00cb 01        		.uleb128 0x1
 1548 00cc 01        		.byte	0x1
 1549 00cd 49        		.uleb128 0x49
 1550 00ce 13        		.uleb128 0x13
 1551 00cf 01        		.uleb128 0x1
 1552 00d0 13        		.uleb128 0x13
 1553 00d1 00        		.byte	0x0
 1554 00d2 00        		.byte	0x0
 1555 00d3 10        		.uleb128 0x10
 1556 00d4 21        		.uleb128 0x21
 1557 00d5 00        		.byte	0x0
 1558 00d6 49        		.uleb128 0x49
 1559 00d7 13        		.uleb128 0x13
 1560 00d8 2F        		.uleb128 0x2f
 1561 00d9 0B        		.uleb128 0xb
 1562 00da 00        		.byte	0x0
 1563 00db 00        		.byte	0x0
 1564 00dc 11        		.uleb128 0x11
 1565 00dd 34        		.uleb128 0x34
 1566 00de 00        		.byte	0x0
 1567 00df 03        		.uleb128 0x3
 1568 00e0 0E        		.uleb128 0xe
 1569 00e1 3A        		.uleb128 0x3a
 1570 00e2 0B        		.uleb128 0xb
 1571 00e3 3B        		.uleb128 0x3b
 1572 00e4 0B        		.uleb128 0xb
 1573 00e5 49        		.uleb128 0x49
 1574 00e6 13        		.uleb128 0x13
 1575 00e7 3F        		.uleb128 0x3f
 1576 00e8 0C        		.uleb128 0xc
 1577 00e9 02        		.uleb128 0x2
 1578 00ea 0A        		.uleb128 0xa
 1579 00eb 00        		.byte	0x0
 1580 00ec 00        		.byte	0x0
 1581 00ed 00        		.byte	0x0
 1582               		.section	.debug_pubnames,"",@progbits
 1583 0000 8000 0000 		.long	0x80
 1584 0004 0200      		.word	0x2
 1585 0006 0000 0000 		.long	.Ldebug_info0
 1586 000a A502 0000 		.long	0x2a5
 1587 000e 6B00 0000 		.long	0x6b
 1588 0012 696E 6974 		.string	"init_mcp3202"
 1588      5F6D 6370 
 1588      3332 3032 
 1588      00
 1589 001f 0801 0000 		.long	0x108
 1590 0023 6D63 7033 		.string	"mcp3202_getw"
 1590      3230 325F 
 1590      6765 7477 
 1590      00
GAS LISTING C:\Users\alex\AppData\Local\Temp/ccB1aqs4.s 			page 29


 1591 0030 0402 0000 		.long	0x204
 1592 0034 705F 6373 		.string	"p_cs"
 1592      00
 1593 0039 1602 0000 		.long	0x216
 1594 003d 705F 646F 		.string	"p_dout"
 1594      7574 00
 1595 0044 2802 0000 		.long	0x228
 1596 0048 705F 6469 		.string	"p_din"
 1596      6E00 
 1597 004e 3A02 0000 		.long	0x23a
 1598 0052 705F 636C 		.string	"p_clk"
 1598      6B00 
 1599 0058 5C02 0000 		.long	0x25c
 1600 005c 625F 6373 		.string	"b_cs"
 1600      00
 1601 0061 6E02 0000 		.long	0x26e
 1602 0065 625F 646F 		.string	"b_dout"
 1602      7574 00
 1603 006c 8002 0000 		.long	0x280
 1604 0070 625F 6469 		.string	"b_din"
 1604      6E00 
 1605 0076 9202 0000 		.long	0x292
 1606 007a 625F 636C 		.string	"b_clk"
 1606      6B00 
 1607 0080 0000 0000 		.long	0x0
 1608               		.section	.debug_aranges,"",@progbits
 1609 0000 1C00 0000 		.long	0x1c
 1610 0004 0200      		.word	0x2
 1611 0006 0000 0000 		.long	.Ldebug_info0
 1612 000a 04        		.byte	0x4
 1613 000b 00        		.byte	0x0
 1614 000c 0000      		.word	0x0
 1615 000e 0000      		.word	0x0
 1616 0010 0000 0000 		.long	.Ltext0
 1617 0014 8A04 0000 		.long	.Letext0-.Ltext0
 1618 0018 0000 0000 		.long	0x0
 1619 001c 0000 0000 		.long	0x0
 1620               		.section	.debug_line
 1621 0000 CE02 0000 		.long	.LELT0-.LSLT0
 1622               	.LSLT0:
 1623 0004 0200      		.word	0x2
 1624 0006 5600 0000 		.long	.LELTP0-.LASLTP0
 1625               	.LASLTP0:
 1626 000a 01        		.byte	0x1
 1627 000b 01        		.byte	0x1
 1628 000c F6        		.byte	0xf6
 1629 000d F5        		.byte	0xf5
 1630 000e 0A        		.byte	0xa
 1631 000f 00        		.byte	0x0
 1632 0010 01        		.byte	0x1
 1633 0011 01        		.byte	0x1
 1634 0012 01        		.byte	0x1
 1635 0013 01        		.byte	0x1
 1636 0014 00        		.byte	0x0
 1637 0015 00        		.byte	0x0
 1638 0016 00        		.byte	0x0
 1639 0017 01        		.byte	0x1
GAS LISTING C:\Users\alex\AppData\Local\Temp/ccB1aqs4.s 			page 30


 1640 0018 643A 2F77 		.ascii	"d:/winavr-20100110/lib/gcc/../../avr/include"
 1640      696E 6176 
 1640      722D 3230 
 1640      3130 3031 
 1640      3130 2F6C 
 1641 0044 00        		.byte	0
 1642 0045 00        		.byte	0x0
 1643 0046 6D63 7033 		.string	"mcp3202.c"
 1643      3230 322E 
 1643      6300 
 1644 0050 00        		.uleb128 0x0
 1645 0051 00        		.uleb128 0x0
 1646 0052 00        		.uleb128 0x0
 1647 0053 7374 6469 		.string	"stdint.h"
 1647      6E74 2E68 
 1647      00
 1648 005c 01        		.uleb128 0x1
 1649 005d 00        		.uleb128 0x0
 1650 005e 00        		.uleb128 0x0
 1651 005f 00        		.byte	0x0
 1652               	.LELTP0:
 1653 0060 00        		.byte	0x0
 1654 0061 05        		.uleb128 0x5
 1655 0062 02        		.byte	0x2
 1656 0063 0000 0000 		.long	.LM1
 1657 0067 3B        		.byte	0x3b
 1658 0068 00        		.byte	0x0
 1659 0069 05        		.uleb128 0x5
 1660 006a 02        		.byte	0x2
 1661 006b 0000 0000 		.long	.LM2
 1662 006f 17        		.byte	0x17
 1663 0070 00        		.byte	0x0
 1664 0071 05        		.uleb128 0x5
 1665 0072 02        		.byte	0x2
 1666 0073 0000 0000 		.long	.LM3
 1667 0077 15        		.byte	0x15
 1668 0078 00        		.byte	0x0
 1669 0079 05        		.uleb128 0x5
 1670 007a 02        		.byte	0x2
 1671 007b 0000 0000 		.long	.LM4
 1672 007f 15        		.byte	0x15
 1673 0080 00        		.byte	0x0
 1674 0081 05        		.uleb128 0x5
 1675 0082 02        		.byte	0x2
 1676 0083 0000 0000 		.long	.LM5
 1677 0087 15        		.byte	0x15
 1678 0088 00        		.byte	0x0
 1679 0089 05        		.uleb128 0x5
 1680 008a 02        		.byte	0x2
 1681 008b 0000 0000 		.long	.LM6
 1682 008f 15        		.byte	0x15
 1683 0090 00        		.byte	0x0
 1684 0091 05        		.uleb128 0x5
 1685 0092 02        		.byte	0x2
 1686 0093 0000 0000 		.long	.LM7
 1687 0097 15        		.byte	0x15
 1688 0098 00        		.byte	0x0
GAS LISTING C:\Users\alex\AppData\Local\Temp/ccB1aqs4.s 			page 31


 1689 0099 05        		.uleb128 0x5
 1690 009a 02        		.byte	0x2
 1691 009b 0000 0000 		.long	.LM8
 1692 009f 15        		.byte	0x15
 1693 00a0 00        		.byte	0x0
 1694 00a1 05        		.uleb128 0x5
 1695 00a2 02        		.byte	0x2
 1696 00a3 0000 0000 		.long	.LM9
 1697 00a7 15        		.byte	0x15
 1698 00a8 00        		.byte	0x0
 1699 00a9 05        		.uleb128 0x5
 1700 00aa 02        		.byte	0x2
 1701 00ab 0000 0000 		.long	.LM10
 1702 00af 16        		.byte	0x16
 1703 00b0 00        		.byte	0x0
 1704 00b1 05        		.uleb128 0x5
 1705 00b2 02        		.byte	0x2
 1706 00b3 0000 0000 		.long	.LM11
 1707 00b7 15        		.byte	0x15
 1708 00b8 00        		.byte	0x0
 1709 00b9 05        		.uleb128 0x5
 1710 00ba 02        		.byte	0x2
 1711 00bb 0000 0000 		.long	.LM12
 1712 00bf 15        		.byte	0x15
 1713 00c0 00        		.byte	0x0
 1714 00c1 05        		.uleb128 0x5
 1715 00c2 02        		.byte	0x2
 1716 00c3 0000 0000 		.long	.LM13
 1717 00c7 15        		.byte	0x15
 1718 00c8 00        		.byte	0x0
 1719 00c9 05        		.uleb128 0x5
 1720 00ca 02        		.byte	0x2
 1721 00cb 0000 0000 		.long	.LM14
 1722 00cf 15        		.byte	0x15
 1723 00d0 00        		.byte	0x0
 1724 00d1 05        		.uleb128 0x5
 1725 00d2 02        		.byte	0x2
 1726 00d3 0000 0000 		.long	.LM15
 1727 00d7 16        		.byte	0x16
 1728 00d8 00        		.byte	0x0
 1729 00d9 05        		.uleb128 0x5
 1730 00da 02        		.byte	0x2
 1731 00db 0000 0000 		.long	.LM16
 1732 00df 15        		.byte	0x15
 1733 00e0 00        		.byte	0x0
 1734 00e1 05        		.uleb128 0x5
 1735 00e2 02        		.byte	0x2
 1736 00e3 0000 0000 		.long	.LM17
 1737 00e7 15        		.byte	0x15
 1738 00e8 00        		.byte	0x0
 1739 00e9 05        		.uleb128 0x5
 1740 00ea 02        		.byte	0x2
 1741 00eb 0000 0000 		.long	.LM18
 1742 00ef 15        		.byte	0x15
 1743 00f0 00        		.byte	0x0
 1744 00f1 05        		.uleb128 0x5
 1745 00f2 02        		.byte	0x2
GAS LISTING C:\Users\alex\AppData\Local\Temp/ccB1aqs4.s 			page 32


 1746 00f3 0000 0000 		.long	.LM19
 1747 00f7 15        		.byte	0x15
 1748 00f8 00        		.byte	0x0
 1749 00f9 05        		.uleb128 0x5
 1750 00fa 02        		.byte	0x2
 1751 00fb 0000 0000 		.long	.LM20
 1752 00ff 16        		.byte	0x16
 1753 0100 00        		.byte	0x0
 1754 0101 05        		.uleb128 0x5
 1755 0102 02        		.byte	0x2
 1756 0103 0000 0000 		.long	.LM21
 1757 0107 15        		.byte	0x15
 1758 0108 00        		.byte	0x0
 1759 0109 05        		.uleb128 0x5
 1760 010a 02        		.byte	0x2
 1761 010b 0000 0000 		.long	.LM22
 1762 010f 15        		.byte	0x15
 1763 0110 00        		.byte	0x0
 1764 0111 05        		.uleb128 0x5
 1765 0112 02        		.byte	0x2
 1766 0113 0000 0000 		.long	.LM23
 1767 0117 15        		.byte	0x15
 1768 0118 00        		.byte	0x0
 1769 0119 05        		.uleb128 0x5
 1770 011a 02        		.byte	0x2
 1771 011b 0000 0000 		.long	.LM24
 1772 011f 15        		.byte	0x15
 1773 0120 00        		.byte	0x0
 1774 0121 05        		.uleb128 0x5
 1775 0122 02        		.byte	0x2
 1776 0123 0000 0000 		.long	.LM25
 1777 0127 16        		.byte	0x16
 1778 0128 00        		.byte	0x0
 1779 0129 05        		.uleb128 0x5
 1780 012a 02        		.byte	0x2
 1781 012b 0000 0000 		.long	.LM26
 1782 012f 15        		.byte	0x15
 1783 0130 00        		.byte	0x0
 1784 0131 05        		.uleb128 0x5
 1785 0132 02        		.byte	0x2
 1786 0133 0000 0000 		.long	.LM27
 1787 0137 15        		.byte	0x15
 1788 0138 00        		.byte	0x0
 1789 0139 05        		.uleb128 0x5
 1790 013a 02        		.byte	0x2
 1791 013b 0000 0000 		.long	.LM28
 1792 013f 15        		.byte	0x15
 1793 0140 00        		.byte	0x0
 1794 0141 05        		.uleb128 0x5
 1795 0142 02        		.byte	0x2
 1796 0143 0000 0000 		.long	.LM29
 1797 0147 15        		.byte	0x15
 1798 0148 00        		.byte	0x0
 1799 0149 05        		.uleb128 0x5
 1800 014a 02        		.byte	0x2
 1801 014b 0000 0000 		.long	.LM30
 1802 014f 17        		.byte	0x17
GAS LISTING C:\Users\alex\AppData\Local\Temp/ccB1aqs4.s 			page 33


 1803 0150 00        		.byte	0x0
 1804 0151 05        		.uleb128 0x5
 1805 0152 02        		.byte	0x2
 1806 0153 0000 0000 		.long	.LM31
 1807 0157 15        		.byte	0x15
 1808 0158 00        		.byte	0x0
 1809 0159 05        		.uleb128 0x5
 1810 015a 02        		.byte	0x2
 1811 015b 0000 0000 		.long	.LM32
 1812 015f 15        		.byte	0x15
 1813 0160 00        		.byte	0x0
 1814 0161 05        		.uleb128 0x5
 1815 0162 02        		.byte	0x2
 1816 0163 0000 0000 		.long	.LM33
 1817 0167 15        		.byte	0x15
 1818 0168 00        		.byte	0x0
 1819 0169 05        		.uleb128 0x5
 1820 016a 02        		.byte	0x2
 1821 016b 0000 0000 		.long	.LM34
 1822 016f 1B        		.byte	0x1b
 1823 0170 00        		.byte	0x0
 1824 0171 05        		.uleb128 0x5
 1825 0172 02        		.byte	0x2
 1826 0173 0000 0000 		.long	.LM35
 1827 0177 1B        		.byte	0x1b
 1828 0178 00        		.byte	0x0
 1829 0179 05        		.uleb128 0x5
 1830 017a 02        		.byte	0x2
 1831 017b 0000 0000 		.long	.LM36
 1832 017f 15        		.byte	0x15
 1833 0180 00        		.byte	0x0
 1834 0181 05        		.uleb128 0x5
 1835 0182 02        		.byte	0x2
 1836 0183 0000 0000 		.long	.LM37
 1837 0187 15        		.byte	0x15
 1838 0188 00        		.byte	0x0
 1839 0189 05        		.uleb128 0x5
 1840 018a 02        		.byte	0x2
 1841 018b 0000 0000 		.long	.LM38
 1842 018f 15        		.byte	0x15
 1843 0190 00        		.byte	0x0
 1844 0191 05        		.uleb128 0x5
 1845 0192 02        		.byte	0x2
 1846 0193 0000 0000 		.long	.LM39
 1847 0197 16        		.byte	0x16
 1848 0198 00        		.byte	0x0
 1849 0199 05        		.uleb128 0x5
 1850 019a 02        		.byte	0x2
 1851 019b 0000 0000 		.long	.LM40
 1852 019f 15        		.byte	0x15
 1853 01a0 00        		.byte	0x0
 1854 01a1 05        		.uleb128 0x5
 1855 01a2 02        		.byte	0x2
 1856 01a3 0000 0000 		.long	.LM41
 1857 01a7 15        		.byte	0x15
 1858 01a8 00        		.byte	0x0
 1859 01a9 05        		.uleb128 0x5
GAS LISTING C:\Users\alex\AppData\Local\Temp/ccB1aqs4.s 			page 34


 1860 01aa 02        		.byte	0x2
 1861 01ab 0000 0000 		.long	.LM42
 1862 01af 15        		.byte	0x15
 1863 01b0 00        		.byte	0x0
 1864 01b1 05        		.uleb128 0x5
 1865 01b2 02        		.byte	0x2
 1866 01b3 0000 0000 		.long	.LM43
 1867 01b7 16        		.byte	0x16
 1868 01b8 00        		.byte	0x0
 1869 01b9 05        		.uleb128 0x5
 1870 01ba 02        		.byte	0x2
 1871 01bb 0000 0000 		.long	.LM44
 1872 01bf 15        		.byte	0x15
 1873 01c0 00        		.byte	0x0
 1874 01c1 05        		.uleb128 0x5
 1875 01c2 02        		.byte	0x2
 1876 01c3 0000 0000 		.long	.LM45
 1877 01c7 15        		.byte	0x15
 1878 01c8 00        		.byte	0x0
 1879 01c9 05        		.uleb128 0x5
 1880 01ca 02        		.byte	0x2
 1881 01cb 0000 0000 		.long	.LM46
 1882 01cf 17        		.byte	0x17
 1883 01d0 00        		.byte	0x0
 1884 01d1 05        		.uleb128 0x5
 1885 01d2 02        		.byte	0x2
 1886 01d3 0000 0000 		.long	.LM47
 1887 01d7 15        		.byte	0x15
 1888 01d8 00        		.byte	0x0
 1889 01d9 05        		.uleb128 0x5
 1890 01da 02        		.byte	0x2
 1891 01db 0000 0000 		.long	.LM48
 1892 01df 15        		.byte	0x15
 1893 01e0 00        		.byte	0x0
 1894 01e1 05        		.uleb128 0x5
 1895 01e2 02        		.byte	0x2
 1896 01e3 0000 0000 		.long	.LM49
 1897 01e7 15        		.byte	0x15
 1898 01e8 00        		.byte	0x0
 1899 01e9 05        		.uleb128 0x5
 1900 01ea 02        		.byte	0x2
 1901 01eb 0000 0000 		.long	.LM50
 1902 01ef 15        		.byte	0x15
 1903 01f0 00        		.byte	0x0
 1904 01f1 05        		.uleb128 0x5
 1905 01f2 02        		.byte	0x2
 1906 01f3 0000 0000 		.long	.LM51
 1907 01f7 17        		.byte	0x17
 1908 01f8 00        		.byte	0x0
 1909 01f9 05        		.uleb128 0x5
 1910 01fa 02        		.byte	0x2
 1911 01fb 0000 0000 		.long	.LM52
 1912 01ff 15        		.byte	0x15
 1913 0200 00        		.byte	0x0
 1914 0201 05        		.uleb128 0x5
 1915 0202 02        		.byte	0x2
 1916 0203 0000 0000 		.long	.LM53
GAS LISTING C:\Users\alex\AppData\Local\Temp/ccB1aqs4.s 			page 35


 1917 0207 15        		.byte	0x15
 1918 0208 00        		.byte	0x0
 1919 0209 05        		.uleb128 0x5
 1920 020a 02        		.byte	0x2
 1921 020b 0000 0000 		.long	.LM54
 1922 020f 15        		.byte	0x15
 1923 0210 00        		.byte	0x0
 1924 0211 05        		.uleb128 0x5
 1925 0212 02        		.byte	0x2
 1926 0213 0000 0000 		.long	.LM55
 1927 0217 15        		.byte	0x15
 1928 0218 00        		.byte	0x0
 1929 0219 05        		.uleb128 0x5
 1930 021a 02        		.byte	0x2
 1931 021b 0000 0000 		.long	.LM56
 1932 021f 15        		.byte	0x15
 1933 0220 00        		.byte	0x0
 1934 0221 05        		.uleb128 0x5
 1935 0222 02        		.byte	0x2
 1936 0223 0000 0000 		.long	.LM57
 1937 0227 17        		.byte	0x17
 1938 0228 00        		.byte	0x0
 1939 0229 05        		.uleb128 0x5
 1940 022a 02        		.byte	0x2
 1941 022b 0000 0000 		.long	.LM58
 1942 022f 15        		.byte	0x15
 1943 0230 00        		.byte	0x0
 1944 0231 05        		.uleb128 0x5
 1945 0232 02        		.byte	0x2
 1946 0233 0000 0000 		.long	.LM59
 1947 0237 15        		.byte	0x15
 1948 0238 00        		.byte	0x0
 1949 0239 05        		.uleb128 0x5
 1950 023a 02        		.byte	0x2
 1951 023b 0000 0000 		.long	.LM60
 1952 023f 15        		.byte	0x15
 1953 0240 00        		.byte	0x0
 1954 0241 05        		.uleb128 0x5
 1955 0242 02        		.byte	0x2
 1956 0243 0000 0000 		.long	.LM61
 1957 0247 15        		.byte	0x15
 1958 0248 00        		.byte	0x0
 1959 0249 05        		.uleb128 0x5
 1960 024a 02        		.byte	0x2
 1961 024b 0000 0000 		.long	.LM62
 1962 024f 15        		.byte	0x15
 1963 0250 00        		.byte	0x0
 1964 0251 05        		.uleb128 0x5
 1965 0252 02        		.byte	0x2
 1966 0253 0000 0000 		.long	.LM63
 1967 0257 17        		.byte	0x17
 1968 0258 00        		.byte	0x0
 1969 0259 05        		.uleb128 0x5
 1970 025a 02        		.byte	0x2
 1971 025b 0000 0000 		.long	.LM64
 1972 025f 15        		.byte	0x15
 1973 0260 00        		.byte	0x0
GAS LISTING C:\Users\alex\AppData\Local\Temp/ccB1aqs4.s 			page 36


 1974 0261 05        		.uleb128 0x5
 1975 0262 02        		.byte	0x2
 1976 0263 0000 0000 		.long	.LM65
 1977 0267 15        		.byte	0x15
 1978 0268 00        		.byte	0x0
 1979 0269 05        		.uleb128 0x5
 1980 026a 02        		.byte	0x2
 1981 026b 0000 0000 		.long	.LM66
 1982 026f 15        		.byte	0x15
 1983 0270 00        		.byte	0x0
 1984 0271 05        		.uleb128 0x5
 1985 0272 02        		.byte	0x2
 1986 0273 0000 0000 		.long	.LM67
 1987 0277 15        		.byte	0x15
 1988 0278 00        		.byte	0x0
 1989 0279 05        		.uleb128 0x5
 1990 027a 02        		.byte	0x2
 1991 027b 0000 0000 		.long	.LM68
 1992 027f 1A        		.byte	0x1a
 1993 0280 00        		.byte	0x0
 1994 0281 05        		.uleb128 0x5
 1995 0282 02        		.byte	0x2
 1996 0283 0000 0000 		.long	.LM69
 1997 0287 15        		.byte	0x15
 1998 0288 00        		.byte	0x0
 1999 0289 05        		.uleb128 0x5
 2000 028a 02        		.byte	0x2
 2001 028b 0000 0000 		.long	.LM70
 2002 028f 15        		.byte	0x15
 2003 0290 00        		.byte	0x0
 2004 0291 05        		.uleb128 0x5
 2005 0292 02        		.byte	0x2
 2006 0293 0000 0000 		.long	.LM71
 2007 0297 15        		.byte	0x15
 2008 0298 00        		.byte	0x0
 2009 0299 05        		.uleb128 0x5
 2010 029a 02        		.byte	0x2
 2011 029b 0000 0000 		.long	.LM72
 2012 029f 15        		.byte	0x15
 2013 02a0 00        		.byte	0x0
 2014 02a1 05        		.uleb128 0x5
 2015 02a2 02        		.byte	0x2
 2016 02a3 0000 0000 		.long	.LM73
 2017 02a7 15        		.byte	0x15
 2018 02a8 00        		.byte	0x0
 2019 02a9 05        		.uleb128 0x5
 2020 02aa 02        		.byte	0x2
 2021 02ab 0000 0000 		.long	.LM74
 2022 02af 0D        		.byte	0xd
 2023 02b0 00        		.byte	0x0
 2024 02b1 05        		.uleb128 0x5
 2025 02b2 02        		.byte	0x2
 2026 02b3 0000 0000 		.long	.LM75
 2027 02b7 1E        		.byte	0x1e
 2028 02b8 00        		.byte	0x0
 2029 02b9 05        		.uleb128 0x5
 2030 02ba 02        		.byte	0x2
GAS LISTING C:\Users\alex\AppData\Local\Temp/ccB1aqs4.s 			page 37


 2031 02bb 0000 0000 		.long	.LM76
 2032 02bf 15        		.byte	0x15
 2033 02c0 00        		.byte	0x0
 2034 02c1 05        		.uleb128 0x5
 2035 02c2 02        		.byte	0x2
 2036 02c3 0000 0000 		.long	.LM77
 2037 02c7 18        		.byte	0x18
 2038 02c8 00        		.byte	0x0
 2039 02c9 05        		.uleb128 0x5
 2040 02ca 02        		.byte	0x2
 2041 02cb 0000 0000 		.long	.Letext0
 2042 02cf 00        		.byte	0x0
 2043 02d0 01        		.uleb128 0x1
 2044 02d1 01        		.byte	0x1
 2045               	.LELT0:
 2046 02d2 1600 0000 		.section	.debug_str,"MS",@progbits,1
 2046      0200 1000 
 2046      0000 0101 
 2046      FB0E 0A00 
 2046      0101 0101 
 2047               	.LASF16:
 2048 0000 776F 7264 		.string	"word"
 2048      00
 2049               	.LASF19:
 2050 0005 705F 6469 		.string	"p_din"
 2050      6E00 
 2051               	.LASF18:
 2052 000b 705F 646F 		.string	"p_dout"
 2052      7574 00
 2053               	.LASF24:
 2054 0012 625F 636C 		.string	"b_clk"
 2054      6B00 
 2055               	.LASF26:
 2056 0018 6D63 7033 		.string	"mcp3202.c"
 2056      3230 322E 
 2056      6300 
 2057               	.LASF30:
 2058 0022 6D63 7033 		.string	"mcp3202_getw"
 2058      3230 325F 
 2058      6765 7477 
 2058      00
 2059               	.LASF10:
 2060 002f 6264 6F75 		.string	"bdout"
 2060      7400 
 2061               	.LASF8:
 2062 0035 646F 7574 		.string	"dout"
 2062      00
 2063               	.LASF11:
 2064 003a 6264 696E 		.string	"bdin"
 2064      00
 2065               	.LASF15:
 2066 003f 7064 696E 		.string	"pdin"
 2066      00
 2067               	.LASF1:
 2068 0044 756E 7369 		.string	"unsigned char"
 2068      676E 6564 
 2068      2063 6861 
GAS LISTING C:\Users\alex\AppData\Local\Temp/ccB1aqs4.s 			page 38


 2068      7200 
 2069               	.LASF29:
 2070 0052 696E 6974 		.string	"init_mcp3202"
 2070      5F6D 6370 
 2070      3332 3032 
 2070      00
 2071               	.LASF21:
 2072 005f 625F 6373 		.string	"b_cs"
 2072      00
 2073               	.LASF4:
 2074 0064 6C6F 6E67 		.string	"long unsigned int"
 2074      2075 6E73 
 2074      6967 6E65 
 2074      6420 696E 
 2074      7400 
 2075               	.LASF25:
 2076 0076 474E 5520 		.string	"GNU C 4.3.3"
 2076      4320 342E 
 2076      332E 3300 
 2077               	.LASF9:
 2078 0082 6263 6C6B 		.string	"bclk"
 2078      00
 2079               	.LASF20:
 2080 0087 705F 636C 		.string	"p_clk"
 2080      6B00 
 2081               	.LASF2:
 2082 008d 756E 7369 		.string	"unsigned int"
 2082      676E 6564 
 2082      2069 6E74 
 2082      00
 2083               	.LASF6:
 2084 009a 6C6F 6E67 		.string	"long long unsigned int"
 2084      206C 6F6E 
 2084      6720 756E 
 2084      7369 676E 
 2084      6564 2069 
 2085               	.LASF28:
 2086 00b1 7569 6E74 		.string	"uint8_t"
 2086      385F 7400 
 2087               	.LASF12:
 2088 00b9 6D6F 6465 		.string	"mode"
 2088      00
 2089               	.LASF17:
 2090 00be 705F 6373 		.string	"p_cs"
 2090      00
 2091               	.LASF5:
 2092 00c3 6C6F 6E67 		.string	"long long int"
 2092      206C 6F6E 
 2092      6720 696E 
 2092      7400 
 2093               	.LASF22:
 2094 00d1 625F 646F 		.string	"b_dout"
 2094      7574 00
 2095               	.LASF27:
 2096 00d8 453A 5C61 		.string	"E:\\avr\\adc_dac_uc2"
 2096      7672 5C61 
 2096      6463 5F64 
GAS LISTING C:\Users\alex\AppData\Local\Temp/ccB1aqs4.s 			page 39


 2096      6163 5F75 
 2096      6332 00
 2097               	.LASF7:
 2098 00eb 6368 6970 		.string	"chip"
 2098      00
 2099               	.LASF3:
 2100 00f0 6C6F 6E67 		.string	"long int"
 2100      2069 6E74 
 2100      00
 2101               	.LASF23:
 2102 00f9 625F 6469 		.string	"b_din"
 2102      6E00 
 2103               	.LASF13:
 2104 00ff 7063 6C6B 		.string	"pclk"
 2104      00
 2105               	.LASF0:
 2106 0104 7369 676E 		.string	"signed char"
 2106      6564 2063 
 2106      6861 7200 
 2107               	.LASF14:
 2108 0110 7064 6F75 		.string	"pdout"
 2108      7400 
 2109               	.global __do_clear_bss
GAS LISTING C:\Users\alex\AppData\Local\Temp/ccB1aqs4.s 			page 40


DEFINED SYMBOLS
                            *ABS*:00000000 mcp3202.c
C:\Users\alex\AppData\Local\Temp/ccB1aqs4.s:2      *ABS*:0000003f __SREG__
C:\Users\alex\AppData\Local\Temp/ccB1aqs4.s:3      *ABS*:0000003e __SP_H__
C:\Users\alex\AppData\Local\Temp/ccB1aqs4.s:4      *ABS*:0000003d __SP_L__
C:\Users\alex\AppData\Local\Temp/ccB1aqs4.s:5      *ABS*:00000034 __CCP__
C:\Users\alex\AppData\Local\Temp/ccB1aqs4.s:6      *ABS*:00000000 __tmp_reg__
C:\Users\alex\AppData\Local\Temp/ccB1aqs4.s:7      *ABS*:00000001 __zero_reg__
C:\Users\alex\AppData\Local\Temp/ccB1aqs4.s:18     .text:00000000 init_mcp3202
                            *COM*:00000004 b_clk
                            *COM*:00000004 b_dout
                            *COM*:00000004 b_cs
                            *COM*:00000004 b_din
                            *COM*:00000008 p_clk
                            *COM*:00000008 p_dout
                            *COM*:00000008 p_din
                            *COM*:00000008 p_cs
C:\Users\alex\AppData\Local\Temp/ccB1aqs4.s:473    .text:000002d8 mcp3202_getw

UNDEFINED SYMBOLS
udelay
__do_clear_bss
