GAS LISTING C:\Users\alex\AppData\Local\Temp/ccvhsmF1.s 			page 1


   1               		.file	"mcp4922.c"
   2               	__SREG__ = 0x3f
   3               	__SP_H__ = 0x3e
   4               	__SP_L__ = 0x3d
   5               	__CCP__  = 0x34
   6               	__tmp_reg__ = 0
   7               	__zero_reg__ = 1
   8               		.section	.debug_abbrev,"",@progbits
   9               	.Ldebug_abbrev0:
  10               		.section	.debug_info,"",@progbits
  11               	.Ldebug_info0:
  12               		.section	.debug_line,"",@progbits
  13               	.Ldebug_line0:
  14               		.text
  15               	.Ltext0:
  16               	.global	init_mcp4922
  17               		.type	init_mcp4922, @function
  18               	init_mcp4922:
  19               	.LFB2:
  20               	.LM1:
  21               	.LVL0:
  22 0000 0F93      		push r16
  23               	.LVL1:
  24 0002 1F93      		push r17
  25 0004 CF93      		push r28
  26 0006 DF93      		push r29
  27               	/* prologue: function */
  28               	/* frame size = 0 */
  29 0008 B62F      		mov r27,r22
  30 000a A22F      		mov r26,r18
  31               	.LM2:
  32 000c 242F      		mov r18,r20
  33               	.LVL2:
  34 000e 2F70      		andi r18,lo8(15)
  35 0010 61E0      		ldi r22,lo8(1)
  36 0012 70E0      		ldi r23,hi8(1)
  37               	.LVL3:
  38 0014 FB01      		movw r30,r22
  39 0016 00C0      		rjmp 2f
  40 0018 EE0F      	1:	lsl r30
  41 001a FF1F      		rol r31
  42 001c 2A95      	2:	dec r18
  43 001e 02F4      		brpl 1b
  44 0020 9F01      		movw r18,r30
  45 0022 3E2F      		mov r19,r30
  46               	.LVL4:
  47               	.LM3:
  48 0024 C82F      		mov r28,r24
  49 0026 D0E0      		ldi r29,lo8(0)
  50 0028 FE01      		movw r30,r28
  51 002a E050      		subi r30,lo8(-(b_clk))
  52 002c F040      		sbci r31,hi8(-(b_clk))
  53 002e 2083      		st Z,r18
  54               	.LM4:
  55 0030 8A2F      		mov r24,r26
  56               	.LVL5:
  57 0032 8F70      		andi r24,lo8(15)
GAS LISTING C:\Users\alex\AppData\Local\Temp/ccvhsmF1.s 			page 2


  58 0034 FB01      		movw r30,r22
  59 0036 00C0      		rjmp 2f
  60 0038 EE0F      	1:	lsl r30
  61 003a FF1F      		rol r31
  62 003c 8A95      	2:	dec r24
  63 003e 02F4      		brpl 1b
  64 0040 CF01      		movw r24,r30
  65 0042 5E2F      		mov r21,r30
  66               	.LVL6:
  67               	.LM5:
  68 0044 FE01      		movw r30,r28
  69 0046 E050      		subi r30,lo8(-(b_data))
  70 0048 F040      		sbci r31,hi8(-(b_data))
  71 004a 8083      		st Z,r24
  72               	.LM6:
  73 004c 8B2F      		mov r24,r27
  74 004e 8F70      		andi r24,lo8(15)
  75 0050 FB01      		movw r30,r22
  76 0052 00C0      		rjmp 2f
  77 0054 EE0F      	1:	lsl r30
  78 0056 FF1F      		rol r31
  79 0058 8A95      	2:	dec r24
  80 005a 02F4      		brpl 1b
  81 005c CF01      		movw r24,r30
  82 005e 1E2F      		mov r17,r30
  83               	.LVL7:
  84               	.LM7:
  85 0060 FE01      		movw r30,r28
  86 0062 E050      		subi r30,lo8(-(b_cs))
  87 0064 F040      		sbci r31,hi8(-(b_cs))
  88 0066 8083      		st Z,r24
  89               	.LM8:
  90 0068 802F      		mov r24,r16
  91               	.LVL8:
  92 006a 8F70      		andi r24,lo8(15)
  93 006c 00C0      		rjmp 2f
  94 006e 660F      	1:	lsl r22
  95 0070 771F      		rol r23
  96 0072 8A95      	2:	dec r24
  97 0074 02F4      		brpl 1b
  98 0076 762F      		mov r23,r22
  99               	.LVL9:
 100               	.LM9:
 101 0078 FE01      		movw r30,r28
 102 007a E050      		subi r30,lo8(-(b_ldac))
 103 007c F040      		sbci r31,hi8(-(b_ldac))
 104 007e 6083      		st Z,r22
 105               	.LM10:
 106 0080 407F      		andi r20,lo8(-16)
 107               	.LVL10:
 108               	.LM11:
 109 0082 01F4      		brne .L2
 110 0084 FE01      		movw r30,r28
 111 0086 EE0F      		lsl r30
 112 0088 FF1F      		rol r31
 113 008a E050      		subi r30,lo8(-(p_clk))
 114 008c F040      		sbci r31,hi8(-(p_clk))
GAS LISTING C:\Users\alex\AppData\Local\Temp/ccvhsmF1.s 			page 3


 115 008e 8BE3      		ldi r24,lo8(59)
 116 0090 90E0      		ldi r25,hi8(59)
 117 0092 9183      		std Z+1,r25
 118 0094 8083      		st Z,r24
 119 0096 8AB3      		in r24,58-32
 120 0098 382B      		or r19,r24
 121 009a 3ABB      		out 58-32,r19
 122 009c 00C0      		rjmp .L3
 123               	.L2:
 124               	.LM12:
 125 009e 4031      		cpi r20,lo8(16)
 126 00a0 01F4      		brne .L4
 127 00a2 FE01      		movw r30,r28
 128 00a4 EE0F      		lsl r30
 129 00a6 FF1F      		rol r31
 130 00a8 E050      		subi r30,lo8(-(p_clk))
 131 00aa F040      		sbci r31,hi8(-(p_clk))
 132 00ac 88E3      		ldi r24,lo8(56)
 133 00ae 90E0      		ldi r25,hi8(56)
 134 00b0 9183      		std Z+1,r25
 135 00b2 8083      		st Z,r24
 136 00b4 87B3      		in r24,55-32
 137 00b6 382B      		or r19,r24
 138 00b8 37BB      		out 55-32,r19
 139 00ba 00C0      		rjmp .L3
 140               	.L4:
 141               	.LM13:
 142 00bc 4032      		cpi r20,lo8(32)
 143 00be 01F4      		brne .L5
 144 00c0 FE01      		movw r30,r28
 145 00c2 EE0F      		lsl r30
 146 00c4 FF1F      		rol r31
 147 00c6 E050      		subi r30,lo8(-(p_clk))
 148 00c8 F040      		sbci r31,hi8(-(p_clk))
 149 00ca 85E3      		ldi r24,lo8(53)
 150 00cc 90E0      		ldi r25,hi8(53)
 151 00ce 9183      		std Z+1,r25
 152 00d0 8083      		st Z,r24
 153 00d2 84B3      		in r24,52-32
 154 00d4 382B      		or r19,r24
 155 00d6 34BB      		out 52-32,r19
 156 00d8 00C0      		rjmp .L3
 157               	.L5:
 158               	.LM14:
 159 00da 4033      		cpi r20,lo8(48)
 160 00dc 01F4      		brne .L3
 161 00de FE01      		movw r30,r28
 162 00e0 EE0F      		lsl r30
 163 00e2 FF1F      		rol r31
 164               	.LVL11:
 165 00e4 E050      		subi r30,lo8(-(p_clk))
 166 00e6 F040      		sbci r31,hi8(-(p_clk))
 167 00e8 82E3      		ldi r24,lo8(50)
 168 00ea 90E0      		ldi r25,hi8(50)
 169 00ec 9183      		std Z+1,r25
 170 00ee 8083      		st Z,r24
 171 00f0 81B3      		in r24,49-32
GAS LISTING C:\Users\alex\AppData\Local\Temp/ccvhsmF1.s 			page 4


 172 00f2 382B      		or r19,r24
 173 00f4 31BB      		out 49-32,r19
 174               	.LVL12:
 175               	.L3:
 176               	.LM15:
 177 00f6 2A2F      		mov r18,r26
 178 00f8 207F      		andi r18,lo8(-16)
 179               	.LVL13:
 180               	.LM16:
 181 00fa 01F4      		brne .L6
 182 00fc FE01      		movw r30,r28
 183 00fe EE0F      		lsl r30
 184 0100 FF1F      		rol r31
 185               	.LVL14:
 186 0102 E050      		subi r30,lo8(-(p_data))
 187 0104 F040      		sbci r31,hi8(-(p_data))
 188 0106 8BE3      		ldi r24,lo8(59)
 189 0108 90E0      		ldi r25,hi8(59)
 190 010a 9183      		std Z+1,r25
 191 010c 8083      		st Z,r24
 192 010e 8AB3      		in r24,58-32
 193 0110 582B      		or r21,r24
 194 0112 5ABB      		out 58-32,r21
 195 0114 00C0      		rjmp .L7
 196               	.LVL15:
 197               	.L6:
 198               	.LM17:
 199 0116 2031      		cpi r18,lo8(16)
 200 0118 01F4      		brne .L8
 201 011a FE01      		movw r30,r28
 202 011c EE0F      		lsl r30
 203 011e FF1F      		rol r31
 204               	.LVL16:
 205 0120 E050      		subi r30,lo8(-(p_data))
 206 0122 F040      		sbci r31,hi8(-(p_data))
 207 0124 88E3      		ldi r24,lo8(56)
 208 0126 90E0      		ldi r25,hi8(56)
 209 0128 9183      		std Z+1,r25
 210 012a 8083      		st Z,r24
 211 012c 87B3      		in r24,55-32
 212 012e 582B      		or r21,r24
 213 0130 57BB      		out 55-32,r21
 214 0132 00C0      		rjmp .L7
 215               	.LVL17:
 216               	.L8:
 217               	.LM18:
 218 0134 2032      		cpi r18,lo8(32)
 219 0136 01F4      		brne .L9
 220 0138 FE01      		movw r30,r28
 221 013a EE0F      		lsl r30
 222 013c FF1F      		rol r31
 223 013e E050      		subi r30,lo8(-(p_data))
 224 0140 F040      		sbci r31,hi8(-(p_data))
 225 0142 85E3      		ldi r24,lo8(53)
 226 0144 90E0      		ldi r25,hi8(53)
 227 0146 9183      		std Z+1,r25
 228 0148 8083      		st Z,r24
GAS LISTING C:\Users\alex\AppData\Local\Temp/ccvhsmF1.s 			page 5


 229 014a 84B3      		in r24,52-32
 230 014c 582B      		or r21,r24
 231 014e 54BB      		out 52-32,r21
 232 0150 00C0      		rjmp .L7
 233               	.L9:
 234               	.LM19:
 235 0152 2033      		cpi r18,lo8(48)
 236 0154 01F4      		brne .L7
 237 0156 FE01      		movw r30,r28
 238 0158 EE0F      		lsl r30
 239 015a FF1F      		rol r31
 240 015c E050      		subi r30,lo8(-(p_data))
 241 015e F040      		sbci r31,hi8(-(p_data))
 242 0160 82E3      		ldi r24,lo8(50)
 243 0162 90E0      		ldi r25,hi8(50)
 244 0164 9183      		std Z+1,r25
 245 0166 8083      		st Z,r24
 246 0168 81B3      		in r24,49-32
 247 016a 582B      		or r21,r24
 248 016c 51BB      		out 49-32,r21
 249               	.L7:
 250               	.LM20:
 251 016e 6B2F      		mov r22,r27
 252 0170 607F      		andi r22,lo8(-16)
 253               	.LVL18:
 254               	.LM21:
 255 0172 01F4      		brne .L10
 256 0174 FE01      		movw r30,r28
 257 0176 EE0F      		lsl r30
 258 0178 FF1F      		rol r31
 259 017a E050      		subi r30,lo8(-(p_cs))
 260 017c F040      		sbci r31,hi8(-(p_cs))
 261 017e 8BE3      		ldi r24,lo8(59)
 262 0180 90E0      		ldi r25,hi8(59)
 263 0182 9183      		std Z+1,r25
 264 0184 8083      		st Z,r24
 265 0186 8AB3      		in r24,58-32
 266 0188 812B      		or r24,r17
 267 018a 8ABB      		out 58-32,r24
 268 018c 00C0      		rjmp .L11
 269               	.L10:
 270               	.LM22:
 271 018e 6031      		cpi r22,lo8(16)
 272 0190 01F4      		brne .L12
 273 0192 FE01      		movw r30,r28
 274 0194 EE0F      		lsl r30
 275 0196 FF1F      		rol r31
 276 0198 E050      		subi r30,lo8(-(p_cs))
 277 019a F040      		sbci r31,hi8(-(p_cs))
 278 019c 88E3      		ldi r24,lo8(56)
 279 019e 90E0      		ldi r25,hi8(56)
 280 01a0 9183      		std Z+1,r25
 281 01a2 8083      		st Z,r24
 282 01a4 87B3      		in r24,55-32
 283 01a6 812B      		or r24,r17
 284 01a8 87BB      		out 55-32,r24
 285 01aa 00C0      		rjmp .L11
GAS LISTING C:\Users\alex\AppData\Local\Temp/ccvhsmF1.s 			page 6


 286               	.L12:
 287               	.LM23:
 288 01ac 6032      		cpi r22,lo8(32)
 289 01ae 01F4      		brne .L13
 290 01b0 FE01      		movw r30,r28
 291 01b2 EE0F      		lsl r30
 292 01b4 FF1F      		rol r31
 293               	.LVL19:
 294 01b6 E050      		subi r30,lo8(-(p_cs))
 295 01b8 F040      		sbci r31,hi8(-(p_cs))
 296 01ba 85E3      		ldi r24,lo8(53)
 297 01bc 90E0      		ldi r25,hi8(53)
 298 01be 9183      		std Z+1,r25
 299 01c0 8083      		st Z,r24
 300 01c2 84B3      		in r24,52-32
 301 01c4 812B      		or r24,r17
 302 01c6 84BB      		out 52-32,r24
 303 01c8 00C0      		rjmp .L11
 304               	.LVL20:
 305               	.L13:
 306               	.LM24:
 307 01ca 6033      		cpi r22,lo8(48)
 308 01cc 01F4      		brne .L11
 309 01ce FE01      		movw r30,r28
 310 01d0 EE0F      		lsl r30
 311 01d2 FF1F      		rol r31
 312               	.LVL21:
 313 01d4 E050      		subi r30,lo8(-(p_cs))
 314 01d6 F040      		sbci r31,hi8(-(p_cs))
 315 01d8 82E3      		ldi r24,lo8(50)
 316 01da 90E0      		ldi r25,hi8(50)
 317 01dc 9183      		std Z+1,r25
 318 01de 8083      		st Z,r24
 319 01e0 81B3      		in r24,49-32
 320 01e2 812B      		or r24,r17
 321 01e4 81BB      		out 49-32,r24
 322               	.LVL22:
 323               	.L11:
 324               	.LM25:
 325 01e6 007F      		andi r16,lo8(-16)
 326               	.LVL23:
 327               	.LM26:
 328 01e8 01F4      		brne .L14
 329 01ea FE01      		movw r30,r28
 330 01ec EE0F      		lsl r30
 331 01ee FF1F      		rol r31
 332               	.LVL24:
 333 01f0 E050      		subi r30,lo8(-(p_ldac))
 334 01f2 F040      		sbci r31,hi8(-(p_ldac))
 335 01f4 8BE3      		ldi r24,lo8(59)
 336 01f6 90E0      		ldi r25,hi8(59)
 337 01f8 9183      		std Z+1,r25
 338 01fa 8083      		st Z,r24
 339 01fc 8AB3      		in r24,58-32
 340 01fe 782B      		or r23,r24
 341 0200 7ABB      		out 58-32,r23
 342 0202 00C0      		rjmp .L15
GAS LISTING C:\Users\alex\AppData\Local\Temp/ccvhsmF1.s 			page 7


 343               	.LVL25:
 344               	.L14:
 345               	.LM27:
 346 0204 0031      		cpi r16,lo8(16)
 347 0206 01F4      		brne .L16
 348 0208 FE01      		movw r30,r28
 349 020a EE0F      		lsl r30
 350 020c FF1F      		rol r31
 351               	.LVL26:
 352 020e E050      		subi r30,lo8(-(p_ldac))
 353 0210 F040      		sbci r31,hi8(-(p_ldac))
 354 0212 88E3      		ldi r24,lo8(56)
 355 0214 90E0      		ldi r25,hi8(56)
 356 0216 9183      		std Z+1,r25
 357 0218 8083      		st Z,r24
 358 021a 87B3      		in r24,55-32
 359 021c 782B      		or r23,r24
 360 021e 77BB      		out 55-32,r23
 361 0220 00C0      		rjmp .L15
 362               	.LVL27:
 363               	.L16:
 364               	.LM28:
 365 0222 0032      		cpi r16,lo8(32)
 366 0224 01F4      		brne .L17
 367 0226 FE01      		movw r30,r28
 368 0228 EE0F      		lsl r30
 369 022a FF1F      		rol r31
 370               	.LVL28:
 371 022c E050      		subi r30,lo8(-(p_ldac))
 372 022e F040      		sbci r31,hi8(-(p_ldac))
 373 0230 85E3      		ldi r24,lo8(53)
 374 0232 90E0      		ldi r25,hi8(53)
 375 0234 9183      		std Z+1,r25
 376 0236 8083      		st Z,r24
 377 0238 84B3      		in r24,52-32
 378 023a 782B      		or r23,r24
 379 023c 74BB      		out 52-32,r23
 380 023e 00C0      		rjmp .L15
 381               	.LVL29:
 382               	.L17:
 383               	.LM29:
 384 0240 0033      		cpi r16,lo8(48)
 385 0242 01F4      		brne .L15
 386 0244 FE01      		movw r30,r28
 387 0246 EE0F      		lsl r30
 388 0248 FF1F      		rol r31
 389 024a E050      		subi r30,lo8(-(p_ldac))
 390 024c F040      		sbci r31,hi8(-(p_ldac))
 391 024e 82E3      		ldi r24,lo8(50)
 392 0250 90E0      		ldi r25,hi8(50)
 393 0252 9183      		std Z+1,r25
 394 0254 8083      		st Z,r24
 395 0256 81B3      		in r24,49-32
 396 0258 782B      		or r23,r24
 397 025a 71BB      		out 49-32,r23
 398               	.L15:
 399               	.LM30:
GAS LISTING C:\Users\alex\AppData\Local\Temp/ccvhsmF1.s 			page 8


 400 025c DE01      		movw r26,r28
 401 025e AA0F      		lsl r26
 402 0260 BB1F      		rol r27
 403 0262 FD01      		movw r30,r26
 404 0264 E050      		subi r30,lo8(-(p_cs))
 405 0266 F040      		sbci r31,hi8(-(p_cs))
 406 0268 0190      		ld __tmp_reg__,Z+
 407 026a F081      		ld r31,Z
 408 026c E02D      		mov r30,__tmp_reg__
 409 026e 8081      		ld r24,Z
 410 0270 182B      		or r17,r24
 411 0272 1083      		st Z,r17
 412               	.LM31:
 413 0274 FD01      		movw r30,r26
 414 0276 E050      		subi r30,lo8(-(p_clk))
 415 0278 F040      		sbci r31,hi8(-(p_clk))
 416 027a 2081      		ld r18,Z
 417 027c 3181      		ldd r19,Z+1
 418               	.LVL30:
 419 027e F901      		movw r30,r18
 420 0280 9081      		ld r25,Z
 421 0282 FE01      		movw r30,r28
 422 0284 E050      		subi r30,lo8(-(b_clk))
 423 0286 F040      		sbci r31,hi8(-(b_clk))
 424 0288 8081      		ld r24,Z
 425 028a 8095      		com r24
 426 028c 8923      		and r24,r25
 427 028e F901      		movw r30,r18
 428 0290 8083      		st Z,r24
 429               	.LM32:
 430 0292 A050      		subi r26,lo8(-(p_ldac))
 431 0294 B040      		sbci r27,hi8(-(p_ldac))
 432 0296 ED91      		ld r30,X+
 433 0298 FC91      		ld r31,X
 434 029a 8081      		ld r24,Z
 435 029c C050      		subi r28,lo8(-(b_ldac))
 436 029e D040      		sbci r29,hi8(-(b_ldac))
 437 02a0 9881      		ld r25,Y
 438 02a2 892B      		or r24,r25
 439 02a4 8083      		st Z,r24
 440               	/* epilogue start */
 441               	.LM33:
 442 02a6 DF91      		pop r29
 443 02a8 CF91      		pop r28
 444 02aa 1F91      		pop r17
 445               	.LVL31:
 446 02ac 0F91      		pop r16
 447               	.LVL32:
 448 02ae 0895      		ret
 449               	.LFE2:
 450               		.size	init_mcp4922, .-init_mcp4922
 451               	.global	init_mcp4922_spi
 452               		.type	init_mcp4922_spi, @function
 453               	init_mcp4922_spi:
 454               	.LFB3:
 455               	.LM34:
 456               	.LVL33:
GAS LISTING C:\Users\alex\AppData\Local\Temp/ccvhsmF1.s 			page 9


 457 02b0 CF93      		push r28
 458 02b2 DF93      		push r29
 459               	/* prologue: function */
 460               	/* frame size = 0 */
 461 02b4 742F      		mov r23,r20
 462               	.LM35:
 463 02b6 462F      		mov r20,r22
 464               	.LVL34:
 465 02b8 4F70      		andi r20,lo8(15)
 466 02ba 21E0      		ldi r18,lo8(1)
 467 02bc 30E0      		ldi r19,hi8(1)
 468 02be F901      		movw r30,r18
 469 02c0 00C0      		rjmp 2f
 470 02c2 EE0F      	1:	lsl r30
 471 02c4 FF1F      		rol r31
 472 02c6 4A95      	2:	dec r20
 473 02c8 02F4      		brpl 1b
 474 02ca AF01      		movw r20,r30
 475 02cc 5E2F      		mov r21,r30
 476               	.LVL35:
 477               	.LM36:
 478 02ce 972F      		mov r25,r23
 479 02d0 9F70      		andi r25,lo8(15)
 480 02d2 00C0      		rjmp 2f
 481 02d4 220F      	1:	lsl r18
 482 02d6 331F      		rol r19
 483 02d8 9A95      	2:	dec r25
 484 02da 02F4      		brpl 1b
 485 02dc 322F      		mov r19,r18
 486               	.LVL36:
 487               	.LM37:
 488 02de C82F      		mov r28,r24
 489 02e0 D0E0      		ldi r29,lo8(0)
 490 02e2 FE01      		movw r30,r28
 491 02e4 E050      		subi r30,lo8(-(b_cs))
 492 02e6 F040      		sbci r31,hi8(-(b_cs))
 493 02e8 4083      		st Z,r20
 494               	.LM38:
 495 02ea FE01      		movw r30,r28
 496 02ec E050      		subi r30,lo8(-(b_ldac))
 497 02ee F040      		sbci r31,hi8(-(b_ldac))
 498 02f0 2083      		st Z,r18
 499               	.LM39:
 500 02f2 607F      		andi r22,lo8(-16)
 501               	.LVL37:
 502               	.LM40:
 503 02f4 01F4      		brne .L20
 504 02f6 FE01      		movw r30,r28
 505 02f8 EE0F      		lsl r30
 506 02fa FF1F      		rol r31
 507 02fc E050      		subi r30,lo8(-(p_cs))
 508 02fe F040      		sbci r31,hi8(-(p_cs))
 509 0300 8BE3      		ldi r24,lo8(59)
 510 0302 90E0      		ldi r25,hi8(59)
 511               	.LVL38:
 512 0304 9183      		std Z+1,r25
 513 0306 8083      		st Z,r24
GAS LISTING C:\Users\alex\AppData\Local\Temp/ccvhsmF1.s 			page 10


 514 0308 8AB3      		in r24,58-32
 515 030a 852B      		or r24,r21
 516 030c 8ABB      		out 58-32,r24
 517 030e 00C0      		rjmp .L21
 518               	.LVL39:
 519               	.L20:
 520               	.LM41:
 521 0310 6031      		cpi r22,lo8(16)
 522 0312 01F4      		brne .L22
 523 0314 FE01      		movw r30,r28
 524 0316 EE0F      		lsl r30
 525 0318 FF1F      		rol r31
 526 031a E050      		subi r30,lo8(-(p_cs))
 527 031c F040      		sbci r31,hi8(-(p_cs))
 528 031e 88E3      		ldi r24,lo8(56)
 529 0320 90E0      		ldi r25,hi8(56)
 530               	.LVL40:
 531 0322 9183      		std Z+1,r25
 532 0324 8083      		st Z,r24
 533 0326 87B3      		in r24,55-32
 534 0328 852B      		or r24,r21
 535 032a 87BB      		out 55-32,r24
 536 032c 00C0      		rjmp .L21
 537               	.LVL41:
 538               	.L22:
 539               	.LM42:
 540 032e 6032      		cpi r22,lo8(32)
 541 0330 01F4      		brne .L23
 542 0332 FE01      		movw r30,r28
 543 0334 EE0F      		lsl r30
 544 0336 FF1F      		rol r31
 545               	.LVL42:
 546 0338 E050      		subi r30,lo8(-(p_cs))
 547 033a F040      		sbci r31,hi8(-(p_cs))
 548 033c 85E3      		ldi r24,lo8(53)
 549 033e 90E0      		ldi r25,hi8(53)
 550 0340 9183      		std Z+1,r25
 551 0342 8083      		st Z,r24
 552 0344 84B3      		in r24,52-32
 553 0346 852B      		or r24,r21
 554 0348 84BB      		out 52-32,r24
 555 034a 00C0      		rjmp .L21
 556               	.LVL43:
 557               	.L23:
 558               	.LM43:
 559 034c 6033      		cpi r22,lo8(48)
 560 034e 01F4      		brne .L21
 561 0350 FE01      		movw r30,r28
 562 0352 EE0F      		lsl r30
 563 0354 FF1F      		rol r31
 564 0356 E050      		subi r30,lo8(-(p_cs))
 565 0358 F040      		sbci r31,hi8(-(p_cs))
 566 035a 82E3      		ldi r24,lo8(50)
 567 035c 90E0      		ldi r25,hi8(50)
 568               	.LVL44:
 569 035e 9183      		std Z+1,r25
 570 0360 8083      		st Z,r24
GAS LISTING C:\Users\alex\AppData\Local\Temp/ccvhsmF1.s 			page 11


 571 0362 81B3      		in r24,49-32
 572 0364 852B      		or r24,r21
 573 0366 81BB      		out 49-32,r24
 574               	.LVL45:
 575               	.L21:
 576               	.LM44:
 577 0368 472F      		mov r20,r23
 578 036a 407F      		andi r20,lo8(-16)
 579               	.LVL46:
 580               	.LM45:
 581 036c 01F4      		brne .L24
 582 036e FE01      		movw r30,r28
 583 0370 EE0F      		lsl r30
 584 0372 FF1F      		rol r31
 585 0374 E050      		subi r30,lo8(-(p_ldac))
 586 0376 F040      		sbci r31,hi8(-(p_ldac))
 587 0378 8BE3      		ldi r24,lo8(59)
 588 037a 90E0      		ldi r25,hi8(59)
 589               	.LVL47:
 590 037c 9183      		std Z+1,r25
 591 037e 8083      		st Z,r24
 592 0380 8AB3      		in r24,58-32
 593 0382 382B      		or r19,r24
 594 0384 3ABB      		out 58-32,r19
 595 0386 00C0      		rjmp .L25
 596               	.LVL48:
 597               	.L24:
 598               	.LM46:
 599 0388 4031      		cpi r20,lo8(16)
 600 038a 01F4      		brne .L26
 601 038c FE01      		movw r30,r28
 602 038e EE0F      		lsl r30
 603 0390 FF1F      		rol r31
 604 0392 E050      		subi r30,lo8(-(p_ldac))
 605 0394 F040      		sbci r31,hi8(-(p_ldac))
 606 0396 88E3      		ldi r24,lo8(56)
 607 0398 90E0      		ldi r25,hi8(56)
 608               	.LVL49:
 609 039a 9183      		std Z+1,r25
 610 039c 8083      		st Z,r24
 611 039e 87B3      		in r24,55-32
 612 03a0 382B      		or r19,r24
 613 03a2 37BB      		out 55-32,r19
 614 03a4 00C0      		rjmp .L25
 615               	.LVL50:
 616               	.L26:
 617               	.LM47:
 618 03a6 4032      		cpi r20,lo8(32)
 619 03a8 01F4      		brne .L27
 620 03aa FE01      		movw r30,r28
 621 03ac EE0F      		lsl r30
 622 03ae FF1F      		rol r31
 623               	.LVL51:
 624 03b0 E050      		subi r30,lo8(-(p_ldac))
 625 03b2 F040      		sbci r31,hi8(-(p_ldac))
 626 03b4 85E3      		ldi r24,lo8(53)
 627 03b6 90E0      		ldi r25,hi8(53)
GAS LISTING C:\Users\alex\AppData\Local\Temp/ccvhsmF1.s 			page 12


 628               	.LVL52:
 629 03b8 9183      		std Z+1,r25
 630 03ba 8083      		st Z,r24
 631 03bc 84B3      		in r24,52-32
 632 03be 382B      		or r19,r24
 633 03c0 34BB      		out 52-32,r19
 634 03c2 00C0      		rjmp .L25
 635               	.LVL53:
 636               	.L27:
 637               	.LM48:
 638 03c4 4033      		cpi r20,lo8(48)
 639 03c6 01F4      		brne .L25
 640 03c8 FE01      		movw r30,r28
 641 03ca EE0F      		lsl r30
 642 03cc FF1F      		rol r31
 643               	.LVL54:
 644 03ce E050      		subi r30,lo8(-(p_ldac))
 645 03d0 F040      		sbci r31,hi8(-(p_ldac))
 646 03d2 82E3      		ldi r24,lo8(50)
 647 03d4 90E0      		ldi r25,hi8(50)
 648               	.LVL55:
 649 03d6 9183      		std Z+1,r25
 650 03d8 8083      		st Z,r24
 651 03da 81B3      		in r24,49-32
 652 03dc 382B      		or r19,r24
 653 03de 31BB      		out 49-32,r19
 654               	.LVL56:
 655               	.L25:
 656               	.LM49:
 657 03e0 80E5      		ldi r24,lo8(80)
 658               	.LVL57:
 659 03e2 8DB9      		out 45-32,r24
 660               	.LM50:
 661 03e4 81E0      		ldi r24,lo8(1)
 662 03e6 8EB9      		out 46-32,r24
 663               	.LM51:
 664 03e8 DE01      		movw r26,r28
 665 03ea AA0F      		lsl r26
 666 03ec BB1F      		rol r27
 667 03ee FD01      		movw r30,r26
 668 03f0 E050      		subi r30,lo8(-(p_cs))
 669 03f2 F040      		sbci r31,hi8(-(p_cs))
 670 03f4 0190      		ld __tmp_reg__,Z+
 671 03f6 F081      		ld r31,Z
 672 03f8 E02D      		mov r30,__tmp_reg__
 673 03fa 8081      		ld r24,Z
 674 03fc 582B      		or r21,r24
 675 03fe 5083      		st Z,r21
 676               	.LM52:
 677 0400 A050      		subi r26,lo8(-(p_ldac))
 678 0402 B040      		sbci r27,hi8(-(p_ldac))
 679 0404 ED91      		ld r30,X+
 680 0406 FC91      		ld r31,X
 681 0408 8081      		ld r24,Z
 682 040a C050      		subi r28,lo8(-(b_ldac))
 683 040c D040      		sbci r29,hi8(-(b_ldac))
 684 040e 9881      		ld r25,Y
GAS LISTING C:\Users\alex\AppData\Local\Temp/ccvhsmF1.s 			page 13


 685 0410 892B      		or r24,r25
 686 0412 8083      		st Z,r24
 687               	/* epilogue start */
 688               	.LM53:
 689 0414 DF91      		pop r29
 690 0416 CF91      		pop r28
 691 0418 0895      		ret
 692               	.LFE3:
 693               		.size	init_mcp4922_spi, .-init_mcp4922_spi
 694               		.data
 695               	.LC0:
 696 0000 7063 7331 		.string	"pcs1:%x\n"
 696      3A25 780A 
 696      00
 697               		.text
 698               	.global	mcp4922_spiw
 699               		.type	mcp4922_spiw, @function
 700               	mcp4922_spiw:
 701               	.LFB5:
 702               	.LM54:
 703               	.LVL58:
 704 041a CF92      		push r12
 705 041c DF92      		push r13
 706 041e EF92      		push r14
 707 0420 FF92      		push r15
 708 0422 0F93      		push r16
 709 0424 1F93      		push r17
 710 0426 CF93      		push r28
 711 0428 DF93      		push r29
 712               	/* prologue: function */
 713               	/* frame size = 0 */
 714 042a 282F      		mov r18,r24
 715 042c EB01      		movw r28,r22
 716               	.LM55:
 717 042e CB01      		movw r24,r22
 718               	.LVL59:
 719 0430 8070      		andi r24,lo8(-4096)
 720 0432 907F      		andi r25,hi8(-4096)
 721 0434 892B      		or r24,r25
 722 0436 01F4      		brne .L30
 723               	.LM56:
 724 0438 D067      		ori r29,hi8(28672)
 725               	.LVL60:
 726               	.LM57:
 727 043a 4423      		tst r20
 728 043c 01F4      		brne .L30
 729 043e D068      		ori r29,hi8(-32768)
 730               	.LVL61:
 731               	.L30:
 732               	.LM58:
 733 0440 822F      		mov r24,r18
 734 0442 90E0      		ldi r25,lo8(0)
 735 0444 FC01      		movw r30,r24
 736 0446 EE0F      		lsl r30
 737 0448 FF1F      		rol r31
 738               	.LVL62:
 739 044a DF01      		movw r26,r30
GAS LISTING C:\Users\alex\AppData\Local\Temp/ccvhsmF1.s 			page 14


 740 044c A050      		subi r26,lo8(-(p_cs))
 741 044e B040      		sbci r27,hi8(-(p_cs))
 742 0450 0D91      		ld r16,X+
 743 0452 1C91      		ld r17,X
 744               	.LVL63:
 745               	.LM59:
 746 0454 E050      		subi r30,lo8(-(p_ldac))
 747 0456 F040      		sbci r31,hi8(-(p_ldac))
 748 0458 E080      		ld r14,Z
 749 045a F180      		ldd r15,Z+1
 750               	.LVL64:
 751               	.LM60:
 752 045c FC01      		movw r30,r24
 753 045e E050      		subi r30,lo8(-(b_cs))
 754 0460 F040      		sbci r31,hi8(-(b_cs))
 755 0462 D080      		ld r13,Z
 756               	.LVL65:
 757               	.LM61:
 758 0464 8050      		subi r24,lo8(-(b_ldac))
 759 0466 9040      		sbci r25,hi8(-(b_ldac))
 760 0468 FC01      		movw r30,r24
 761 046a C080      		ld r12,Z
 762               	.LVL66:
 763               	.LM62:
 764 046c 00D0      		rcall .
 765 046e 00D0      		rcall .
 766 0470 80E0      		ldi r24,lo8(.LC0)
 767 0472 90E0      		ldi r25,hi8(.LC0)
 768 0474 EDB7      		in r30,__SP_L__
 769 0476 FEB7      		in r31,__SP_H__
 770 0478 9283      		std Z+2,r25
 771 047a 8183      		std Z+1,r24
 772 047c 1483      		std Z+4,r17
 773 047e 0383      		std Z+3,r16
 774 0480 0E94 0000 		call uart_printf
 775               	.LVL67:
 776               	.LM63:
 777 0484 F801      		movw r30,r16
 778 0486 9081      		ld r25,Z
 779 0488 8D2D      		mov r24,r13
 780 048a 8095      		com r24
 781 048c 8923      		and r24,r25
 782 048e 8083      		st Z,r24
 783               	.LM64:
 784 0490 8D2F      		mov r24,r29
 785 0492 9927      		clr r25
 786 0494 87FD      		sbrc r24,7
 787 0496 9A95      		dec r25
 788 0498 8FB9      		out 47-32,r24
 789 049a 0F90      		pop __tmp_reg__
 790 049c 0F90      		pop __tmp_reg__
 791 049e 0F90      		pop __tmp_reg__
 792 04a0 0F90      		pop __tmp_reg__
 793               	.L31:
 794               	.LM65:
 795 04a2 779B      		sbis 46-32,7
 796 04a4 00C0      		rjmp .L31
GAS LISTING C:\Users\alex\AppData\Local\Temp/ccvhsmF1.s 			page 15


 797               	.LM66:
 798 04a6 CFB9      		out 47-32,r28
 799               	.L32:
 800               	.LM67:
 801 04a8 779B      		sbis 46-32,7
 802 04aa 00C0      		rjmp .L32
 803               	.LM68:
 804 04ac F801      		movw r30,r16
 805 04ae 8081      		ld r24,Z
 806 04b0 8D29      		or r24,r13
 807 04b2 8083      		st Z,r24
 808               	.LM69:
 809 04b4 F701      		movw r30,r14
 810 04b6 9081      		ld r25,Z
 811 04b8 8C2D      		mov r24,r12
 812 04ba 8095      		com r24
 813 04bc 8923      		and r24,r25
 814 04be 8083      		st Z,r24
 815               	.LM70:
 816 04c0 82E0      		ldi r24,lo8(2)
 817 04c2 90E0      		ldi r25,hi8(2)
 818 04c4 0E94 0000 		call udelay
 819               	.LM71:
 820 04c8 F701      		movw r30,r14
 821 04ca 8081      		ld r24,Z
 822 04cc 8C29      		or r24,r12
 823 04ce 8083      		st Z,r24
 824               	/* epilogue start */
 825               	.LM72:
 826 04d0 DF91      		pop r29
 827 04d2 CF91      		pop r28
 828               	.LVL68:
 829 04d4 1F91      		pop r17
 830 04d6 0F91      		pop r16
 831               	.LVL69:
 832 04d8 FF90      		pop r15
 833 04da EF90      		pop r14
 834               	.LVL70:
 835 04dc DF90      		pop r13
 836               	.LVL71:
 837 04de CF90      		pop r12
 838               	.LVL72:
 839 04e0 0895      		ret
 840               	.LFE5:
 841               		.size	mcp4922_spiw, .-mcp4922_spiw
 842               	.global	mcp4922_putw
 843               		.type	mcp4922_putw, @function
 844               	mcp4922_putw:
 845               	.LFB4:
 846               	.LM73:
 847               	.LVL73:
 848 04e2 CF92      		push r12
 849 04e4 DF92      		push r13
 850 04e6 EF92      		push r14
 851 04e8 FF92      		push r15
 852 04ea 0F93      		push r16
 853 04ec 1F93      		push r17
GAS LISTING C:\Users\alex\AppData\Local\Temp/ccvhsmF1.s 			page 16


 854 04ee CF93      		push r28
 855 04f0 DF93      		push r29
 856               	/* prologue: function */
 857               	/* frame size = 0 */
 858 04f2 282F      		mov r18,r24
 859               	.LM74:
 860 04f4 CB01      		movw r24,r22
 861               	.LVL74:
 862 04f6 8070      		andi r24,lo8(-4096)
 863 04f8 907F      		andi r25,hi8(-4096)
 864 04fa 892B      		or r24,r25
 865 04fc 01F4      		brne .L37
 866               	.LM75:
 867 04fe 7067      		ori r23,hi8(28672)
 868               	.LVL75:
 869               	.LM76:
 870 0500 4423      		tst r20
 871 0502 01F4      		brne .L37
 872 0504 7068      		ori r23,hi8(-32768)
 873               	.L37:
 874               	.LM77:
 875 0506 822F      		mov r24,r18
 876 0508 90E0      		ldi r25,lo8(0)
 877 050a DC01      		movw r26,r24
 878 050c AA0F      		lsl r26
 879 050e BB1F      		rol r27
 880 0510 FD01      		movw r30,r26
 881 0512 E050      		subi r30,lo8(-(p_clk))
 882 0514 F040      		sbci r31,hi8(-(p_clk))
 883 0516 2081      		ld r18,Z
 884 0518 3181      		ldd r19,Z+1
 885               	.LVL76:
 886               	.LM78:
 887 051a FD01      		movw r30,r26
 888 051c E050      		subi r30,lo8(-(p_data))
 889 051e F040      		sbci r31,hi8(-(p_data))
 890 0520 C081      		ld r28,Z
 891 0522 D181      		ldd r29,Z+1
 892               	.LVL77:
 893               	.LM79:
 894 0524 FD01      		movw r30,r26
 895 0526 E050      		subi r30,lo8(-(p_cs))
 896 0528 F040      		sbci r31,hi8(-(p_cs))
 897 052a 0081      		ld r16,Z
 898 052c 1181      		ldd r17,Z+1
 899               	.LVL78:
 900               	.LM80:
 901 052e A050      		subi r26,lo8(-(p_ldac))
 902 0530 B040      		sbci r27,hi8(-(p_ldac))
 903 0532 ED90      		ld r14,X+
 904 0534 FC90      		ld r15,X
 905               	.LVL79:
 906               	.LM81:
 907 0536 FC01      		movw r30,r24
 908 0538 E050      		subi r30,lo8(-(b_clk))
 909 053a F040      		sbci r31,hi8(-(b_clk))
 910 053c 4081      		ld r20,Z
GAS LISTING C:\Users\alex\AppData\Local\Temp/ccvhsmF1.s 			page 17


 911               	.LVL80:
 912               	.LM82:
 913 053e FC01      		movw r30,r24
 914 0540 E050      		subi r30,lo8(-(b_data))
 915 0542 F040      		sbci r31,hi8(-(b_data))
 916 0544 B081      		ld r27,Z
 917               	.LVL81:
 918               	.LM83:
 919 0546 FC01      		movw r30,r24
 920 0548 E050      		subi r30,lo8(-(b_cs))
 921 054a F040      		sbci r31,hi8(-(b_cs))
 922 054c C080      		ld r12,Z
 923               	.LVL82:
 924               	.LM84:
 925 054e 8050      		subi r24,lo8(-(b_ldac))
 926 0550 9040      		sbci r25,hi8(-(b_ldac))
 927 0552 FC01      		movw r30,r24
 928 0554 D080      		ld r13,Z
 929               	.LVL83:
 930               	.LM85:
 931 0556 F801      		movw r30,r16
 932 0558 9081      		ld r25,Z
 933 055a 8C2D      		mov r24,r12
 934 055c 8095      		com r24
 935 055e 8923      		and r24,r25
 936 0560 8083      		st Z,r24
 937               	.LM86:
 938 0562 8881      		ld r24,Y
 939 0564 5B2F      		mov r21,r27
 940 0566 5095      		com r21
 941 0568 8523      		and r24,r21
 942 056a 8883      		st Y,r24
 943 056c 90E0      		ldi r25,lo8(0)
 944               	.LVL84:
 945               	.LM87:
 946 056e A42F      		mov r26,r20
 947 0570 A095      		com r26
 948               	.L41:
 949 0572 F901      		movw r30,r18
 950 0574 8081      		ld r24,Z
 951 0576 8A23      		and r24,r26
 952 0578 8083      		st Z,r24
 953               	.LM88:
 954 057a 77FF      		sbrs r23,7
 955 057c 00C0      		rjmp .L38
 956               	.LM89:
 957 057e 8881      		ld r24,Y
 958 0580 8B2B      		or r24,r27
 959 0582 00C0      		rjmp .L43
 960               	.L38:
 961               	.LM90:
 962 0584 8881      		ld r24,Y
 963 0586 8523      		and r24,r21
 964               	.L43:
 965 0588 8883      		st Y,r24
 966               	.LM91:
 967 058a F901      		movw r30,r18
GAS LISTING C:\Users\alex\AppData\Local\Temp/ccvhsmF1.s 			page 18


 968 058c 8081      		ld r24,Z
 969 058e 842B      		or r24,r20
 970 0590 8083      		st Z,r24
 971               	.LM92:
 972 0592 9F5F      		subi r25,lo8(-(1))
 973 0594 9031      		cpi r25,lo8(16)
 974 0596 01F0      		breq .L40
 975               	.LM93:
 976 0598 660F      		lsl r22
 977 059a 771F      		rol r23
 978               	.LVL85:
 979 059c 00C0      		rjmp .L41
 980               	.L40:
 981               	.LM94:
 982 059e F901      		movw r30,r18
 983 05a0 8081      		ld r24,Z
 984 05a2 4095      		com r20
 985 05a4 4823      		and r20,r24
 986 05a6 4083      		st Z,r20
 987               	.LM95:
 988 05a8 F801      		movw r30,r16
 989 05aa 8081      		ld r24,Z
 990 05ac 8C29      		or r24,r12
 991 05ae 8083      		st Z,r24
 992               	.LM96:
 993 05b0 F701      		movw r30,r14
 994 05b2 9081      		ld r25,Z
 995               	.LVL86:
 996 05b4 8D2D      		mov r24,r13
 997 05b6 8095      		com r24
 998 05b8 8923      		and r24,r25
 999 05ba 8083      		st Z,r24
 1000               	.LM97:
 1001 05bc 82E0      		ldi r24,lo8(2)
 1002 05be 90E0      		ldi r25,hi8(2)
 1003 05c0 0E94 0000 		call udelay
 1004               	.LVL87:
 1005               	.LM98:
 1006 05c4 F701      		movw r30,r14
 1007 05c6 8081      		ld r24,Z
 1008 05c8 8D29      		or r24,r13
 1009 05ca 8083      		st Z,r24
 1010               	/* epilogue start */
 1011               	.LM99:
 1012 05cc DF91      		pop r29
 1013 05ce CF91      		pop r28
 1014               	.LVL88:
 1015 05d0 1F91      		pop r17
 1016 05d2 0F91      		pop r16
 1017               	.LVL89:
 1018 05d4 FF90      		pop r15
 1019 05d6 EF90      		pop r14
 1020               	.LVL90:
 1021 05d8 DF90      		pop r13
 1022               	.LVL91:
 1023 05da CF90      		pop r12
 1024               	.LVL92:
GAS LISTING C:\Users\alex\AppData\Local\Temp/ccvhsmF1.s 			page 19


 1025 05dc 0895      		ret
 1026               	.LFE4:
 1027               		.size	mcp4922_putw, .-mcp4922_putw
 1028               		.comm p_cs,8,1
 1029               		.comm p_data,8,1
 1030               		.comm p_clk,8,1
 1031               		.comm p_ldac,8,1
 1032               		.comm b_cs,4,1
 1033               		.comm b_data,4,1
 1034               		.comm b_clk,4,1
 1035               		.comm b_ldac,4,1
 1036               		.section	.debug_frame,"",@progbits
 1037               	.Lframe0:
 1038 0000 0C00 0000 		.long	.LECIE0-.LSCIE0
 1039               	.LSCIE0:
 1040 0004 FFFF FFFF 		.long	0xffffffff
 1041 0008 01        		.byte	0x1
 1042 0009 00        		.string	""
 1043 000a 01        		.uleb128 0x1
 1044 000b 7F        		.sleb128 -1
 1045 000c 24        		.byte	0x24
 1046 000d 0C        		.byte	0xc
 1047 000e 20        		.uleb128 0x20
 1048 000f 00        		.uleb128 0x0
 1049               		.p2align	2
 1050               	.LECIE0:
 1051               	.LSFDE0:
 1052 0010 0C00 0000 		.long	.LEFDE0-.LASFDE0
 1053               	.LASFDE0:
 1054 0014 0000 0000 		.long	.Lframe0
 1055 0018 0000 0000 		.long	.LFB2
 1056 001c B002 0000 		.long	.LFE2-.LFB2
 1057               		.p2align	2
 1058               	.LEFDE0:
 1059               	.LSFDE2:
 1060 0020 0C00 0000 		.long	.LEFDE2-.LASFDE2
 1061               	.LASFDE2:
 1062 0024 0000 0000 		.long	.Lframe0
 1063 0028 0000 0000 		.long	.LFB3
 1064 002c 6A01 0000 		.long	.LFE3-.LFB3
 1065               		.p2align	2
 1066               	.LEFDE2:
 1067               	.LSFDE4:
 1068 0030 0C00 0000 		.long	.LEFDE4-.LASFDE4
 1069               	.LASFDE4:
 1070 0034 0000 0000 		.long	.Lframe0
 1071 0038 0000 0000 		.long	.LFB5
 1072 003c C800 0000 		.long	.LFE5-.LFB5
 1073               		.p2align	2
 1074               	.LEFDE4:
 1075               	.LSFDE6:
 1076 0040 0C00 0000 		.long	.LEFDE6-.LASFDE6
 1077               	.LASFDE6:
 1078 0044 0000 0000 		.long	.Lframe0
 1079 0048 0000 0000 		.long	.LFB4
 1080 004c FC00 0000 		.long	.LFE4-.LFB4
 1081               		.p2align	2
GAS LISTING C:\Users\alex\AppData\Local\Temp/ccvhsmF1.s 			page 20


 1082               	.LEFDE6:
 1083               		.text
 1084               	.Letext0:
 1085               		.section	.debug_loc,"",@progbits
 1086               	.Ldebug_loc0:
 1087               	.LLST1:
 1088 0000 0000 0000 		.long	.LVL0-.Ltext0
 1089 0004 3200 0000 		.long	.LVL5-.Ltext0
 1090 0008 0100      		.word	0x1
 1091 000a 68        		.byte	0x68
 1092 000b 0000 0000 		.long	0x0
 1093 000f 0000 0000 		.long	0x0
 1094               	.LLST2:
 1095 0013 0000 0000 		.long	.LVL0-.Ltext0
 1096 0017 1400 0000 		.long	.LVL3-.Ltext0
 1097 001b 0100      		.word	0x1
 1098 001d 66        		.byte	0x66
 1099 001e 1400 0000 		.long	.LVL3-.Ltext0
 1100 0022 7201 0000 		.long	.LVL18-.Ltext0
 1101 0026 0100      		.word	0x1
 1102 0028 6B        		.byte	0x6b
 1103 0029 7201 0000 		.long	.LVL18-.Ltext0
 1104 002d B601 0000 		.long	.LVL19-.Ltext0
 1105 0031 0100      		.word	0x1
 1106 0033 66        		.byte	0x66
 1107 0034 CA01 0000 		.long	.LVL20-.Ltext0
 1108 0038 B002 0000 		.long	.LFE2-.Ltext0
 1109 003c 0100      		.word	0x1
 1110 003e 66        		.byte	0x66
 1111 003f 0000 0000 		.long	0x0
 1112 0043 0000 0000 		.long	0x0
 1113               	.LLST3:
 1114 0047 0000 0000 		.long	.LVL0-.Ltext0
 1115 004b E400 0000 		.long	.LVL11-.Ltext0
 1116 004f 0100      		.word	0x1
 1117 0051 64        		.byte	0x64
 1118 0052 F600 0000 		.long	.LVL12-.Ltext0
 1119 0056 F001 0000 		.long	.LVL24-.Ltext0
 1120 005a 0100      		.word	0x1
 1121 005c 64        		.byte	0x64
 1122 005d 0402 0000 		.long	.LVL25-.Ltext0
 1123 0061 B002 0000 		.long	.LFE2-.Ltext0
 1124 0065 0100      		.word	0x1
 1125 0067 64        		.byte	0x64
 1126 0068 0000 0000 		.long	0x0
 1127 006c 0000 0000 		.long	0x0
 1128               	.LLST4:
 1129 0070 0000 0000 		.long	.LVL0-.Ltext0
 1130 0074 0E00 0000 		.long	.LVL2-.Ltext0
 1131 0078 0100      		.word	0x1
 1132 007a 62        		.byte	0x62
 1133 007b 0E00 0000 		.long	.LVL2-.Ltext0
 1134 007f FA00 0000 		.long	.LVL13-.Ltext0
 1135 0083 0100      		.word	0x1
 1136 0085 6A        		.byte	0x6a
 1137 0086 FA00 0000 		.long	.LVL13-.Ltext0
 1138 008a 2001 0000 		.long	.LVL16-.Ltext0
GAS LISTING C:\Users\alex\AppData\Local\Temp/ccvhsmF1.s 			page 21


 1139 008e 0100      		.word	0x1
 1140 0090 62        		.byte	0x62
 1141 0091 3401 0000 		.long	.LVL17-.Ltext0
 1142 0095 2C02 0000 		.long	.LVL28-.Ltext0
 1143 0099 0100      		.word	0x1
 1144 009b 62        		.byte	0x62
 1145 009c 4002 0000 		.long	.LVL29-.Ltext0
 1146 00a0 7E02 0000 		.long	.LVL30-.Ltext0
 1147 00a4 0100      		.word	0x1
 1148 00a6 62        		.byte	0x62
 1149 00a7 0000 0000 		.long	0x0
 1150 00ab 0000 0000 		.long	0x0
 1151               	.LLST5:
 1152 00af 0000 0000 		.long	.LVL0-.Ltext0
 1153 00b3 0200 0000 		.long	.LVL1-.Ltext0
 1154 00b7 0100      		.word	0x1
 1155 00b9 60        		.byte	0x60
 1156 00ba 6A00 0000 		.long	.LVL8-.Ltext0
 1157 00be AE02 0000 		.long	.LVL32-.Ltext0
 1158 00c2 0100      		.word	0x1
 1159 00c4 60        		.byte	0x60
 1160 00c5 0000 0000 		.long	0x0
 1161 00c9 0000 0000 		.long	0x0
 1162               	.LLST6:
 1163 00cd 2400 0000 		.long	.LVL4-.Ltext0
 1164 00d1 0201 0000 		.long	.LVL14-.Ltext0
 1165 00d5 0100      		.word	0x1
 1166 00d7 63        		.byte	0x63
 1167 00d8 1601 0000 		.long	.LVL15-.Ltext0
 1168 00dc 0E02 0000 		.long	.LVL26-.Ltext0
 1169 00e0 0100      		.word	0x1
 1170 00e2 63        		.byte	0x63
 1171 00e3 2202 0000 		.long	.LVL27-.Ltext0
 1172 00e7 B002 0000 		.long	.LFE2-.Ltext0
 1173 00eb 0100      		.word	0x1
 1174 00ed 63        		.byte	0x63
 1175 00ee 0000 0000 		.long	0x0
 1176 00f2 0000 0000 		.long	0x0
 1177               	.LLST7:
 1178 00f6 6000 0000 		.long	.LVL7-.Ltext0
 1179 00fa AC02 0000 		.long	.LVL31-.Ltext0
 1180 00fe 0100      		.word	0x1
 1181 0100 61        		.byte	0x61
 1182 0101 0000 0000 		.long	0x0
 1183 0105 0000 0000 		.long	0x0
 1184               	.LLST8:
 1185 0109 4400 0000 		.long	.LVL6-.Ltext0
 1186 010d D401 0000 		.long	.LVL21-.Ltext0
 1187 0111 0100      		.word	0x1
 1188 0113 65        		.byte	0x65
 1189 0114 E601 0000 		.long	.LVL22-.Ltext0
 1190 0118 B002 0000 		.long	.LFE2-.Ltext0
 1191 011c 0100      		.word	0x1
 1192 011e 65        		.byte	0x65
 1193 011f 0000 0000 		.long	0x0
 1194 0123 0000 0000 		.long	0x0
 1195               	.LLST10:
GAS LISTING C:\Users\alex\AppData\Local\Temp/ccvhsmF1.s 			page 22


 1196 0127 B002 0000 		.long	.LVL33-.Ltext0
 1197 012b 0403 0000 		.long	.LVL38-.Ltext0
 1198 012f 0100      		.word	0x1
 1199 0131 68        		.byte	0x68
 1200 0132 1003 0000 		.long	.LVL39-.Ltext0
 1201 0136 2203 0000 		.long	.LVL40-.Ltext0
 1202 013a 0100      		.word	0x1
 1203 013c 68        		.byte	0x68
 1204 013d 2E03 0000 		.long	.LVL41-.Ltext0
 1205 0141 3803 0000 		.long	.LVL42-.Ltext0
 1206 0145 0100      		.word	0x1
 1207 0147 68        		.byte	0x68
 1208 0148 4C03 0000 		.long	.LVL43-.Ltext0
 1209 014c 5E03 0000 		.long	.LVL44-.Ltext0
 1210 0150 0100      		.word	0x1
 1211 0152 68        		.byte	0x68
 1212 0153 6803 0000 		.long	.LVL45-.Ltext0
 1213 0157 7C03 0000 		.long	.LVL47-.Ltext0
 1214 015b 0100      		.word	0x1
 1215 015d 68        		.byte	0x68
 1216 015e 8803 0000 		.long	.LVL48-.Ltext0
 1217 0162 9A03 0000 		.long	.LVL49-.Ltext0
 1218 0166 0100      		.word	0x1
 1219 0168 68        		.byte	0x68
 1220 0169 A603 0000 		.long	.LVL50-.Ltext0
 1221 016d B803 0000 		.long	.LVL52-.Ltext0
 1222 0171 0100      		.word	0x1
 1223 0173 68        		.byte	0x68
 1224 0174 C403 0000 		.long	.LVL53-.Ltext0
 1225 0178 D603 0000 		.long	.LVL55-.Ltext0
 1226 017c 0100      		.word	0x1
 1227 017e 68        		.byte	0x68
 1228 017f E003 0000 		.long	.LVL56-.Ltext0
 1229 0183 E203 0000 		.long	.LVL57-.Ltext0
 1230 0187 0100      		.word	0x1
 1231 0189 68        		.byte	0x68
 1232 018a 0000 0000 		.long	0x0
 1233 018e 0000 0000 		.long	0x0
 1234               	.LLST11:
 1235 0192 B002 0000 		.long	.LVL33-.Ltext0
 1236 0196 B003 0000 		.long	.LVL51-.Ltext0
 1237 019a 0100      		.word	0x1
 1238 019c 66        		.byte	0x66
 1239 019d C403 0000 		.long	.LVL53-.Ltext0
 1240 01a1 1A04 0000 		.long	.LFE3-.Ltext0
 1241 01a5 0100      		.word	0x1
 1242 01a7 66        		.byte	0x66
 1243 01a8 0000 0000 		.long	0x0
 1244 01ac 0000 0000 		.long	0x0
 1245               	.LLST12:
 1246 01b0 B002 0000 		.long	.LVL33-.Ltext0
 1247 01b4 B802 0000 		.long	.LVL34-.Ltext0
 1248 01b8 0100      		.word	0x1
 1249 01ba 64        		.byte	0x64
 1250 01bb B802 0000 		.long	.LVL34-.Ltext0
 1251 01bf 6C03 0000 		.long	.LVL46-.Ltext0
 1252 01c3 0100      		.word	0x1
GAS LISTING C:\Users\alex\AppData\Local\Temp/ccvhsmF1.s 			page 23


 1253 01c5 67        		.byte	0x67
 1254 01c6 6C03 0000 		.long	.LVL46-.Ltext0
 1255 01ca CE03 0000 		.long	.LVL54-.Ltext0
 1256 01ce 0100      		.word	0x1
 1257 01d0 64        		.byte	0x64
 1258 01d1 E003 0000 		.long	.LVL56-.Ltext0
 1259 01d5 1A04 0000 		.long	.LFE3-.Ltext0
 1260 01d9 0100      		.word	0x1
 1261 01db 64        		.byte	0x64
 1262 01dc 0000 0000 		.long	0x0
 1263 01e0 0000 0000 		.long	0x0
 1264               	.LLST14:
 1265 01e4 1A04 0000 		.long	.LVL58-.Ltext0
 1266 01e8 3004 0000 		.long	.LVL59-.Ltext0
 1267 01ec 0100      		.word	0x1
 1268 01ee 68        		.byte	0x68
 1269 01ef 3004 0000 		.long	.LVL59-.Ltext0
 1270 01f3 8404 0000 		.long	.LVL67-.Ltext0
 1271 01f7 0100      		.word	0x1
 1272 01f9 62        		.byte	0x62
 1273 01fa 0000 0000 		.long	0x0
 1274 01fe 0000 0000 		.long	0x0
 1275               	.LLST15:
 1276 0202 1A04 0000 		.long	.LVL58-.Ltext0
 1277 0206 3A04 0000 		.long	.LVL60-.Ltext0
 1278 020a 0600      		.word	0x6
 1279 020c 66        		.byte	0x66
 1280 020d 93        		.byte	0x93
 1281 020e 01        		.uleb128 0x1
 1282 020f 67        		.byte	0x67
 1283 0210 93        		.byte	0x93
 1284 0211 01        		.uleb128 0x1
 1285 0212 3A04 0000 		.long	.LVL60-.Ltext0
 1286 0216 D404 0000 		.long	.LVL68-.Ltext0
 1287 021a 0600      		.word	0x6
 1288 021c 6C        		.byte	0x6c
 1289 021d 93        		.byte	0x93
 1290 021e 01        		.uleb128 0x1
 1291 021f 6D        		.byte	0x6d
 1292 0220 93        		.byte	0x93
 1293 0221 01        		.uleb128 0x1
 1294 0222 0000 0000 		.long	0x0
 1295 0226 0000 0000 		.long	0x0
 1296               	.LLST16:
 1297 022a 1A04 0000 		.long	.LVL58-.Ltext0
 1298 022e 4A04 0000 		.long	.LVL62-.Ltext0
 1299 0232 0100      		.word	0x1
 1300 0234 64        		.byte	0x64
 1301 0235 0000 0000 		.long	0x0
 1302 0239 0000 0000 		.long	0x0
 1303               	.LLST17:
 1304 023d 5404 0000 		.long	.LVL63-.Ltext0
 1305 0241 D804 0000 		.long	.LVL69-.Ltext0
 1306 0245 0600      		.word	0x6
 1307 0247 60        		.byte	0x60
 1308 0248 93        		.byte	0x93
 1309 0249 01        		.uleb128 0x1
GAS LISTING C:\Users\alex\AppData\Local\Temp/ccvhsmF1.s 			page 24


 1310 024a 61        		.byte	0x61
 1311 024b 93        		.byte	0x93
 1312 024c 01        		.uleb128 0x1
 1313 024d 0000 0000 		.long	0x0
 1314 0251 0000 0000 		.long	0x0
 1315               	.LLST18:
 1316 0255 5C04 0000 		.long	.LVL64-.Ltext0
 1317 0259 DC04 0000 		.long	.LVL70-.Ltext0
 1318 025d 0600      		.word	0x6
 1319 025f 5E        		.byte	0x5e
 1320 0260 93        		.byte	0x93
 1321 0261 01        		.uleb128 0x1
 1322 0262 5F        		.byte	0x5f
 1323 0263 93        		.byte	0x93
 1324 0264 01        		.uleb128 0x1
 1325 0265 0000 0000 		.long	0x0
 1326 0269 0000 0000 		.long	0x0
 1327               	.LLST19:
 1328 026d 6404 0000 		.long	.LVL65-.Ltext0
 1329 0271 DE04 0000 		.long	.LVL71-.Ltext0
 1330 0275 0100      		.word	0x1
 1331 0277 5D        		.byte	0x5d
 1332 0278 0000 0000 		.long	0x0
 1333 027c 0000 0000 		.long	0x0
 1334               	.LLST20:
 1335 0280 6C04 0000 		.long	.LVL66-.Ltext0
 1336 0284 E004 0000 		.long	.LVL72-.Ltext0
 1337 0288 0100      		.word	0x1
 1338 028a 5C        		.byte	0x5c
 1339 028b 0000 0000 		.long	0x0
 1340 028f 0000 0000 		.long	0x0
 1341               	.LLST22:
 1342 0293 E204 0000 		.long	.LVL73-.Ltext0
 1343 0297 F604 0000 		.long	.LVL74-.Ltext0
 1344 029b 0100      		.word	0x1
 1345 029d 68        		.byte	0x68
 1346 029e F604 0000 		.long	.LVL74-.Ltext0
 1347 02a2 1A05 0000 		.long	.LVL76-.Ltext0
 1348 02a6 0100      		.word	0x1
 1349 02a8 62        		.byte	0x62
 1350 02a9 0000 0000 		.long	0x0
 1351 02ad 0000 0000 		.long	0x0
 1352               	.LLST23:
 1353 02b1 E204 0000 		.long	.LVL73-.Ltext0
 1354 02b5 C405 0000 		.long	.LVL87-.Ltext0
 1355 02b9 0600      		.word	0x6
 1356 02bb 66        		.byte	0x66
 1357 02bc 93        		.byte	0x93
 1358 02bd 01        		.uleb128 0x1
 1359 02be 67        		.byte	0x67
 1360 02bf 93        		.byte	0x93
 1361 02c0 01        		.uleb128 0x1
 1362 02c1 0000 0000 		.long	0x0
 1363 02c5 0000 0000 		.long	0x0
 1364               	.LLST24:
 1365 02c9 E204 0000 		.long	.LVL73-.Ltext0
 1366 02cd 3E05 0000 		.long	.LVL80-.Ltext0
GAS LISTING C:\Users\alex\AppData\Local\Temp/ccvhsmF1.s 			page 25


 1367 02d1 0100      		.word	0x1
 1368 02d3 64        		.byte	0x64
 1369 02d4 0000 0000 		.long	0x0
 1370 02d8 0000 0000 		.long	0x0
 1371               	.LLST25:
 1372 02dc 1A05 0000 		.long	.LVL76-.Ltext0
 1373 02e0 C405 0000 		.long	.LVL87-.Ltext0
 1374 02e4 0600      		.word	0x6
 1375 02e6 62        		.byte	0x62
 1376 02e7 93        		.byte	0x93
 1377 02e8 01        		.uleb128 0x1
 1378 02e9 63        		.byte	0x63
 1379 02ea 93        		.byte	0x93
 1380 02eb 01        		.uleb128 0x1
 1381 02ec 0000 0000 		.long	0x0
 1382 02f0 0000 0000 		.long	0x0
 1383               	.LLST26:
 1384 02f4 2E05 0000 		.long	.LVL78-.Ltext0
 1385 02f8 D405 0000 		.long	.LVL89-.Ltext0
 1386 02fc 0600      		.word	0x6
 1387 02fe 60        		.byte	0x60
 1388 02ff 93        		.byte	0x93
 1389 0300 01        		.uleb128 0x1
 1390 0301 61        		.byte	0x61
 1391 0302 93        		.byte	0x93
 1392 0303 01        		.uleb128 0x1
 1393 0304 0000 0000 		.long	0x0
 1394 0308 0000 0000 		.long	0x0
 1395               	.LLST27:
 1396 030c 2405 0000 		.long	.LVL77-.Ltext0
 1397 0310 D005 0000 		.long	.LVL88-.Ltext0
 1398 0314 0600      		.word	0x6
 1399 0316 6C        		.byte	0x6c
 1400 0317 93        		.byte	0x93
 1401 0318 01        		.uleb128 0x1
 1402 0319 6D        		.byte	0x6d
 1403 031a 93        		.byte	0x93
 1404 031b 01        		.uleb128 0x1
 1405 031c 0000 0000 		.long	0x0
 1406 0320 0000 0000 		.long	0x0
 1407               	.LLST28:
 1408 0324 3605 0000 		.long	.LVL79-.Ltext0
 1409 0328 D805 0000 		.long	.LVL90-.Ltext0
 1410 032c 0600      		.word	0x6
 1411 032e 5E        		.byte	0x5e
 1412 032f 93        		.byte	0x93
 1413 0330 01        		.uleb128 0x1
 1414 0331 5F        		.byte	0x5f
 1415 0332 93        		.byte	0x93
 1416 0333 01        		.uleb128 0x1
 1417 0334 0000 0000 		.long	0x0
 1418 0338 0000 0000 		.long	0x0
 1419               	.LLST29:
 1420 033c 3E05 0000 		.long	.LVL80-.Ltext0
 1421 0340 C405 0000 		.long	.LVL87-.Ltext0
 1422 0344 0100      		.word	0x1
 1423 0346 64        		.byte	0x64
GAS LISTING C:\Users\alex\AppData\Local\Temp/ccvhsmF1.s 			page 26


 1424 0347 0000 0000 		.long	0x0
 1425 034b 0000 0000 		.long	0x0
 1426               	.LLST30:
 1427 034f 4E05 0000 		.long	.LVL82-.Ltext0
 1428 0353 DC05 0000 		.long	.LVL92-.Ltext0
 1429 0357 0100      		.word	0x1
 1430 0359 5C        		.byte	0x5c
 1431 035a 0000 0000 		.long	0x0
 1432 035e 0000 0000 		.long	0x0
 1433               	.LLST31:
 1434 0362 4605 0000 		.long	.LVL81-.Ltext0
 1435 0366 C405 0000 		.long	.LVL87-.Ltext0
 1436 036a 0100      		.word	0x1
 1437 036c 6B        		.byte	0x6b
 1438 036d 0000 0000 		.long	0x0
 1439 0371 0000 0000 		.long	0x0
 1440               	.LLST32:
 1441 0375 5605 0000 		.long	.LVL83-.Ltext0
 1442 0379 DA05 0000 		.long	.LVL91-.Ltext0
 1443 037d 0100      		.word	0x1
 1444 037f 5D        		.byte	0x5d
 1445 0380 0000 0000 		.long	0x0
 1446 0384 0000 0000 		.long	0x0
 1447               	.LLST33:
 1448 0388 6E05 0000 		.long	.LVL84-.Ltext0
 1449 038c B405 0000 		.long	.LVL86-.Ltext0
 1450 0390 0100      		.word	0x1
 1451 0392 69        		.byte	0x69
 1452 0393 0000 0000 		.long	0x0
 1453 0397 0000 0000 		.long	0x0
 1454               		.section	.debug_info
 1455 0000 7A03 0000 		.long	0x37a
 1456 0004 0200      		.word	0x2
 1457 0006 0000 0000 		.long	.Ldebug_abbrev0
 1458 000a 04        		.byte	0x4
 1459 000b 01        		.uleb128 0x1
 1460 000c 0000 0000 		.long	.LASF31
 1461 0010 01        		.byte	0x1
 1462 0011 0000 0000 		.long	.LASF32
 1463 0015 0000 0000 		.long	.LASF33
 1464 0019 0000 0000 		.long	.Ltext0
 1465 001d 0000 0000 		.long	.Letext0
 1466 0021 0000 0000 		.long	.Ldebug_line0
 1467 0025 02        		.uleb128 0x2
 1468 0026 01        		.byte	0x1
 1469 0027 06        		.byte	0x6
 1470 0028 0000 0000 		.long	.LASF0
 1471 002c 03        		.uleb128 0x3
 1472 002d 0000 0000 		.long	.LASF2
 1473 0031 02        		.byte	0x2
 1474 0032 7A        		.byte	0x7a
 1475 0033 3700 0000 		.long	0x37
 1476 0037 02        		.uleb128 0x2
 1477 0038 01        		.byte	0x1
 1478 0039 08        		.byte	0x8
 1479 003a 0000 0000 		.long	.LASF1
 1480 003e 03        		.uleb128 0x3
GAS LISTING C:\Users\alex\AppData\Local\Temp/ccvhsmF1.s 			page 27


 1481 003f 0000 0000 		.long	.LASF3
 1482 0043 02        		.byte	0x2
 1483 0044 7B        		.byte	0x7b
 1484 0045 4900 0000 		.long	0x49
 1485 0049 04        		.uleb128 0x4
 1486 004a 02        		.byte	0x2
 1487 004b 05        		.byte	0x5
 1488 004c 696E 7400 		.string	"int"
 1489 0050 02        		.uleb128 0x2
 1490 0051 02        		.byte	0x2
 1491 0052 07        		.byte	0x7
 1492 0053 0000 0000 		.long	.LASF4
 1493 0057 02        		.uleb128 0x2
 1494 0058 04        		.byte	0x4
 1495 0059 05        		.byte	0x5
 1496 005a 0000 0000 		.long	.LASF5
 1497 005e 02        		.uleb128 0x2
 1498 005f 04        		.byte	0x4
 1499 0060 07        		.byte	0x7
 1500 0061 0000 0000 		.long	.LASF6
 1501 0065 02        		.uleb128 0x2
 1502 0066 08        		.byte	0x8
 1503 0067 05        		.byte	0x5
 1504 0068 0000 0000 		.long	.LASF7
 1505 006c 02        		.uleb128 0x2
 1506 006d 08        		.byte	0x8
 1507 006e 07        		.byte	0x7
 1508 006f 0000 0000 		.long	.LASF8
 1509 0073 05        		.uleb128 0x5
 1510 0074 01        		.byte	0x1
 1511 0075 08        		.byte	0x8
 1512 0076 06        		.uleb128 0x6
 1513 0077 01        		.byte	0x1
 1514 0078 0000 0000 		.long	.LASF15
 1515 007c 01        		.byte	0x1
 1516 007d 22        		.byte	0x22
 1517 007e 01        		.byte	0x1
 1518 007f 0000 0000 		.long	.LFB2
 1519 0083 0000 0000 		.long	.LFE2
 1520 0087 02        		.byte	0x2
 1521 0088 90        		.byte	0x90
 1522 0089 20        		.uleb128 0x20
 1523 008a 1301 0000 		.long	0x113
 1524 008e 07        		.uleb128 0x7
 1525 008f 0000 0000 		.long	.LASF9
 1526 0093 01        		.byte	0x1
 1527 0094 20        		.byte	0x20
 1528 0095 2C00 0000 		.long	0x2c
 1529 0099 0000 0000 		.long	.LLST1
 1530 009d 08        		.uleb128 0x8
 1531 009e 6373 00   		.string	"cs"
 1532 00a1 01        		.byte	0x1
 1533 00a2 20        		.byte	0x20
 1534 00a3 2C00 0000 		.long	0x2c
 1535 00a7 0000 0000 		.long	.LLST2
 1536 00ab 08        		.uleb128 0x8
 1537 00ac 636C 6B00 		.string	"clk"
GAS LISTING C:\Users\alex\AppData\Local\Temp/ccvhsmF1.s 			page 28


 1538 00b0 01        		.byte	0x1
 1539 00b1 20        		.byte	0x20
 1540 00b2 2C00 0000 		.long	0x2c
 1541 00b6 0000 0000 		.long	.LLST3
 1542 00ba 07        		.uleb128 0x7
 1543 00bb 0000 0000 		.long	.LASF10
 1544 00bf 01        		.byte	0x1
 1545 00c0 20        		.byte	0x20
 1546 00c1 2C00 0000 		.long	0x2c
 1547 00c5 0000 0000 		.long	.LLST4
 1548 00c9 07        		.uleb128 0x7
 1549 00ca 0000 0000 		.long	.LASF11
 1550 00ce 01        		.byte	0x1
 1551 00cf 20        		.byte	0x20
 1552 00d0 2C00 0000 		.long	0x2c
 1553 00d4 0000 0000 		.long	.LLST5
 1554 00d8 09        		.uleb128 0x9
 1555 00d9 0000 0000 		.long	.LASF12
 1556 00dd 01        		.byte	0x1
 1557 00de 23        		.byte	0x23
 1558 00df 2C00 0000 		.long	0x2c
 1559 00e3 0000 0000 		.long	.LLST6
 1560 00e7 0A        		.uleb128 0xa
 1561 00e8 6263 7300 		.string	"bcs"
 1562 00ec 01        		.byte	0x1
 1563 00ed 23        		.byte	0x23
 1564 00ee 2C00 0000 		.long	0x2c
 1565 00f2 0000 0000 		.long	.LLST7
 1566 00f6 09        		.uleb128 0x9
 1567 00f7 0000 0000 		.long	.LASF13
 1568 00fb 01        		.byte	0x1
 1569 00fc 23        		.byte	0x23
 1570 00fd 2C00 0000 		.long	0x2c
 1571 0101 0000 0000 		.long	.LLST8
 1572 0105 0B        		.uleb128 0xb
 1573 0106 0000 0000 		.long	.LASF14
 1574 010a 01        		.byte	0x1
 1575 010b 23        		.byte	0x23
 1576 010c 2C00 0000 		.long	0x2c
 1577 0110 01        		.byte	0x1
 1578 0111 67        		.byte	0x67
 1579 0112 00        		.byte	0x0
 1580 0113 06        		.uleb128 0x6
 1581 0114 01        		.byte	0x1
 1582 0115 0000 0000 		.long	.LASF16
 1583 0119 01        		.byte	0x1
 1584 011a 52        		.byte	0x52
 1585 011b 01        		.byte	0x1
 1586 011c 0000 0000 		.long	.LFB3
 1587 0120 0000 0000 		.long	.LFE3
 1588 0124 02        		.byte	0x2
 1589 0125 90        		.byte	0x90
 1590 0126 20        		.uleb128 0x20
 1591 0127 7201 0000 		.long	0x172
 1592 012b 07        		.uleb128 0x7
 1593 012c 0000 0000 		.long	.LASF9
 1594 0130 01        		.byte	0x1
GAS LISTING C:\Users\alex\AppData\Local\Temp/ccvhsmF1.s 			page 29


 1595 0131 50        		.byte	0x50
 1596 0132 2C00 0000 		.long	0x2c
 1597 0136 0000 0000 		.long	.LLST10
 1598 013a 08        		.uleb128 0x8
 1599 013b 6373 00   		.string	"cs"
 1600 013e 01        		.byte	0x1
 1601 013f 50        		.byte	0x50
 1602 0140 2C00 0000 		.long	0x2c
 1603 0144 0000 0000 		.long	.LLST11
 1604 0148 07        		.uleb128 0x7
 1605 0149 0000 0000 		.long	.LASF11
 1606 014d 01        		.byte	0x1
 1607 014e 50        		.byte	0x50
 1608 014f 2C00 0000 		.long	0x2c
 1609 0153 0000 0000 		.long	.LLST12
 1610 0157 0C        		.uleb128 0xc
 1611 0158 6263 7300 		.string	"bcs"
 1612 015c 01        		.byte	0x1
 1613 015d 53        		.byte	0x53
 1614 015e 2C00 0000 		.long	0x2c
 1615 0162 01        		.byte	0x1
 1616 0163 65        		.byte	0x65
 1617 0164 0B        		.uleb128 0xb
 1618 0165 0000 0000 		.long	.LASF14
 1619 0169 01        		.byte	0x1
 1620 016a 53        		.byte	0x53
 1621 016b 2C00 0000 		.long	0x2c
 1622 016f 01        		.byte	0x1
 1623 0170 63        		.byte	0x63
 1624 0171 00        		.byte	0x0
 1625 0172 06        		.uleb128 0x6
 1626 0173 01        		.byte	0x1
 1627 0174 0000 0000 		.long	.LASF17
 1628 0178 01        		.byte	0x1
 1629 0179 A5        		.byte	0xa5
 1630 017a 01        		.byte	0x1
 1631 017b 0000 0000 		.long	.LFB5
 1632 017f 0000 0000 		.long	.LFE5
 1633 0183 02        		.byte	0x2
 1634 0184 90        		.byte	0x90
 1635 0185 20        		.uleb128 0x20
 1636 0186 F401 0000 		.long	0x1f4
 1637 018a 07        		.uleb128 0x7
 1638 018b 0000 0000 		.long	.LASF9
 1639 018f 01        		.byte	0x1
 1640 0190 A2        		.byte	0xa2
 1641 0191 2C00 0000 		.long	0x2c
 1642 0195 0000 0000 		.long	.LLST14
 1643 0199 07        		.uleb128 0x7
 1644 019a 0000 0000 		.long	.LASF18
 1645 019e 01        		.byte	0x1
 1646 019f A2        		.byte	0xa2
 1647 01a0 3E00 0000 		.long	0x3e
 1648 01a4 0000 0000 		.long	.LLST15
 1649 01a8 08        		.uleb128 0x8
 1650 01a9 6461 6300 		.string	"dac"
 1651 01ad 01        		.byte	0x1
GAS LISTING C:\Users\alex\AppData\Local\Temp/ccvhsmF1.s 			page 30


 1652 01ae A2        		.byte	0xa2
 1653 01af 2C00 0000 		.long	0x2c
 1654 01b3 0000 0000 		.long	.LLST16
 1655 01b7 0A        		.uleb128 0xa
 1656 01b8 7063 7300 		.string	"pcs"
 1657 01bc 01        		.byte	0x1
 1658 01bd A6        		.byte	0xa6
 1659 01be F401 0000 		.long	0x1f4
 1660 01c2 0000 0000 		.long	.LLST17
 1661 01c6 09        		.uleb128 0x9
 1662 01c7 0000 0000 		.long	.LASF19
 1663 01cb 01        		.byte	0x1
 1664 01cc A6        		.byte	0xa6
 1665 01cd F401 0000 		.long	0x1f4
 1666 01d1 0000 0000 		.long	.LLST18
 1667 01d5 0A        		.uleb128 0xa
 1668 01d6 6263 7300 		.string	"bcs"
 1669 01da 01        		.byte	0x1
 1670 01db A7        		.byte	0xa7
 1671 01dc 2C00 0000 		.long	0x2c
 1672 01e0 0000 0000 		.long	.LLST19
 1673 01e4 09        		.uleb128 0x9
 1674 01e5 0000 0000 		.long	.LASF14
 1675 01e9 01        		.byte	0x1
 1676 01ea A7        		.byte	0xa7
 1677 01eb 2C00 0000 		.long	0x2c
 1678 01ef 0000 0000 		.long	.LLST20
 1679 01f3 00        		.byte	0x0
 1680 01f4 0D        		.uleb128 0xd
 1681 01f5 02        		.byte	0x2
 1682 01f6 FA01 0000 		.long	0x1fa
 1683 01fa 0E        		.uleb128 0xe
 1684 01fb 2C00 0000 		.long	0x2c
 1685 01ff 06        		.uleb128 0x6
 1686 0200 01        		.byte	0x1
 1687 0201 0000 0000 		.long	.LASF20
 1688 0205 01        		.byte	0x1
 1689 0206 73        		.byte	0x73
 1690 0207 01        		.byte	0x1
 1691 0208 0000 0000 		.long	.LFB4
 1692 020c 0000 0000 		.long	.LFE4
 1693 0210 02        		.byte	0x2
 1694 0211 90        		.byte	0x90
 1695 0212 20        		.uleb128 0x20
 1696 0213 CA02 0000 		.long	0x2ca
 1697 0217 07        		.uleb128 0x7
 1698 0218 0000 0000 		.long	.LASF9
 1699 021c 01        		.byte	0x1
 1700 021d 70        		.byte	0x70
 1701 021e 2C00 0000 		.long	0x2c
 1702 0222 0000 0000 		.long	.LLST22
 1703 0226 07        		.uleb128 0x7
 1704 0227 0000 0000 		.long	.LASF18
 1705 022b 01        		.byte	0x1
 1706 022c 70        		.byte	0x70
 1707 022d 3E00 0000 		.long	0x3e
 1708 0231 0000 0000 		.long	.LLST23
GAS LISTING C:\Users\alex\AppData\Local\Temp/ccvhsmF1.s 			page 31


 1709 0235 08        		.uleb128 0x8
 1710 0236 6461 6300 		.string	"dac"
 1711 023a 01        		.byte	0x1
 1712 023b 70        		.byte	0x70
 1713 023c 2C00 0000 		.long	0x2c
 1714 0240 0000 0000 		.long	.LLST24
 1715 0244 09        		.uleb128 0x9
 1716 0245 0000 0000 		.long	.LASF21
 1717 0249 01        		.byte	0x1
 1718 024a 74        		.byte	0x74
 1719 024b F401 0000 		.long	0x1f4
 1720 024f 0000 0000 		.long	.LLST25
 1721 0253 0A        		.uleb128 0xa
 1722 0254 7063 7300 		.string	"pcs"
 1723 0258 01        		.byte	0x1
 1724 0259 74        		.byte	0x74
 1725 025a F401 0000 		.long	0x1f4
 1726 025e 0000 0000 		.long	.LLST26
 1727 0262 09        		.uleb128 0x9
 1728 0263 0000 0000 		.long	.LASF22
 1729 0267 01        		.byte	0x1
 1730 0268 74        		.byte	0x74
 1731 0269 F401 0000 		.long	0x1f4
 1732 026d 0000 0000 		.long	.LLST27
 1733 0271 09        		.uleb128 0x9
 1734 0272 0000 0000 		.long	.LASF19
 1735 0276 01        		.byte	0x1
 1736 0277 74        		.byte	0x74
 1737 0278 F401 0000 		.long	0x1f4
 1738 027c 0000 0000 		.long	.LLST28
 1739 0280 09        		.uleb128 0x9
 1740 0281 0000 0000 		.long	.LASF12
 1741 0285 01        		.byte	0x1
 1742 0286 75        		.byte	0x75
 1743 0287 2C00 0000 		.long	0x2c
 1744 028b 0000 0000 		.long	.LLST29
 1745 028f 0A        		.uleb128 0xa
 1746 0290 6263 7300 		.string	"bcs"
 1747 0294 01        		.byte	0x1
 1748 0295 75        		.byte	0x75
 1749 0296 2C00 0000 		.long	0x2c
 1750 029a 0000 0000 		.long	.LLST30
 1751 029e 09        		.uleb128 0x9
 1752 029f 0000 0000 		.long	.LASF13
 1753 02a3 01        		.byte	0x1
 1754 02a4 75        		.byte	0x75
 1755 02a5 2C00 0000 		.long	0x2c
 1756 02a9 0000 0000 		.long	.LLST31
 1757 02ad 09        		.uleb128 0x9
 1758 02ae 0000 0000 		.long	.LASF14
 1759 02b2 01        		.byte	0x1
 1760 02b3 75        		.byte	0x75
 1761 02b4 2C00 0000 		.long	0x2c
 1762 02b8 0000 0000 		.long	.LLST32
 1763 02bc 0A        		.uleb128 0xa
 1764 02bd 6900      		.string	"i"
 1765 02bf 01        		.byte	0x1
GAS LISTING C:\Users\alex\AppData\Local\Temp/ccvhsmF1.s 			page 32


 1766 02c0 76        		.byte	0x76
 1767 02c1 2C00 0000 		.long	0x2c
 1768 02c5 0000 0000 		.long	.LLST33
 1769 02c9 00        		.byte	0x0
 1770 02ca 0F        		.uleb128 0xf
 1771 02cb F401 0000 		.long	0x1f4
 1772 02cf DA02 0000 		.long	0x2da
 1773 02d3 10        		.uleb128 0x10
 1774 02d4 DA02 0000 		.long	0x2da
 1775 02d8 03        		.byte	0x3
 1776 02d9 00        		.byte	0x0
 1777 02da 05        		.uleb128 0x5
 1778 02db 02        		.byte	0x2
 1779 02dc 07        		.byte	0x7
 1780 02dd 11        		.uleb128 0x11
 1781 02de 0000 0000 		.long	.LASF23
 1782 02e2 01        		.byte	0x1
 1783 02e3 10        		.byte	0x10
 1784 02e4 CA02 0000 		.long	0x2ca
 1785 02e8 01        		.byte	0x1
 1786 02e9 05        		.byte	0x5
 1787 02ea 03        		.byte	0x3
 1788 02eb 0000 0000 		.long	p_cs
 1789 02ef 11        		.uleb128 0x11
 1790 02f0 0000 0000 		.long	.LASF24
 1791 02f4 01        		.byte	0x1
 1792 02f5 11        		.byte	0x11
 1793 02f6 CA02 0000 		.long	0x2ca
 1794 02fa 01        		.byte	0x1
 1795 02fb 05        		.byte	0x5
 1796 02fc 03        		.byte	0x3
 1797 02fd 0000 0000 		.long	p_data
 1798 0301 11        		.uleb128 0x11
 1799 0302 0000 0000 		.long	.LASF25
 1800 0306 01        		.byte	0x1
 1801 0307 12        		.byte	0x12
 1802 0308 CA02 0000 		.long	0x2ca
 1803 030c 01        		.byte	0x1
 1804 030d 05        		.byte	0x5
 1805 030e 03        		.byte	0x3
 1806 030f 0000 0000 		.long	p_clk
 1807 0313 11        		.uleb128 0x11
 1808 0314 0000 0000 		.long	.LASF26
 1809 0318 01        		.byte	0x1
 1810 0319 13        		.byte	0x13
 1811 031a CA02 0000 		.long	0x2ca
 1812 031e 01        		.byte	0x1
 1813 031f 05        		.byte	0x5
 1814 0320 03        		.byte	0x3
 1815 0321 0000 0000 		.long	p_ldac
 1816 0325 0F        		.uleb128 0xf
 1817 0326 2C00 0000 		.long	0x2c
 1818 032a 3503 0000 		.long	0x335
 1819 032e 10        		.uleb128 0x10
 1820 032f DA02 0000 		.long	0x2da
 1821 0333 03        		.byte	0x3
 1822 0334 00        		.byte	0x0
GAS LISTING C:\Users\alex\AppData\Local\Temp/ccvhsmF1.s 			page 33


 1823 0335 11        		.uleb128 0x11
 1824 0336 0000 0000 		.long	.LASF27
 1825 033a 01        		.byte	0x1
 1826 033b 15        		.byte	0x15
 1827 033c 2503 0000 		.long	0x325
 1828 0340 01        		.byte	0x1
 1829 0341 05        		.byte	0x5
 1830 0342 03        		.byte	0x3
 1831 0343 0000 0000 		.long	b_cs
 1832 0347 11        		.uleb128 0x11
 1833 0348 0000 0000 		.long	.LASF28
 1834 034c 01        		.byte	0x1
 1835 034d 16        		.byte	0x16
 1836 034e 2503 0000 		.long	0x325
 1837 0352 01        		.byte	0x1
 1838 0353 05        		.byte	0x5
 1839 0354 03        		.byte	0x3
 1840 0355 0000 0000 		.long	b_data
 1841 0359 11        		.uleb128 0x11
 1842 035a 0000 0000 		.long	.LASF29
 1843 035e 01        		.byte	0x1
 1844 035f 17        		.byte	0x17
 1845 0360 2503 0000 		.long	0x325
 1846 0364 01        		.byte	0x1
 1847 0365 05        		.byte	0x5
 1848 0366 03        		.byte	0x3
 1849 0367 0000 0000 		.long	b_clk
 1850 036b 11        		.uleb128 0x11
 1851 036c 0000 0000 		.long	.LASF30
 1852 0370 01        		.byte	0x1
 1853 0371 18        		.byte	0x18
 1854 0372 2503 0000 		.long	0x325
 1855 0376 01        		.byte	0x1
 1856 0377 05        		.byte	0x5
 1857 0378 03        		.byte	0x3
 1858 0379 0000 0000 		.long	b_ldac
 1859 037d 00        		.byte	0x0
 1860               		.section	.debug_abbrev
 1861 0000 01        		.uleb128 0x1
 1862 0001 11        		.uleb128 0x11
 1863 0002 01        		.byte	0x1
 1864 0003 25        		.uleb128 0x25
 1865 0004 0E        		.uleb128 0xe
 1866 0005 13        		.uleb128 0x13
 1867 0006 0B        		.uleb128 0xb
 1868 0007 03        		.uleb128 0x3
 1869 0008 0E        		.uleb128 0xe
 1870 0009 1B        		.uleb128 0x1b
 1871 000a 0E        		.uleb128 0xe
 1872 000b 11        		.uleb128 0x11
 1873 000c 01        		.uleb128 0x1
 1874 000d 12        		.uleb128 0x12
 1875 000e 01        		.uleb128 0x1
 1876 000f 10        		.uleb128 0x10
 1877 0010 06        		.uleb128 0x6
 1878 0011 00        		.byte	0x0
 1879 0012 00        		.byte	0x0
GAS LISTING C:\Users\alex\AppData\Local\Temp/ccvhsmF1.s 			page 34


 1880 0013 02        		.uleb128 0x2
 1881 0014 24        		.uleb128 0x24
 1882 0015 00        		.byte	0x0
 1883 0016 0B        		.uleb128 0xb
 1884 0017 0B        		.uleb128 0xb
 1885 0018 3E        		.uleb128 0x3e
 1886 0019 0B        		.uleb128 0xb
 1887 001a 03        		.uleb128 0x3
 1888 001b 0E        		.uleb128 0xe
 1889 001c 00        		.byte	0x0
 1890 001d 00        		.byte	0x0
 1891 001e 03        		.uleb128 0x3
 1892 001f 16        		.uleb128 0x16
 1893 0020 00        		.byte	0x0
 1894 0021 03        		.uleb128 0x3
 1895 0022 0E        		.uleb128 0xe
 1896 0023 3A        		.uleb128 0x3a
 1897 0024 0B        		.uleb128 0xb
 1898 0025 3B        		.uleb128 0x3b
 1899 0026 0B        		.uleb128 0xb
 1900 0027 49        		.uleb128 0x49
 1901 0028 13        		.uleb128 0x13
 1902 0029 00        		.byte	0x0
 1903 002a 00        		.byte	0x0
 1904 002b 04        		.uleb128 0x4
 1905 002c 24        		.uleb128 0x24
 1906 002d 00        		.byte	0x0
 1907 002e 0B        		.uleb128 0xb
 1908 002f 0B        		.uleb128 0xb
 1909 0030 3E        		.uleb128 0x3e
 1910 0031 0B        		.uleb128 0xb
 1911 0032 03        		.uleb128 0x3
 1912 0033 08        		.uleb128 0x8
 1913 0034 00        		.byte	0x0
 1914 0035 00        		.byte	0x0
 1915 0036 05        		.uleb128 0x5
 1916 0037 24        		.uleb128 0x24
 1917 0038 00        		.byte	0x0
 1918 0039 0B        		.uleb128 0xb
 1919 003a 0B        		.uleb128 0xb
 1920 003b 3E        		.uleb128 0x3e
 1921 003c 0B        		.uleb128 0xb
 1922 003d 00        		.byte	0x0
 1923 003e 00        		.byte	0x0
 1924 003f 06        		.uleb128 0x6
 1925 0040 2E        		.uleb128 0x2e
 1926 0041 01        		.byte	0x1
 1927 0042 3F        		.uleb128 0x3f
 1928 0043 0C        		.uleb128 0xc
 1929 0044 03        		.uleb128 0x3
 1930 0045 0E        		.uleb128 0xe
 1931 0046 3A        		.uleb128 0x3a
 1932 0047 0B        		.uleb128 0xb
 1933 0048 3B        		.uleb128 0x3b
 1934 0049 0B        		.uleb128 0xb
 1935 004a 27        		.uleb128 0x27
 1936 004b 0C        		.uleb128 0xc
GAS LISTING C:\Users\alex\AppData\Local\Temp/ccvhsmF1.s 			page 35


 1937 004c 11        		.uleb128 0x11
 1938 004d 01        		.uleb128 0x1
 1939 004e 12        		.uleb128 0x12
 1940 004f 01        		.uleb128 0x1
 1941 0050 40        		.uleb128 0x40
 1942 0051 0A        		.uleb128 0xa
 1943 0052 01        		.uleb128 0x1
 1944 0053 13        		.uleb128 0x13
 1945 0054 00        		.byte	0x0
 1946 0055 00        		.byte	0x0
 1947 0056 07        		.uleb128 0x7
 1948 0057 05        		.uleb128 0x5
 1949 0058 00        		.byte	0x0
 1950 0059 03        		.uleb128 0x3
 1951 005a 0E        		.uleb128 0xe
 1952 005b 3A        		.uleb128 0x3a
 1953 005c 0B        		.uleb128 0xb
 1954 005d 3B        		.uleb128 0x3b
 1955 005e 0B        		.uleb128 0xb
 1956 005f 49        		.uleb128 0x49
 1957 0060 13        		.uleb128 0x13
 1958 0061 02        		.uleb128 0x2
 1959 0062 06        		.uleb128 0x6
 1960 0063 00        		.byte	0x0
 1961 0064 00        		.byte	0x0
 1962 0065 08        		.uleb128 0x8
 1963 0066 05        		.uleb128 0x5
 1964 0067 00        		.byte	0x0
 1965 0068 03        		.uleb128 0x3
 1966 0069 08        		.uleb128 0x8
 1967 006a 3A        		.uleb128 0x3a
 1968 006b 0B        		.uleb128 0xb
 1969 006c 3B        		.uleb128 0x3b
 1970 006d 0B        		.uleb128 0xb
 1971 006e 49        		.uleb128 0x49
 1972 006f 13        		.uleb128 0x13
 1973 0070 02        		.uleb128 0x2
 1974 0071 06        		.uleb128 0x6
 1975 0072 00        		.byte	0x0
 1976 0073 00        		.byte	0x0
 1977 0074 09        		.uleb128 0x9
 1978 0075 34        		.uleb128 0x34
 1979 0076 00        		.byte	0x0
 1980 0077 03        		.uleb128 0x3
 1981 0078 0E        		.uleb128 0xe
 1982 0079 3A        		.uleb128 0x3a
 1983 007a 0B        		.uleb128 0xb
 1984 007b 3B        		.uleb128 0x3b
 1985 007c 0B        		.uleb128 0xb
 1986 007d 49        		.uleb128 0x49
 1987 007e 13        		.uleb128 0x13
 1988 007f 02        		.uleb128 0x2
 1989 0080 06        		.uleb128 0x6
 1990 0081 00        		.byte	0x0
 1991 0082 00        		.byte	0x0
 1992 0083 0A        		.uleb128 0xa
 1993 0084 34        		.uleb128 0x34
GAS LISTING C:\Users\alex\AppData\Local\Temp/ccvhsmF1.s 			page 36


 1994 0085 00        		.byte	0x0
 1995 0086 03        		.uleb128 0x3
 1996 0087 08        		.uleb128 0x8
 1997 0088 3A        		.uleb128 0x3a
 1998 0089 0B        		.uleb128 0xb
 1999 008a 3B        		.uleb128 0x3b
 2000 008b 0B        		.uleb128 0xb
 2001 008c 49        		.uleb128 0x49
 2002 008d 13        		.uleb128 0x13
 2003 008e 02        		.uleb128 0x2
 2004 008f 06        		.uleb128 0x6
 2005 0090 00        		.byte	0x0
 2006 0091 00        		.byte	0x0
 2007 0092 0B        		.uleb128 0xb
 2008 0093 34        		.uleb128 0x34
 2009 0094 00        		.byte	0x0
 2010 0095 03        		.uleb128 0x3
 2011 0096 0E        		.uleb128 0xe
 2012 0097 3A        		.uleb128 0x3a
 2013 0098 0B        		.uleb128 0xb
 2014 0099 3B        		.uleb128 0x3b
 2015 009a 0B        		.uleb128 0xb
 2016 009b 49        		.uleb128 0x49
 2017 009c 13        		.uleb128 0x13
 2018 009d 02        		.uleb128 0x2
 2019 009e 0A        		.uleb128 0xa
 2020 009f 00        		.byte	0x0
 2021 00a0 00        		.byte	0x0
 2022 00a1 0C        		.uleb128 0xc
 2023 00a2 34        		.uleb128 0x34
 2024 00a3 00        		.byte	0x0
 2025 00a4 03        		.uleb128 0x3
 2026 00a5 08        		.uleb128 0x8
 2027 00a6 3A        		.uleb128 0x3a
 2028 00a7 0B        		.uleb128 0xb
 2029 00a8 3B        		.uleb128 0x3b
 2030 00a9 0B        		.uleb128 0xb
 2031 00aa 49        		.uleb128 0x49
 2032 00ab 13        		.uleb128 0x13
 2033 00ac 02        		.uleb128 0x2
 2034 00ad 0A        		.uleb128 0xa
 2035 00ae 00        		.byte	0x0
 2036 00af 00        		.byte	0x0
 2037 00b0 0D        		.uleb128 0xd
 2038 00b1 0F        		.uleb128 0xf
 2039 00b2 00        		.byte	0x0
 2040 00b3 0B        		.uleb128 0xb
 2041 00b4 0B        		.uleb128 0xb
 2042 00b5 49        		.uleb128 0x49
 2043 00b6 13        		.uleb128 0x13
 2044 00b7 00        		.byte	0x0
 2045 00b8 00        		.byte	0x0
 2046 00b9 0E        		.uleb128 0xe
 2047 00ba 35        		.uleb128 0x35
 2048 00bb 00        		.byte	0x0
 2049 00bc 49        		.uleb128 0x49
 2050 00bd 13        		.uleb128 0x13
GAS LISTING C:\Users\alex\AppData\Local\Temp/ccvhsmF1.s 			page 37


 2051 00be 00        		.byte	0x0
 2052 00bf 00        		.byte	0x0
 2053 00c0 0F        		.uleb128 0xf
 2054 00c1 01        		.uleb128 0x1
 2055 00c2 01        		.byte	0x1
 2056 00c3 49        		.uleb128 0x49
 2057 00c4 13        		.uleb128 0x13
 2058 00c5 01        		.uleb128 0x1
 2059 00c6 13        		.uleb128 0x13
 2060 00c7 00        		.byte	0x0
 2061 00c8 00        		.byte	0x0
 2062 00c9 10        		.uleb128 0x10
 2063 00ca 21        		.uleb128 0x21
 2064 00cb 00        		.byte	0x0
 2065 00cc 49        		.uleb128 0x49
 2066 00cd 13        		.uleb128 0x13
 2067 00ce 2F        		.uleb128 0x2f
 2068 00cf 0B        		.uleb128 0xb
 2069 00d0 00        		.byte	0x0
 2070 00d1 00        		.byte	0x0
 2071 00d2 11        		.uleb128 0x11
 2072 00d3 34        		.uleb128 0x34
 2073 00d4 00        		.byte	0x0
 2074 00d5 03        		.uleb128 0x3
 2075 00d6 0E        		.uleb128 0xe
 2076 00d7 3A        		.uleb128 0x3a
 2077 00d8 0B        		.uleb128 0xb
 2078 00d9 3B        		.uleb128 0x3b
 2079 00da 0B        		.uleb128 0xb
 2080 00db 49        		.uleb128 0x49
 2081 00dc 13        		.uleb128 0x13
 2082 00dd 3F        		.uleb128 0x3f
 2083 00de 0C        		.uleb128 0xc
 2084 00df 02        		.uleb128 0x2
 2085 00e0 0A        		.uleb128 0xa
 2086 00e1 00        		.byte	0x0
 2087 00e2 00        		.byte	0x0
 2088 00e3 00        		.byte	0x0
 2089               		.section	.debug_pubnames,"",@progbits
 2090 0000 A800 0000 		.long	0xa8
 2091 0004 0200      		.word	0x2
 2092 0006 0000 0000 		.long	.Ldebug_info0
 2093 000a 7E03 0000 		.long	0x37e
 2094 000e 7600 0000 		.long	0x76
 2095 0012 696E 6974 		.string	"init_mcp4922"
 2095      5F6D 6370 
 2095      3439 3232 
 2095      00
 2096 001f 1301 0000 		.long	0x113
 2097 0023 696E 6974 		.string	"init_mcp4922_spi"
 2097      5F6D 6370 
 2097      3439 3232 
 2097      5F73 7069 
 2097      00
 2098 0034 7201 0000 		.long	0x172
 2099 0038 6D63 7034 		.string	"mcp4922_spiw"
 2099      3932 325F 
GAS LISTING C:\Users\alex\AppData\Local\Temp/ccvhsmF1.s 			page 38


 2099      7370 6977 
 2099      00
 2100 0045 FF01 0000 		.long	0x1ff
 2101 0049 6D63 7034 		.string	"mcp4922_putw"
 2101      3932 325F 
 2101      7075 7477 
 2101      00
 2102 0056 DD02 0000 		.long	0x2dd
 2103 005a 705F 6373 		.string	"p_cs"
 2103      00
 2104 005f EF02 0000 		.long	0x2ef
 2105 0063 705F 6461 		.string	"p_data"
 2105      7461 00
 2106 006a 0103 0000 		.long	0x301
 2107 006e 705F 636C 		.string	"p_clk"
 2107      6B00 
 2108 0074 1303 0000 		.long	0x313
 2109 0078 705F 6C64 		.string	"p_ldac"
 2109      6163 00
 2110 007f 3503 0000 		.long	0x335
 2111 0083 625F 6373 		.string	"b_cs"
 2111      00
 2112 0088 4703 0000 		.long	0x347
 2113 008c 625F 6461 		.string	"b_data"
 2113      7461 00
 2114 0093 5903 0000 		.long	0x359
 2115 0097 625F 636C 		.string	"b_clk"
 2115      6B00 
 2116 009d 6B03 0000 		.long	0x36b
 2117 00a1 625F 6C64 		.string	"b_ldac"
 2117      6163 00
 2118 00a8 0000 0000 		.long	0x0
 2119               		.section	.debug_aranges,"",@progbits
 2120 0000 1C00 0000 		.long	0x1c
 2121 0004 0200      		.word	0x2
 2122 0006 0000 0000 		.long	.Ldebug_info0
 2123 000a 04        		.byte	0x4
 2124 000b 00        		.byte	0x0
 2125 000c 0000      		.word	0x0
 2126 000e 0000      		.word	0x0
 2127 0010 0000 0000 		.long	.Ltext0
 2128 0014 DE05 0000 		.long	.Letext0-.Ltext0
 2129 0018 0000 0000 		.long	0x0
 2130 001c 0000 0000 		.long	0x0
 2131               		.section	.debug_line
 2132 0000 8103 0000 		.long	.LELT0-.LSLT0
 2133               	.LSLT0:
 2134 0004 0200      		.word	0x2
 2135 0006 5600 0000 		.long	.LELTP0-.LASLTP0
 2136               	.LASLTP0:
 2137 000a 01        		.byte	0x1
 2138 000b 01        		.byte	0x1
 2139 000c F6        		.byte	0xf6
 2140 000d F5        		.byte	0xf5
 2141 000e 0A        		.byte	0xa
 2142 000f 00        		.byte	0x0
 2143 0010 01        		.byte	0x1
GAS LISTING C:\Users\alex\AppData\Local\Temp/ccvhsmF1.s 			page 39


 2144 0011 01        		.byte	0x1
 2145 0012 01        		.byte	0x1
 2146 0013 01        		.byte	0x1
 2147 0014 00        		.byte	0x0
 2148 0015 00        		.byte	0x0
 2149 0016 00        		.byte	0x0
 2150 0017 01        		.byte	0x1
 2151 0018 643A 2F77 		.ascii	"d:/winavr-20100110/lib/gcc/../../avr/include"
 2151      696E 6176 
 2151      722D 3230 
 2151      3130 3031 
 2151      3130 2F6C 
 2152 0044 00        		.byte	0
 2153 0045 00        		.byte	0x0
 2154 0046 6D63 7034 		.string	"mcp4922.c"
 2154      3932 322E 
 2154      6300 
 2155 0050 00        		.uleb128 0x0
 2156 0051 00        		.uleb128 0x0
 2157 0052 00        		.uleb128 0x0
 2158 0053 7374 6469 		.string	"stdint.h"
 2158      6E74 2E68 
 2158      00
 2159 005c 01        		.uleb128 0x1
 2160 005d 00        		.uleb128 0x0
 2161 005e 00        		.uleb128 0x0
 2162 005f 00        		.byte	0x0
 2163               	.LELTP0:
 2164 0060 00        		.byte	0x0
 2165 0061 05        		.uleb128 0x5
 2166 0062 02        		.byte	0x2
 2167 0063 0000 0000 		.long	.LM1
 2168 0067 35        		.byte	0x35
 2169 0068 00        		.byte	0x0
 2170 0069 05        		.uleb128 0x5
 2171 006a 02        		.byte	0x2
 2172 006b 0000 0000 		.long	.LM2
 2173 006f 18        		.byte	0x18
 2174 0070 00        		.byte	0x0
 2175 0071 05        		.uleb128 0x5
 2176 0072 02        		.byte	0x2
 2177 0073 0000 0000 		.long	.LM3
 2178 0077 15        		.byte	0x15
 2179 0078 00        		.byte	0x0
 2180 0079 05        		.uleb128 0x5
 2181 007a 02        		.byte	0x2
 2182 007b 0000 0000 		.long	.LM4
 2183 007f 15        		.byte	0x15
 2184 0080 00        		.byte	0x0
 2185 0081 05        		.uleb128 0x5
 2186 0082 02        		.byte	0x2
 2187 0083 0000 0000 		.long	.LM5
 2188 0087 15        		.byte	0x15
 2189 0088 00        		.byte	0x0
 2190 0089 05        		.uleb128 0x5
 2191 008a 02        		.byte	0x2
 2192 008b 0000 0000 		.long	.LM6
GAS LISTING C:\Users\alex\AppData\Local\Temp/ccvhsmF1.s 			page 40


 2193 008f 15        		.byte	0x15
 2194 0090 00        		.byte	0x0
 2195 0091 05        		.uleb128 0x5
 2196 0092 02        		.byte	0x2
 2197 0093 0000 0000 		.long	.LM7
 2198 0097 15        		.byte	0x15
 2199 0098 00        		.byte	0x0
 2200 0099 05        		.uleb128 0x5
 2201 009a 02        		.byte	0x2
 2202 009b 0000 0000 		.long	.LM8
 2203 009f 16        		.byte	0x16
 2204 00a0 00        		.byte	0x0
 2205 00a1 05        		.uleb128 0x5
 2206 00a2 02        		.byte	0x2
 2207 00a3 0000 0000 		.long	.LM9
 2208 00a7 15        		.byte	0x15
 2209 00a8 00        		.byte	0x0
 2210 00a9 05        		.uleb128 0x5
 2211 00aa 02        		.byte	0x2
 2212 00ab 0000 0000 		.long	.LM10
 2213 00af 17        		.byte	0x17
 2214 00b0 00        		.byte	0x0
 2215 00b1 05        		.uleb128 0x5
 2216 00b2 02        		.byte	0x2
 2217 00b3 0000 0000 		.long	.LM11
 2218 00b7 15        		.byte	0x15
 2219 00b8 00        		.byte	0x0
 2220 00b9 05        		.uleb128 0x5
 2221 00ba 02        		.byte	0x2
 2222 00bb 0000 0000 		.long	.LM12
 2223 00bf 15        		.byte	0x15
 2224 00c0 00        		.byte	0x0
 2225 00c1 05        		.uleb128 0x5
 2226 00c2 02        		.byte	0x2
 2227 00c3 0000 0000 		.long	.LM13
 2228 00c7 15        		.byte	0x15
 2229 00c8 00        		.byte	0x0
 2230 00c9 05        		.uleb128 0x5
 2231 00ca 02        		.byte	0x2
 2232 00cb 0000 0000 		.long	.LM14
 2233 00cf 15        		.byte	0x15
 2234 00d0 00        		.byte	0x0
 2235 00d1 05        		.uleb128 0x5
 2236 00d2 02        		.byte	0x2
 2237 00d3 0000 0000 		.long	.LM15
 2238 00d7 16        		.byte	0x16
 2239 00d8 00        		.byte	0x0
 2240 00d9 05        		.uleb128 0x5
 2241 00da 02        		.byte	0x2
 2242 00db 0000 0000 		.long	.LM16
 2243 00df 15        		.byte	0x15
 2244 00e0 00        		.byte	0x0
 2245 00e1 05        		.uleb128 0x5
 2246 00e2 02        		.byte	0x2
 2247 00e3 0000 0000 		.long	.LM17
 2248 00e7 15        		.byte	0x15
 2249 00e8 00        		.byte	0x0
GAS LISTING C:\Users\alex\AppData\Local\Temp/ccvhsmF1.s 			page 41


 2250 00e9 05        		.uleb128 0x5
 2251 00ea 02        		.byte	0x2
 2252 00eb 0000 0000 		.long	.LM18
 2253 00ef 15        		.byte	0x15
 2254 00f0 00        		.byte	0x0
 2255 00f1 05        		.uleb128 0x5
 2256 00f2 02        		.byte	0x2
 2257 00f3 0000 0000 		.long	.LM19
 2258 00f7 15        		.byte	0x15
 2259 00f8 00        		.byte	0x0
 2260 00f9 05        		.uleb128 0x5
 2261 00fa 02        		.byte	0x2
 2262 00fb 0000 0000 		.long	.LM20
 2263 00ff 17        		.byte	0x17
 2264 0100 00        		.byte	0x0
 2265 0101 05        		.uleb128 0x5
 2266 0102 02        		.byte	0x2
 2267 0103 0000 0000 		.long	.LM21
 2268 0107 15        		.byte	0x15
 2269 0108 00        		.byte	0x0
 2270 0109 05        		.uleb128 0x5
 2271 010a 02        		.byte	0x2
 2272 010b 0000 0000 		.long	.LM22
 2273 010f 15        		.byte	0x15
 2274 0110 00        		.byte	0x0
 2275 0111 05        		.uleb128 0x5
 2276 0112 02        		.byte	0x2
 2277 0113 0000 0000 		.long	.LM23
 2278 0117 15        		.byte	0x15
 2279 0118 00        		.byte	0x0
 2280 0119 05        		.uleb128 0x5
 2281 011a 02        		.byte	0x2
 2282 011b 0000 0000 		.long	.LM24
 2283 011f 15        		.byte	0x15
 2284 0120 00        		.byte	0x0
 2285 0121 05        		.uleb128 0x5
 2286 0122 02        		.byte	0x2
 2287 0123 0000 0000 		.long	.LM25
 2288 0127 17        		.byte	0x17
 2289 0128 00        		.byte	0x0
 2290 0129 05        		.uleb128 0x5
 2291 012a 02        		.byte	0x2
 2292 012b 0000 0000 		.long	.LM26
 2293 012f 15        		.byte	0x15
 2294 0130 00        		.byte	0x0
 2295 0131 05        		.uleb128 0x5
 2296 0132 02        		.byte	0x2
 2297 0133 0000 0000 		.long	.LM27
 2298 0137 15        		.byte	0x15
 2299 0138 00        		.byte	0x0
 2300 0139 05        		.uleb128 0x5
 2301 013a 02        		.byte	0x2
 2302 013b 0000 0000 		.long	.LM28
 2303 013f 15        		.byte	0x15
 2304 0140 00        		.byte	0x0
 2305 0141 05        		.uleb128 0x5
 2306 0142 02        		.byte	0x2
GAS LISTING C:\Users\alex\AppData\Local\Temp/ccvhsmF1.s 			page 42


 2307 0143 0000 0000 		.long	.LM29
 2308 0147 15        		.byte	0x15
 2309 0148 00        		.byte	0x0
 2310 0149 05        		.uleb128 0x5
 2311 014a 02        		.byte	0x2
 2312 014b 0000 0000 		.long	.LM30
 2313 014f 16        		.byte	0x16
 2314 0150 00        		.byte	0x0
 2315 0151 05        		.uleb128 0x5
 2316 0152 02        		.byte	0x2
 2317 0153 0000 0000 		.long	.LM31
 2318 0157 15        		.byte	0x15
 2319 0158 00        		.byte	0x0
 2320 0159 05        		.uleb128 0x5
 2321 015a 02        		.byte	0x2
 2322 015b 0000 0000 		.long	.LM32
 2323 015f 15        		.byte	0x15
 2324 0160 00        		.byte	0x0
 2325 0161 05        		.uleb128 0x5
 2326 0162 02        		.byte	0x2
 2327 0163 0000 0000 		.long	.LM33
 2328 0167 15        		.byte	0x15
 2329 0168 00        		.byte	0x0
 2330 0169 05        		.uleb128 0x5
 2331 016a 02        		.byte	0x2
 2332 016b 0000 0000 		.long	.LM34
 2333 016f 18        		.byte	0x18
 2334 0170 00        		.byte	0x0
 2335 0171 05        		.uleb128 0x5
 2336 0172 02        		.byte	0x2
 2337 0173 0000 0000 		.long	.LM35
 2338 0177 17        		.byte	0x17
 2339 0178 00        		.byte	0x0
 2340 0179 05        		.uleb128 0x5
 2341 017a 02        		.byte	0x2
 2342 017b 0000 0000 		.long	.LM36
 2343 017f 15        		.byte	0x15
 2344 0180 00        		.byte	0x0
 2345 0181 05        		.uleb128 0x5
 2346 0182 02        		.byte	0x2
 2347 0183 0000 0000 		.long	.LM37
 2348 0187 15        		.byte	0x15
 2349 0188 00        		.byte	0x0
 2350 0189 05        		.uleb128 0x5
 2351 018a 02        		.byte	0x2
 2352 018b 0000 0000 		.long	.LM38
 2353 018f 15        		.byte	0x15
 2354 0190 00        		.byte	0x0
 2355 0191 05        		.uleb128 0x5
 2356 0192 02        		.byte	0x2
 2357 0193 0000 0000 		.long	.LM39
 2358 0197 16        		.byte	0x16
 2359 0198 00        		.byte	0x0
 2360 0199 05        		.uleb128 0x5
 2361 019a 02        		.byte	0x2
 2362 019b 0000 0000 		.long	.LM40
 2363 019f 16        		.byte	0x16
GAS LISTING C:\Users\alex\AppData\Local\Temp/ccvhsmF1.s 			page 43


 2364 01a0 00        		.byte	0x0
 2365 01a1 05        		.uleb128 0x5
 2366 01a2 02        		.byte	0x2
 2367 01a3 0000 0000 		.long	.LM41
 2368 01a7 15        		.byte	0x15
 2369 01a8 00        		.byte	0x0
 2370 01a9 05        		.uleb128 0x5
 2371 01aa 02        		.byte	0x2
 2372 01ab 0000 0000 		.long	.LM42
 2373 01af 15        		.byte	0x15
 2374 01b0 00        		.byte	0x0
 2375 01b1 05        		.uleb128 0x5
 2376 01b2 02        		.byte	0x2
 2377 01b3 0000 0000 		.long	.LM43
 2378 01b7 15        		.byte	0x15
 2379 01b8 00        		.byte	0x0
 2380 01b9 05        		.uleb128 0x5
 2381 01ba 02        		.byte	0x2
 2382 01bb 0000 0000 		.long	.LM44
 2383 01bf 17        		.byte	0x17
 2384 01c0 00        		.byte	0x0
 2385 01c1 05        		.uleb128 0x5
 2386 01c2 02        		.byte	0x2
 2387 01c3 0000 0000 		.long	.LM45
 2388 01c7 15        		.byte	0x15
 2389 01c8 00        		.byte	0x0
 2390 01c9 05        		.uleb128 0x5
 2391 01ca 02        		.byte	0x2
 2392 01cb 0000 0000 		.long	.LM46
 2393 01cf 15        		.byte	0x15
 2394 01d0 00        		.byte	0x0
 2395 01d1 05        		.uleb128 0x5
 2396 01d2 02        		.byte	0x2
 2397 01d3 0000 0000 		.long	.LM47
 2398 01d7 15        		.byte	0x15
 2399 01d8 00        		.byte	0x0
 2400 01d9 05        		.uleb128 0x5
 2401 01da 02        		.byte	0x2
 2402 01db 0000 0000 		.long	.LM48
 2403 01df 15        		.byte	0x15
 2404 01e0 00        		.byte	0x0
 2405 01e1 05        		.uleb128 0x5
 2406 01e2 02        		.byte	0x2
 2407 01e3 0000 0000 		.long	.LM49
 2408 01e7 16        		.byte	0x16
 2409 01e8 00        		.byte	0x0
 2410 01e9 05        		.uleb128 0x5
 2411 01ea 02        		.byte	0x2
 2412 01eb 0000 0000 		.long	.LM50
 2413 01ef 15        		.byte	0x15
 2414 01f0 00        		.byte	0x0
 2415 01f1 05        		.uleb128 0x5
 2416 01f2 02        		.byte	0x2
 2417 01f3 0000 0000 		.long	.LM51
 2418 01f7 16        		.byte	0x16
 2419 01f8 00        		.byte	0x0
 2420 01f9 05        		.uleb128 0x5
GAS LISTING C:\Users\alex\AppData\Local\Temp/ccvhsmF1.s 			page 44


 2421 01fa 02        		.byte	0x2
 2422 01fb 0000 0000 		.long	.LM52
 2423 01ff 15        		.byte	0x15
 2424 0200 00        		.byte	0x0
 2425 0201 05        		.uleb128 0x5
 2426 0202 02        		.byte	0x2
 2427 0203 0000 0000 		.long	.LM53
 2428 0207 15        		.byte	0x15
 2429 0208 00        		.byte	0x0
 2430 0209 05        		.uleb128 0x5
 2431 020a 02        		.byte	0x2
 2432 020b 0000 0000 		.long	.LM54
 2433 020f 4C        		.byte	0x4c
 2434 0210 00        		.byte	0x0
 2435 0211 05        		.uleb128 0x5
 2436 0212 02        		.byte	0x2
 2437 0213 0000 0000 		.long	.LM55
 2438 0217 18        		.byte	0x18
 2439 0218 00        		.byte	0x0
 2440 0219 05        		.uleb128 0x5
 2441 021a 02        		.byte	0x2
 2442 021b 0000 0000 		.long	.LM56
 2443 021f 15        		.byte	0x15
 2444 0220 00        		.byte	0x0
 2445 0221 05        		.uleb128 0x5
 2446 0222 02        		.byte	0x2
 2447 0223 0000 0000 		.long	.LM57
 2448 0227 15        		.byte	0x15
 2449 0228 00        		.byte	0x0
 2450 0229 05        		.uleb128 0x5
 2451 022a 02        		.byte	0x2
 2452 022b 0000 0000 		.long	.LM58
 2453 022f 17        		.byte	0x17
 2454 0230 00        		.byte	0x0
 2455 0231 05        		.uleb128 0x5
 2456 0232 02        		.byte	0x2
 2457 0233 0000 0000 		.long	.LM59
 2458 0237 15        		.byte	0x15
 2459 0238 00        		.byte	0x0
 2460 0239 05        		.uleb128 0x5
 2461 023a 02        		.byte	0x2
 2462 023b 0000 0000 		.long	.LM60
 2463 023f 16        		.byte	0x16
 2464 0240 00        		.byte	0x0
 2465 0241 05        		.uleb128 0x5
 2466 0242 02        		.byte	0x2
 2467 0243 0000 0000 		.long	.LM61
 2468 0247 15        		.byte	0x15
 2469 0248 00        		.byte	0x0
 2470 0249 05        		.uleb128 0x5
 2471 024a 02        		.byte	0x2
 2472 024b 0000 0000 		.long	.LM62
 2473 024f 16        		.byte	0x16
 2474 0250 00        		.byte	0x0
 2475 0251 05        		.uleb128 0x5
 2476 0252 02        		.byte	0x2
 2477 0253 0000 0000 		.long	.LM63
GAS LISTING C:\Users\alex\AppData\Local\Temp/ccvhsmF1.s 			page 45


 2478 0257 16        		.byte	0x16
 2479 0258 00        		.byte	0x0
 2480 0259 05        		.uleb128 0x5
 2481 025a 02        		.byte	0x2
 2482 025b 0000 0000 		.long	.LM64
 2483 025f 19        		.byte	0x19
 2484 0260 00        		.byte	0x0
 2485 0261 05        		.uleb128 0x5
 2486 0262 02        		.byte	0x2
 2487 0263 0000 0000 		.long	.LM65
 2488 0267 15        		.byte	0x15
 2489 0268 00        		.byte	0x0
 2490 0269 05        		.uleb128 0x5
 2491 026a 02        		.byte	0x2
 2492 026b 0000 0000 		.long	.LM66
 2493 026f 15        		.byte	0x15
 2494 0270 00        		.byte	0x0
 2495 0271 05        		.uleb128 0x5
 2496 0272 02        		.byte	0x2
 2497 0273 0000 0000 		.long	.LM67
 2498 0277 15        		.byte	0x15
 2499 0278 00        		.byte	0x0
 2500 0279 05        		.uleb128 0x5
 2501 027a 02        		.byte	0x2
 2502 027b 0000 0000 		.long	.LM68
 2503 027f 1A        		.byte	0x1a
 2504 0280 00        		.byte	0x0
 2505 0281 05        		.uleb128 0x5
 2506 0282 02        		.byte	0x2
 2507 0283 0000 0000 		.long	.LM69
 2508 0287 15        		.byte	0x15
 2509 0288 00        		.byte	0x0
 2510 0289 05        		.uleb128 0x5
 2511 028a 02        		.byte	0x2
 2512 028b 0000 0000 		.long	.LM70
 2513 028f 15        		.byte	0x15
 2514 0290 00        		.byte	0x0
 2515 0291 05        		.uleb128 0x5
 2516 0292 02        		.byte	0x2
 2517 0293 0000 0000 		.long	.LM71
 2518 0297 15        		.byte	0x15
 2519 0298 00        		.byte	0x0
 2520 0299 05        		.uleb128 0x5
 2521 029a 02        		.byte	0x2
 2522 029b 0000 0000 		.long	.LM72
 2523 029f 17        		.byte	0x17
 2524 02a0 00        		.byte	0x0
 2525 02a1 05        		.uleb128 0x5
 2526 02a2 02        		.byte	0x2
 2527 02a3 0000 0000 		.long	.LM73
 2528 02a7 03        		.byte	0x3
 2529 02a8 A97F      		.sleb128 -87
 2530 02aa 01        		.byte	0x1
 2531 02ab 00        		.byte	0x0
 2532 02ac 05        		.uleb128 0x5
 2533 02ad 02        		.byte	0x2
 2534 02ae 0000 0000 		.long	.LM74
GAS LISTING C:\Users\alex\AppData\Local\Temp/ccvhsmF1.s 			page 46


 2535 02b2 1A        		.byte	0x1a
 2536 02b3 00        		.byte	0x0
 2537 02b4 05        		.uleb128 0x5
 2538 02b5 02        		.byte	0x2
 2539 02b6 0000 0000 		.long	.LM75
 2540 02ba 15        		.byte	0x15
 2541 02bb 00        		.byte	0x0
 2542 02bc 05        		.uleb128 0x5
 2543 02bd 02        		.byte	0x2
 2544 02be 0000 0000 		.long	.LM76
 2545 02c2 15        		.byte	0x15
 2546 02c3 00        		.byte	0x0
 2547 02c4 05        		.uleb128 0x5
 2548 02c5 02        		.byte	0x2
 2549 02c6 0000 0000 		.long	.LM77
 2550 02ca 17        		.byte	0x17
 2551 02cb 00        		.byte	0x0
 2552 02cc 05        		.uleb128 0x5
 2553 02cd 02        		.byte	0x2
 2554 02ce 0000 0000 		.long	.LM78
 2555 02d2 15        		.byte	0x15
 2556 02d3 00        		.byte	0x0
 2557 02d4 05        		.uleb128 0x5
 2558 02d5 02        		.byte	0x2
 2559 02d6 0000 0000 		.long	.LM79
 2560 02da 15        		.byte	0x15
 2561 02db 00        		.byte	0x0
 2562 02dc 05        		.uleb128 0x5
 2563 02dd 02        		.byte	0x2
 2564 02de 0000 0000 		.long	.LM80
 2565 02e2 15        		.byte	0x15
 2566 02e3 00        		.byte	0x0
 2567 02e4 05        		.uleb128 0x5
 2568 02e5 02        		.byte	0x2
 2569 02e6 0000 0000 		.long	.LM81
 2570 02ea 16        		.byte	0x16
 2571 02eb 00        		.byte	0x0
 2572 02ec 05        		.uleb128 0x5
 2573 02ed 02        		.byte	0x2
 2574 02ee 0000 0000 		.long	.LM82
 2575 02f2 15        		.byte	0x15
 2576 02f3 00        		.byte	0x0
 2577 02f4 05        		.uleb128 0x5
 2578 02f5 02        		.byte	0x2
 2579 02f6 0000 0000 		.long	.LM83
 2580 02fa 15        		.byte	0x15
 2581 02fb 00        		.byte	0x0
 2582 02fc 05        		.uleb128 0x5
 2583 02fd 02        		.byte	0x2
 2584 02fe 0000 0000 		.long	.LM84
 2585 0302 15        		.byte	0x15
 2586 0303 00        		.byte	0x0
 2587 0304 05        		.uleb128 0x5
 2588 0305 02        		.byte	0x2
 2589 0306 0000 0000 		.long	.LM85
 2590 030a 16        		.byte	0x16
 2591 030b 00        		.byte	0x0
GAS LISTING C:\Users\alex\AppData\Local\Temp/ccvhsmF1.s 			page 47


 2592 030c 05        		.uleb128 0x5
 2593 030d 02        		.byte	0x2
 2594 030e 0000 0000 		.long	.LM86
 2595 0312 15        		.byte	0x15
 2596 0313 00        		.byte	0x0
 2597 0314 05        		.uleb128 0x5
 2598 0315 02        		.byte	0x2
 2599 0316 0000 0000 		.long	.LM87
 2600 031a 19        		.byte	0x19
 2601 031b 00        		.byte	0x0
 2602 031c 05        		.uleb128 0x5
 2603 031d 02        		.byte	0x2
 2604 031e 0000 0000 		.long	.LM88
 2605 0322 15        		.byte	0x15
 2606 0323 00        		.byte	0x0
 2607 0324 05        		.uleb128 0x5
 2608 0325 02        		.byte	0x2
 2609 0326 0000 0000 		.long	.LM89
 2610 032a 15        		.byte	0x15
 2611 032b 00        		.byte	0x0
 2612 032c 05        		.uleb128 0x5
 2613 032d 02        		.byte	0x2
 2614 032e 0000 0000 		.long	.LM90
 2615 0332 17        		.byte	0x17
 2616 0333 00        		.byte	0x0
 2617 0334 05        		.uleb128 0x5
 2618 0335 02        		.byte	0x2
 2619 0336 0000 0000 		.long	.LM91
 2620 033a 16        		.byte	0x16
 2621 033b 00        		.byte	0x0
 2622 033c 05        		.uleb128 0x5
 2623 033d 02        		.byte	0x2
 2624 033e 0000 0000 		.long	.LM92
 2625 0342 0B        		.byte	0xb
 2626 0343 00        		.byte	0x0
 2627 0344 05        		.uleb128 0x5
 2628 0345 02        		.byte	0x2
 2629 0346 0000 0000 		.long	.LM93
 2630 034a 1E        		.byte	0x1e
 2631 034b 00        		.byte	0x0
 2632 034c 05        		.uleb128 0x5
 2633 034d 02        		.byte	0x2
 2634 034e 0000 0000 		.long	.LM94
 2635 0352 16        		.byte	0x16
 2636 0353 00        		.byte	0x0
 2637 0354 05        		.uleb128 0x5
 2638 0355 02        		.byte	0x2
 2639 0356 0000 0000 		.long	.LM95
 2640 035a 15        		.byte	0x15
 2641 035b 00        		.byte	0x0
 2642 035c 05        		.uleb128 0x5
 2643 035d 02        		.byte	0x2
 2644 035e 0000 0000 		.long	.LM96
 2645 0362 15        		.byte	0x15
 2646 0363 00        		.byte	0x0
 2647 0364 05        		.uleb128 0x5
 2648 0365 02        		.byte	0x2
GAS LISTING C:\Users\alex\AppData\Local\Temp/ccvhsmF1.s 			page 48


 2649 0366 0000 0000 		.long	.LM97
 2650 036a 15        		.byte	0x15
 2651 036b 00        		.byte	0x0
 2652 036c 05        		.uleb128 0x5
 2653 036d 02        		.byte	0x2
 2654 036e 0000 0000 		.long	.LM98
 2655 0372 15        		.byte	0x15
 2656 0373 00        		.byte	0x0
 2657 0374 05        		.uleb128 0x5
 2658 0375 02        		.byte	0x2
 2659 0376 0000 0000 		.long	.LM99
 2660 037a 15        		.byte	0x15
 2661 037b 00        		.byte	0x0
 2662 037c 05        		.uleb128 0x5
 2663 037d 02        		.byte	0x2
 2664 037e 0000 0000 		.long	.Letext0
 2665 0382 00        		.byte	0x0
 2666 0383 01        		.uleb128 0x1
 2667 0384 01        		.byte	0x1
 2668               	.LELT0:
 2669 0385 1600 0000 		.section	.debug_str,"MS",@progbits,1
 2669      0200 1000 
 2669      0000 0101 
 2669      FB0E 0A00 
 2669      0101 0101 
 2670               	.LASF15:
 2671 0000 696E 6974 		.string	"init_mcp4922"
 2671      5F6D 6370 
 2671      3439 3232 
 2671      00
 2672               	.LASF22:
 2673 000d 7064 6174 		.string	"pdata"
 2673      6100 
 2674               	.LASF29:
 2675 0013 625F 636C 		.string	"b_clk"
 2675      6B00 
 2676               	.LASF28:
 2677 0019 625F 6461 		.string	"b_data"
 2677      7461 00
 2678               	.LASF18:
 2679 0020 776F 7264 		.string	"word"
 2679      00
 2680               	.LASF26:
 2681 0025 705F 6C64 		.string	"p_ldac"
 2681      6163 00
 2682               	.LASF10:
 2683 002c 6461 7461 		.string	"data"
 2683      00
 2684               	.LASF8:
 2685 0031 6C6F 6E67 		.string	"long long unsigned int"
 2685      206C 6F6E 
 2685      6720 756E 
 2685      7369 676E 
 2685      6564 2069 
 2686               	.LASF1:
 2687 0048 756E 7369 		.string	"unsigned char"
 2687      676E 6564 
GAS LISTING C:\Users\alex\AppData\Local\Temp/ccvhsmF1.s 			page 49


 2687      2063 6861 
 2687      7200 
 2688               	.LASF11:
 2689 0056 6C64 6163 		.string	"ldac"
 2689      00
 2690               	.LASF27:
 2691 005b 625F 6373 		.string	"b_cs"
 2691      00
 2692               	.LASF14:
 2693 0060 626C 6461 		.string	"bldac"
 2693      6300 
 2694               	.LASF6:
 2695 0066 6C6F 6E67 		.string	"long unsigned int"
 2695      2075 6E73 
 2695      6967 6E65 
 2695      6420 696E 
 2695      7400 
 2696               	.LASF21:
 2697 0078 7063 6C6B 		.string	"pclk"
 2697      00
 2698               	.LASF31:
 2699 007d 474E 5520 		.string	"GNU C 4.3.3"
 2699      4320 342E 
 2699      332E 3300 
 2700               	.LASF12:
 2701 0089 6263 6C6B 		.string	"bclk"
 2701      00
 2702               	.LASF16:
 2703 008e 696E 6974 		.string	"init_mcp4922_spi"
 2703      5F6D 6370 
 2703      3439 3232 
 2703      5F73 7069 
 2703      00
 2704               	.LASF17:
 2705 009f 6D63 7034 		.string	"mcp4922_spiw"
 2705      3932 325F 
 2705      7370 6977 
 2705      00
 2706               	.LASF25:
 2707 00ac 705F 636C 		.string	"p_clk"
 2707      6B00 
 2708               	.LASF24:
 2709 00b2 705F 6461 		.string	"p_data"
 2709      7461 00
 2710               	.LASF4:
 2711 00b9 756E 7369 		.string	"unsigned int"
 2711      676E 6564 
 2711      2069 6E74 
 2711      00
 2712               	.LASF32:
 2713 00c6 6D63 7034 		.string	"mcp4922.c"
 2713      3932 322E 
 2713      6300 
 2714               	.LASF2:
 2715 00d0 7569 6E74 		.string	"uint8_t"
 2715      385F 7400 
 2716               	.LASF13:
GAS LISTING C:\Users\alex\AppData\Local\Temp/ccvhsmF1.s 			page 50


 2717 00d8 6264 6174 		.string	"bdata"
 2717      6100 
 2718               	.LASF3:
 2719 00de 696E 7431 		.string	"int16_t"
 2719      365F 7400 
 2720               	.LASF23:
 2721 00e6 705F 6373 		.string	"p_cs"
 2721      00
 2722               	.LASF7:
 2723 00eb 6C6F 6E67 		.string	"long long int"
 2723      206C 6F6E 
 2723      6720 696E 
 2723      7400 
 2724               	.LASF33:
 2725 00f9 453A 5C61 		.string	"E:\\avr\\adc_dac_uc2"
 2725      7672 5C61 
 2725      6463 5F64 
 2725      6163 5F75 
 2725      6332 00
 2726               	.LASF19:
 2727 010c 706C 6461 		.string	"pldac"
 2727      6300 
 2728               	.LASF9:
 2729 0112 6368 6970 		.string	"chip"
 2729      00
 2730               	.LASF20:
 2731 0117 6D63 7034 		.string	"mcp4922_putw"
 2731      3932 325F 
 2731      7075 7477 
 2731      00
 2732               	.LASF30:
 2733 0124 625F 6C64 		.string	"b_ldac"
 2733      6163 00
 2734               	.LASF5:
 2735 012b 6C6F 6E67 		.string	"long int"
 2735      2069 6E74 
 2735      00
 2736               	.LASF0:
 2737 0134 7369 676E 		.string	"signed char"
 2737      6564 2063 
 2737      6861 7200 
 2738               	.global __do_copy_data
 2739               	.global __do_clear_bss
GAS LISTING C:\Users\alex\AppData\Local\Temp/ccvhsmF1.s 			page 51


DEFINED SYMBOLS
                            *ABS*:00000000 mcp4922.c
C:\Users\alex\AppData\Local\Temp/ccvhsmF1.s:2      *ABS*:0000003f __SREG__
C:\Users\alex\AppData\Local\Temp/ccvhsmF1.s:3      *ABS*:0000003e __SP_H__
C:\Users\alex\AppData\Local\Temp/ccvhsmF1.s:4      *ABS*:0000003d __SP_L__
C:\Users\alex\AppData\Local\Temp/ccvhsmF1.s:5      *ABS*:00000034 __CCP__
C:\Users\alex\AppData\Local\Temp/ccvhsmF1.s:6      *ABS*:00000000 __tmp_reg__
C:\Users\alex\AppData\Local\Temp/ccvhsmF1.s:7      *ABS*:00000001 __zero_reg__
C:\Users\alex\AppData\Local\Temp/ccvhsmF1.s:18     .text:00000000 init_mcp4922
                            *COM*:00000004 b_clk
                            *COM*:00000004 b_data
                            *COM*:00000004 b_cs
                            *COM*:00000004 b_ldac
                            *COM*:00000008 p_clk
                            *COM*:00000008 p_data
                            *COM*:00000008 p_cs
                            *COM*:00000008 p_ldac
C:\Users\alex\AppData\Local\Temp/ccvhsmF1.s:453    .text:000002b0 init_mcp4922_spi
C:\Users\alex\AppData\Local\Temp/ccvhsmF1.s:700    .text:0000041a mcp4922_spiw
C:\Users\alex\AppData\Local\Temp/ccvhsmF1.s:844    .text:000004e2 mcp4922_putw

UNDEFINED SYMBOLS
uart_printf
udelay
__do_copy_data
__do_clear_bss
